
file.elf:     file format elf64-littleriscv


Disassembly of section .text:

00000000000100b0 <register_fini>:
   100b0:	000007b7          	lui	a5,0x0
   100b4:	00078793          	mv	a5,a5
   100b8:	c799                	beqz	a5,100c6 <register_fini+0x16>
   100ba:	00011537          	lui	a0,0x11
   100be:	85450513          	addi	a0,a0,-1964 # 10854 <__libc_fini_array>
   100c2:	16e0006f          	j	10230 <atexit>
   100c6:	8082                	ret

00000000000100c8 <_start>:
   100c8:	0000f197          	auipc	gp,0xf
   100cc:	ec818193          	addi	gp,gp,-312 # 1ef90 <__global_pointer$>
   100d0:	77018513          	addi	a0,gp,1904 # 1f700 <_edata>
   100d4:	0000f617          	auipc	a2,0xf
   100d8:	6bc60613          	addi	a2,a2,1724 # 1f790 <__BSS_END__>
   100dc:	8e09                	sub	a2,a2,a0
   100de:	4581                	li	a1,0
   100e0:	5f5010ef          	jal	ra,11ed4 <memset>
   100e4:	00000517          	auipc	a0,0x0
   100e8:	77050513          	addi	a0,a0,1904 # 10854 <__libc_fini_array>
   100ec:	144000ef          	jal	ra,10230 <atexit>
   100f0:	3ae010ef          	jal	ra,1149e <__libc_init_array>
   100f4:	4502                	lw	a0,0(sp)
   100f6:	002c                	addi	a1,sp,8
   100f8:	4601                	li	a2,0
   100fa:	0b4000ef          	jal	ra,101ae <main>
   100fe:	13e0006f          	j	1023c <exit>

0000000000010102 <_fini>:
   10102:	8082                	ret

0000000000010104 <deregister_tm_clones>:
   10104:	71818713          	addi	a4,gp,1816 # 1f6a8 <__SDATA_BEGIN__>
   10108:	71818793          	addi	a5,gp,1816 # 1f6a8 <__SDATA_BEGIN__>
   1010c:	00e78b63          	beq	a5,a4,10122 <deregister_tm_clones+0x1e>
   10110:	00000337          	lui	t1,0x0
   10114:	00030313          	mv	t1,t1
   10118:	00030563          	beqz	t1,10122 <deregister_tm_clones+0x1e>
   1011c:	71818513          	addi	a0,gp,1816 # 1f6a8 <__SDATA_BEGIN__>
   10120:	8302                	jr	t1
   10122:	8082                	ret

0000000000010124 <register_tm_clones>:
   10124:	71818593          	addi	a1,gp,1816 # 1f6a8 <__SDATA_BEGIN__>
   10128:	71818793          	addi	a5,gp,1816 # 1f6a8 <__SDATA_BEGIN__>
   1012c:	8d9d                	sub	a1,a1,a5
   1012e:	858d                	srai	a1,a1,0x3
   10130:	4789                	li	a5,2
   10132:	02f5c5b3          	div	a1,a1,a5
   10136:	c991                	beqz	a1,1014a <register_tm_clones+0x26>
   10138:	00000337          	lui	t1,0x0
   1013c:	00030313          	mv	t1,t1
   10140:	00030563          	beqz	t1,1014a <register_tm_clones+0x26>
   10144:	71818513          	addi	a0,gp,1816 # 1f6a8 <__SDATA_BEGIN__>
   10148:	8302                	jr	t1
   1014a:	8082                	ret

000000000001014c <__do_global_dtors_aux>:
   1014c:	7981c703          	lbu	a4,1944(gp) # 1f728 <completed.5466>
   10150:	eb15                	bnez	a4,10184 <__do_global_dtors_aux+0x38>
   10152:	1141                	addi	sp,sp,-16
   10154:	e022                	sd	s0,0(sp)
   10156:	e406                	sd	ra,8(sp)
   10158:	843e                	mv	s0,a5
   1015a:	fabff0ef          	jal	ra,10104 <deregister_tm_clones>
   1015e:	000007b7          	lui	a5,0x0
   10162:	00078793          	mv	a5,a5
   10166:	cb81                	beqz	a5,10176 <__do_global_dtors_aux+0x2a>
   10168:	6579                	lui	a0,0x1e
   1016a:	58850513          	addi	a0,a0,1416 # 1e588 <__FRAME_END__>
   1016e:	00000097          	auipc	ra,0x0
   10172:	000000e7          	jalr	zero # 0 <register_fini-0x100b0>
   10176:	4785                	li	a5,1
   10178:	78f18c23          	sb	a5,1944(gp) # 1f728 <completed.5466>
   1017c:	60a2                	ld	ra,8(sp)
   1017e:	6402                	ld	s0,0(sp)
   10180:	0141                	addi	sp,sp,16
   10182:	8082                	ret
   10184:	8082                	ret

0000000000010186 <frame_dummy>:
   10186:	000007b7          	lui	a5,0x0
   1018a:	00078793          	mv	a5,a5
   1018e:	cf91                	beqz	a5,101aa <frame_dummy+0x24>
   10190:	6579                	lui	a0,0x1e
   10192:	1141                	addi	sp,sp,-16
   10194:	7a018593          	addi	a1,gp,1952 # 1f730 <object.5471>
   10198:	58850513          	addi	a0,a0,1416 # 1e588 <__FRAME_END__>
   1019c:	e406                	sd	ra,8(sp)
   1019e:	00000097          	auipc	ra,0x0
   101a2:	000000e7          	jalr	zero # 0 <register_fini-0x100b0>
   101a6:	60a2                	ld	ra,8(sp)
   101a8:	0141                	addi	sp,sp,16
   101aa:	f7bff06f          	j	10124 <register_tm_clones>

00000000000101ae <main>:
   101ae:	7175                	addi	sp,sp,-144
   101b0:	e506                	sd	ra,136(sp)
   101b2:	e122                	sd	s0,128(sp)
   101b4:	0900                	addi	s0,sp,144
   101b6:	67f5                	lui	a5,0x1d
   101b8:	86078593          	addi	a1,a5,-1952 # 1c860 <__clzdi2+0x32>
   101bc:	67f5                	lui	a5,0x1d
   101be:	86878513          	addi	a0,a5,-1944 # 1c868 <__clzdi2+0x3a>
   101c2:	784000ef          	jal	ra,10946 <fopen>
   101c6:	fea43423          	sd	a0,-24(s0)
   101ca:	67f5                	lui	a5,0x1d
   101cc:	87078593          	addi	a1,a5,-1936 # 1c870 <__clzdi2+0x42>
   101d0:	67f5                	lui	a5,0x1d
   101d2:	87878513          	addi	a0,a5,-1928 # 1c878 <__clzdi2+0x4a>
   101d6:	770000ef          	jal	ra,10946 <fopen>
   101da:	fea43023          	sd	a0,-32(s0)
   101de:	a005                	j	101fe <main+0x50>
   101e0:	f7840793          	addi	a5,s0,-136
   101e4:	85be                	mv	a1,a5
   101e6:	67f5                	lui	a5,0x1d
   101e8:	88078513          	addi	a0,a5,-1920 # 1c880 <__clzdi2+0x52>
   101ec:	5fb010ef          	jal	ra,11fe6 <printf>
   101f0:	f7840793          	addi	a5,s0,-136
   101f4:	fe043583          	ld	a1,-32(s0)
   101f8:	853e                	mv	a0,a5
   101fa:	7bc000ef          	jal	ra,109b6 <fputs>
   101fe:	f7840793          	addi	a5,s0,-136
   10202:	fe843603          	ld	a2,-24(s0)
   10206:	06400593          	li	a1,100
   1020a:	853e                	mv	a0,a5
   1020c:	3ba000ef          	jal	ra,105c6 <fgets>
   10210:	87aa                	mv	a5,a0
   10212:	f7f9                	bnez	a5,101e0 <main+0x32>
   10214:	fe843503          	ld	a0,-24(s0)
   10218:	0f0000ef          	jal	ra,10308 <fclose>
   1021c:	fe043503          	ld	a0,-32(s0)
   10220:	0e8000ef          	jal	ra,10308 <fclose>
   10224:	4781                	li	a5,0
   10226:	853e                	mv	a0,a5
   10228:	60aa                	ld	ra,136(sp)
   1022a:	640a                	ld	s0,128(sp)
   1022c:	6149                	addi	sp,sp,144
   1022e:	8082                	ret

0000000000010230 <atexit>:
   10230:	85aa                	mv	a1,a0
   10232:	4681                	li	a3,0
   10234:	4601                	li	a2,0
   10236:	4501                	li	a0,0
   10238:	3bc0406f          	j	145f4 <__register_exitproc>

000000000001023c <exit>:
   1023c:	1141                	addi	sp,sp,-16
   1023e:	4581                	li	a1,0
   10240:	e022                	sd	s0,0(sp)
   10242:	e406                	sd	ra,8(sp)
   10244:	842a                	mv	s0,a0
   10246:	424040ef          	jal	ra,1466a <__call_exitprocs>
   1024a:	7481b503          	ld	a0,1864(gp) # 1f6d8 <_global_impure_ptr>
   1024e:	6d3c                	ld	a5,88(a0)
   10250:	c391                	beqz	a5,10254 <exit+0x18>
   10252:	9782                	jalr	a5
   10254:	8522                	mv	a0,s0
   10256:	7950a0ef          	jal	ra,1b1ea <_exit>

000000000001025a <_fclose_r>:
   1025a:	1101                	addi	sp,sp,-32
   1025c:	ec06                	sd	ra,24(sp)
   1025e:	e822                	sd	s0,16(sp)
   10260:	e426                	sd	s1,8(sp)
   10262:	e04a                	sd	s2,0(sp)
   10264:	c989                	beqz	a1,10276 <_fclose_r+0x1c>
   10266:	84aa                	mv	s1,a0
   10268:	842e                	mv	s0,a1
   1026a:	c119                	beqz	a0,10270 <_fclose_r+0x16>
   1026c:	493c                	lw	a5,80(a0)
   1026e:	cfa5                	beqz	a5,102e6 <_fclose_r+0x8c>
   10270:	01041783          	lh	a5,16(s0)
   10274:	eb89                	bnez	a5,10286 <_fclose_r+0x2c>
   10276:	60e2                	ld	ra,24(sp)
   10278:	6442                	ld	s0,16(sp)
   1027a:	4901                	li	s2,0
   1027c:	854a                	mv	a0,s2
   1027e:	64a2                	ld	s1,8(sp)
   10280:	6902                	ld	s2,0(sp)
   10282:	6105                	addi	sp,sp,32
   10284:	8082                	ret
   10286:	85a2                	mv	a1,s0
   10288:	8526                	mv	a0,s1
   1028a:	088000ef          	jal	ra,10312 <__sflush_r>
   1028e:	683c                	ld	a5,80(s0)
   10290:	892a                	mv	s2,a0
   10292:	c791                	beqz	a5,1029e <_fclose_r+0x44>
   10294:	780c                	ld	a1,48(s0)
   10296:	8526                	mv	a0,s1
   10298:	9782                	jalr	a5
   1029a:	04054c63          	bltz	a0,102f2 <_fclose_r+0x98>
   1029e:	01045783          	lhu	a5,16(s0)
   102a2:	0807f793          	andi	a5,a5,128
   102a6:	efa1                	bnez	a5,102fe <_fclose_r+0xa4>
   102a8:	6c2c                	ld	a1,88(s0)
   102aa:	c991                	beqz	a1,102be <_fclose_r+0x64>
   102ac:	07440793          	addi	a5,s0,116
   102b0:	00f58563          	beq	a1,a5,102ba <_fclose_r+0x60>
   102b4:	8526                	mv	a0,s1
   102b6:	7da000ef          	jal	ra,10a90 <_free_r>
   102ba:	04043c23          	sd	zero,88(s0)
   102be:	7c2c                	ld	a1,120(s0)
   102c0:	c591                	beqz	a1,102cc <_fclose_r+0x72>
   102c2:	8526                	mv	a0,s1
   102c4:	7cc000ef          	jal	ra,10a90 <_free_r>
   102c8:	06043c23          	sd	zero,120(s0)
   102cc:	560000ef          	jal	ra,1082c <__sfp_lock_acquire>
   102d0:	00041823          	sh	zero,16(s0)
   102d4:	55a000ef          	jal	ra,1082e <__sfp_lock_release>
   102d8:	60e2                	ld	ra,24(sp)
   102da:	6442                	ld	s0,16(sp)
   102dc:	854a                	mv	a0,s2
   102de:	64a2                	ld	s1,8(sp)
   102e0:	6902                	ld	s2,0(sp)
   102e2:	6105                	addi	sp,sp,32
   102e4:	8082                	ret
   102e6:	53c000ef          	jal	ra,10822 <__sinit>
   102ea:	01041783          	lh	a5,16(s0)
   102ee:	d7c1                	beqz	a5,10276 <_fclose_r+0x1c>
   102f0:	bf59                	j	10286 <_fclose_r+0x2c>
   102f2:	01045783          	lhu	a5,16(s0)
   102f6:	597d                	li	s2,-1
   102f8:	0807f793          	andi	a5,a5,128
   102fc:	d7d5                	beqz	a5,102a8 <_fclose_r+0x4e>
   102fe:	6c0c                	ld	a1,24(s0)
   10300:	8526                	mv	a0,s1
   10302:	78e000ef          	jal	ra,10a90 <_free_r>
   10306:	b74d                	j	102a8 <_fclose_r+0x4e>

0000000000010308 <fclose>:
   10308:	85aa                	mv	a1,a0
   1030a:	7581b503          	ld	a0,1880(gp) # 1f6e8 <_impure_ptr>
   1030e:	f4dff06f          	j	1025a <_fclose_r>

0000000000010312 <__sflush_r>:
   10312:	01059783          	lh	a5,16(a1)
   10316:	7179                	addi	sp,sp,-48
   10318:	f022                	sd	s0,32(sp)
   1031a:	03079713          	slli	a4,a5,0x30
   1031e:	9341                	srli	a4,a4,0x30
   10320:	e44e                	sd	s3,8(sp)
   10322:	f406                	sd	ra,40(sp)
   10324:	ec26                	sd	s1,24(sp)
   10326:	e84a                	sd	s2,16(sp)
   10328:	00877693          	andi	a3,a4,8
   1032c:	842e                	mv	s0,a1
   1032e:	89aa                	mv	s3,a0
   10330:	eadd                	bnez	a3,103e6 <__sflush_r+0xd4>
   10332:	6705                	lui	a4,0x1
   10334:	80070713          	addi	a4,a4,-2048 # 800 <register_fini-0xf8b0>
   10338:	4594                	lw	a3,8(a1)
   1033a:	8fd9                	or	a5,a5,a4
   1033c:	00f59823          	sh	a5,16(a1)
   10340:	0ed05e63          	blez	a3,1043c <__sflush_r+0x12a>
   10344:	6438                	ld	a4,72(s0)
   10346:	cb41                	beqz	a4,103d6 <__sflush_r+0xc4>
   10348:	17c2                	slli	a5,a5,0x30
   1034a:	93c1                	srli	a5,a5,0x30
   1034c:	0009a483          	lw	s1,0(s3)
   10350:	03379693          	slli	a3,a5,0x33
   10354:	0009a023          	sw	zero,0(s3)
   10358:	780c                	ld	a1,48(s0)
   1035a:	0e06c563          	bltz	a3,10444 <__sflush_r+0x132>
   1035e:	4601                	li	a2,0
   10360:	4685                	li	a3,1
   10362:	854e                	mv	a0,s3
   10364:	9702                	jalr	a4
   10366:	57fd                	li	a5,-1
   10368:	862a                	mv	a2,a0
   1036a:	10f50563          	beq	a0,a5,10474 <__sflush_r+0x162>
   1036e:	01045783          	lhu	a5,16(s0)
   10372:	6438                	ld	a4,72(s0)
   10374:	780c                	ld	a1,48(s0)
   10376:	8b91                	andi	a5,a5,4
   10378:	c799                	beqz	a5,10386 <__sflush_r+0x74>
   1037a:	4414                	lw	a3,8(s0)
   1037c:	6c3c                	ld	a5,88(s0)
   1037e:	8e15                	sub	a2,a2,a3
   10380:	c399                	beqz	a5,10386 <__sflush_r+0x74>
   10382:	583c                	lw	a5,112(s0)
   10384:	8e1d                	sub	a2,a2,a5
   10386:	4681                	li	a3,0
   10388:	854e                	mv	a0,s3
   1038a:	9702                	jalr	a4
   1038c:	57fd                	li	a5,-1
   1038e:	0af51d63          	bne	a0,a5,10448 <__sflush_r+0x136>
   10392:	0009a703          	lw	a4,0(s3)
   10396:	01041783          	lh	a5,16(s0)
   1039a:	cb7d                	beqz	a4,10490 <__sflush_r+0x17e>
   1039c:	46f5                	li	a3,29
   1039e:	00d70563          	beq	a4,a3,103a8 <__sflush_r+0x96>
   103a2:	46d9                	li	a3,22
   103a4:	0ed71c63          	bne	a4,a3,1049c <__sflush_r+0x18a>
   103a8:	6c14                	ld	a3,24(s0)
   103aa:	777d                	lui	a4,0xfffff
   103ac:	7ff70713          	addi	a4,a4,2047 # fffffffffffff7ff <__BSS_END__+0xfffffffffffe006f>
   103b0:	8ff9                	and	a5,a5,a4
   103b2:	00f41823          	sh	a5,16(s0)
   103b6:	00042423          	sw	zero,8(s0)
   103ba:	e014                	sd	a3,0(s0)
   103bc:	6c2c                	ld	a1,88(s0)
   103be:	0099a023          	sw	s1,0(s3)
   103c2:	c991                	beqz	a1,103d6 <__sflush_r+0xc4>
   103c4:	07440793          	addi	a5,s0,116
   103c8:	00f58563          	beq	a1,a5,103d2 <__sflush_r+0xc0>
   103cc:	854e                	mv	a0,s3
   103ce:	6c2000ef          	jal	ra,10a90 <_free_r>
   103d2:	04043c23          	sd	zero,88(s0)
   103d6:	4501                	li	a0,0
   103d8:	70a2                	ld	ra,40(sp)
   103da:	7402                	ld	s0,32(sp)
   103dc:	64e2                	ld	s1,24(sp)
   103de:	6942                	ld	s2,16(sp)
   103e0:	69a2                	ld	s3,8(sp)
   103e2:	6145                	addi	sp,sp,48
   103e4:	8082                	ret
   103e6:	0185b903          	ld	s2,24(a1)
   103ea:	fe0906e3          	beqz	s2,103d6 <__sflush_r+0xc4>
   103ee:	6184                	ld	s1,0(a1)
   103f0:	8b0d                	andi	a4,a4,3
   103f2:	0125b023          	sd	s2,0(a1)
   103f6:	412484bb          	subw	s1,s1,s2
   103fa:	4781                	li	a5,0
   103fc:	e311                	bnez	a4,10400 <__sflush_r+0xee>
   103fe:	519c                	lw	a5,32(a1)
   10400:	c45c                	sw	a5,12(s0)
   10402:	00904663          	bgtz	s1,1040e <__sflush_r+0xfc>
   10406:	bfc1                	j	103d6 <__sflush_r+0xc4>
   10408:	992a                	add	s2,s2,a0
   1040a:	fc9056e3          	blez	s1,103d6 <__sflush_r+0xc4>
   1040e:	603c                	ld	a5,64(s0)
   10410:	780c                	ld	a1,48(s0)
   10412:	86a6                	mv	a3,s1
   10414:	864a                	mv	a2,s2
   10416:	854e                	mv	a0,s3
   10418:	9782                	jalr	a5
   1041a:	9c89                	subw	s1,s1,a0
   1041c:	fea046e3          	bgtz	a0,10408 <__sflush_r+0xf6>
   10420:	01045783          	lhu	a5,16(s0)
   10424:	70a2                	ld	ra,40(sp)
   10426:	64e2                	ld	s1,24(sp)
   10428:	0407e793          	ori	a5,a5,64
   1042c:	00f41823          	sh	a5,16(s0)
   10430:	7402                	ld	s0,32(sp)
   10432:	6942                	ld	s2,16(sp)
   10434:	69a2                	ld	s3,8(sp)
   10436:	557d                	li	a0,-1
   10438:	6145                	addi	sp,sp,48
   1043a:	8082                	ret
   1043c:	59b8                	lw	a4,112(a1)
   1043e:	f0e043e3          	bgtz	a4,10344 <__sflush_r+0x32>
   10442:	bf51                	j	103d6 <__sflush_r+0xc4>
   10444:	6850                	ld	a2,144(s0)
   10446:	bf05                	j	10376 <__sflush_r+0x64>
   10448:	01045783          	lhu	a5,16(s0)
   1044c:	777d                	lui	a4,0xfffff
   1044e:	7ff70713          	addi	a4,a4,2047 # fffffffffffff7ff <__BSS_END__+0xfffffffffffe006f>
   10452:	8ff9                	and	a5,a5,a4
   10454:	6c14                	ld	a3,24(s0)
   10456:	0107979b          	slliw	a5,a5,0x10
   1045a:	4107d79b          	sraiw	a5,a5,0x10
   1045e:	00f41823          	sh	a5,16(s0)
   10462:	00042423          	sw	zero,8(s0)
   10466:	e014                	sd	a3,0(s0)
   10468:	03379713          	slli	a4,a5,0x33
   1046c:	f40758e3          	bgez	a4,103bc <__sflush_r+0xaa>
   10470:	e848                	sd	a0,144(s0)
   10472:	b7a9                	j	103bc <__sflush_r+0xaa>
   10474:	0009a783          	lw	a5,0(s3)
   10478:	ee078be3          	beqz	a5,1036e <__sflush_r+0x5c>
   1047c:	4775                	li	a4,29
   1047e:	00e78563          	beq	a5,a4,10488 <__sflush_r+0x176>
   10482:	4759                	li	a4,22
   10484:	f8e79ee3          	bne	a5,a4,10420 <__sflush_r+0x10e>
   10488:	0099a023          	sw	s1,0(s3)
   1048c:	4501                	li	a0,0
   1048e:	b7a9                	j	103d8 <__sflush_r+0xc6>
   10490:	777d                	lui	a4,0xfffff
   10492:	7ff70713          	addi	a4,a4,2047 # fffffffffffff7ff <__BSS_END__+0xfffffffffffe006f>
   10496:	6c14                	ld	a3,24(s0)
   10498:	8ff9                	and	a5,a5,a4
   1049a:	b7d1                	j	1045e <__sflush_r+0x14c>
   1049c:	0407e793          	ori	a5,a5,64
   104a0:	00f41823          	sh	a5,16(s0)
   104a4:	557d                	li	a0,-1
   104a6:	bf0d                	j	103d8 <__sflush_r+0xc6>

00000000000104a8 <_fflush_r>:
   104a8:	1101                	addi	sp,sp,-32
   104aa:	e822                	sd	s0,16(sp)
   104ac:	ec06                	sd	ra,24(sp)
   104ae:	842a                	mv	s0,a0
   104b0:	c119                	beqz	a0,104b6 <_fflush_r+0xe>
   104b2:	493c                	lw	a5,80(a0)
   104b4:	cb89                	beqz	a5,104c6 <_fflush_r+0x1e>
   104b6:	01059783          	lh	a5,16(a1)
   104ba:	ef89                	bnez	a5,104d4 <_fflush_r+0x2c>
   104bc:	60e2                	ld	ra,24(sp)
   104be:	6442                	ld	s0,16(sp)
   104c0:	4501                	li	a0,0
   104c2:	6105                	addi	sp,sp,32
   104c4:	8082                	ret
   104c6:	e42e                	sd	a1,8(sp)
   104c8:	35a000ef          	jal	ra,10822 <__sinit>
   104cc:	65a2                	ld	a1,8(sp)
   104ce:	01059783          	lh	a5,16(a1)
   104d2:	d7ed                	beqz	a5,104bc <_fflush_r+0x14>
   104d4:	8522                	mv	a0,s0
   104d6:	6442                	ld	s0,16(sp)
   104d8:	60e2                	ld	ra,24(sp)
   104da:	6105                	addi	sp,sp,32
   104dc:	e37ff06f          	j	10312 <__sflush_r>

00000000000104e0 <fflush>:
   104e0:	85aa                	mv	a1,a0
   104e2:	c509                	beqz	a0,104ec <fflush+0xc>
   104e4:	7581b503          	ld	a0,1880(gp) # 1f6e8 <_impure_ptr>
   104e8:	fc1ff06f          	j	104a8 <_fflush_r>
   104ec:	7481b503          	ld	a0,1864(gp) # 1f6d8 <_global_impure_ptr>
   104f0:	000105b7          	lui	a1,0x10
   104f4:	4a858593          	addi	a1,a1,1192 # 104a8 <_fflush_r>
   104f8:	7150006f          	j	1140c <_fwalk_reent>

00000000000104fc <_fgets_r>:
   104fc:	4785                	li	a5,1
   104fe:	0cc7d263          	bge	a5,a2,105c2 <_fgets_r+0xc6>
   10502:	715d                	addi	sp,sp,-80
   10504:	e0a2                	sd	s0,64(sp)
   10506:	f84a                	sd	s2,48(sp)
   10508:	f44e                	sd	s3,40(sp)
   1050a:	f052                	sd	s4,32(sp)
   1050c:	e486                	sd	ra,72(sp)
   1050e:	fc26                	sd	s1,56(sp)
   10510:	ec56                	sd	s5,24(sp)
   10512:	e85a                	sd	s6,16(sp)
   10514:	e45e                	sd	s7,8(sp)
   10516:	89aa                	mv	s3,a0
   10518:	8436                	mv	s0,a3
   1051a:	8a2e                	mv	s4,a1
   1051c:	8932                	mv	s2,a2
   1051e:	c119                	beqz	a0,10524 <_fgets_r+0x28>
   10520:	493c                	lw	a5,80(a0)
   10522:	cfa9                	beqz	a5,1057c <_fgets_r+0x80>
   10524:	397d                	addiw	s2,s2,-1
   10526:	8ad2                	mv	s5,s4
   10528:	a081                	j	10568 <_fgets_r+0x6c>
   1052a:	45a9                	li	a1,10
   1052c:	00043b03          	ld	s6,0(s0)
   10530:	0127f363          	bgeu	a5,s2,10536 <_fgets_r+0x3a>
   10534:	84be                	mv	s1,a5
   10536:	8626                	mv	a2,s1
   10538:	855a                	mv	a0,s6
   1053a:	738010ef          	jal	ra,11c72 <memchr>
   1053e:	00048b9b          	sext.w	s7,s1
   10542:	87aa                	mv	a5,a0
   10544:	8626                	mv	a2,s1
   10546:	8556                	mv	a0,s5
   10548:	85da                	mv	a1,s6
   1054a:	4179093b          	subw	s2,s2,s7
   1054e:	4418                	lw	a4,8(s0)
   10550:	eba9                	bnez	a5,105a2 <_fgets_r+0xa6>
   10552:	601c                	ld	a5,0(s0)
   10554:	9aa6                	add	s5,s5,s1
   10556:	4177073b          	subw	a4,a4,s7
   1055a:	94be                	add	s1,s1,a5
   1055c:	c418                	sw	a4,8(s0)
   1055e:	e004                	sd	s1,0(s0)
   10560:	7bc010ef          	jal	ra,11d1c <memcpy>
   10564:	02090163          	beqz	s2,10586 <_fgets_r+0x8a>
   10568:	441c                	lw	a5,8(s0)
   1056a:	84ca                	mv	s1,s2
   1056c:	ffdd                	bnez	a5,1052a <_fgets_r+0x2e>
   1056e:	85a2                	mv	a1,s0
   10570:	854e                	mv	a0,s3
   10572:	7d1010ef          	jal	ra,12542 <__srefill_r>
   10576:	e511                	bnez	a0,10582 <_fgets_r+0x86>
   10578:	441c                	lw	a5,8(s0)
   1057a:	bf45                	j	1052a <_fgets_r+0x2e>
   1057c:	2a6000ef          	jal	ra,10822 <__sinit>
   10580:	b755                	j	10524 <_fgets_r+0x28>
   10582:	034a8e63          	beq	s5,s4,105be <_fgets_r+0xc2>
   10586:	000a8023          	sb	zero,0(s5)
   1058a:	8552                	mv	a0,s4
   1058c:	60a6                	ld	ra,72(sp)
   1058e:	6406                	ld	s0,64(sp)
   10590:	74e2                	ld	s1,56(sp)
   10592:	7942                	ld	s2,48(sp)
   10594:	79a2                	ld	s3,40(sp)
   10596:	7a02                	ld	s4,32(sp)
   10598:	6ae2                	ld	s5,24(sp)
   1059a:	6b42                	ld	s6,16(sp)
   1059c:	6ba2                	ld	s7,8(sp)
   1059e:	6161                	addi	sp,sp,80
   105a0:	8082                	ret
   105a2:	0785                	addi	a5,a5,1
   105a4:	416784b3          	sub	s1,a5,s6
   105a8:	9f05                	subw	a4,a4,s1
   105aa:	c418                	sw	a4,8(s0)
   105ac:	e01c                	sd	a5,0(s0)
   105ae:	8626                	mv	a2,s1
   105b0:	76c010ef          	jal	ra,11d1c <memcpy>
   105b4:	9aa6                	add	s5,s5,s1
   105b6:	000a8023          	sb	zero,0(s5)
   105ba:	8552                	mv	a0,s4
   105bc:	bfc1                	j	1058c <_fgets_r+0x90>
   105be:	4501                	li	a0,0
   105c0:	b7f1                	j	1058c <_fgets_r+0x90>
   105c2:	4501                	li	a0,0
   105c4:	8082                	ret

00000000000105c6 <fgets>:
   105c6:	86b2                	mv	a3,a2
   105c8:	862e                	mv	a2,a1
   105ca:	85aa                	mv	a1,a0
   105cc:	7581b503          	ld	a0,1880(gp) # 1f6e8 <_impure_ptr>
   105d0:	f2dff06f          	j	104fc <_fgets_r>

00000000000105d4 <__fp_lock>:
   105d4:	4501                	li	a0,0
   105d6:	8082                	ret

00000000000105d8 <_cleanup_r>:
   105d8:	000105b7          	lui	a1,0x10
   105dc:	25a58593          	addi	a1,a1,602 # 1025a <_fclose_r>
   105e0:	62d0006f          	j	1140c <_fwalk_reent>

00000000000105e4 <__sinit.part.0>:
   105e4:	7139                	addi	sp,sp,-64
   105e6:	000107b7          	lui	a5,0x10
   105ea:	fc06                	sd	ra,56(sp)
   105ec:	f822                	sd	s0,48(sp)
   105ee:	f426                	sd	s1,40(sp)
   105f0:	f04a                	sd	s2,32(sp)
   105f2:	ec4e                	sd	s3,24(sp)
   105f4:	e852                	sd	s4,16(sp)
   105f6:	e456                	sd	s5,8(sp)
   105f8:	e05a                	sd	s6,0(sp)
   105fa:	6500                	ld	s0,8(a0)
   105fc:	5d878793          	addi	a5,a5,1496 # 105d8 <_cleanup_r>
   10600:	ed3c                	sd	a5,88(a0)
   10602:	53850713          	addi	a4,a0,1336
   10606:	478d                	li	a5,3
   10608:	52e53823          	sd	a4,1328(a0)
   1060c:	52f52423          	sw	a5,1320(a0)
   10610:	52053023          	sd	zero,1312(a0)
   10614:	4791                	li	a5,4
   10616:	892a                	mv	s2,a0
   10618:	c81c                	sw	a5,16(s0)
   1061a:	4621                	li	a2,8
   1061c:	4581                	li	a1,0
   1061e:	0a042623          	sw	zero,172(s0)
   10622:	00043023          	sd	zero,0(s0)
   10626:	00043423          	sd	zero,8(s0)
   1062a:	00043c23          	sd	zero,24(s0)
   1062e:	02042023          	sw	zero,32(s0)
   10632:	02042423          	sw	zero,40(s0)
   10636:	0a440513          	addi	a0,s0,164
   1063a:	09b010ef          	jal	ra,11ed4 <memset>
   1063e:	00012b37          	lui	s6,0x12
   10642:	01093483          	ld	s1,16(s2)
   10646:	00012ab7          	lui	s5,0x12
   1064a:	00012a37          	lui	s4,0x12
   1064e:	000129b7          	lui	s3,0x12
   10652:	6deb0b13          	addi	s6,s6,1758 # 126de <__sread>
   10656:	71aa8a93          	addi	s5,s5,1818 # 1271a <__swrite>
   1065a:	76ea0a13          	addi	s4,s4,1902 # 1276e <__sseek>
   1065e:	7b098993          	addi	s3,s3,1968 # 127b0 <__sclose>
   10662:	67c1                	lui	a5,0x10
   10664:	03643c23          	sd	s6,56(s0)
   10668:	05543023          	sd	s5,64(s0)
   1066c:	05443423          	sd	s4,72(s0)
   10670:	05343823          	sd	s3,80(s0)
   10674:	f800                	sd	s0,48(s0)
   10676:	27a5                	addiw	a5,a5,9
   10678:	c89c                	sw	a5,16(s1)
   1067a:	4621                	li	a2,8
   1067c:	4581                	li	a1,0
   1067e:	0a04a623          	sw	zero,172(s1)
   10682:	0004b023          	sd	zero,0(s1)
   10686:	0004b423          	sd	zero,8(s1)
   1068a:	0004bc23          	sd	zero,24(s1)
   1068e:	0204a023          	sw	zero,32(s1)
   10692:	0204a423          	sw	zero,40(s1)
   10696:	0a448513          	addi	a0,s1,164
   1069a:	03b010ef          	jal	ra,11ed4 <memset>
   1069e:	01893403          	ld	s0,24(s2)
   106a2:	000207b7          	lui	a5,0x20
   106a6:	0364bc23          	sd	s6,56(s1)
   106aa:	0554b023          	sd	s5,64(s1)
   106ae:	0544b423          	sd	s4,72(s1)
   106b2:	0534b823          	sd	s3,80(s1)
   106b6:	f884                	sd	s1,48(s1)
   106b8:	27c9                	addiw	a5,a5,18
   106ba:	c81c                	sw	a5,16(s0)
   106bc:	0a042623          	sw	zero,172(s0)
   106c0:	00043023          	sd	zero,0(s0)
   106c4:	00043423          	sd	zero,8(s0)
   106c8:	00043c23          	sd	zero,24(s0)
   106cc:	02042023          	sw	zero,32(s0)
   106d0:	02042423          	sw	zero,40(s0)
   106d4:	0a440513          	addi	a0,s0,164
   106d8:	4621                	li	a2,8
   106da:	4581                	li	a1,0
   106dc:	7f8010ef          	jal	ra,11ed4 <memset>
   106e0:	70e2                	ld	ra,56(sp)
   106e2:	03643c23          	sd	s6,56(s0)
   106e6:	05543023          	sd	s5,64(s0)
   106ea:	05443423          	sd	s4,72(s0)
   106ee:	05343823          	sd	s3,80(s0)
   106f2:	f800                	sd	s0,48(s0)
   106f4:	7442                	ld	s0,48(sp)
   106f6:	4785                	li	a5,1
   106f8:	04f92823          	sw	a5,80(s2)
   106fc:	74a2                	ld	s1,40(sp)
   106fe:	7902                	ld	s2,32(sp)
   10700:	69e2                	ld	s3,24(sp)
   10702:	6a42                	ld	s4,16(sp)
   10704:	6aa2                	ld	s5,8(sp)
   10706:	6b02                	ld	s6,0(sp)
   10708:	6121                	addi	sp,sp,64
   1070a:	8082                	ret

000000000001070c <__fp_unlock>:
   1070c:	4501                	li	a0,0
   1070e:	8082                	ret

0000000000010710 <__sfmoreglue>:
   10710:	1101                	addi	sp,sp,-32
   10712:	e426                	sd	s1,8(sp)
   10714:	0b000613          	li	a2,176
   10718:	fff5849b          	addiw	s1,a1,-1
   1071c:	02c484b3          	mul	s1,s1,a2
   10720:	e04a                	sd	s2,0(sp)
   10722:	892e                	mv	s2,a1
   10724:	e822                	sd	s0,16(sp)
   10726:	ec06                	sd	ra,24(sp)
   10728:	0c848593          	addi	a1,s1,200
   1072c:	71f000ef          	jal	ra,1164a <_malloc_r>
   10730:	842a                	mv	s0,a0
   10732:	cd01                	beqz	a0,1074a <__sfmoreglue+0x3a>
   10734:	0561                	addi	a0,a0,24
   10736:	00043023          	sd	zero,0(s0)
   1073a:	01242423          	sw	s2,8(s0)
   1073e:	e808                	sd	a0,16(s0)
   10740:	0b048613          	addi	a2,s1,176
   10744:	4581                	li	a1,0
   10746:	78e010ef          	jal	ra,11ed4 <memset>
   1074a:	8522                	mv	a0,s0
   1074c:	60e2                	ld	ra,24(sp)
   1074e:	6442                	ld	s0,16(sp)
   10750:	64a2                	ld	s1,8(sp)
   10752:	6902                	ld	s2,0(sp)
   10754:	6105                	addi	sp,sp,32
   10756:	8082                	ret

0000000000010758 <__sfp>:
   10758:	7179                	addi	sp,sp,-48
   1075a:	ec26                	sd	s1,24(sp)
   1075c:	7481b483          	ld	s1,1864(gp) # 1f6d8 <_global_impure_ptr>
   10760:	e44e                	sd	s3,8(sp)
   10762:	f406                	sd	ra,40(sp)
   10764:	48bc                	lw	a5,80(s1)
   10766:	f022                	sd	s0,32(sp)
   10768:	e84a                	sd	s2,16(sp)
   1076a:	89aa                	mv	s3,a0
   1076c:	c7c1                	beqz	a5,107f4 <__sfp+0x9c>
   1076e:	52048493          	addi	s1,s1,1312
   10772:	0b000913          	li	s2,176
   10776:	449c                	lw	a5,8(s1)
   10778:	6880                	ld	s0,16(s1)
   1077a:	02f05463          	blez	a5,107a2 <__sfp+0x4a>
   1077e:	01041703          	lh	a4,16(s0)
   10782:	c705                	beqz	a4,107aa <__sfp+0x52>
   10784:	37fd                	addiw	a5,a5,-1
   10786:	1782                	slli	a5,a5,0x20
   10788:	9381                	srli	a5,a5,0x20
   1078a:	0785                	addi	a5,a5,1
   1078c:	032787b3          	mul	a5,a5,s2
   10790:	97a2                	add	a5,a5,s0
   10792:	a021                	j	1079a <__sfp+0x42>
   10794:	01041703          	lh	a4,16(s0)
   10798:	cb09                	beqz	a4,107aa <__sfp+0x52>
   1079a:	0b040413          	addi	s0,s0,176
   1079e:	fef41be3          	bne	s0,a5,10794 <__sfp+0x3c>
   107a2:	6080                	ld	s0,0(s1)
   107a4:	cc21                	beqz	s0,107fc <__sfp+0xa4>
   107a6:	84a2                	mv	s1,s0
   107a8:	b7f9                	j	10776 <__sfp+0x1e>
   107aa:	77c1                	lui	a5,0xffff0
   107ac:	2785                	addiw	a5,a5,1
   107ae:	0a042623          	sw	zero,172(s0)
   107b2:	00043023          	sd	zero,0(s0)
   107b6:	00043423          	sd	zero,8(s0)
   107ba:	c81c                	sw	a5,16(s0)
   107bc:	00043c23          	sd	zero,24(s0)
   107c0:	02042023          	sw	zero,32(s0)
   107c4:	02042423          	sw	zero,40(s0)
   107c8:	4621                	li	a2,8
   107ca:	4581                	li	a1,0
   107cc:	0a440513          	addi	a0,s0,164
   107d0:	704010ef          	jal	ra,11ed4 <memset>
   107d4:	04043c23          	sd	zero,88(s0)
   107d8:	06042023          	sw	zero,96(s0)
   107dc:	06043c23          	sd	zero,120(s0)
   107e0:	08042023          	sw	zero,128(s0)
   107e4:	8522                	mv	a0,s0
   107e6:	70a2                	ld	ra,40(sp)
   107e8:	7402                	ld	s0,32(sp)
   107ea:	64e2                	ld	s1,24(sp)
   107ec:	6942                	ld	s2,16(sp)
   107ee:	69a2                	ld	s3,8(sp)
   107f0:	6145                	addi	sp,sp,48
   107f2:	8082                	ret
   107f4:	8526                	mv	a0,s1
   107f6:	defff0ef          	jal	ra,105e4 <__sinit.part.0>
   107fa:	bf95                	j	1076e <__sfp+0x16>
   107fc:	4591                	li	a1,4
   107fe:	854e                	mv	a0,s3
   10800:	f11ff0ef          	jal	ra,10710 <__sfmoreglue>
   10804:	e088                	sd	a0,0(s1)
   10806:	842a                	mv	s0,a0
   10808:	fd59                	bnez	a0,107a6 <__sfp+0x4e>
   1080a:	47b1                	li	a5,12
   1080c:	00f9a023          	sw	a5,0(s3)
   10810:	bfd1                	j	107e4 <__sfp+0x8c>

0000000000010812 <_cleanup>:
   10812:	7481b503          	ld	a0,1864(gp) # 1f6d8 <_global_impure_ptr>
   10816:	000105b7          	lui	a1,0x10
   1081a:	25a58593          	addi	a1,a1,602 # 1025a <_fclose_r>
   1081e:	3ef0006f          	j	1140c <_fwalk_reent>

0000000000010822 <__sinit>:
   10822:	493c                	lw	a5,80(a0)
   10824:	c391                	beqz	a5,10828 <__sinit+0x6>
   10826:	8082                	ret
   10828:	dbdff06f          	j	105e4 <__sinit.part.0>

000000000001082c <__sfp_lock_acquire>:
   1082c:	8082                	ret

000000000001082e <__sfp_lock_release>:
   1082e:	8082                	ret

0000000000010830 <__sinit_lock_acquire>:
   10830:	8082                	ret

0000000000010832 <__sinit_lock_release>:
   10832:	8082                	ret

0000000000010834 <__fp_lock_all>:
   10834:	7581b503          	ld	a0,1880(gp) # 1f6e8 <_impure_ptr>
   10838:	000105b7          	lui	a1,0x10
   1083c:	5d458593          	addi	a1,a1,1492 # 105d4 <__fp_lock>
   10840:	3430006f          	j	11382 <_fwalk>

0000000000010844 <__fp_unlock_all>:
   10844:	7581b503          	ld	a0,1880(gp) # 1f6e8 <_impure_ptr>
   10848:	000105b7          	lui	a1,0x10
   1084c:	70c58593          	addi	a1,a1,1804 # 1070c <__fp_unlock>
   10850:	3330006f          	j	11382 <_fwalk>

0000000000010854 <__libc_fini_array>:
   10854:	1101                	addi	sp,sp,-32
   10856:	e822                	sd	s0,16(sp)
   10858:	67f9                	lui	a5,0x1e
   1085a:	6479                	lui	s0,0x1e
   1085c:	5a040413          	addi	s0,s0,1440 # 1e5a0 <__init_array_end>
   10860:	5a878793          	addi	a5,a5,1448 # 1e5a8 <__fini_array_end>
   10864:	8f81                	sub	a5,a5,s0
   10866:	e426                	sd	s1,8(sp)
   10868:	ec06                	sd	ra,24(sp)
   1086a:	4037d493          	srai	s1,a5,0x3
   1086e:	c881                	beqz	s1,1087e <__libc_fini_array+0x2a>
   10870:	17e1                	addi	a5,a5,-8
   10872:	943e                	add	s0,s0,a5
   10874:	601c                	ld	a5,0(s0)
   10876:	14fd                	addi	s1,s1,-1
   10878:	1461                	addi	s0,s0,-8
   1087a:	9782                	jalr	a5
   1087c:	fce5                	bnez	s1,10874 <__libc_fini_array+0x20>
   1087e:	6442                	ld	s0,16(sp)
   10880:	60e2                	ld	ra,24(sp)
   10882:	64a2                	ld	s1,8(sp)
   10884:	6105                	addi	sp,sp,32
   10886:	87dff06f          	j	10102 <_fini>

000000000001088a <_fopen_r>:
   1088a:	7139                	addi	sp,sp,-64
   1088c:	87b2                	mv	a5,a2
   1088e:	ec4e                	sd	s3,24(sp)
   10890:	0070                	addi	a2,sp,12
   10892:	89ae                	mv	s3,a1
   10894:	85be                	mv	a1,a5
   10896:	f04a                	sd	s2,32(sp)
   10898:	fc06                	sd	ra,56(sp)
   1089a:	f822                	sd	s0,48(sp)
   1089c:	f426                	sd	s1,40(sp)
   1089e:	892a                	mv	s2,a0
   108a0:	6c3030ef          	jal	ra,14762 <__sflags>
   108a4:	c935                	beqz	a0,10918 <_fopen_r+0x8e>
   108a6:	84aa                	mv	s1,a0
   108a8:	854a                	mv	a0,s2
   108aa:	eafff0ef          	jal	ra,10758 <__sfp>
   108ae:	842a                	mv	s0,a0
   108b0:	c525                	beqz	a0,10918 <_fopen_r+0x8e>
   108b2:	4632                	lw	a2,12(sp)
   108b4:	1b600693          	li	a3,438
   108b8:	85ce                	mv	a1,s3
   108ba:	854a                	mv	a0,s2
   108bc:	6c6010ef          	jal	ra,11f82 <_open_r>
   108c0:	04054663          	bltz	a0,1090c <_fopen_r+0x82>
   108c4:	000127b7          	lui	a5,0x12
   108c8:	6de78793          	addi	a5,a5,1758 # 126de <__sread>
   108cc:	fc1c                	sd	a5,56(s0)
   108ce:	000127b7          	lui	a5,0x12
   108d2:	71a78793          	addi	a5,a5,1818 # 1271a <__swrite>
   108d6:	e03c                	sd	a5,64(s0)
   108d8:	000127b7          	lui	a5,0x12
   108dc:	76e78793          	addi	a5,a5,1902 # 1276e <__sseek>
   108e0:	e43c                	sd	a5,72(s0)
   108e2:	000127b7          	lui	a5,0x12
   108e6:	7b078793          	addi	a5,a5,1968 # 127b0 <__sclose>
   108ea:	00941823          	sh	s1,16(s0)
   108ee:	00a41923          	sh	a0,18(s0)
   108f2:	f800                	sd	s0,48(s0)
   108f4:	e83c                	sd	a5,80(s0)
   108f6:	1004f493          	andi	s1,s1,256
   108fa:	e885                	bnez	s1,1092a <_fopen_r+0xa0>
   108fc:	8522                	mv	a0,s0
   108fe:	70e2                	ld	ra,56(sp)
   10900:	7442                	ld	s0,48(sp)
   10902:	74a2                	ld	s1,40(sp)
   10904:	7902                	ld	s2,32(sp)
   10906:	69e2                	ld	s3,24(sp)
   10908:	6121                	addi	sp,sp,64
   1090a:	8082                	ret
   1090c:	f21ff0ef          	jal	ra,1082c <__sfp_lock_acquire>
   10910:	00041823          	sh	zero,16(s0)
   10914:	f1bff0ef          	jal	ra,1082e <__sfp_lock_release>
   10918:	4401                	li	s0,0
   1091a:	8522                	mv	a0,s0
   1091c:	70e2                	ld	ra,56(sp)
   1091e:	7442                	ld	s0,48(sp)
   10920:	74a2                	ld	s1,40(sp)
   10922:	7902                	ld	s2,32(sp)
   10924:	69e2                	ld	s3,24(sp)
   10926:	6121                	addi	sp,sp,64
   10928:	8082                	ret
   1092a:	85a2                	mv	a1,s0
   1092c:	854a                	mv	a0,s2
   1092e:	4689                	li	a3,2
   10930:	4601                	li	a2,0
   10932:	3aa000ef          	jal	ra,10cdc <_fseek_r>
   10936:	8522                	mv	a0,s0
   10938:	70e2                	ld	ra,56(sp)
   1093a:	7442                	ld	s0,48(sp)
   1093c:	74a2                	ld	s1,40(sp)
   1093e:	7902                	ld	s2,32(sp)
   10940:	69e2                	ld	s3,24(sp)
   10942:	6121                	addi	sp,sp,64
   10944:	8082                	ret

0000000000010946 <fopen>:
   10946:	862e                	mv	a2,a1
   10948:	85aa                	mv	a1,a0
   1094a:	7581b503          	ld	a0,1880(gp) # 1f6e8 <_impure_ptr>
   1094e:	f3dff06f          	j	1088a <_fopen_r>

0000000000010952 <_fputs_r>:
   10952:	715d                	addi	sp,sp,-80
   10954:	fc26                	sd	s1,56(sp)
   10956:	84aa                	mv	s1,a0
   10958:	852e                	mv	a0,a1
   1095a:	e0a2                	sd	s0,64(sp)
   1095c:	e486                	sd	ra,72(sp)
   1095e:	8432                	mv	s0,a2
   10960:	e42e                	sd	a1,8(sp)
   10962:	657010ef          	jal	ra,127b8 <strlen>
   10966:	003c                	addi	a5,sp,8
   10968:	ec3e                	sd	a5,24(sp)
   1096a:	4785                	li	a5,1
   1096c:	f42a                	sd	a0,40(sp)
   1096e:	e82a                	sd	a0,16(sp)
   10970:	d03e                	sw	a5,32(sp)
   10972:	c099                	beqz	s1,10978 <_fputs_r+0x26>
   10974:	48bc                	lw	a5,80(s1)
   10976:	cf85                	beqz	a5,109ae <_fputs_r+0x5c>
   10978:	01041783          	lh	a5,16(s0)
   1097c:	03279713          	slli	a4,a5,0x32
   10980:	00074d63          	bltz	a4,1099a <_fputs_r+0x48>
   10984:	0ac42703          	lw	a4,172(s0)
   10988:	6689                	lui	a3,0x2
   1098a:	8fd5                	or	a5,a5,a3
   1098c:	76f9                	lui	a3,0xffffe
   1098e:	16fd                	addi	a3,a3,-1
   10990:	8f75                	and	a4,a4,a3
   10992:	00f41823          	sh	a5,16(s0)
   10996:	0ae42623          	sw	a4,172(s0)
   1099a:	0830                	addi	a2,sp,24
   1099c:	85a2                	mv	a1,s0
   1099e:	8526                	mv	a0,s1
   109a0:	6b6000ef          	jal	ra,11056 <__sfvwrite_r>
   109a4:	60a6                	ld	ra,72(sp)
   109a6:	6406                	ld	s0,64(sp)
   109a8:	74e2                	ld	s1,56(sp)
   109aa:	6161                	addi	sp,sp,80
   109ac:	8082                	ret
   109ae:	8526                	mv	a0,s1
   109b0:	e73ff0ef          	jal	ra,10822 <__sinit>
   109b4:	b7d1                	j	10978 <_fputs_r+0x26>

00000000000109b6 <fputs>:
   109b6:	862e                	mv	a2,a1
   109b8:	85aa                	mv	a1,a0
   109ba:	7581b503          	ld	a0,1880(gp) # 1f6e8 <_impure_ptr>
   109be:	f95ff06f          	j	10952 <_fputs_r>

00000000000109c2 <_malloc_trim_r>:
   109c2:	7179                	addi	sp,sp,-48
   109c4:	e84a                	sd	s2,16(sp)
   109c6:	697d                	lui	s2,0x1f
   109c8:	f022                	sd	s0,32(sp)
   109ca:	ec26                	sd	s1,24(sp)
   109cc:	e44e                	sd	s3,8(sp)
   109ce:	842e                	mv	s0,a1
   109d0:	f406                	sd	ra,40(sp)
   109d2:	89aa                	mv	s3,a0
   109d4:	cf090913          	addi	s2,s2,-784 # 1ecf0 <__malloc_av_>
   109d8:	5a6010ef          	jal	ra,11f7e <__malloc_lock>
   109dc:	01093683          	ld	a3,16(s2)
   109e0:	6705                	lui	a4,0x1
   109e2:	fdf70793          	addi	a5,a4,-33 # fdf <register_fini-0xf0d1>
   109e6:	6684                	ld	s1,8(a3)
   109e8:	40878433          	sub	s0,a5,s0
   109ec:	98f1                	andi	s1,s1,-4
   109ee:	9426                	add	s0,s0,s1
   109f0:	8031                	srli	s0,s0,0xc
   109f2:	147d                	addi	s0,s0,-1
   109f4:	0432                	slli	s0,s0,0xc
   109f6:	00e44b63          	blt	s0,a4,10a0c <_malloc_trim_r+0x4a>
   109fa:	4581                	li	a1,0
   109fc:	854e                	mv	a0,s3
   109fe:	4a7010ef          	jal	ra,126a4 <_sbrk_r>
   10a02:	01093783          	ld	a5,16(s2)
   10a06:	97a6                	add	a5,a5,s1
   10a08:	00f50d63          	beq	a0,a5,10a22 <_malloc_trim_r+0x60>
   10a0c:	854e                	mv	a0,s3
   10a0e:	572010ef          	jal	ra,11f80 <__malloc_unlock>
   10a12:	70a2                	ld	ra,40(sp)
   10a14:	7402                	ld	s0,32(sp)
   10a16:	64e2                	ld	s1,24(sp)
   10a18:	6942                	ld	s2,16(sp)
   10a1a:	69a2                	ld	s3,8(sp)
   10a1c:	4501                	li	a0,0
   10a1e:	6145                	addi	sp,sp,48
   10a20:	8082                	ret
   10a22:	408005b3          	neg	a1,s0
   10a26:	854e                	mv	a0,s3
   10a28:	47d010ef          	jal	ra,126a4 <_sbrk_r>
   10a2c:	57fd                	li	a5,-1
   10a2e:	02f50b63          	beq	a0,a5,10a64 <_malloc_trim_r+0xa2>
   10a32:	0001f737          	lui	a4,0x1f
   10a36:	76072783          	lw	a5,1888(a4) # 1f760 <__malloc_current_mallinfo>
   10a3a:	01093683          	ld	a3,16(s2)
   10a3e:	8c81                	sub	s1,s1,s0
   10a40:	0014e493          	ori	s1,s1,1
   10a44:	4087843b          	subw	s0,a5,s0
   10a48:	854e                	mv	a0,s3
   10a4a:	e684                	sd	s1,8(a3)
   10a4c:	76872023          	sw	s0,1888(a4)
   10a50:	530010ef          	jal	ra,11f80 <__malloc_unlock>
   10a54:	70a2                	ld	ra,40(sp)
   10a56:	7402                	ld	s0,32(sp)
   10a58:	64e2                	ld	s1,24(sp)
   10a5a:	6942                	ld	s2,16(sp)
   10a5c:	69a2                	ld	s3,8(sp)
   10a5e:	4505                	li	a0,1
   10a60:	6145                	addi	sp,sp,48
   10a62:	8082                	ret
   10a64:	4581                	li	a1,0
   10a66:	854e                	mv	a0,s3
   10a68:	43d010ef          	jal	ra,126a4 <_sbrk_r>
   10a6c:	01093703          	ld	a4,16(s2)
   10a70:	46fd                	li	a3,31
   10a72:	40e507b3          	sub	a5,a0,a4
   10a76:	f8f6dbe3          	bge	a3,a5,10a0c <_malloc_trim_r+0x4a>
   10a7a:	7601b683          	ld	a3,1888(gp) # 1f6f0 <__malloc_sbrk_base>
   10a7e:	0017e793          	ori	a5,a5,1
   10a82:	e71c                	sd	a5,8(a4)
   10a84:	8d15                	sub	a0,a0,a3
   10a86:	0001f6b7          	lui	a3,0x1f
   10a8a:	76a6a023          	sw	a0,1888(a3) # 1f760 <__malloc_current_mallinfo>
   10a8e:	bfbd                	j	10a0c <_malloc_trim_r+0x4a>

0000000000010a90 <_free_r>:
   10a90:	c5f5                	beqz	a1,10b7c <_free_r+0xec>
   10a92:	1101                	addi	sp,sp,-32
   10a94:	e822                	sd	s0,16(sp)
   10a96:	e426                	sd	s1,8(sp)
   10a98:	842e                	mv	s0,a1
   10a9a:	84aa                	mv	s1,a0
   10a9c:	ec06                	sd	ra,24(sp)
   10a9e:	4e0010ef          	jal	ra,11f7e <__malloc_lock>
   10aa2:	ff843503          	ld	a0,-8(s0)
   10aa6:	ff040713          	addi	a4,s0,-16
   10aaa:	65fd                	lui	a1,0x1f
   10aac:	ffe57793          	andi	a5,a0,-2
   10ab0:	00f70633          	add	a2,a4,a5
   10ab4:	cf058593          	addi	a1,a1,-784 # 1ecf0 <__malloc_av_>
   10ab8:	6614                	ld	a3,8(a2)
   10aba:	0105b803          	ld	a6,16(a1)
   10abe:	9af1                	andi	a3,a3,-4
   10ac0:	12c80c63          	beq	a6,a2,10bf8 <_free_r+0x168>
   10ac4:	e614                	sd	a3,8(a2)
   10ac6:	8905                	andi	a0,a0,1
   10ac8:	00d60833          	add	a6,a2,a3
   10acc:	e149                	bnez	a0,10b4e <_free_r+0xbe>
   10ace:	ff043303          	ld	t1,-16(s0)
   10ad2:	00883803          	ld	a6,8(a6)
   10ad6:	657d                	lui	a0,0x1f
   10ad8:	40670733          	sub	a4,a4,t1
   10adc:	01073883          	ld	a7,16(a4)
   10ae0:	d0050513          	addi	a0,a0,-768 # 1ed00 <__malloc_av_+0x10>
   10ae4:	979a                	add	a5,a5,t1
   10ae6:	00187813          	andi	a6,a6,1
   10aea:	0ea88a63          	beq	a7,a0,10bde <_free_r+0x14e>
   10aee:	01873303          	ld	t1,24(a4)
   10af2:	0068bc23          	sd	t1,24(a7)
   10af6:	01133823          	sd	a7,16(t1) # 10 <register_fini-0x100a0>
   10afa:	14080a63          	beqz	a6,10c4e <_free_r+0x1be>
   10afe:	0017e693          	ori	a3,a5,1
   10b02:	e714                	sd	a3,8(a4)
   10b04:	e21c                	sd	a5,0(a2)
   10b06:	1ff00693          	li	a3,511
   10b0a:	08f6e363          	bltu	a3,a5,10b90 <_free_r+0x100>
   10b0e:	838d                	srli	a5,a5,0x3
   10b10:	2781                	sext.w	a5,a5
   10b12:	0017869b          	addiw	a3,a5,1
   10b16:	0016969b          	slliw	a3,a3,0x1
   10b1a:	068e                	slli	a3,a3,0x3
   10b1c:	0085b803          	ld	a6,8(a1)
   10b20:	96ae                	add	a3,a3,a1
   10b22:	6288                	ld	a0,0(a3)
   10b24:	4605                	li	a2,1
   10b26:	4027d79b          	sraiw	a5,a5,0x2
   10b2a:	00f617b3          	sll	a5,a2,a5
   10b2e:	0107e7b3          	or	a5,a5,a6
   10b32:	ff068613          	addi	a2,a3,-16
   10b36:	ef10                	sd	a2,24(a4)
   10b38:	eb08                	sd	a0,16(a4)
   10b3a:	e59c                	sd	a5,8(a1)
   10b3c:	e298                	sd	a4,0(a3)
   10b3e:	ed18                	sd	a4,24(a0)
   10b40:	6442                	ld	s0,16(sp)
   10b42:	60e2                	ld	ra,24(sp)
   10b44:	8526                	mv	a0,s1
   10b46:	64a2                	ld	s1,8(sp)
   10b48:	6105                	addi	sp,sp,32
   10b4a:	4360106f          	j	11f80 <__malloc_unlock>
   10b4e:	00883503          	ld	a0,8(a6)
   10b52:	8905                	andi	a0,a0,1
   10b54:	e50d                	bnez	a0,10b7e <_free_r+0xee>
   10b56:	657d                	lui	a0,0x1f
   10b58:	97b6                	add	a5,a5,a3
   10b5a:	d0050513          	addi	a0,a0,-768 # 1ed00 <__malloc_av_+0x10>
   10b5e:	6a14                	ld	a3,16(a2)
   10b60:	0017e893          	ori	a7,a5,1
   10b64:	00f70833          	add	a6,a4,a5
   10b68:	0ea68e63          	beq	a3,a0,10c64 <_free_r+0x1d4>
   10b6c:	6e10                	ld	a2,24(a2)
   10b6e:	ee90                	sd	a2,24(a3)
   10b70:	ea14                	sd	a3,16(a2)
   10b72:	01173423          	sd	a7,8(a4)
   10b76:	00f83023          	sd	a5,0(a6)
   10b7a:	b771                	j	10b06 <_free_r+0x76>
   10b7c:	8082                	ret
   10b7e:	0017e693          	ori	a3,a5,1
   10b82:	fed43c23          	sd	a3,-8(s0)
   10b86:	e21c                	sd	a5,0(a2)
   10b88:	1ff00693          	li	a3,511
   10b8c:	f8f6f1e3          	bgeu	a3,a5,10b0e <_free_r+0x7e>
   10b90:	0097d693          	srli	a3,a5,0x9
   10b94:	4611                	li	a2,4
   10b96:	08d66a63          	bltu	a2,a3,10c2a <_free_r+0x19a>
   10b9a:	0067d693          	srli	a3,a5,0x6
   10b9e:	2681                	sext.w	a3,a3
   10ba0:	0396851b          	addiw	a0,a3,57
   10ba4:	0015151b          	slliw	a0,a0,0x1
   10ba8:	0386861b          	addiw	a2,a3,56
   10bac:	050e                	slli	a0,a0,0x3
   10bae:	952e                	add	a0,a0,a1
   10bb0:	6114                	ld	a3,0(a0)
   10bb2:	1541                	addi	a0,a0,-16
   10bb4:	0cd50163          	beq	a0,a3,10c76 <_free_r+0x1e6>
   10bb8:	6690                	ld	a2,8(a3)
   10bba:	9a71                	andi	a2,a2,-4
   10bbc:	00c7f563          	bgeu	a5,a2,10bc6 <_free_r+0x136>
   10bc0:	6a94                	ld	a3,16(a3)
   10bc2:	fed51be3          	bne	a0,a3,10bb8 <_free_r+0x128>
   10bc6:	6e88                	ld	a0,24(a3)
   10bc8:	ef08                	sd	a0,24(a4)
   10bca:	eb14                	sd	a3,16(a4)
   10bcc:	6442                	ld	s0,16(sp)
   10bce:	e918                	sd	a4,16(a0)
   10bd0:	60e2                	ld	ra,24(sp)
   10bd2:	8526                	mv	a0,s1
   10bd4:	64a2                	ld	s1,8(sp)
   10bd6:	ee98                	sd	a4,24(a3)
   10bd8:	6105                	addi	sp,sp,32
   10bda:	3a60106f          	j	11f80 <__malloc_unlock>
   10bde:	0e081a63          	bnez	a6,10cd2 <_free_r+0x242>
   10be2:	6a0c                	ld	a1,16(a2)
   10be4:	6e10                	ld	a2,24(a2)
   10be6:	97b6                	add	a5,a5,a3
   10be8:	0017e693          	ori	a3,a5,1
   10bec:	ed90                	sd	a2,24(a1)
   10bee:	ea0c                	sd	a1,16(a2)
   10bf0:	e714                	sd	a3,8(a4)
   10bf2:	973e                	add	a4,a4,a5
   10bf4:	e31c                	sd	a5,0(a4)
   10bf6:	b7a9                	j	10b40 <_free_r+0xb0>
   10bf8:	8905                	andi	a0,a0,1
   10bfa:	97b6                	add	a5,a5,a3
   10bfc:	e909                	bnez	a0,10c0e <_free_r+0x17e>
   10bfe:	ff043503          	ld	a0,-16(s0)
   10c02:	8f09                	sub	a4,a4,a0
   10c04:	6f14                	ld	a3,24(a4)
   10c06:	6b10                	ld	a2,16(a4)
   10c08:	97aa                	add	a5,a5,a0
   10c0a:	ee14                	sd	a3,24(a2)
   10c0c:	ea90                	sd	a2,16(a3)
   10c0e:	0017e613          	ori	a2,a5,1
   10c12:	7681b683          	ld	a3,1896(gp) # 1f6f8 <__malloc_trim_threshold>
   10c16:	e710                	sd	a2,8(a4)
   10c18:	e998                	sd	a4,16(a1)
   10c1a:	f2d7e3e3          	bltu	a5,a3,10b40 <_free_r+0xb0>
   10c1e:	7801b583          	ld	a1,1920(gp) # 1f710 <__malloc_top_pad>
   10c22:	8526                	mv	a0,s1
   10c24:	d9fff0ef          	jal	ra,109c2 <_malloc_trim_r>
   10c28:	bf21                	j	10b40 <_free_r+0xb0>
   10c2a:	4651                	li	a2,20
   10c2c:	02d67363          	bgeu	a2,a3,10c52 <_free_r+0x1c2>
   10c30:	05400613          	li	a2,84
   10c34:	04d66c63          	bltu	a2,a3,10c8c <_free_r+0x1fc>
   10c38:	00c7d693          	srli	a3,a5,0xc
   10c3c:	2681                	sext.w	a3,a3
   10c3e:	06f6851b          	addiw	a0,a3,111
   10c42:	0015151b          	slliw	a0,a0,0x1
   10c46:	06e6861b          	addiw	a2,a3,110
   10c4a:	050e                	slli	a0,a0,0x3
   10c4c:	b78d                	j	10bae <_free_r+0x11e>
   10c4e:	97b6                	add	a5,a5,a3
   10c50:	b739                	j	10b5e <_free_r+0xce>
   10c52:	2681                	sext.w	a3,a3
   10c54:	05c6851b          	addiw	a0,a3,92
   10c58:	0015151b          	slliw	a0,a0,0x1
   10c5c:	05b6861b          	addiw	a2,a3,91
   10c60:	050e                	slli	a0,a0,0x3
   10c62:	b7b1                	j	10bae <_free_r+0x11e>
   10c64:	f598                	sd	a4,40(a1)
   10c66:	f198                	sd	a4,32(a1)
   10c68:	ef08                	sd	a0,24(a4)
   10c6a:	eb08                	sd	a0,16(a4)
   10c6c:	01173423          	sd	a7,8(a4)
   10c70:	00f83023          	sd	a5,0(a6)
   10c74:	b5f1                	j	10b40 <_free_r+0xb0>
   10c76:	0085b803          	ld	a6,8(a1)
   10c7a:	4026561b          	sraiw	a2,a2,0x2
   10c7e:	4785                	li	a5,1
   10c80:	00c79633          	sll	a2,a5,a2
   10c84:	01066633          	or	a2,a2,a6
   10c88:	e590                	sd	a2,8(a1)
   10c8a:	bf3d                	j	10bc8 <_free_r+0x138>
   10c8c:	15400613          	li	a2,340
   10c90:	00d66d63          	bltu	a2,a3,10caa <_free_r+0x21a>
   10c94:	00f7d693          	srli	a3,a5,0xf
   10c98:	2681                	sext.w	a3,a3
   10c9a:	0786851b          	addiw	a0,a3,120
   10c9e:	0015151b          	slliw	a0,a0,0x1
   10ca2:	0776861b          	addiw	a2,a3,119
   10ca6:	050e                	slli	a0,a0,0x3
   10ca8:	b719                	j	10bae <_free_r+0x11e>
   10caa:	55400613          	li	a2,1364
   10cae:	00d66d63          	bltu	a2,a3,10cc8 <_free_r+0x238>
   10cb2:	0127d693          	srli	a3,a5,0x12
   10cb6:	2681                	sext.w	a3,a3
   10cb8:	07d6851b          	addiw	a0,a3,125
   10cbc:	0015151b          	slliw	a0,a0,0x1
   10cc0:	07c6861b          	addiw	a2,a3,124
   10cc4:	050e                	slli	a0,a0,0x3
   10cc6:	b5e5                	j	10bae <_free_r+0x11e>
   10cc8:	7f000513          	li	a0,2032
   10ccc:	07e00613          	li	a2,126
   10cd0:	bdf9                	j	10bae <_free_r+0x11e>
   10cd2:	0017e693          	ori	a3,a5,1
   10cd6:	e714                	sd	a3,8(a4)
   10cd8:	e21c                	sd	a5,0(a2)
   10cda:	b59d                	j	10b40 <_free_r+0xb0>

0000000000010cdc <_fseek_r>:
   10cdc:	0120006f          	j	10cee <_fseeko_r>

0000000000010ce0 <fseek>:
   10ce0:	86b2                	mv	a3,a2
   10ce2:	862e                	mv	a2,a1
   10ce4:	85aa                	mv	a1,a0
   10ce6:	7581b503          	ld	a0,1880(gp) # 1f6e8 <_impure_ptr>
   10cea:	0040006f          	j	10cee <_fseeko_r>

0000000000010cee <_fseeko_r>:
   10cee:	7131                	addi	sp,sp,-192
   10cf0:	f922                	sd	s0,176(sp)
   10cf2:	f526                	sd	s1,168(sp)
   10cf4:	f14a                	sd	s2,160(sp)
   10cf6:	e952                	sd	s4,144(sp)
   10cf8:	fd06                	sd	ra,184(sp)
   10cfa:	ed4e                	sd	s3,152(sp)
   10cfc:	e556                	sd	s5,136(sp)
   10cfe:	e15a                	sd	s6,128(sp)
   10d00:	fcde                	sd	s7,120(sp)
   10d02:	84aa                	mv	s1,a0
   10d04:	842e                	mv	s0,a1
   10d06:	8a32                	mv	s4,a2
   10d08:	8936                	mv	s2,a3
   10d0a:	c119                	beqz	a0,10d10 <_fseeko_r+0x22>
   10d0c:	493c                	lw	a5,80(a0)
   10d0e:	c7a1                	beqz	a5,10d56 <_fseeko_r+0x68>
   10d10:	01045783          	lhu	a5,16(s0)
   10d14:	10800713          	li	a4,264
   10d18:	1087f793          	andi	a5,a5,264
   10d1c:	04e78763          	beq	a5,a4,10d6a <_fseeko_r+0x7c>
   10d20:	04843983          	ld	s3,72(s0)
   10d24:	2c098f63          	beqz	s3,11002 <_fseeko_r+0x314>
   10d28:	4785                	li	a5,1
   10d2a:	0cf90f63          	beq	s2,a5,10e08 <_fseeko_r+0x11a>
   10d2e:	4789                	li	a5,2
   10d30:	04f90263          	beq	s2,a5,10d74 <_fseeko_r+0x86>
   10d34:	04090063          	beqz	s2,10d74 <_fseeko_r+0x86>
   10d38:	47d9                	li	a5,22
   10d3a:	c09c                	sw	a5,0(s1)
   10d3c:	5afd                	li	s5,-1
   10d3e:	70ea                	ld	ra,184(sp)
   10d40:	744a                	ld	s0,176(sp)
   10d42:	8556                	mv	a0,s5
   10d44:	74aa                	ld	s1,168(sp)
   10d46:	790a                	ld	s2,160(sp)
   10d48:	69ea                	ld	s3,152(sp)
   10d4a:	6a4a                	ld	s4,144(sp)
   10d4c:	6aaa                	ld	s5,136(sp)
   10d4e:	6b0a                	ld	s6,128(sp)
   10d50:	7be6                	ld	s7,120(sp)
   10d52:	6129                	addi	sp,sp,192
   10d54:	8082                	ret
   10d56:	acdff0ef          	jal	ra,10822 <__sinit>
   10d5a:	01045783          	lhu	a5,16(s0)
   10d5e:	10800713          	li	a4,264
   10d62:	1087f793          	andi	a5,a5,264
   10d66:	fae79de3          	bne	a5,a4,10d20 <_fseeko_r+0x32>
   10d6a:	85a2                	mv	a1,s0
   10d6c:	8526                	mv	a0,s1
   10d6e:	f3aff0ef          	jal	ra,104a8 <_fflush_r>
   10d72:	b77d                	j	10d20 <_fseeko_r+0x32>
   10d74:	6c18                	ld	a4,24(s0)
   10d76:	4b81                	li	s7,0
   10d78:	4a81                	li	s5,0
   10d7a:	cf61                	beqz	a4,10e52 <_fseeko_r+0x164>
   10d7c:	01041683          	lh	a3,16(s0)
   10d80:	6785                	lui	a5,0x1
   10d82:	81a78793          	addi	a5,a5,-2022 # 81a <register_fini-0xf896>
   10d86:	03069713          	slli	a4,a3,0x30
   10d8a:	9341                	srli	a4,a4,0x30
   10d8c:	8ff9                	and	a5,a5,a4
   10d8e:	e38d                	bnez	a5,10db0 <_fseeko_r+0xc2>
   10d90:	40077713          	andi	a4,a4,1024
   10d94:	0e071e63          	bnez	a4,10e90 <_fseeko_r+0x1a2>
   10d98:	000127b7          	lui	a5,0x12
   10d9c:	76e78793          	addi	a5,a5,1902 # 1276e <__sseek>
   10da0:	0af98e63          	beq	s3,a5,10e5c <_fseeko_r+0x16e>
   10da4:	6785                	lui	a5,0x1
   10da6:	80078793          	addi	a5,a5,-2048 # 800 <register_fini-0xf8b0>
   10daa:	8edd                	or	a3,a3,a5
   10dac:	00d41823          	sh	a3,16(s0)
   10db0:	85a2                	mv	a1,s0
   10db2:	8526                	mv	a0,s1
   10db4:	ef4ff0ef          	jal	ra,104a8 <_fflush_r>
   10db8:	8aaa                	mv	s5,a0
   10dba:	f149                	bnez	a0,10d3c <_fseeko_r+0x4e>
   10dbc:	780c                	ld	a1,48(s0)
   10dbe:	86ca                	mv	a3,s2
   10dc0:	8652                	mv	a2,s4
   10dc2:	8526                	mv	a0,s1
   10dc4:	9982                	jalr	s3
   10dc6:	57fd                	li	a5,-1
   10dc8:	f6f50ae3          	beq	a0,a5,10d3c <_fseeko_r+0x4e>
   10dcc:	6c2c                	ld	a1,88(s0)
   10dce:	c991                	beqz	a1,10de2 <_fseeko_r+0xf4>
   10dd0:	07440793          	addi	a5,s0,116
   10dd4:	00f58563          	beq	a1,a5,10dde <_fseeko_r+0xf0>
   10dd8:	8526                	mv	a0,s1
   10dda:	cb7ff0ef          	jal	ra,10a90 <_free_r>
   10dde:	04043c23          	sd	zero,88(s0)
   10de2:	01045783          	lhu	a5,16(s0)
   10de6:	6c14                	ld	a3,24(s0)
   10de8:	777d                	lui	a4,0xfffff
   10dea:	7df70713          	addi	a4,a4,2015 # fffffffffffff7df <__BSS_END__+0xfffffffffffe004f>
   10dee:	8ff9                	and	a5,a5,a4
   10df0:	e014                	sd	a3,0(s0)
   10df2:	00042423          	sw	zero,8(s0)
   10df6:	00f41823          	sh	a5,16(s0)
   10dfa:	4621                	li	a2,8
   10dfc:	4581                	li	a1,0
   10dfe:	0a440513          	addi	a0,s0,164
   10e02:	0d2010ef          	jal	ra,11ed4 <memset>
   10e06:	bf25                	j	10d3e <_fseeko_r+0x50>
   10e08:	85a2                	mv	a1,s0
   10e0a:	8526                	mv	a0,s1
   10e0c:	e9cff0ef          	jal	ra,104a8 <_fflush_r>
   10e10:	01045783          	lhu	a5,16(s0)
   10e14:	03379713          	slli	a4,a5,0x33
   10e18:	0a074263          	bltz	a4,10ebc <_fseeko_r+0x1ce>
   10e1c:	780c                	ld	a1,48(s0)
   10e1e:	4685                	li	a3,1
   10e20:	4601                	li	a2,0
   10e22:	8526                	mv	a0,s1
   10e24:	9982                	jalr	s3
   10e26:	57fd                	li	a5,-1
   10e28:	8aaa                	mv	s5,a0
   10e2a:	f0f509e3          	beq	a0,a5,10d3c <_fseeko_r+0x4e>
   10e2e:	01045783          	lhu	a5,16(s0)
   10e32:	6c18                	ld	a4,24(s0)
   10e34:	0047f693          	andi	a3,a5,4
   10e38:	cac1                	beqz	a3,10ec8 <_fseeko_r+0x1da>
   10e3a:	441c                	lw	a5,8(s0)
   10e3c:	6c34                	ld	a3,88(s0)
   10e3e:	40fa8ab3          	sub	s5,s5,a5
   10e42:	c681                	beqz	a3,10e4a <_fseeko_r+0x15c>
   10e44:	5834                	lw	a3,112(s0)
   10e46:	40da8ab3          	sub	s5,s5,a3
   10e4a:	8bca                	mv	s7,s2
   10e4c:	9a56                	add	s4,s4,s5
   10e4e:	4901                	li	s2,0
   10e50:	f715                	bnez	a4,10d7c <_fseeko_r+0x8e>
   10e52:	85a2                	mv	a1,s0
   10e54:	8526                	mv	a0,s1
   10e56:	738000ef          	jal	ra,1158e <__smakebuf_r>
   10e5a:	b70d                	j	10d7c <_fseeko_r+0x8e>
   10e5c:	01241583          	lh	a1,18(s0)
   10e60:	f405c2e3          	bltz	a1,10da4 <_fseeko_r+0xb6>
   10e64:	0030                	addi	a2,sp,8
   10e66:	8526                	mv	a0,s1
   10e68:	1b0000ef          	jal	ra,11018 <_fstat_r>
   10e6c:	14051563          	bnez	a0,10fb6 <_fseeko_r+0x2c8>
   10e70:	47b2                	lw	a5,12(sp)
   10e72:	66bd                	lui	a3,0xf
   10e74:	6721                	lui	a4,0x8
   10e76:	8ff5                	and	a5,a5,a3
   10e78:	01041683          	lh	a3,16(s0)
   10e7c:	f2e794e3          	bne	a5,a4,10da4 <_fseeko_r+0xb6>
   10e80:	4006e693          	ori	a3,a3,1024
   10e84:	40000793          	li	a5,1024
   10e88:	08f42423          	sw	a5,136(s0)
   10e8c:	00d41823          	sh	a3,16(s0)
   10e90:	8b52                	mv	s6,s4
   10e92:	0e091363          	bnez	s2,10f78 <_fseeko_r+0x28a>
   10e96:	040b9063          	bnez	s7,10ed6 <_fseeko_r+0x1e8>
   10e9a:	01045783          	lhu	a5,16(s0)
   10e9e:	03379713          	slli	a4,a5,0x33
   10ea2:	10075163          	bgez	a4,10fa4 <_fseeko_r+0x2b6>
   10ea6:	6848                	ld	a0,144(s0)
   10ea8:	441c                	lw	a5,8(s0)
   10eaa:	6c2c                	ld	a1,88(s0)
   10eac:	86be                	mv	a3,a5
   10eae:	40f50ab3          	sub	s5,a0,a5
   10eb2:	c1ed                	beqz	a1,10f94 <_fseeko_r+0x2a6>
   10eb4:	5834                	lw	a3,112(s0)
   10eb6:	40da8ab3          	sub	s5,s5,a3
   10eba:	a015                	j	10ede <_fseeko_r+0x1f0>
   10ebc:	0047f693          	andi	a3,a5,4
   10ec0:	09043a83          	ld	s5,144(s0)
   10ec4:	6c18                	ld	a4,24(s0)
   10ec6:	fab5                	bnez	a3,10e3a <_fseeko_r+0x14c>
   10ec8:	8ba1                	andi	a5,a5,8
   10eca:	d3c1                	beqz	a5,10e4a <_fseeko_r+0x15c>
   10ecc:	601c                	ld	a5,0(s0)
   10ece:	dfb5                	beqz	a5,10e4a <_fseeko_r+0x15c>
   10ed0:	8f99                	sub	a5,a5,a4
   10ed2:	9abe                	add	s5,s5,a5
   10ed4:	bf9d                	j	10e4a <_fseeko_r+0x15c>
   10ed6:	6c2c                	ld	a1,88(s0)
   10ed8:	cdcd                	beqz	a1,10f92 <_fseeko_r+0x2a4>
   10eda:	441c                	lw	a5,8(s0)
   10edc:	5834                	lw	a3,112(s0)
   10ede:	7438                	ld	a4,104(s0)
   10ee0:	6c10                	ld	a2,24(s0)
   10ee2:	9abe                	add	s5,s5,a5
   10ee4:	40c707b3          	sub	a5,a4,a2
   10ee8:	40fa8ab3          	sub	s5,s5,a5
   10eec:	96be                	add	a3,a3,a5
   10eee:	015b4663          	blt	s6,s5,10efa <_fseeko_r+0x20c>
   10ef2:	00da87b3          	add	a5,s5,a3
   10ef6:	0cfb6363          	bltu	s6,a5,10fbc <_fseeko_r+0x2ce>
   10efa:	08842a83          	lw	s5,136(s0)
   10efe:	780c                	ld	a1,48(s0)
   10f00:	4681                	li	a3,0
   10f02:	41500abb          	negw	s5,s5
   10f06:	016afab3          	and	s5,s5,s6
   10f0a:	8656                	mv	a2,s5
   10f0c:	8526                	mv	a0,s1
   10f0e:	9982                	jalr	s3
   10f10:	57fd                	li	a5,-1
   10f12:	e8f50fe3          	beq	a0,a5,10db0 <_fseeko_r+0xc2>
   10f16:	6c1c                	ld	a5,24(s0)
   10f18:	6c2c                	ld	a1,88(s0)
   10f1a:	00042423          	sw	zero,8(s0)
   10f1e:	e01c                	sd	a5,0(s0)
   10f20:	c991                	beqz	a1,10f34 <_fseeko_r+0x246>
   10f22:	07440793          	addi	a5,s0,116
   10f26:	00f58563          	beq	a1,a5,10f30 <_fseeko_r+0x242>
   10f2a:	8526                	mv	a0,s1
   10f2c:	b65ff0ef          	jal	ra,10a90 <_free_r>
   10f30:	04043c23          	sd	zero,88(s0)
   10f34:	01045783          	lhu	a5,16(s0)
   10f38:	415b0b33          	sub	s6,s6,s5
   10f3c:	fdf7f793          	andi	a5,a5,-33
   10f40:	00f41823          	sh	a5,16(s0)
   10f44:	020b0263          	beqz	s6,10f68 <_fseeko_r+0x27a>
   10f48:	85a2                	mv	a1,s0
   10f4a:	8526                	mv	a0,s1
   10f4c:	5f6010ef          	jal	ra,12542 <__srefill_r>
   10f50:	e60510e3          	bnez	a0,10db0 <_fseeko_r+0xc2>
   10f54:	441c                	lw	a5,8(s0)
   10f56:	e567ede3          	bltu	a5,s6,10db0 <_fseeko_r+0xc2>
   10f5a:	6018                	ld	a4,0(s0)
   10f5c:	416787bb          	subw	a5,a5,s6
   10f60:	c41c                	sw	a5,8(s0)
   10f62:	9b3a                	add	s6,s6,a4
   10f64:	01643023          	sd	s6,0(s0)
   10f68:	4621                	li	a2,8
   10f6a:	4581                	li	a1,0
   10f6c:	0a440513          	addi	a0,s0,164
   10f70:	765000ef          	jal	ra,11ed4 <memset>
   10f74:	4a81                	li	s5,0
   10f76:	b3e1                	j	10d3e <_fseeko_r+0x50>
   10f78:	01241583          	lh	a1,18(s0)
   10f7c:	0030                	addi	a2,sp,8
   10f7e:	8526                	mv	a0,s1
   10f80:	098000ef          	jal	ra,11018 <_fstat_r>
   10f84:	e20516e3          	bnez	a0,10db0 <_fseeko_r+0xc2>
   10f88:	6b62                	ld	s6,24(sp)
   10f8a:	9b52                	add	s6,s6,s4
   10f8c:	f40b95e3          	bnez	s7,10ed6 <_fseeko_r+0x1e8>
   10f90:	b729                	j	10e9a <_fseeko_r+0x1ac>
   10f92:	4414                	lw	a3,8(s0)
   10f94:	601c                	ld	a5,0(s0)
   10f96:	6c10                	ld	a2,24(s0)
   10f98:	4581                	li	a1,0
   10f9a:	8f91                	sub	a5,a5,a2
   10f9c:	40fa8ab3          	sub	s5,s5,a5
   10fa0:	96be                	add	a3,a3,a5
   10fa2:	b7b1                	j	10eee <_fseeko_r+0x200>
   10fa4:	780c                	ld	a1,48(s0)
   10fa6:	4685                	li	a3,1
   10fa8:	4601                	li	a2,0
   10faa:	8526                	mv	a0,s1
   10fac:	9982                	jalr	s3
   10fae:	57fd                	li	a5,-1
   10fb0:	eef51ce3          	bne	a0,a5,10ea8 <_fseeko_r+0x1ba>
   10fb4:	bbf5                	j	10db0 <_fseeko_r+0xc2>
   10fb6:	01041683          	lh	a3,16(s0)
   10fba:	b3ed                	j	10da4 <_fseeko_r+0xb6>
   10fbc:	2b01                	sext.w	s6,s6
   10fbe:	2a81                	sext.w	s5,s5
   10fc0:	415b07bb          	subw	a5,s6,s5
   10fc4:	015686bb          	addw	a3,a3,s5
   10fc8:	963e                	add	a2,a2,a5
   10fca:	416686bb          	subw	a3,a3,s6
   10fce:	e010                	sd	a2,0(s0)
   10fd0:	c414                	sw	a3,8(s0)
   10fd2:	c991                	beqz	a1,10fe6 <_fseeko_r+0x2f8>
   10fd4:	07440793          	addi	a5,s0,116
   10fd8:	00f58563          	beq	a1,a5,10fe2 <_fseeko_r+0x2f4>
   10fdc:	8526                	mv	a0,s1
   10fde:	ab3ff0ef          	jal	ra,10a90 <_free_r>
   10fe2:	04043c23          	sd	zero,88(s0)
   10fe6:	01045783          	lhu	a5,16(s0)
   10fea:	4621                	li	a2,8
   10fec:	4581                	li	a1,0
   10fee:	fdf7f793          	andi	a5,a5,-33
   10ff2:	00f41823          	sh	a5,16(s0)
   10ff6:	0a440513          	addi	a0,s0,164
   10ffa:	6db000ef          	jal	ra,11ed4 <memset>
   10ffe:	4a81                	li	s5,0
   11000:	bb3d                	j	10d3e <_fseeko_r+0x50>
   11002:	47f5                	li	a5,29
   11004:	c09c                	sw	a5,0(s1)
   11006:	5afd                	li	s5,-1
   11008:	bb1d                	j	10d3e <_fseeko_r+0x50>

000000000001100a <fseeko>:
   1100a:	86b2                	mv	a3,a2
   1100c:	862e                	mv	a2,a1
   1100e:	85aa                	mv	a1,a0
   11010:	7581b503          	ld	a0,1880(gp) # 1f6e8 <_impure_ptr>
   11014:	cdbff06f          	j	10cee <_fseeko_r>

0000000000011018 <_fstat_r>:
   11018:	1101                	addi	sp,sp,-32
   1101a:	87ae                	mv	a5,a1
   1101c:	e822                	sd	s0,16(sp)
   1101e:	e426                	sd	s1,8(sp)
   11020:	0001f437          	lui	s0,0x1f
   11024:	84aa                	mv	s1,a0
   11026:	85b2                	mv	a1,a2
   11028:	853e                	mv	a0,a5
   1102a:	ec06                	sd	ra,24(sp)
   1102c:	78042423          	sw	zero,1928(s0) # 1f788 <errno>
   11030:	1e60a0ef          	jal	ra,1b216 <_fstat>
   11034:	57fd                	li	a5,-1
   11036:	00f50763          	beq	a0,a5,11044 <_fstat_r+0x2c>
   1103a:	60e2                	ld	ra,24(sp)
   1103c:	6442                	ld	s0,16(sp)
   1103e:	64a2                	ld	s1,8(sp)
   11040:	6105                	addi	sp,sp,32
   11042:	8082                	ret
   11044:	78842783          	lw	a5,1928(s0)
   11048:	dbed                	beqz	a5,1103a <_fstat_r+0x22>
   1104a:	60e2                	ld	ra,24(sp)
   1104c:	6442                	ld	s0,16(sp)
   1104e:	c09c                	sw	a5,0(s1)
   11050:	64a2                	ld	s1,8(sp)
   11052:	6105                	addi	sp,sp,32
   11054:	8082                	ret

0000000000011056 <__sfvwrite_r>:
   11056:	6a1c                	ld	a5,16(a2)
   11058:	1a078e63          	beqz	a5,11214 <__sfvwrite_r+0x1be>
   1105c:	0105d783          	lhu	a5,16(a1)
   11060:	711d                	addi	sp,sp,-96
   11062:	e8a2                	sd	s0,80(sp)
   11064:	f852                	sd	s4,48(sp)
   11066:	f456                	sd	s5,40(sp)
   11068:	ec86                	sd	ra,88(sp)
   1106a:	e4a6                	sd	s1,72(sp)
   1106c:	e0ca                	sd	s2,64(sp)
   1106e:	fc4e                	sd	s3,56(sp)
   11070:	f05a                	sd	s6,32(sp)
   11072:	ec5e                	sd	s7,24(sp)
   11074:	e862                	sd	s8,16(sp)
   11076:	e466                	sd	s9,8(sp)
   11078:	e06a                	sd	s10,0(sp)
   1107a:	0087f713          	andi	a4,a5,8
   1107e:	842e                	mv	s0,a1
   11080:	8aaa                	mv	s5,a0
   11082:	8a32                	mv	s4,a2
   11084:	c335                	beqz	a4,110e8 <__sfvwrite_r+0x92>
   11086:	6d98                	ld	a4,24(a1)
   11088:	c325                	beqz	a4,110e8 <__sfvwrite_r+0x92>
   1108a:	0027f713          	andi	a4,a5,2
   1108e:	000a3903          	ld	s2,0(s4)
   11092:	cb25                	beqz	a4,11102 <__sfvwrite_r+0xac>
   11094:	6038                	ld	a4,64(s0)
   11096:	781c                	ld	a5,48(s0)
   11098:	80000b37          	lui	s6,0x80000
   1109c:	4981                	li	s3,0
   1109e:	4481                	li	s1,0
   110a0:	c00b4b13          	xori	s6,s6,-1024
   110a4:	864e                	mv	a2,s3
   110a6:	85be                	mv	a1,a5
   110a8:	8556                	mv	a0,s5
   110aa:	c88d                	beqz	s1,110dc <__sfvwrite_r+0x86>
   110ac:	86a6                	mv	a3,s1
   110ae:	009b7363          	bgeu	s6,s1,110b4 <__sfvwrite_r+0x5e>
   110b2:	86da                	mv	a3,s6
   110b4:	2681                	sext.w	a3,a3
   110b6:	9702                	jalr	a4
   110b8:	14a05663          	blez	a0,11204 <__sfvwrite_r+0x1ae>
   110bc:	010a3783          	ld	a5,16(s4)
   110c0:	99aa                	add	s3,s3,a0
   110c2:	8c89                	sub	s1,s1,a0
   110c4:	40a78533          	sub	a0,a5,a0
   110c8:	00aa3823          	sd	a0,16(s4)
   110cc:	10050863          	beqz	a0,111dc <__sfvwrite_r+0x186>
   110d0:	781c                	ld	a5,48(s0)
   110d2:	6038                	ld	a4,64(s0)
   110d4:	864e                	mv	a2,s3
   110d6:	85be                	mv	a1,a5
   110d8:	8556                	mv	a0,s5
   110da:	f8e9                	bnez	s1,110ac <__sfvwrite_r+0x56>
   110dc:	00093983          	ld	s3,0(s2)
   110e0:	00893483          	ld	s1,8(s2)
   110e4:	0941                	addi	s2,s2,16
   110e6:	bf7d                	j	110a4 <__sfvwrite_r+0x4e>
   110e8:	85a2                	mv	a1,s0
   110ea:	8556                	mv	a0,s5
   110ec:	416030ef          	jal	ra,14502 <__swsetup_r>
   110f0:	28051763          	bnez	a0,1137e <__sfvwrite_r+0x328>
   110f4:	01045783          	lhu	a5,16(s0)
   110f8:	000a3903          	ld	s2,0(s4)
   110fc:	0027f713          	andi	a4,a5,2
   11100:	fb51                	bnez	a4,11094 <__sfvwrite_r+0x3e>
   11102:	0017f713          	andi	a4,a5,1
   11106:	eb35                	bnez	a4,1117a <__sfvwrite_r+0x124>
   11108:	4444                	lw	s1,12(s0)
   1110a:	6008                	ld	a0,0(s0)
   1110c:	80000b37          	lui	s6,0x80000
   11110:	ffeb4b93          	xori	s7,s6,-2
   11114:	4c01                	li	s8,0
   11116:	4981                	li	s3,0
   11118:	fffb4b13          	not	s6,s6
   1111c:	8ca6                	mv	s9,s1
   1111e:	04098863          	beqz	s3,1116e <__sfvwrite_r+0x118>
   11122:	2007f713          	andi	a4,a5,512
   11126:	12070963          	beqz	a4,11258 <__sfvwrite_r+0x202>
   1112a:	8d26                	mv	s10,s1
   1112c:	1899f663          	bgeu	s3,s1,112b8 <__sfvwrite_r+0x262>
   11130:	8cce                	mv	s9,s3
   11132:	8d4e                	mv	s10,s3
   11134:	866a                	mv	a2,s10
   11136:	85e2                	mv	a1,s8
   11138:	4c7000ef          	jal	ra,11dfe <memmove>
   1113c:	445c                	lw	a5,12(s0)
   1113e:	6010                	ld	a2,0(s0)
   11140:	84ce                	mv	s1,s3
   11142:	41978cbb          	subw	s9,a5,s9
   11146:	966a                	add	a2,a2,s10
   11148:	01942623          	sw	s9,12(s0)
   1114c:	e010                	sd	a2,0(s0)
   1114e:	4981                	li	s3,0
   11150:	010a3783          	ld	a5,16(s4)
   11154:	9c26                	add	s8,s8,s1
   11156:	409784b3          	sub	s1,a5,s1
   1115a:	009a3823          	sd	s1,16(s4)
   1115e:	ccbd                	beqz	s1,111dc <__sfvwrite_r+0x186>
   11160:	4444                	lw	s1,12(s0)
   11162:	6008                	ld	a0,0(s0)
   11164:	01045783          	lhu	a5,16(s0)
   11168:	8ca6                	mv	s9,s1
   1116a:	fa099ce3          	bnez	s3,11122 <__sfvwrite_r+0xcc>
   1116e:	00093c03          	ld	s8,0(s2)
   11172:	00893983          	ld	s3,8(s2)
   11176:	0941                	addi	s2,s2,16
   11178:	b755                	j	1111c <__sfvwrite_r+0xc6>
   1117a:	4981                	li	s3,0
   1117c:	4501                	li	a0,0
   1117e:	4c81                	li	s9,0
   11180:	4481                	li	s1,0
   11182:	c8d9                	beqz	s1,11218 <__sfvwrite_r+0x1c2>
   11184:	c145                	beqz	a0,11224 <__sfvwrite_r+0x1ce>
   11186:	8c4e                	mv	s8,s3
   11188:	0134f363          	bgeu	s1,s3,1118e <__sfvwrite_r+0x138>
   1118c:	8c26                	mv	s8,s1
   1118e:	6008                	ld	a0,0(s0)
   11190:	6c1c                	ld	a5,24(s0)
   11192:	8b62                	mv	s6,s8
   11194:	5014                	lw	a3,32(s0)
   11196:	00a7f763          	bgeu	a5,a0,111a4 <__sfvwrite_r+0x14e>
   1119a:	4450                	lw	a2,12(s0)
   1119c:	00d60bbb          	addw	s7,a2,a3
   111a0:	098bcd63          	blt	s7,s8,1123a <__sfvwrite_r+0x1e4>
   111a4:	18dc4463          	blt	s8,a3,1132c <__sfvwrite_r+0x2d6>
   111a8:	603c                	ld	a5,64(s0)
   111aa:	780c                	ld	a1,48(s0)
   111ac:	8666                	mv	a2,s9
   111ae:	8556                	mv	a0,s5
   111b0:	9782                	jalr	a5
   111b2:	8b2a                	mv	s6,a0
   111b4:	04a05863          	blez	a0,11204 <__sfvwrite_r+0x1ae>
   111b8:	0005061b          	sext.w	a2,a0
   111bc:	40c989bb          	subw	s3,s3,a2
   111c0:	4505                	li	a0,1
   111c2:	02098c63          	beqz	s3,111fa <__sfvwrite_r+0x1a4>
   111c6:	010a3783          	ld	a5,16(s4)
   111ca:	9cda                	add	s9,s9,s6
   111cc:	416484b3          	sub	s1,s1,s6
   111d0:	41678b33          	sub	s6,a5,s6
   111d4:	016a3823          	sd	s6,16(s4)
   111d8:	fa0b15e3          	bnez	s6,11182 <__sfvwrite_r+0x12c>
   111dc:	4501                	li	a0,0
   111de:	60e6                	ld	ra,88(sp)
   111e0:	6446                	ld	s0,80(sp)
   111e2:	64a6                	ld	s1,72(sp)
   111e4:	6906                	ld	s2,64(sp)
   111e6:	79e2                	ld	s3,56(sp)
   111e8:	7a42                	ld	s4,48(sp)
   111ea:	7aa2                	ld	s5,40(sp)
   111ec:	7b02                	ld	s6,32(sp)
   111ee:	6be2                	ld	s7,24(sp)
   111f0:	6c42                	ld	s8,16(sp)
   111f2:	6ca2                	ld	s9,8(sp)
   111f4:	6d02                	ld	s10,0(sp)
   111f6:	6125                	addi	sp,sp,96
   111f8:	8082                	ret
   111fa:	85a2                	mv	a1,s0
   111fc:	8556                	mv	a0,s5
   111fe:	aaaff0ef          	jal	ra,104a8 <_fflush_r>
   11202:	d171                	beqz	a0,111c6 <__sfvwrite_r+0x170>
   11204:	01041783          	lh	a5,16(s0)
   11208:	0407e793          	ori	a5,a5,64
   1120c:	00f41823          	sh	a5,16(s0)
   11210:	557d                	li	a0,-1
   11212:	b7f1                	j	111de <__sfvwrite_r+0x188>
   11214:	4501                	li	a0,0
   11216:	8082                	ret
   11218:	00893483          	ld	s1,8(s2)
   1121c:	00093c83          	ld	s9,0(s2)
   11220:	0941                	addi	s2,s2,16
   11222:	d8fd                	beqz	s1,11218 <__sfvwrite_r+0x1c2>
   11224:	8626                	mv	a2,s1
   11226:	45a9                	li	a1,10
   11228:	8566                	mv	a0,s9
   1122a:	249000ef          	jal	ra,11c72 <memchr>
   1122e:	12050f63          	beqz	a0,1136c <__sfvwrite_r+0x316>
   11232:	0505                	addi	a0,a0,1
   11234:	419509bb          	subw	s3,a0,s9
   11238:	b7b9                	j	11186 <__sfvwrite_r+0x130>
   1123a:	85e6                	mv	a1,s9
   1123c:	865e                	mv	a2,s7
   1123e:	3c1000ef          	jal	ra,11dfe <memmove>
   11242:	601c                	ld	a5,0(s0)
   11244:	85a2                	mv	a1,s0
   11246:	8556                	mv	a0,s5
   11248:	97de                	add	a5,a5,s7
   1124a:	e01c                	sd	a5,0(s0)
   1124c:	a5cff0ef          	jal	ra,104a8 <_fflush_r>
   11250:	f955                	bnez	a0,11204 <__sfvwrite_r+0x1ae>
   11252:	865e                	mv	a2,s7
   11254:	8b5e                	mv	s6,s7
   11256:	b79d                	j	111bc <__sfvwrite_r+0x166>
   11258:	6c1c                	ld	a5,24(s0)
   1125a:	02a7e863          	bltu	a5,a0,1128a <__sfvwrite_r+0x234>
   1125e:	501c                	lw	a5,32(s0)
   11260:	02f9e563          	bltu	s3,a5,1128a <__sfvwrite_r+0x234>
   11264:	86ce                	mv	a3,s3
   11266:	013bf363          	bgeu	s7,s3,1126c <__sfvwrite_r+0x216>
   1126a:	86da                	mv	a3,s6
   1126c:	02f6c6bb          	divw	a3,a3,a5
   11270:	6038                	ld	a4,64(s0)
   11272:	780c                	ld	a1,48(s0)
   11274:	8662                	mv	a2,s8
   11276:	8556                	mv	a0,s5
   11278:	02f686bb          	mulw	a3,a3,a5
   1127c:	9702                	jalr	a4
   1127e:	f8a053e3          	blez	a0,11204 <__sfvwrite_r+0x1ae>
   11282:	84aa                	mv	s1,a0
   11284:	409989b3          	sub	s3,s3,s1
   11288:	b5e1                	j	11150 <__sfvwrite_r+0xfa>
   1128a:	0099f363          	bgeu	s3,s1,11290 <__sfvwrite_r+0x23a>
   1128e:	84ce                	mv	s1,s3
   11290:	8626                	mv	a2,s1
   11292:	85e2                	mv	a1,s8
   11294:	36b000ef          	jal	ra,11dfe <memmove>
   11298:	445c                	lw	a5,12(s0)
   1129a:	6018                	ld	a4,0(s0)
   1129c:	409786bb          	subw	a3,a5,s1
   112a0:	9726                	add	a4,a4,s1
   112a2:	c454                	sw	a3,12(s0)
   112a4:	e018                	sd	a4,0(s0)
   112a6:	fef9                	bnez	a3,11284 <__sfvwrite_r+0x22e>
   112a8:	85a2                	mv	a1,s0
   112aa:	8556                	mv	a0,s5
   112ac:	9fcff0ef          	jal	ra,104a8 <_fflush_r>
   112b0:	f931                	bnez	a0,11204 <__sfvwrite_r+0x1ae>
   112b2:	409989b3          	sub	s3,s3,s1
   112b6:	bd69                	j	11150 <__sfvwrite_r+0xfa>
   112b8:	4807f713          	andi	a4,a5,1152
   112bc:	e6070ce3          	beqz	a4,11134 <__sfvwrite_r+0xde>
   112c0:	5014                	lw	a3,32(s0)
   112c2:	6c0c                	ld	a1,24(s0)
   112c4:	00198713          	addi	a4,s3,1
   112c8:	0016949b          	slliw	s1,a3,0x1
   112cc:	9ea5                	addw	a3,a3,s1
   112ce:	8d0d                	sub	a0,a0,a1
   112d0:	01f6d49b          	srliw	s1,a3,0x1f
   112d4:	00050c9b          	sext.w	s9,a0
   112d8:	9cb5                	addw	s1,s1,a3
   112da:	4014d49b          	sraiw	s1,s1,0x1
   112de:	9766                	add	a4,a4,s9
   112e0:	00e4f563          	bgeu	s1,a4,112ea <__sfvwrite_r+0x294>
   112e4:	0019849b          	addiw	s1,s3,1
   112e8:	9ca9                	addw	s1,s1,a0
   112ea:	4007f793          	andi	a5,a5,1024
   112ee:	cfa9                	beqz	a5,11348 <__sfvwrite_r+0x2f2>
   112f0:	85a6                	mv	a1,s1
   112f2:	8556                	mv	a0,s5
   112f4:	356000ef          	jal	ra,1164a <_malloc_r>
   112f8:	8d2a                	mv	s10,a0
   112fa:	cd25                	beqz	a0,11372 <__sfvwrite_r+0x31c>
   112fc:	6c0c                	ld	a1,24(s0)
   112fe:	8666                	mv	a2,s9
   11300:	21d000ef          	jal	ra,11d1c <memcpy>
   11304:	01045783          	lhu	a5,16(s0)
   11308:	b7f7f793          	andi	a5,a5,-1153
   1130c:	0807e793          	ori	a5,a5,128
   11310:	00f41823          	sh	a5,16(s0)
   11314:	019d0533          	add	a0,s10,s9
   11318:	419487bb          	subw	a5,s1,s9
   1131c:	01a43c23          	sd	s10,24(s0)
   11320:	e008                	sd	a0,0(s0)
   11322:	d004                	sw	s1,32(s0)
   11324:	8cce                	mv	s9,s3
   11326:	c45c                	sw	a5,12(s0)
   11328:	8d4e                	mv	s10,s3
   1132a:	b529                	j	11134 <__sfvwrite_r+0xde>
   1132c:	8662                	mv	a2,s8
   1132e:	85e6                	mv	a1,s9
   11330:	2cf000ef          	jal	ra,11dfe <memmove>
   11334:	4458                	lw	a4,12(s0)
   11336:	601c                	ld	a5,0(s0)
   11338:	000c061b          	sext.w	a2,s8
   1133c:	9f11                	subw	a4,a4,a2
   1133e:	9c3e                	add	s8,s8,a5
   11340:	c458                	sw	a4,12(s0)
   11342:	01843023          	sd	s8,0(s0)
   11346:	bd9d                	j	111bc <__sfvwrite_r+0x166>
   11348:	8626                	mv	a2,s1
   1134a:	8556                	mv	a0,s5
   1134c:	4c9000ef          	jal	ra,12014 <_realloc_r>
   11350:	8d2a                	mv	s10,a0
   11352:	f169                	bnez	a0,11314 <__sfvwrite_r+0x2be>
   11354:	6c0c                	ld	a1,24(s0)
   11356:	8556                	mv	a0,s5
   11358:	f38ff0ef          	jal	ra,10a90 <_free_r>
   1135c:	01041783          	lh	a5,16(s0)
   11360:	4731                	li	a4,12
   11362:	00eaa023          	sw	a4,0(s5)
   11366:	f7f7f793          	andi	a5,a5,-129
   1136a:	bd79                	j	11208 <__sfvwrite_r+0x1b2>
   1136c:	0014899b          	addiw	s3,s1,1
   11370:	bd19                	j	11186 <__sfvwrite_r+0x130>
   11372:	47b1                	li	a5,12
   11374:	00faa023          	sw	a5,0(s5)
   11378:	01041783          	lh	a5,16(s0)
   1137c:	b571                	j	11208 <__sfvwrite_r+0x1b2>
   1137e:	557d                	li	a0,-1
   11380:	bdb9                	j	111de <__sfvwrite_r+0x188>

0000000000011382 <_fwalk>:
   11382:	715d                	addi	sp,sp,-80
   11384:	f84a                	sd	s2,48(sp)
   11386:	e486                	sd	ra,72(sp)
   11388:	e0a2                	sd	s0,64(sp)
   1138a:	fc26                	sd	s1,56(sp)
   1138c:	f44e                	sd	s3,40(sp)
   1138e:	f052                	sd	s4,32(sp)
   11390:	ec56                	sd	s5,24(sp)
   11392:	e85a                	sd	s6,16(sp)
   11394:	e45e                	sd	s7,8(sp)
   11396:	52050913          	addi	s2,a0,1312
   1139a:	06090763          	beqz	s2,11408 <_fwalk+0x86>
   1139e:	8a2e                	mv	s4,a1
   113a0:	4b01                	li	s6,0
   113a2:	0b000a93          	li	s5,176
   113a6:	4b85                	li	s7,1
   113a8:	59fd                	li	s3,-1
   113aa:	00892783          	lw	a5,8(s2)
   113ae:	01093403          	ld	s0,16(s2)
   113b2:	02f05b63          	blez	a5,113e8 <_fwalk+0x66>
   113b6:	fff7849b          	addiw	s1,a5,-1
   113ba:	1482                	slli	s1,s1,0x20
   113bc:	9081                	srli	s1,s1,0x20
   113be:	0485                	addi	s1,s1,1
   113c0:	035484b3          	mul	s1,s1,s5
   113c4:	94a2                	add	s1,s1,s0
   113c6:	01045783          	lhu	a5,16(s0)
   113ca:	00fbfb63          	bgeu	s7,a5,113e0 <_fwalk+0x5e>
   113ce:	01241783          	lh	a5,18(s0)
   113d2:	8522                	mv	a0,s0
   113d4:	01378663          	beq	a5,s3,113e0 <_fwalk+0x5e>
   113d8:	9a02                	jalr	s4
   113da:	01656b33          	or	s6,a0,s6
   113de:	2b01                	sext.w	s6,s6
   113e0:	0b040413          	addi	s0,s0,176
   113e4:	fe9411e3          	bne	s0,s1,113c6 <_fwalk+0x44>
   113e8:	00093903          	ld	s2,0(s2)
   113ec:	fa091fe3          	bnez	s2,113aa <_fwalk+0x28>
   113f0:	60a6                	ld	ra,72(sp)
   113f2:	6406                	ld	s0,64(sp)
   113f4:	855a                	mv	a0,s6
   113f6:	74e2                	ld	s1,56(sp)
   113f8:	7942                	ld	s2,48(sp)
   113fa:	79a2                	ld	s3,40(sp)
   113fc:	7a02                	ld	s4,32(sp)
   113fe:	6ae2                	ld	s5,24(sp)
   11400:	6b42                	ld	s6,16(sp)
   11402:	6ba2                	ld	s7,8(sp)
   11404:	6161                	addi	sp,sp,80
   11406:	8082                	ret
   11408:	4b01                	li	s6,0
   1140a:	b7dd                	j	113f0 <_fwalk+0x6e>

000000000001140c <_fwalk_reent>:
   1140c:	715d                	addi	sp,sp,-80
   1140e:	f84a                	sd	s2,48(sp)
   11410:	e486                	sd	ra,72(sp)
   11412:	e0a2                	sd	s0,64(sp)
   11414:	fc26                	sd	s1,56(sp)
   11416:	f44e                	sd	s3,40(sp)
   11418:	f052                	sd	s4,32(sp)
   1141a:	ec56                	sd	s5,24(sp)
   1141c:	e85a                	sd	s6,16(sp)
   1141e:	e45e                	sd	s7,8(sp)
   11420:	e062                	sd	s8,0(sp)
   11422:	52050913          	addi	s2,a0,1312
   11426:	06090a63          	beqz	s2,1149a <_fwalk_reent+0x8e>
   1142a:	8aae                	mv	s5,a1
   1142c:	89aa                	mv	s3,a0
   1142e:	4b81                	li	s7,0
   11430:	0b000b13          	li	s6,176
   11434:	4c05                	li	s8,1
   11436:	5a7d                	li	s4,-1
   11438:	00892783          	lw	a5,8(s2)
   1143c:	01093403          	ld	s0,16(s2)
   11440:	02f05c63          	blez	a5,11478 <_fwalk_reent+0x6c>
   11444:	fff7849b          	addiw	s1,a5,-1
   11448:	1482                	slli	s1,s1,0x20
   1144a:	9081                	srli	s1,s1,0x20
   1144c:	0485                	addi	s1,s1,1
   1144e:	036484b3          	mul	s1,s1,s6
   11452:	94a2                	add	s1,s1,s0
   11454:	01045783          	lhu	a5,16(s0)
   11458:	00fc7c63          	bgeu	s8,a5,11470 <_fwalk_reent+0x64>
   1145c:	01241783          	lh	a5,18(s0)
   11460:	85a2                	mv	a1,s0
   11462:	854e                	mv	a0,s3
   11464:	01478663          	beq	a5,s4,11470 <_fwalk_reent+0x64>
   11468:	9a82                	jalr	s5
   1146a:	01756bb3          	or	s7,a0,s7
   1146e:	2b81                	sext.w	s7,s7
   11470:	0b040413          	addi	s0,s0,176
   11474:	fe9410e3          	bne	s0,s1,11454 <_fwalk_reent+0x48>
   11478:	00093903          	ld	s2,0(s2)
   1147c:	fa091ee3          	bnez	s2,11438 <_fwalk_reent+0x2c>
   11480:	60a6                	ld	ra,72(sp)
   11482:	6406                	ld	s0,64(sp)
   11484:	855e                	mv	a0,s7
   11486:	74e2                	ld	s1,56(sp)
   11488:	7942                	ld	s2,48(sp)
   1148a:	79a2                	ld	s3,40(sp)
   1148c:	7a02                	ld	s4,32(sp)
   1148e:	6ae2                	ld	s5,24(sp)
   11490:	6b42                	ld	s6,16(sp)
   11492:	6ba2                	ld	s7,8(sp)
   11494:	6c02                	ld	s8,0(sp)
   11496:	6161                	addi	sp,sp,80
   11498:	8082                	ret
   1149a:	4b81                	li	s7,0
   1149c:	b7d5                	j	11480 <_fwalk_reent+0x74>

000000000001149e <__libc_init_array>:
   1149e:	1101                	addi	sp,sp,-32
   114a0:	e822                	sd	s0,16(sp)
   114a2:	e04a                	sd	s2,0(sp)
   114a4:	6479                	lui	s0,0x1e
   114a6:	6979                	lui	s2,0x1e
   114a8:	58c40793          	addi	a5,s0,1420 # 1e58c <__preinit_array_end>
   114ac:	58c90913          	addi	s2,s2,1420 # 1e58c <__preinit_array_end>
   114b0:	40f90933          	sub	s2,s2,a5
   114b4:	ec06                	sd	ra,24(sp)
   114b6:	e426                	sd	s1,8(sp)
   114b8:	40395913          	srai	s2,s2,0x3
   114bc:	00090b63          	beqz	s2,114d2 <__libc_init_array+0x34>
   114c0:	58c40413          	addi	s0,s0,1420
   114c4:	4481                	li	s1,0
   114c6:	601c                	ld	a5,0(s0)
   114c8:	0485                	addi	s1,s1,1
   114ca:	0421                	addi	s0,s0,8
   114cc:	9782                	jalr	a5
   114ce:	fe991ce3          	bne	s2,s1,114c6 <__libc_init_array+0x28>
   114d2:	c31fe0ef          	jal	ra,10102 <_fini>
   114d6:	6479                	lui	s0,0x1e
   114d8:	6979                	lui	s2,0x1e
   114da:	59040793          	addi	a5,s0,1424 # 1e590 <__init_array_start>
   114de:	5a090913          	addi	s2,s2,1440 # 1e5a0 <__init_array_end>
   114e2:	40f90933          	sub	s2,s2,a5
   114e6:	40395913          	srai	s2,s2,0x3
   114ea:	00090b63          	beqz	s2,11500 <__libc_init_array+0x62>
   114ee:	59040413          	addi	s0,s0,1424
   114f2:	4481                	li	s1,0
   114f4:	601c                	ld	a5,0(s0)
   114f6:	0485                	addi	s1,s1,1
   114f8:	0421                	addi	s0,s0,8
   114fa:	9782                	jalr	a5
   114fc:	fe991ce3          	bne	s2,s1,114f4 <__libc_init_array+0x56>
   11500:	60e2                	ld	ra,24(sp)
   11502:	6442                	ld	s0,16(sp)
   11504:	64a2                	ld	s1,8(sp)
   11506:	6902                	ld	s2,0(sp)
   11508:	6105                	addi	sp,sp,32
   1150a:	8082                	ret

000000000001150c <__swhatbuf_r>:
   1150c:	7175                	addi	sp,sp,-144
   1150e:	e122                	sd	s0,128(sp)
   11510:	842e                	mv	s0,a1
   11512:	01259583          	lh	a1,18(a1)
   11516:	fca6                	sd	s1,120(sp)
   11518:	f8ca                	sd	s2,112(sp)
   1151a:	e506                	sd	ra,136(sp)
   1151c:	84b2                	mv	s1,a2
   1151e:	8936                	mv	s2,a3
   11520:	0205cc63          	bltz	a1,11558 <__swhatbuf_r+0x4c>
   11524:	0030                	addi	a2,sp,8
   11526:	af3ff0ef          	jal	ra,11018 <_fstat_r>
   1152a:	02054763          	bltz	a0,11558 <__swhatbuf_r+0x4c>
   1152e:	47b2                	lw	a5,12(sp)
   11530:	673d                	lui	a4,0xf
   11532:	60aa                	ld	ra,136(sp)
   11534:	8ff9                	and	a5,a5,a4
   11536:	6709                	lui	a4,0x2
   11538:	8f99                	sub	a5,a5,a4
   1153a:	0017b793          	seqz	a5,a5
   1153e:	640a                	ld	s0,128(sp)
   11540:	00f92023          	sw	a5,0(s2)
   11544:	40000793          	li	a5,1024
   11548:	e09c                	sd	a5,0(s1)
   1154a:	6505                	lui	a0,0x1
   1154c:	74e6                	ld	s1,120(sp)
   1154e:	7946                	ld	s2,112(sp)
   11550:	80050513          	addi	a0,a0,-2048 # 800 <register_fini-0xf8b0>
   11554:	6149                	addi	sp,sp,144
   11556:	8082                	ret
   11558:	01045783          	lhu	a5,16(s0)
   1155c:	00092023          	sw	zero,0(s2)
   11560:	0807f793          	andi	a5,a5,128
   11564:	cb99                	beqz	a5,1157a <__swhatbuf_r+0x6e>
   11566:	60aa                	ld	ra,136(sp)
   11568:	640a                	ld	s0,128(sp)
   1156a:	04000793          	li	a5,64
   1156e:	e09c                	sd	a5,0(s1)
   11570:	7946                	ld	s2,112(sp)
   11572:	74e6                	ld	s1,120(sp)
   11574:	4501                	li	a0,0
   11576:	6149                	addi	sp,sp,144
   11578:	8082                	ret
   1157a:	60aa                	ld	ra,136(sp)
   1157c:	640a                	ld	s0,128(sp)
   1157e:	40000793          	li	a5,1024
   11582:	e09c                	sd	a5,0(s1)
   11584:	7946                	ld	s2,112(sp)
   11586:	74e6                	ld	s1,120(sp)
   11588:	4501                	li	a0,0
   1158a:	6149                	addi	sp,sp,144
   1158c:	8082                	ret

000000000001158e <__smakebuf_r>:
   1158e:	0105d703          	lhu	a4,16(a1)
   11592:	7179                	addi	sp,sp,-48
   11594:	f022                	sd	s0,32(sp)
   11596:	f406                	sd	ra,40(sp)
   11598:	ec26                	sd	s1,24(sp)
   1159a:	e84a                	sd	s2,16(sp)
   1159c:	8b09                	andi	a4,a4,2
   1159e:	842e                	mv	s0,a1
   115a0:	cf09                	beqz	a4,115ba <__smakebuf_r+0x2c>
   115a2:	07758713          	addi	a4,a1,119
   115a6:	e198                	sd	a4,0(a1)
   115a8:	ed98                	sd	a4,24(a1)
   115aa:	4705                	li	a4,1
   115ac:	d198                	sw	a4,32(a1)
   115ae:	70a2                	ld	ra,40(sp)
   115b0:	7402                	ld	s0,32(sp)
   115b2:	64e2                	ld	s1,24(sp)
   115b4:	6942                	ld	s2,16(sp)
   115b6:	6145                	addi	sp,sp,48
   115b8:	8082                	ret
   115ba:	0054                	addi	a3,sp,4
   115bc:	0030                	addi	a2,sp,8
   115be:	84aa                	mv	s1,a0
   115c0:	f4dff0ef          	jal	ra,1150c <__swhatbuf_r>
   115c4:	65a2                	ld	a1,8(sp)
   115c6:	892a                	mv	s2,a0
   115c8:	8526                	mv	a0,s1
   115ca:	080000ef          	jal	ra,1164a <_malloc_r>
   115ce:	01041783          	lh	a5,16(s0)
   115d2:	c915                	beqz	a0,11606 <__smakebuf_r+0x78>
   115d4:	00010737          	lui	a4,0x10
   115d8:	5d870713          	addi	a4,a4,1496 # 105d8 <_cleanup_r>
   115dc:	ecb8                	sd	a4,88(s1)
   115de:	6722                	ld	a4,8(sp)
   115e0:	4692                	lw	a3,4(sp)
   115e2:	0807e793          	ori	a5,a5,128
   115e6:	00f41823          	sh	a5,16(s0)
   115ea:	e008                	sd	a0,0(s0)
   115ec:	ec08                	sd	a0,24(s0)
   115ee:	d018                	sw	a4,32(s0)
   115f0:	ea95                	bnez	a3,11624 <__smakebuf_r+0x96>
   115f2:	0127e7b3          	or	a5,a5,s2
   115f6:	00f41823          	sh	a5,16(s0)
   115fa:	70a2                	ld	ra,40(sp)
   115fc:	7402                	ld	s0,32(sp)
   115fe:	64e2                	ld	s1,24(sp)
   11600:	6942                	ld	s2,16(sp)
   11602:	6145                	addi	sp,sp,48
   11604:	8082                	ret
   11606:	2007f713          	andi	a4,a5,512
   1160a:	f355                	bnez	a4,115ae <__smakebuf_r+0x20>
   1160c:	9bf1                	andi	a5,a5,-4
   1160e:	0027e793          	ori	a5,a5,2
   11612:	07740713          	addi	a4,s0,119
   11616:	00f41823          	sh	a5,16(s0)
   1161a:	4785                	li	a5,1
   1161c:	e018                	sd	a4,0(s0)
   1161e:	ec18                	sd	a4,24(s0)
   11620:	d01c                	sw	a5,32(s0)
   11622:	b771                	j	115ae <__smakebuf_r+0x20>
   11624:	01241583          	lh	a1,18(s0)
   11628:	8526                	mv	a0,s1
   1162a:	1b8030ef          	jal	ra,147e2 <_isatty_r>
   1162e:	e501                	bnez	a0,11636 <__smakebuf_r+0xa8>
   11630:	01041783          	lh	a5,16(s0)
   11634:	bf7d                	j	115f2 <__smakebuf_r+0x64>
   11636:	01045783          	lhu	a5,16(s0)
   1163a:	9bf1                	andi	a5,a5,-4
   1163c:	0017e793          	ori	a5,a5,1
   11640:	0107979b          	slliw	a5,a5,0x10
   11644:	4107d79b          	sraiw	a5,a5,0x10
   11648:	b76d                	j	115f2 <__smakebuf_r+0x64>

000000000001164a <_malloc_r>:
   1164a:	711d                	addi	sp,sp,-96
   1164c:	e4a6                	sd	s1,72(sp)
   1164e:	e0ca                	sd	s2,64(sp)
   11650:	ec86                	sd	ra,88(sp)
   11652:	e8a2                	sd	s0,80(sp)
   11654:	fc4e                	sd	s3,56(sp)
   11656:	f852                	sd	s4,48(sp)
   11658:	f456                	sd	s5,40(sp)
   1165a:	f05a                	sd	s6,32(sp)
   1165c:	ec5e                	sd	s7,24(sp)
   1165e:	e862                	sd	s8,16(sp)
   11660:	e466                	sd	s9,8(sp)
   11662:	01758493          	addi	s1,a1,23
   11666:	02e00793          	li	a5,46
   1166a:	892a                	mv	s2,a0
   1166c:	0697e863          	bltu	a5,s1,116dc <_malloc_r+0x92>
   11670:	02000793          	li	a5,32
   11674:	04b7e363          	bltu	a5,a1,116ba <_malloc_r+0x70>
   11678:	107000ef          	jal	ra,11f7e <__malloc_lock>
   1167c:	02000493          	li	s1,32
   11680:	05000793          	li	a5,80
   11684:	4611                	li	a2,4
   11686:	69fd                	lui	s3,0x1f
   11688:	cf098993          	addi	s3,s3,-784 # 1ecf0 <__malloc_av_>
   1168c:	97ce                	add	a5,a5,s3
   1168e:	6780                	ld	s0,8(a5)
   11690:	ff078713          	addi	a4,a5,-16
   11694:	1ee40a63          	beq	s0,a4,11888 <_malloc_r+0x23e>
   11698:	641c                	ld	a5,8(s0)
   1169a:	6c14                	ld	a3,24(s0)
   1169c:	6810                	ld	a2,16(s0)
   1169e:	9bf1                	andi	a5,a5,-4
   116a0:	97a2                	add	a5,a5,s0
   116a2:	6798                	ld	a4,8(a5)
   116a4:	ee14                	sd	a3,24(a2)
   116a6:	ea90                	sd	a2,16(a3)
   116a8:	00176713          	ori	a4,a4,1
   116ac:	854a                	mv	a0,s2
   116ae:	e798                	sd	a4,8(a5)
   116b0:	0d1000ef          	jal	ra,11f80 <__malloc_unlock>
   116b4:	01040513          	addi	a0,s0,16
   116b8:	a029                	j	116c2 <_malloc_r+0x78>
   116ba:	47b1                	li	a5,12
   116bc:	00f92023          	sw	a5,0(s2)
   116c0:	4501                	li	a0,0
   116c2:	60e6                	ld	ra,88(sp)
   116c4:	6446                	ld	s0,80(sp)
   116c6:	64a6                	ld	s1,72(sp)
   116c8:	6906                	ld	s2,64(sp)
   116ca:	79e2                	ld	s3,56(sp)
   116cc:	7a42                	ld	s4,48(sp)
   116ce:	7aa2                	ld	s5,40(sp)
   116d0:	7b02                	ld	s6,32(sp)
   116d2:	6be2                	ld	s7,24(sp)
   116d4:	6c42                	ld	s8,16(sp)
   116d6:	6ca2                	ld	s9,8(sp)
   116d8:	6125                	addi	sp,sp,96
   116da:	8082                	ret
   116dc:	800007b7          	lui	a5,0x80000
   116e0:	98c1                	andi	s1,s1,-16
   116e2:	fff7c793          	not	a5,a5
   116e6:	fc97eae3          	bltu	a5,s1,116ba <_malloc_r+0x70>
   116ea:	fcb4e8e3          	bltu	s1,a1,116ba <_malloc_r+0x70>
   116ee:	091000ef          	jal	ra,11f7e <__malloc_lock>
   116f2:	1f700793          	li	a5,503
   116f6:	3697fa63          	bgeu	a5,s1,11a6a <_malloc_r+0x420>
   116fa:	0094d793          	srli	a5,s1,0x9
   116fe:	28078263          	beqz	a5,11982 <_malloc_r+0x338>
   11702:	4711                	li	a4,4
   11704:	30f76763          	bltu	a4,a5,11a12 <_malloc_r+0x3c8>
   11708:	0064d513          	srli	a0,s1,0x6
   1170c:	2501                	sext.w	a0,a0
   1170e:	0395061b          	addiw	a2,a0,57
   11712:	0016169b          	slliw	a3,a2,0x1
   11716:	0385051b          	addiw	a0,a0,56
   1171a:	068e                	slli	a3,a3,0x3
   1171c:	69fd                	lui	s3,0x1f
   1171e:	cf098993          	addi	s3,s3,-784 # 1ecf0 <__malloc_av_>
   11722:	96ce                	add	a3,a3,s3
   11724:	6680                	ld	s0,8(a3)
   11726:	16c1                	addi	a3,a3,-16
   11728:	16868463          	beq	a3,s0,11890 <_malloc_r+0x246>
   1172c:	641c                	ld	a5,8(s0)
   1172e:	45fd                	li	a1,31
   11730:	9bf1                	andi	a5,a5,-4
   11732:	40978733          	sub	a4,a5,s1
   11736:	00e5cd63          	blt	a1,a4,11750 <_malloc_r+0x106>
   1173a:	28075563          	bgez	a4,119c4 <_malloc_r+0x37a>
   1173e:	6c00                	ld	s0,24(s0)
   11740:	14868863          	beq	a3,s0,11890 <_malloc_r+0x246>
   11744:	641c                	ld	a5,8(s0)
   11746:	9bf1                	andi	a5,a5,-4
   11748:	40978733          	sub	a4,a5,s1
   1174c:	fee5d7e3          	bge	a1,a4,1173a <_malloc_r+0xf0>
   11750:	0209b403          	ld	s0,32(s3)
   11754:	862a                	mv	a2,a0
   11756:	657d                	lui	a0,0x1f
   11758:	d0050513          	addi	a0,a0,-768 # 1ed00 <__malloc_av_+0x10>
   1175c:	14a41163          	bne	s0,a0,1189e <_malloc_r+0x254>
   11760:	0089b783          	ld	a5,8(s3)
   11764:	4026571b          	sraiw	a4,a2,0x2
   11768:	4685                	li	a3,1
   1176a:	00e696b3          	sll	a3,a3,a4
   1176e:	18d7fa63          	bgeu	a5,a3,11902 <_malloc_r+0x2b8>
   11772:	0109b403          	ld	s0,16(s3)
   11776:	00843a03          	ld	s4,8(s0)
   1177a:	ffca7a93          	andi	s5,s4,-4
   1177e:	009ae763          	bltu	s5,s1,1178c <_malloc_r+0x142>
   11782:	409a87b3          	sub	a5,s5,s1
   11786:	477d                	li	a4,31
   11788:	20f74f63          	blt	a4,a5,119a6 <_malloc_r+0x35c>
   1178c:	7801ba03          	ld	s4,1920(gp) # 1f710 <__malloc_top_pad>
   11790:	7601b703          	ld	a4,1888(gp) # 1f6f0 <__malloc_sbrk_base>
   11794:	57fd                	li	a5,-1
   11796:	01540c33          	add	s8,s0,s5
   1179a:	9a26                	add	s4,s4,s1
   1179c:	36f70763          	beq	a4,a5,11b0a <_malloc_r+0x4c0>
   117a0:	6785                	lui	a5,0x1
   117a2:	07fd                	addi	a5,a5,31
   117a4:	9a3e                	add	s4,s4,a5
   117a6:	77fd                	lui	a5,0xfffff
   117a8:	00fa7a33          	and	s4,s4,a5
   117ac:	85d2                	mv	a1,s4
   117ae:	854a                	mv	a0,s2
   117b0:	6f5000ef          	jal	ra,126a4 <_sbrk_r>
   117b4:	57fd                	li	a5,-1
   117b6:	8b2a                	mv	s6,a0
   117b8:	2cf50f63          	beq	a0,a5,11a96 <_malloc_r+0x44c>
   117bc:	2d856b63          	bltu	a0,s8,11a92 <_malloc_r+0x448>
   117c0:	7d018b93          	addi	s7,gp,2000 # 1f760 <__malloc_current_mallinfo>
   117c4:	000ba703          	lw	a4,0(s7)
   117c8:	014707bb          	addw	a5,a4,s4
   117cc:	00fba023          	sw	a5,0(s7)
   117d0:	86be                	mv	a3,a5
   117d2:	3cac0c63          	beq	s8,a0,11baa <_malloc_r+0x560>
   117d6:	7601b703          	ld	a4,1888(gp) # 1f6f0 <__malloc_sbrk_base>
   117da:	57fd                	li	a5,-1
   117dc:	3ef70363          	beq	a4,a5,11bc2 <_malloc_r+0x578>
   117e0:	418b07b3          	sub	a5,s6,s8
   117e4:	9fb5                	addw	a5,a5,a3
   117e6:	00fba023          	sw	a5,0(s7)
   117ea:	00fb7c13          	andi	s8,s6,15
   117ee:	320c0d63          	beqz	s8,11b28 <_malloc_r+0x4de>
   117f2:	418b0b33          	sub	s6,s6,s8
   117f6:	6785                	lui	a5,0x1
   117f8:	0b41                	addi	s6,s6,16
   117fa:	fff78713          	addi	a4,a5,-1 # fff <register_fini-0xf0b1>
   117fe:	014b0cb3          	add	s9,s6,s4
   11802:	07c1                	addi	a5,a5,16
   11804:	41878a33          	sub	s4,a5,s8
   11808:	00ecf7b3          	and	a5,s9,a4
   1180c:	40fa0a33          	sub	s4,s4,a5
   11810:	00ea7a33          	and	s4,s4,a4
   11814:	85d2                	mv	a1,s4
   11816:	854a                	mv	a0,s2
   11818:	68d000ef          	jal	ra,126a4 <_sbrk_r>
   1181c:	57fd                	li	a5,-1
   1181e:	3ef50963          	beq	a0,a5,11c10 <_malloc_r+0x5c6>
   11822:	41650533          	sub	a0,a0,s6
   11826:	000a071b          	sext.w	a4,s4
   1182a:	9a2a                	add	s4,s4,a0
   1182c:	000ba783          	lw	a5,0(s7)
   11830:	0169b823          	sd	s6,16(s3)
   11834:	001a6a13          	ori	s4,s4,1
   11838:	9fb9                	addw	a5,a5,a4
   1183a:	00fba023          	sw	a5,0(s7)
   1183e:	014b3423          	sd	s4,8(s6) # ffffffff80000008 <__BSS_END__+0xffffffff7ffe0878>
   11842:	39340363          	beq	s0,s3,11bc8 <_malloc_r+0x57e>
   11846:	467d                	li	a2,31
   11848:	39567263          	bgeu	a2,s5,11bcc <_malloc_r+0x582>
   1184c:	6414                	ld	a3,8(s0)
   1184e:	fe8a8713          	addi	a4,s5,-24
   11852:	9b41                	andi	a4,a4,-16
   11854:	8a85                	andi	a3,a3,1
   11856:	8ed9                	or	a3,a3,a4
   11858:	e414                	sd	a3,8(s0)
   1185a:	45a5                	li	a1,9
   1185c:	00e406b3          	add	a3,s0,a4
   11860:	e68c                	sd	a1,8(a3)
   11862:	ea8c                	sd	a1,16(a3)
   11864:	3ae66d63          	bltu	a2,a4,11c1e <_malloc_r+0x5d4>
   11868:	008b3a03          	ld	s4,8(s6)
   1186c:	845a                	mv	s0,s6
   1186e:	7781b683          	ld	a3,1912(gp) # 1f708 <__malloc_max_sbrked_mem>
   11872:	00f6f463          	bgeu	a3,a5,1187a <_malloc_r+0x230>
   11876:	76f1bc23          	sd	a5,1912(gp) # 1f708 <__malloc_max_sbrked_mem>
   1187a:	7701b683          	ld	a3,1904(gp) # 1f700 <_edata>
   1187e:	22f6f063          	bgeu	a3,a5,11a9e <_malloc_r+0x454>
   11882:	76f1b823          	sd	a5,1904(gp) # 1f700 <_edata>
   11886:	ac21                	j	11a9e <_malloc_r+0x454>
   11888:	6f80                	ld	s0,24(a5)
   1188a:	2609                	addiw	a2,a2,2
   1188c:	e08796e3          	bne	a5,s0,11698 <_malloc_r+0x4e>
   11890:	0209b403          	ld	s0,32(s3)
   11894:	657d                	lui	a0,0x1f
   11896:	d0050513          	addi	a0,a0,-768 # 1ed00 <__malloc_av_+0x10>
   1189a:	eca403e3          	beq	s0,a0,11760 <_malloc_r+0x116>
   1189e:	641c                	ld	a5,8(s0)
   118a0:	46fd                	li	a3,31
   118a2:	9bf1                	andi	a5,a5,-4
   118a4:	40978733          	sub	a4,a5,s1
   118a8:	1ae6cd63          	blt	a3,a4,11a62 <_malloc_r+0x418>
   118ac:	02a9b423          	sd	a0,40(s3)
   118b0:	02a9b023          	sd	a0,32(s3)
   118b4:	0c075e63          	bgez	a4,11990 <_malloc_r+0x346>
   118b8:	1ff00713          	li	a4,511
   118bc:	10f76763          	bltu	a4,a5,119ca <_malloc_r+0x380>
   118c0:	838d                	srli	a5,a5,0x3
   118c2:	2781                	sext.w	a5,a5
   118c4:	0017871b          	addiw	a4,a5,1
   118c8:	0017171b          	slliw	a4,a4,0x1
   118cc:	070e                	slli	a4,a4,0x3
   118ce:	0089b803          	ld	a6,8(s3)
   118d2:	974e                	add	a4,a4,s3
   118d4:	630c                	ld	a1,0(a4)
   118d6:	4027d69b          	sraiw	a3,a5,0x2
   118da:	4785                	li	a5,1
   118dc:	00d797b3          	sll	a5,a5,a3
   118e0:	0107e7b3          	or	a5,a5,a6
   118e4:	ff070693          	addi	a3,a4,-16
   118e8:	ec14                	sd	a3,24(s0)
   118ea:	e80c                	sd	a1,16(s0)
   118ec:	00f9b423          	sd	a5,8(s3)
   118f0:	e300                	sd	s0,0(a4)
   118f2:	ed80                	sd	s0,24(a1)
   118f4:	4026571b          	sraiw	a4,a2,0x2
   118f8:	4685                	li	a3,1
   118fa:	00e696b3          	sll	a3,a3,a4
   118fe:	e6d7eae3          	bltu	a5,a3,11772 <_malloc_r+0x128>
   11902:	00f6f733          	and	a4,a3,a5
   11906:	ef01                	bnez	a4,1191e <_malloc_r+0x2d4>
   11908:	0686                	slli	a3,a3,0x1
   1190a:	9a71                	andi	a2,a2,-4
   1190c:	00f6f733          	and	a4,a3,a5
   11910:	2611                	addiw	a2,a2,4
   11912:	e711                	bnez	a4,1191e <_malloc_r+0x2d4>
   11914:	0686                	slli	a3,a3,0x1
   11916:	00f6f733          	and	a4,a3,a5
   1191a:	2611                	addiw	a2,a2,4
   1191c:	df65                	beqz	a4,11914 <_malloc_r+0x2ca>
   1191e:	487d                	li	a6,31
   11920:	0016089b          	addiw	a7,a2,1
   11924:	0018989b          	slliw	a7,a7,0x1
   11928:	088e                	slli	a7,a7,0x3
   1192a:	18c1                	addi	a7,a7,-16
   1192c:	98ce                	add	a7,a7,s3
   1192e:	85c6                	mv	a1,a7
   11930:	8332                	mv	t1,a2
   11932:	6d80                	ld	s0,24(a1)
   11934:	00859863          	bne	a1,s0,11944 <_malloc_r+0x2fa>
   11938:	a8fd                	j	11a36 <_malloc_r+0x3ec>
   1193a:	10075563          	bgez	a4,11a44 <_malloc_r+0x3fa>
   1193e:	6c00                	ld	s0,24(s0)
   11940:	0e858b63          	beq	a1,s0,11a36 <_malloc_r+0x3ec>
   11944:	641c                	ld	a5,8(s0)
   11946:	9bf1                	andi	a5,a5,-4
   11948:	40978733          	sub	a4,a5,s1
   1194c:	fee857e3          	bge	a6,a4,1193a <_malloc_r+0x2f0>
   11950:	6c14                	ld	a3,24(s0)
   11952:	6810                	ld	a2,16(s0)
   11954:	0014e593          	ori	a1,s1,1
   11958:	e40c                	sd	a1,8(s0)
   1195a:	ee14                	sd	a3,24(a2)
   1195c:	ea90                	sd	a2,16(a3)
   1195e:	94a2                	add	s1,s1,s0
   11960:	0299b423          	sd	s1,40(s3)
   11964:	0299b023          	sd	s1,32(s3)
   11968:	00176693          	ori	a3,a4,1
   1196c:	ec88                	sd	a0,24(s1)
   1196e:	e888                	sd	a0,16(s1)
   11970:	e494                	sd	a3,8(s1)
   11972:	97a2                	add	a5,a5,s0
   11974:	854a                	mv	a0,s2
   11976:	e398                	sd	a4,0(a5)
   11978:	608000ef          	jal	ra,11f80 <__malloc_unlock>
   1197c:	01040513          	addi	a0,s0,16
   11980:	b389                	j	116c2 <_malloc_r+0x78>
   11982:	40000693          	li	a3,1024
   11986:	04000613          	li	a2,64
   1198a:	03f00513          	li	a0,63
   1198e:	b379                	j	1171c <_malloc_r+0xd2>
   11990:	97a2                	add	a5,a5,s0
   11992:	6798                	ld	a4,8(a5)
   11994:	854a                	mv	a0,s2
   11996:	00176713          	ori	a4,a4,1
   1199a:	e798                	sd	a4,8(a5)
   1199c:	5e4000ef          	jal	ra,11f80 <__malloc_unlock>
   119a0:	01040513          	addi	a0,s0,16
   119a4:	bb39                	j	116c2 <_malloc_r+0x78>
   119a6:	0014e713          	ori	a4,s1,1
   119aa:	e418                	sd	a4,8(s0)
   119ac:	94a2                	add	s1,s1,s0
   119ae:	0099b823          	sd	s1,16(s3)
   119b2:	0017e793          	ori	a5,a5,1
   119b6:	854a                	mv	a0,s2
   119b8:	e49c                	sd	a5,8(s1)
   119ba:	5c6000ef          	jal	ra,11f80 <__malloc_unlock>
   119be:	01040513          	addi	a0,s0,16
   119c2:	b301                	j	116c2 <_malloc_r+0x78>
   119c4:	6c14                	ld	a3,24(s0)
   119c6:	6810                	ld	a2,16(s0)
   119c8:	b9e1                	j	116a0 <_malloc_r+0x56>
   119ca:	0097d713          	srli	a4,a5,0x9
   119ce:	4691                	li	a3,4
   119d0:	0ae6f663          	bgeu	a3,a4,11a7c <_malloc_r+0x432>
   119d4:	46d1                	li	a3,20
   119d6:	18e6e363          	bltu	a3,a4,11b5c <_malloc_r+0x512>
   119da:	2701                	sext.w	a4,a4
   119dc:	05c7059b          	addiw	a1,a4,92
   119e0:	0015959b          	slliw	a1,a1,0x1
   119e4:	05b7069b          	addiw	a3,a4,91
   119e8:	058e                	slli	a1,a1,0x3
   119ea:	95ce                	add	a1,a1,s3
   119ec:	6198                	ld	a4,0(a1)
   119ee:	15c1                	addi	a1,a1,-16
   119f0:	12e58063          	beq	a1,a4,11b10 <_malloc_r+0x4c6>
   119f4:	6714                	ld	a3,8(a4)
   119f6:	9af1                	andi	a3,a3,-4
   119f8:	00d7f563          	bgeu	a5,a3,11a02 <_malloc_r+0x3b8>
   119fc:	6b18                	ld	a4,16(a4)
   119fe:	fee59be3          	bne	a1,a4,119f4 <_malloc_r+0x3aa>
   11a02:	6f0c                	ld	a1,24(a4)
   11a04:	0089b783          	ld	a5,8(s3)
   11a08:	ec0c                	sd	a1,24(s0)
   11a0a:	e818                	sd	a4,16(s0)
   11a0c:	e980                	sd	s0,16(a1)
   11a0e:	ef00                	sd	s0,24(a4)
   11a10:	b5d5                	j	118f4 <_malloc_r+0x2aa>
   11a12:	4751                	li	a4,20
   11a14:	0af77363          	bgeu	a4,a5,11aba <_malloc_r+0x470>
   11a18:	05400713          	li	a4,84
   11a1c:	14f76f63          	bltu	a4,a5,11b7a <_malloc_r+0x530>
   11a20:	00c4d513          	srli	a0,s1,0xc
   11a24:	2501                	sext.w	a0,a0
   11a26:	06f5061b          	addiw	a2,a0,111
   11a2a:	0016169b          	slliw	a3,a2,0x1
   11a2e:	06e5051b          	addiw	a0,a0,110
   11a32:	068e                	slli	a3,a3,0x3
   11a34:	b1e5                	j	1171c <_malloc_r+0xd2>
   11a36:	2305                	addiw	t1,t1,1
   11a38:	00337793          	andi	a5,t1,3
   11a3c:	05c1                	addi	a1,a1,16
   11a3e:	ee079ae3          	bnez	a5,11932 <_malloc_r+0x2e8>
   11a42:	a851                	j	11ad6 <_malloc_r+0x48c>
   11a44:	97a2                	add	a5,a5,s0
   11a46:	6798                	ld	a4,8(a5)
   11a48:	6c14                	ld	a3,24(s0)
   11a4a:	6810                	ld	a2,16(s0)
   11a4c:	00176713          	ori	a4,a4,1
   11a50:	e798                	sd	a4,8(a5)
   11a52:	ee14                	sd	a3,24(a2)
   11a54:	854a                	mv	a0,s2
   11a56:	ea90                	sd	a2,16(a3)
   11a58:	528000ef          	jal	ra,11f80 <__malloc_unlock>
   11a5c:	01040513          	addi	a0,s0,16
   11a60:	b18d                	j	116c2 <_malloc_r+0x78>
   11a62:	0014e693          	ori	a3,s1,1
   11a66:	e414                	sd	a3,8(s0)
   11a68:	bddd                	j	1195e <_malloc_r+0x314>
   11a6a:	0034d613          	srli	a2,s1,0x3
   11a6e:	2601                	sext.w	a2,a2
   11a70:	0016079b          	addiw	a5,a2,1
   11a74:	0017979b          	slliw	a5,a5,0x1
   11a78:	078e                	slli	a5,a5,0x3
   11a7a:	b131                	j	11686 <_malloc_r+0x3c>
   11a7c:	0067d713          	srli	a4,a5,0x6
   11a80:	2701                	sext.w	a4,a4
   11a82:	0397059b          	addiw	a1,a4,57
   11a86:	0015959b          	slliw	a1,a1,0x1
   11a8a:	0387069b          	addiw	a3,a4,56
   11a8e:	058e                	slli	a1,a1,0x3
   11a90:	bfa9                	j	119ea <_malloc_r+0x3a0>
   11a92:	11340363          	beq	s0,s3,11b98 <_malloc_r+0x54e>
   11a96:	0109b403          	ld	s0,16(s3)
   11a9a:	00843a03          	ld	s4,8(s0)
   11a9e:	ffca7a13          	andi	s4,s4,-4
   11aa2:	409a07b3          	sub	a5,s4,s1
   11aa6:	009a6563          	bltu	s4,s1,11ab0 <_malloc_r+0x466>
   11aaa:	477d                	li	a4,31
   11aac:	eef74de3          	blt	a4,a5,119a6 <_malloc_r+0x35c>
   11ab0:	854a                	mv	a0,s2
   11ab2:	4ce000ef          	jal	ra,11f80 <__malloc_unlock>
   11ab6:	4501                	li	a0,0
   11ab8:	b129                	j	116c2 <_malloc_r+0x78>
   11aba:	2781                	sext.w	a5,a5
   11abc:	05c7861b          	addiw	a2,a5,92
   11ac0:	0016169b          	slliw	a3,a2,0x1
   11ac4:	05b7851b          	addiw	a0,a5,91
   11ac8:	068e                	slli	a3,a3,0x3
   11aca:	b989                	j	1171c <_malloc_r+0xd2>
   11acc:	0108b783          	ld	a5,16(a7)
   11ad0:	367d                	addiw	a2,a2,-1
   11ad2:	19179d63          	bne	a5,a7,11c6c <_malloc_r+0x622>
   11ad6:	00367793          	andi	a5,a2,3
   11ada:	18c1                	addi	a7,a7,-16
   11adc:	fbe5                	bnez	a5,11acc <_malloc_r+0x482>
   11ade:	0089b703          	ld	a4,8(s3)
   11ae2:	fff6c793          	not	a5,a3
   11ae6:	8ff9                	and	a5,a5,a4
   11ae8:	00f9b423          	sd	a5,8(s3)
   11aec:	0686                	slli	a3,a3,0x1
   11aee:	c8d7e2e3          	bltu	a5,a3,11772 <_malloc_r+0x128>
   11af2:	c80680e3          	beqz	a3,11772 <_malloc_r+0x128>
   11af6:	00f6f733          	and	a4,a3,a5
   11afa:	e711                	bnez	a4,11b06 <_malloc_r+0x4bc>
   11afc:	0686                	slli	a3,a3,0x1
   11afe:	00f6f733          	and	a4,a3,a5
   11b02:	2311                	addiw	t1,t1,4
   11b04:	df65                	beqz	a4,11afc <_malloc_r+0x4b2>
   11b06:	861a                	mv	a2,t1
   11b08:	bd21                	j	11920 <_malloc_r+0x2d6>
   11b0a:	020a0a13          	addi	s4,s4,32
   11b0e:	b979                	j	117ac <_malloc_r+0x162>
   11b10:	0089b803          	ld	a6,8(s3)
   11b14:	4026d69b          	sraiw	a3,a3,0x2
   11b18:	4785                	li	a5,1
   11b1a:	00d797b3          	sll	a5,a5,a3
   11b1e:	0107e7b3          	or	a5,a5,a6
   11b22:	00f9b423          	sd	a5,8(s3)
   11b26:	b5cd                	j	11a08 <_malloc_r+0x3be>
   11b28:	6785                	lui	a5,0x1
   11b2a:	fff78713          	addi	a4,a5,-1 # fff <register_fini-0xf0b1>
   11b2e:	014b0c33          	add	s8,s6,s4
   11b32:	00ec7c33          	and	s8,s8,a4
   11b36:	418787b3          	sub	a5,a5,s8
   11b3a:	00e7fc33          	and	s8,a5,a4
   11b3e:	85e2                	mv	a1,s8
   11b40:	854a                	mv	a0,s2
   11b42:	363000ef          	jal	ra,126a4 <_sbrk_r>
   11b46:	57fd                	li	a5,-1
   11b48:	4701                	li	a4,0
   11b4a:	cef501e3          	beq	a0,a5,1182c <_malloc_r+0x1e2>
   11b4e:	41650533          	sub	a0,a0,s6
   11b52:	000c071b          	sext.w	a4,s8
   11b56:	01850a33          	add	s4,a0,s8
   11b5a:	b9c9                	j	1182c <_malloc_r+0x1e2>
   11b5c:	05400693          	li	a3,84
   11b60:	06e6ea63          	bltu	a3,a4,11bd4 <_malloc_r+0x58a>
   11b64:	00c7d713          	srli	a4,a5,0xc
   11b68:	2701                	sext.w	a4,a4
   11b6a:	06f7059b          	addiw	a1,a4,111
   11b6e:	0015959b          	slliw	a1,a1,0x1
   11b72:	06e7069b          	addiw	a3,a4,110
   11b76:	058e                	slli	a1,a1,0x3
   11b78:	bd8d                	j	119ea <_malloc_r+0x3a0>
   11b7a:	15400713          	li	a4,340
   11b7e:	06f76a63          	bltu	a4,a5,11bf2 <_malloc_r+0x5a8>
   11b82:	00f4d513          	srli	a0,s1,0xf
   11b86:	2501                	sext.w	a0,a0
   11b88:	0785061b          	addiw	a2,a0,120
   11b8c:	0016169b          	slliw	a3,a2,0x1
   11b90:	0775051b          	addiw	a0,a0,119
   11b94:	068e                	slli	a3,a3,0x3
   11b96:	b659                	j	1171c <_malloc_r+0xd2>
   11b98:	7d018b93          	addi	s7,gp,2000 # 1f760 <__malloc_current_mallinfo>
   11b9c:	000ba783          	lw	a5,0(s7)
   11ba0:	014786bb          	addw	a3,a5,s4
   11ba4:	00dba023          	sw	a3,0(s7)
   11ba8:	b13d                	j	117d6 <_malloc_r+0x18c>
   11baa:	034c1713          	slli	a4,s8,0x34
   11bae:	c20714e3          	bnez	a4,117d6 <_malloc_r+0x18c>
   11bb2:	0109b403          	ld	s0,16(s3)
   11bb6:	9a56                	add	s4,s4,s5
   11bb8:	001a6a13          	ori	s4,s4,1
   11bbc:	01443423          	sd	s4,8(s0)
   11bc0:	b17d                	j	1186e <_malloc_r+0x224>
   11bc2:	7761b023          	sd	s6,1888(gp) # 1f6f0 <__malloc_sbrk_base>
   11bc6:	b115                	j	117ea <_malloc_r+0x1a0>
   11bc8:	845a                	mv	s0,s6
   11bca:	b155                	j	1186e <_malloc_r+0x224>
   11bcc:	4785                	li	a5,1
   11bce:	00fb3423          	sd	a5,8(s6)
   11bd2:	bdf9                	j	11ab0 <_malloc_r+0x466>
   11bd4:	15400693          	li	a3,340
   11bd8:	04e6ef63          	bltu	a3,a4,11c36 <_malloc_r+0x5ec>
   11bdc:	00f7d713          	srli	a4,a5,0xf
   11be0:	2701                	sext.w	a4,a4
   11be2:	0787059b          	addiw	a1,a4,120
   11be6:	0015959b          	slliw	a1,a1,0x1
   11bea:	0777069b          	addiw	a3,a4,119
   11bee:	058e                	slli	a1,a1,0x3
   11bf0:	bbed                	j	119ea <_malloc_r+0x3a0>
   11bf2:	55400713          	li	a4,1364
   11bf6:	04f76f63          	bltu	a4,a5,11c54 <_malloc_r+0x60a>
   11bfa:	0124d513          	srli	a0,s1,0x12
   11bfe:	2501                	sext.w	a0,a0
   11c00:	07d5061b          	addiw	a2,a0,125
   11c04:	0016169b          	slliw	a3,a2,0x1
   11c08:	07c5051b          	addiw	a0,a0,124
   11c0c:	068e                	slli	a3,a3,0x3
   11c0e:	b639                	j	1171c <_malloc_r+0xd2>
   11c10:	1c41                	addi	s8,s8,-16
   11c12:	018c8a33          	add	s4,s9,s8
   11c16:	416a0a33          	sub	s4,s4,s6
   11c1a:	4701                	li	a4,0
   11c1c:	b901                	j	1182c <_malloc_r+0x1e2>
   11c1e:	01040593          	addi	a1,s0,16
   11c22:	854a                	mv	a0,s2
   11c24:	e6dfe0ef          	jal	ra,10a90 <_free_r>
   11c28:	0109b403          	ld	s0,16(s3)
   11c2c:	000ba783          	lw	a5,0(s7)
   11c30:	00843a03          	ld	s4,8(s0)
   11c34:	b92d                	j	1186e <_malloc_r+0x224>
   11c36:	55400693          	li	a3,1364
   11c3a:	02e6e463          	bltu	a3,a4,11c62 <_malloc_r+0x618>
   11c3e:	0127d713          	srli	a4,a5,0x12
   11c42:	2701                	sext.w	a4,a4
   11c44:	07d7059b          	addiw	a1,a4,125
   11c48:	0015959b          	slliw	a1,a1,0x1
   11c4c:	07c7069b          	addiw	a3,a4,124
   11c50:	058e                	slli	a1,a1,0x3
   11c52:	bb61                	j	119ea <_malloc_r+0x3a0>
   11c54:	7f000693          	li	a3,2032
   11c58:	07f00613          	li	a2,127
   11c5c:	07e00513          	li	a0,126
   11c60:	bc75                	j	1171c <_malloc_r+0xd2>
   11c62:	7f000593          	li	a1,2032
   11c66:	07e00693          	li	a3,126
   11c6a:	b341                	j	119ea <_malloc_r+0x3a0>
   11c6c:	0089b783          	ld	a5,8(s3)
   11c70:	bdb5                	j	11aec <_malloc_r+0x4a2>

0000000000011c72 <memchr>:
   11c72:	00757793          	andi	a5,a0,7
   11c76:	0ff5f813          	andi	a6,a1,255
   11c7a:	cfd9                	beqz	a5,11d18 <memchr+0xa6>
   11c7c:	fff60793          	addi	a5,a2,-1
   11c80:	c239                	beqz	a2,11cc6 <memchr+0x54>
   11c82:	00054703          	lbu	a4,0(a0)
   11c86:	05070163          	beq	a4,a6,11cc8 <memchr+0x56>
   11c8a:	56fd                	li	a3,-1
   11c8c:	a801                	j	11c9c <memchr+0x2a>
   11c8e:	17fd                	addi	a5,a5,-1
   11c90:	02d78b63          	beq	a5,a3,11cc6 <memchr+0x54>
   11c94:	00054703          	lbu	a4,0(a0)
   11c98:	03070863          	beq	a4,a6,11cc8 <memchr+0x56>
   11c9c:	0505                	addi	a0,a0,1
   11c9e:	00757713          	andi	a4,a0,7
   11ca2:	f775                	bnez	a4,11c8e <memchr+0x1c>
   11ca4:	471d                	li	a4,7
   11ca6:	02f76263          	bltu	a4,a5,11cca <memchr+0x58>
   11caa:	cf91                	beqz	a5,11cc6 <memchr+0x54>
   11cac:	00054703          	lbu	a4,0(a0)
   11cb0:	01070c63          	beq	a4,a6,11cc8 <memchr+0x56>
   11cb4:	97aa                	add	a5,a5,a0
   11cb6:	a029                	j	11cc0 <memchr+0x4e>
   11cb8:	00054703          	lbu	a4,0(a0)
   11cbc:	01070663          	beq	a4,a6,11cc8 <memchr+0x56>
   11cc0:	0505                	addi	a0,a0,1
   11cc2:	fea79be3          	bne	a5,a0,11cb8 <memchr+0x46>
   11cc6:	4501                	li	a0,0
   11cc8:	8082                	ret
   11cca:	66c1                	lui	a3,0x10
   11ccc:	0085971b          	slliw	a4,a1,0x8
   11cd0:	16fd                	addi	a3,a3,-1
   11cd2:	8f75                	and	a4,a4,a3
   11cd4:	0ff5f593          	andi	a1,a1,255
   11cd8:	8dd9                	or	a1,a1,a4
   11cda:	2581                	sext.w	a1,a1
   11cdc:	0001f6b7          	lui	a3,0x1f
   11ce0:	01059613          	slli	a2,a1,0x10
   11ce4:	6a86b883          	ld	a7,1704(a3) # 1f6a8 <__SDATA_BEGIN__>
   11ce8:	0001f6b7          	lui	a3,0x1f
   11cec:	00b66733          	or	a4,a2,a1
   11cf0:	6b06b583          	ld	a1,1712(a3) # 1f6b0 <__SDATA_BEGIN__+0x8>
   11cf4:	02071613          	slli	a2,a4,0x20
   11cf8:	8e59                	or	a2,a2,a4
   11cfa:	431d                	li	t1,7
   11cfc:	6118                	ld	a4,0(a0)
   11cfe:	8f31                	xor	a4,a4,a2
   11d00:	011706b3          	add	a3,a4,a7
   11d04:	fff74713          	not	a4,a4
   11d08:	8f75                	and	a4,a4,a3
   11d0a:	8f6d                	and	a4,a4,a1
   11d0c:	f345                	bnez	a4,11cac <memchr+0x3a>
   11d0e:	17e1                	addi	a5,a5,-8
   11d10:	0521                	addi	a0,a0,8
   11d12:	fef365e3          	bltu	t1,a5,11cfc <memchr+0x8a>
   11d16:	bf51                	j	11caa <memchr+0x38>
   11d18:	87b2                	mv	a5,a2
   11d1a:	b769                	j	11ca4 <memchr+0x32>

0000000000011d1c <memcpy>:
   11d1c:	00a5c7b3          	xor	a5,a1,a0
   11d20:	8b9d                	andi	a5,a5,7
   11d22:	00c508b3          	add	a7,a0,a2
   11d26:	e7a1                	bnez	a5,11d6e <memcpy+0x52>
   11d28:	479d                	li	a5,7
   11d2a:	04c7f263          	bgeu	a5,a2,11d6e <memcpy+0x52>
   11d2e:	00757793          	andi	a5,a0,7
   11d32:	872a                	mv	a4,a0
   11d34:	eba9                	bnez	a5,11d86 <memcpy+0x6a>
   11d36:	ff88f613          	andi	a2,a7,-8
   11d3a:	fc060793          	addi	a5,a2,-64
   11d3e:	06f76763          	bltu	a4,a5,11dac <memcpy+0x90>
   11d42:	02c77363          	bgeu	a4,a2,11d68 <memcpy+0x4c>
   11d46:	86ae                	mv	a3,a1
   11d48:	87ba                	mv	a5,a4
   11d4a:	0006b803          	ld	a6,0(a3)
   11d4e:	07a1                	addi	a5,a5,8
   11d50:	06a1                	addi	a3,a3,8
   11d52:	ff07bc23          	sd	a6,-8(a5)
   11d56:	fec7eae3          	bltu	a5,a2,11d4a <memcpy+0x2e>
   11d5a:	fff60793          	addi	a5,a2,-1
   11d5e:	8f99                	sub	a5,a5,a4
   11d60:	9be1                	andi	a5,a5,-8
   11d62:	07a1                	addi	a5,a5,8
   11d64:	973e                	add	a4,a4,a5
   11d66:	95be                	add	a1,a1,a5
   11d68:	01176663          	bltu	a4,a7,11d74 <memcpy+0x58>
   11d6c:	8082                	ret
   11d6e:	872a                	mv	a4,a0
   11d70:	ff157ee3          	bgeu	a0,a7,11d6c <memcpy+0x50>
   11d74:	0005c783          	lbu	a5,0(a1)
   11d78:	0705                	addi	a4,a4,1
   11d7a:	0585                	addi	a1,a1,1
   11d7c:	fef70fa3          	sb	a5,-1(a4)
   11d80:	ff176ae3          	bltu	a4,a7,11d74 <memcpy+0x58>
   11d84:	8082                	ret
   11d86:	0005c683          	lbu	a3,0(a1)
   11d8a:	0705                	addi	a4,a4,1
   11d8c:	00777793          	andi	a5,a4,7
   11d90:	fed70fa3          	sb	a3,-1(a4)
   11d94:	0585                	addi	a1,a1,1
   11d96:	d3c5                	beqz	a5,11d36 <memcpy+0x1a>
   11d98:	0005c683          	lbu	a3,0(a1)
   11d9c:	0705                	addi	a4,a4,1
   11d9e:	00777793          	andi	a5,a4,7
   11da2:	fed70fa3          	sb	a3,-1(a4)
   11da6:	0585                	addi	a1,a1,1
   11da8:	fff9                	bnez	a5,11d86 <memcpy+0x6a>
   11daa:	b771                	j	11d36 <memcpy+0x1a>
   11dac:	6194                	ld	a3,0(a1)
   11dae:	0085b283          	ld	t0,8(a1)
   11db2:	0105bf83          	ld	t6,16(a1)
   11db6:	0185bf03          	ld	t5,24(a1)
   11dba:	0205be83          	ld	t4,32(a1)
   11dbe:	0285be03          	ld	t3,40(a1)
   11dc2:	0305b303          	ld	t1,48(a1)
   11dc6:	0385b803          	ld	a6,56(a1)
   11dca:	04858593          	addi	a1,a1,72
   11dce:	e314                	sd	a3,0(a4)
   11dd0:	ff85b683          	ld	a3,-8(a1)
   11dd4:	00573423          	sd	t0,8(a4)
   11dd8:	01f73823          	sd	t6,16(a4)
   11ddc:	01e73c23          	sd	t5,24(a4)
   11de0:	03d73023          	sd	t4,32(a4)
   11de4:	03c73423          	sd	t3,40(a4)
   11de8:	02673823          	sd	t1,48(a4)
   11dec:	03073c23          	sd	a6,56(a4)
   11df0:	04870713          	addi	a4,a4,72
   11df4:	fed73c23          	sd	a3,-8(a4)
   11df8:	faf76ae3          	bltu	a4,a5,11dac <memcpy+0x90>
   11dfc:	b799                	j	11d42 <memcpy+0x26>

0000000000011dfe <memmove>:
   11dfe:	02a5f263          	bgeu	a1,a0,11e22 <memmove+0x24>
   11e02:	00c587b3          	add	a5,a1,a2
   11e06:	00f57e63          	bgeu	a0,a5,11e22 <memmove+0x24>
   11e0a:	00c50733          	add	a4,a0,a2
   11e0e:	ca5d                	beqz	a2,11ec4 <memmove+0xc6>
   11e10:	17fd                	addi	a5,a5,-1
   11e12:	0007c683          	lbu	a3,0(a5)
   11e16:	177d                	addi	a4,a4,-1
   11e18:	00d70023          	sb	a3,0(a4)
   11e1c:	fef59ae3          	bne	a1,a5,11e10 <memmove+0x12>
   11e20:	8082                	ret
   11e22:	47fd                	li	a5,31
   11e24:	02c7e163          	bltu	a5,a2,11e46 <memmove+0x48>
   11e28:	87aa                	mv	a5,a0
   11e2a:	fff60693          	addi	a3,a2,-1
   11e2e:	c245                	beqz	a2,11ece <memmove+0xd0>
   11e30:	0685                	addi	a3,a3,1
   11e32:	96be                	add	a3,a3,a5
   11e34:	0585                	addi	a1,a1,1
   11e36:	fff5c703          	lbu	a4,-1(a1)
   11e3a:	0785                	addi	a5,a5,1
   11e3c:	fee78fa3          	sb	a4,-1(a5)
   11e40:	fed79ae3          	bne	a5,a3,11e34 <memmove+0x36>
   11e44:	8082                	ret
   11e46:	00a5e7b3          	or	a5,a1,a0
   11e4a:	8b9d                	andi	a5,a5,7
   11e4c:	efad                	bnez	a5,11ec6 <memmove+0xc8>
   11e4e:	fe060893          	addi	a7,a2,-32
   11e52:	fe08f893          	andi	a7,a7,-32
   11e56:	02088893          	addi	a7,a7,32
   11e5a:	01150833          	add	a6,a0,a7
   11e5e:	872e                	mv	a4,a1
   11e60:	87aa                	mv	a5,a0
   11e62:	6314                	ld	a3,0(a4)
   11e64:	02078793          	addi	a5,a5,32
   11e68:	02070713          	addi	a4,a4,32
   11e6c:	fed7b023          	sd	a3,-32(a5)
   11e70:	fe873683          	ld	a3,-24(a4)
   11e74:	fed7b423          	sd	a3,-24(a5)
   11e78:	ff073683          	ld	a3,-16(a4)
   11e7c:	fed7b823          	sd	a3,-16(a5)
   11e80:	ff873683          	ld	a3,-8(a4)
   11e84:	fed7bc23          	sd	a3,-8(a5)
   11e88:	fcf81de3          	bne	a6,a5,11e62 <memmove+0x64>
   11e8c:	01867713          	andi	a4,a2,24
   11e90:	95c6                	add	a1,a1,a7
   11e92:	01f67813          	andi	a6,a2,31
   11e96:	cf0d                	beqz	a4,11ed0 <memmove+0xd2>
   11e98:	872e                	mv	a4,a1
   11e9a:	88be                	mv	a7,a5
   11e9c:	4e1d                	li	t3,7
   11e9e:	0721                	addi	a4,a4,8
   11ea0:	ff873303          	ld	t1,-8(a4)
   11ea4:	08a1                	addi	a7,a7,8
   11ea6:	40e806b3          	sub	a3,a6,a4
   11eaa:	fe68bc23          	sd	t1,-8(a7)
   11eae:	96ae                	add	a3,a3,a1
   11eb0:	fede67e3          	bltu	t3,a3,11e9e <memmove+0xa0>
   11eb4:	ff880713          	addi	a4,a6,-8
   11eb8:	9b61                	andi	a4,a4,-8
   11eba:	0721                	addi	a4,a4,8
   11ebc:	8a1d                	andi	a2,a2,7
   11ebe:	97ba                	add	a5,a5,a4
   11ec0:	95ba                	add	a1,a1,a4
   11ec2:	b7a5                	j	11e2a <memmove+0x2c>
   11ec4:	8082                	ret
   11ec6:	fff60693          	addi	a3,a2,-1
   11eca:	87aa                	mv	a5,a0
   11ecc:	b795                	j	11e30 <memmove+0x32>
   11ece:	8082                	ret
   11ed0:	8642                	mv	a2,a6
   11ed2:	bfa1                	j	11e2a <memmove+0x2c>

0000000000011ed4 <memset>:
   11ed4:	433d                	li	t1,15
   11ed6:	872a                	mv	a4,a0
   11ed8:	02c37163          	bgeu	t1,a2,11efa <memset+0x26>
   11edc:	00f77793          	andi	a5,a4,15
   11ee0:	e3c1                	bnez	a5,11f60 <memset+0x8c>
   11ee2:	e1bd                	bnez	a1,11f48 <memset+0x74>
   11ee4:	ff067693          	andi	a3,a2,-16
   11ee8:	8a3d                	andi	a2,a2,15
   11eea:	96ba                	add	a3,a3,a4
   11eec:	e30c                	sd	a1,0(a4)
   11eee:	e70c                	sd	a1,8(a4)
   11ef0:	0741                	addi	a4,a4,16
   11ef2:	fed76de3          	bltu	a4,a3,11eec <memset+0x18>
   11ef6:	e211                	bnez	a2,11efa <memset+0x26>
   11ef8:	8082                	ret
   11efa:	40c306b3          	sub	a3,t1,a2
   11efe:	068a                	slli	a3,a3,0x2
   11f00:	00000297          	auipc	t0,0x0
   11f04:	9696                	add	a3,a3,t0
   11f06:	00a68067          	jr	10(a3)
   11f0a:	00b70723          	sb	a1,14(a4)
   11f0e:	00b706a3          	sb	a1,13(a4)
   11f12:	00b70623          	sb	a1,12(a4)
   11f16:	00b705a3          	sb	a1,11(a4)
   11f1a:	00b70523          	sb	a1,10(a4)
   11f1e:	00b704a3          	sb	a1,9(a4)
   11f22:	00b70423          	sb	a1,8(a4)
   11f26:	00b703a3          	sb	a1,7(a4)
   11f2a:	00b70323          	sb	a1,6(a4)
   11f2e:	00b702a3          	sb	a1,5(a4)
   11f32:	00b70223          	sb	a1,4(a4)
   11f36:	00b701a3          	sb	a1,3(a4)
   11f3a:	00b70123          	sb	a1,2(a4)
   11f3e:	00b700a3          	sb	a1,1(a4)
   11f42:	00b70023          	sb	a1,0(a4)
   11f46:	8082                	ret
   11f48:	0ff5f593          	andi	a1,a1,255
   11f4c:	00859693          	slli	a3,a1,0x8
   11f50:	8dd5                	or	a1,a1,a3
   11f52:	01059693          	slli	a3,a1,0x10
   11f56:	8dd5                	or	a1,a1,a3
   11f58:	02059693          	slli	a3,a1,0x20
   11f5c:	8dd5                	or	a1,a1,a3
   11f5e:	b759                	j	11ee4 <memset+0x10>
   11f60:	00279693          	slli	a3,a5,0x2
   11f64:	00000297          	auipc	t0,0x0
   11f68:	9696                	add	a3,a3,t0
   11f6a:	8286                	mv	t0,ra
   11f6c:	fa2680e7          	jalr	-94(a3)
   11f70:	8096                	mv	ra,t0
   11f72:	17c1                	addi	a5,a5,-16
   11f74:	8f1d                	sub	a4,a4,a5
   11f76:	963e                	add	a2,a2,a5
   11f78:	f8c371e3          	bgeu	t1,a2,11efa <memset+0x26>
   11f7c:	b79d                	j	11ee2 <memset+0xe>

0000000000011f7e <__malloc_lock>:
   11f7e:	8082                	ret

0000000000011f80 <__malloc_unlock>:
   11f80:	8082                	ret

0000000000011f82 <_open_r>:
   11f82:	1101                	addi	sp,sp,-32
   11f84:	87ae                	mv	a5,a1
   11f86:	e822                	sd	s0,16(sp)
   11f88:	e426                	sd	s1,8(sp)
   11f8a:	85b2                	mv	a1,a2
   11f8c:	84aa                	mv	s1,a0
   11f8e:	0001f437          	lui	s0,0x1f
   11f92:	853e                	mv	a0,a5
   11f94:	8636                	mv	a2,a3
   11f96:	ec06                	sd	ra,24(sp)
   11f98:	78042423          	sw	zero,1928(s0) # 1f788 <errno>
   11f9c:	31a090ef          	jal	ra,1b2b6 <_open>
   11fa0:	57fd                	li	a5,-1
   11fa2:	00f50763          	beq	a0,a5,11fb0 <_open_r+0x2e>
   11fa6:	60e2                	ld	ra,24(sp)
   11fa8:	6442                	ld	s0,16(sp)
   11faa:	64a2                	ld	s1,8(sp)
   11fac:	6105                	addi	sp,sp,32
   11fae:	8082                	ret
   11fb0:	78842783          	lw	a5,1928(s0)
   11fb4:	dbed                	beqz	a5,11fa6 <_open_r+0x24>
   11fb6:	60e2                	ld	ra,24(sp)
   11fb8:	6442                	ld	s0,16(sp)
   11fba:	c09c                	sw	a5,0(s1)
   11fbc:	64a2                	ld	s1,8(sp)
   11fbe:	6105                	addi	sp,sp,32
   11fc0:	8082                	ret

0000000000011fc2 <_printf_r>:
   11fc2:	715d                	addi	sp,sp,-80
   11fc4:	f032                	sd	a2,32(sp)
   11fc6:	f436                	sd	a3,40(sp)
   11fc8:	fc3e                	sd	a5,56(sp)
   11fca:	f83a                	sd	a4,48(sp)
   11fcc:	e0c2                	sd	a6,64(sp)
   11fce:	e4c6                	sd	a7,72(sp)
   11fd0:	862e                	mv	a2,a1
   11fd2:	690c                	ld	a1,16(a0)
   11fd4:	101c                	addi	a5,sp,32
   11fd6:	86be                	mv	a3,a5
   11fd8:	ec06                	sd	ra,24(sp)
   11fda:	e43e                	sd	a5,8(sp)
   11fdc:	073000ef          	jal	ra,1284e <_vfprintf_r>
   11fe0:	60e2                	ld	ra,24(sp)
   11fe2:	6161                	addi	sp,sp,80
   11fe4:	8082                	ret

0000000000011fe6 <printf>:
   11fe6:	7581b303          	ld	t1,1880(gp) # 1f6e8 <_impure_ptr>
   11fea:	711d                	addi	sp,sp,-96
   11fec:	f832                	sd	a2,48(sp)
   11fee:	fc36                	sd	a3,56(sp)
   11ff0:	e4be                	sd	a5,72(sp)
   11ff2:	f42e                	sd	a1,40(sp)
   11ff4:	e0ba                	sd	a4,64(sp)
   11ff6:	e8c2                	sd	a6,80(sp)
   11ff8:	ecc6                	sd	a7,88(sp)
   11ffa:	01033583          	ld	a1,16(t1)
   11ffe:	103c                	addi	a5,sp,40
   12000:	862a                	mv	a2,a0
   12002:	86be                	mv	a3,a5
   12004:	851a                	mv	a0,t1
   12006:	ec06                	sd	ra,24(sp)
   12008:	e43e                	sd	a5,8(sp)
   1200a:	045000ef          	jal	ra,1284e <_vfprintf_r>
   1200e:	60e2                	ld	ra,24(sp)
   12010:	6125                	addi	sp,sp,96
   12012:	8082                	ret

0000000000012014 <_realloc_r>:
   12014:	715d                	addi	sp,sp,-80
   12016:	f84a                	sd	s2,48(sp)
   12018:	e486                	sd	ra,72(sp)
   1201a:	e0a2                	sd	s0,64(sp)
   1201c:	fc26                	sd	s1,56(sp)
   1201e:	f44e                	sd	s3,40(sp)
   12020:	f052                	sd	s4,32(sp)
   12022:	ec56                	sd	s5,24(sp)
   12024:	e85a                	sd	s6,16(sp)
   12026:	e45e                	sd	s7,8(sp)
   12028:	e062                	sd	s8,0(sp)
   1202a:	8932                	mv	s2,a2
   1202c:	1a058563          	beqz	a1,121d6 <_realloc_r+0x1c2>
   12030:	8aae                	mv	s5,a1
   12032:	8a2a                	mv	s4,a0
   12034:	f4bff0ef          	jal	ra,11f7e <__malloc_lock>
   12038:	ff8ab783          	ld	a5,-8(s5)
   1203c:	01790413          	addi	s0,s2,23
   12040:	02e00713          	li	a4,46
   12044:	ff0a8b13          	addi	s6,s5,-16
   12048:	ffc7f493          	andi	s1,a5,-4
   1204c:	0a877f63          	bgeu	a4,s0,1210a <_realloc_r+0xf6>
   12050:	80000737          	lui	a4,0x80000
   12054:	9841                	andi	s0,s0,-16
   12056:	fff74713          	not	a4,a4
   1205a:	0a876c63          	bltu	a4,s0,12112 <_realloc_r+0xfe>
   1205e:	0b246a63          	bltu	s0,s2,12112 <_realloc_r+0xfe>
   12062:	009b09b3          	add	s3,s6,s1
   12066:	1284d763          	bge	s1,s0,12194 <_realloc_r+0x180>
   1206a:	677d                	lui	a4,0x1f
   1206c:	cf070b93          	addi	s7,a4,-784 # 1ecf0 <__malloc_av_>
   12070:	010bb683          	ld	a3,16(s7)
   12074:	0089b703          	ld	a4,8(s3)
   12078:	1b368063          	beq	a3,s3,12218 <_realloc_r+0x204>
   1207c:	ffe77693          	andi	a3,a4,-2
   12080:	96ce                	add	a3,a3,s3
   12082:	6694                	ld	a3,8(a3)
   12084:	8a85                	andi	a3,a3,1
   12086:	12069d63          	bnez	a3,121c0 <_realloc_r+0x1ac>
   1208a:	9b71                	andi	a4,a4,-4
   1208c:	00e486b3          	add	a3,s1,a4
   12090:	2686db63          	bge	a3,s0,12306 <_realloc_r+0x2f2>
   12094:	8b85                	andi	a5,a5,1
   12096:	e38d                	bnez	a5,120b8 <_realloc_r+0xa4>
   12098:	ff0abc03          	ld	s8,-16(s5)
   1209c:	418b0c33          	sub	s8,s6,s8
   120a0:	008c3783          	ld	a5,8(s8)
   120a4:	9bf1                	andi	a5,a5,-4
   120a6:	973e                	add	a4,a4,a5
   120a8:	00970bb3          	add	s7,a4,s1
   120ac:	288bd263          	bge	s7,s0,12330 <_realloc_r+0x31c>
   120b0:	00f48bb3          	add	s7,s1,a5
   120b4:	088bd063          	bge	s7,s0,12134 <_realloc_r+0x120>
   120b8:	85ca                	mv	a1,s2
   120ba:	8552                	mv	a0,s4
   120bc:	d8eff0ef          	jal	ra,1164a <_malloc_r>
   120c0:	892a                	mv	s2,a0
   120c2:	c121                	beqz	a0,12102 <_realloc_r+0xee>
   120c4:	ff8ab783          	ld	a5,-8(s5)
   120c8:	ff050713          	addi	a4,a0,-16
   120cc:	9bf9                	andi	a5,a5,-2
   120ce:	97da                	add	a5,a5,s6
   120d0:	24e78563          	beq	a5,a4,1231a <_realloc_r+0x306>
   120d4:	ff848613          	addi	a2,s1,-8
   120d8:	04800793          	li	a5,72
   120dc:	24c7e663          	bltu	a5,a2,12328 <_realloc_r+0x314>
   120e0:	02700713          	li	a4,39
   120e4:	000ab683          	ld	a3,0(s5)
   120e8:	1cc76c63          	bltu	a4,a2,122c0 <_realloc_r+0x2ac>
   120ec:	87aa                	mv	a5,a0
   120ee:	8756                	mv	a4,s5
   120f0:	e394                	sd	a3,0(a5)
   120f2:	6714                	ld	a3,8(a4)
   120f4:	e794                	sd	a3,8(a5)
   120f6:	6b18                	ld	a4,16(a4)
   120f8:	eb98                	sd	a4,16(a5)
   120fa:	85d6                	mv	a1,s5
   120fc:	8552                	mv	a0,s4
   120fe:	993fe0ef          	jal	ra,10a90 <_free_r>
   12102:	8552                	mv	a0,s4
   12104:	e7dff0ef          	jal	ra,11f80 <__malloc_unlock>
   12108:	a809                	j	1211a <_realloc_r+0x106>
   1210a:	02000413          	li	s0,32
   1210e:	f5247ae3          	bgeu	s0,s2,12062 <_realloc_r+0x4e>
   12112:	47b1                	li	a5,12
   12114:	00fa2023          	sw	a5,0(s4)
   12118:	4901                	li	s2,0
   1211a:	60a6                	ld	ra,72(sp)
   1211c:	6406                	ld	s0,64(sp)
   1211e:	854a                	mv	a0,s2
   12120:	74e2                	ld	s1,56(sp)
   12122:	7942                	ld	s2,48(sp)
   12124:	79a2                	ld	s3,40(sp)
   12126:	7a02                	ld	s4,32(sp)
   12128:	6ae2                	ld	s5,24(sp)
   1212a:	6b42                	ld	s6,16(sp)
   1212c:	6ba2                	ld	s7,8(sp)
   1212e:	6c02                	ld	s8,0(sp)
   12130:	6161                	addi	sp,sp,80
   12132:	8082                	ret
   12134:	018c3783          	ld	a5,24(s8)
   12138:	010c3703          	ld	a4,16(s8)
   1213c:	ff848613          	addi	a2,s1,-8
   12140:	04800693          	li	a3,72
   12144:	ef1c                	sd	a5,24(a4)
   12146:	eb98                	sd	a4,16(a5)
   12148:	010c0913          	addi	s2,s8,16
   1214c:	017c09b3          	add	s3,s8,s7
   12150:	26c6e263          	bltu	a3,a2,123b4 <_realloc_r+0x3a0>
   12154:	02700593          	li	a1,39
   12158:	000ab703          	ld	a4,0(s5)
   1215c:	87ca                	mv	a5,s2
   1215e:	02c5f163          	bgeu	a1,a2,12180 <_realloc_r+0x16c>
   12162:	00ec3823          	sd	a4,16(s8)
   12166:	008ab703          	ld	a4,8(s5)
   1216a:	03700793          	li	a5,55
   1216e:	00ec3c23          	sd	a4,24(s8)
   12172:	28c7e563          	bltu	a5,a2,123fc <_realloc_r+0x3e8>
   12176:	010ab703          	ld	a4,16(s5)
   1217a:	020c0793          	addi	a5,s8,32
   1217e:	0ac1                	addi	s5,s5,16
   12180:	e398                	sd	a4,0(a5)
   12182:	008ab703          	ld	a4,8(s5)
   12186:	84de                	mv	s1,s7
   12188:	8b62                	mv	s6,s8
   1218a:	e798                	sd	a4,8(a5)
   1218c:	010ab703          	ld	a4,16(s5)
   12190:	8aca                	mv	s5,s2
   12192:	eb98                	sd	a4,16(a5)
   12194:	008b3603          	ld	a2,8(s6)
   12198:	408487b3          	sub	a5,s1,s0
   1219c:	477d                	li	a4,31
   1219e:	8a05                	andi	a2,a2,1
   121a0:	04f76963          	bltu	a4,a5,121f2 <_realloc_r+0x1de>
   121a4:	8e45                	or	a2,a2,s1
   121a6:	00cb3423          	sd	a2,8(s6)
   121aa:	0089b783          	ld	a5,8(s3)
   121ae:	0017e793          	ori	a5,a5,1
   121b2:	00f9b423          	sd	a5,8(s3)
   121b6:	8552                	mv	a0,s4
   121b8:	dc9ff0ef          	jal	ra,11f80 <__malloc_unlock>
   121bc:	8956                	mv	s2,s5
   121be:	bfb1                	j	1211a <_realloc_r+0x106>
   121c0:	8b85                	andi	a5,a5,1
   121c2:	ee079be3          	bnez	a5,120b8 <_realloc_r+0xa4>
   121c6:	ff0abc03          	ld	s8,-16(s5)
   121ca:	418b0c33          	sub	s8,s6,s8
   121ce:	008c3783          	ld	a5,8(s8)
   121d2:	9bf1                	andi	a5,a5,-4
   121d4:	bdf1                	j	120b0 <_realloc_r+0x9c>
   121d6:	6406                	ld	s0,64(sp)
   121d8:	60a6                	ld	ra,72(sp)
   121da:	74e2                	ld	s1,56(sp)
   121dc:	7942                	ld	s2,48(sp)
   121de:	79a2                	ld	s3,40(sp)
   121e0:	7a02                	ld	s4,32(sp)
   121e2:	6ae2                	ld	s5,24(sp)
   121e4:	6b42                	ld	s6,16(sp)
   121e6:	6ba2                	ld	s7,8(sp)
   121e8:	6c02                	ld	s8,0(sp)
   121ea:	85b2                	mv	a1,a2
   121ec:	6161                	addi	sp,sp,80
   121ee:	c5cff06f          	j	1164a <_malloc_r>
   121f2:	8e41                	or	a2,a2,s0
   121f4:	00cb3423          	sd	a2,8(s6)
   121f8:	008b05b3          	add	a1,s6,s0
   121fc:	0017e793          	ori	a5,a5,1
   12200:	e59c                	sd	a5,8(a1)
   12202:	0089b783          	ld	a5,8(s3)
   12206:	05c1                	addi	a1,a1,16
   12208:	8552                	mv	a0,s4
   1220a:	0017e793          	ori	a5,a5,1
   1220e:	00f9b423          	sd	a5,8(s3)
   12212:	87ffe0ef          	jal	ra,10a90 <_free_r>
   12216:	b745                	j	121b6 <_realloc_r+0x1a2>
   12218:	9b71                	andi	a4,a4,-4
   1221a:	00e486b3          	add	a3,s1,a4
   1221e:	02040613          	addi	a2,s0,32
   12222:	0ac6de63          	bge	a3,a2,122de <_realloc_r+0x2ca>
   12226:	8b85                	andi	a5,a5,1
   12228:	e80798e3          	bnez	a5,120b8 <_realloc_r+0xa4>
   1222c:	ff0abc03          	ld	s8,-16(s5)
   12230:	418b0c33          	sub	s8,s6,s8
   12234:	008c3783          	ld	a5,8(s8)
   12238:	9bf1                	andi	a5,a5,-4
   1223a:	973e                	add	a4,a4,a5
   1223c:	009709b3          	add	s3,a4,s1
   12240:	e6c9c8e3          	blt	s3,a2,120b0 <_realloc_r+0x9c>
   12244:	018c3783          	ld	a5,24(s8)
   12248:	010c3703          	ld	a4,16(s8)
   1224c:	ff848613          	addi	a2,s1,-8
   12250:	04800693          	li	a3,72
   12254:	ef1c                	sd	a5,24(a4)
   12256:	eb98                	sd	a4,16(a5)
   12258:	010c0913          	addi	s2,s8,16
   1225c:	1cc6e163          	bltu	a3,a2,1241e <_realloc_r+0x40a>
   12260:	02700593          	li	a1,39
   12264:	000ab703          	ld	a4,0(s5)
   12268:	87ca                	mv	a5,s2
   1226a:	02c5f163          	bgeu	a1,a2,1228c <_realloc_r+0x278>
   1226e:	00ec3823          	sd	a4,16(s8)
   12272:	008ab703          	ld	a4,8(s5)
   12276:	03700793          	li	a5,55
   1227a:	00ec3c23          	sd	a4,24(s8)
   1227e:	1ac7e563          	bltu	a5,a2,12428 <_realloc_r+0x414>
   12282:	010ab703          	ld	a4,16(s5)
   12286:	020c0793          	addi	a5,s8,32
   1228a:	0ac1                	addi	s5,s5,16
   1228c:	e398                	sd	a4,0(a5)
   1228e:	008ab703          	ld	a4,8(s5)
   12292:	e798                	sd	a4,8(a5)
   12294:	010ab703          	ld	a4,16(s5)
   12298:	eb98                	sd	a4,16(a5)
   1229a:	008c0733          	add	a4,s8,s0
   1229e:	408987b3          	sub	a5,s3,s0
   122a2:	00ebb823          	sd	a4,16(s7)
   122a6:	0017e793          	ori	a5,a5,1
   122aa:	e71c                	sd	a5,8(a4)
   122ac:	008c3783          	ld	a5,8(s8)
   122b0:	8552                	mv	a0,s4
   122b2:	8b85                	andi	a5,a5,1
   122b4:	8c5d                	or	s0,s0,a5
   122b6:	008c3423          	sd	s0,8(s8)
   122ba:	cc7ff0ef          	jal	ra,11f80 <__malloc_unlock>
   122be:	bdb1                	j	1211a <_realloc_r+0x106>
   122c0:	e114                	sd	a3,0(a0)
   122c2:	008ab683          	ld	a3,8(s5)
   122c6:	03700713          	li	a4,55
   122ca:	e514                	sd	a3,8(a0)
   122cc:	0ec76c63          	bltu	a4,a2,123c4 <_realloc_r+0x3b0>
   122d0:	010a8713          	addi	a4,s5,16
   122d4:	01050793          	addi	a5,a0,16
   122d8:	010ab683          	ld	a3,16(s5)
   122dc:	bd11                	j	120f0 <_realloc_r+0xdc>
   122de:	9b22                	add	s6,s6,s0
   122e0:	408687b3          	sub	a5,a3,s0
   122e4:	016bb823          	sd	s6,16(s7)
   122e8:	0017e793          	ori	a5,a5,1
   122ec:	00fb3423          	sd	a5,8(s6)
   122f0:	ff8ab783          	ld	a5,-8(s5)
   122f4:	8552                	mv	a0,s4
   122f6:	8956                	mv	s2,s5
   122f8:	8b85                	andi	a5,a5,1
   122fa:	8c5d                	or	s0,s0,a5
   122fc:	fe8abc23          	sd	s0,-8(s5)
   12300:	c81ff0ef          	jal	ra,11f80 <__malloc_unlock>
   12304:	bd19                	j	1211a <_realloc_r+0x106>
   12306:	0189b783          	ld	a5,24(s3)
   1230a:	0109b703          	ld	a4,16(s3)
   1230e:	84b6                	mv	s1,a3
   12310:	00db09b3          	add	s3,s6,a3
   12314:	ef1c                	sd	a5,24(a4)
   12316:	eb98                	sd	a4,16(a5)
   12318:	bdb5                	j	12194 <_realloc_r+0x180>
   1231a:	ff853783          	ld	a5,-8(a0)
   1231e:	9bf1                	andi	a5,a5,-4
   12320:	94be                	add	s1,s1,a5
   12322:	009b09b3          	add	s3,s6,s1
   12326:	b5bd                	j	12194 <_realloc_r+0x180>
   12328:	85d6                	mv	a1,s5
   1232a:	ad5ff0ef          	jal	ra,11dfe <memmove>
   1232e:	b3f1                	j	120fa <_realloc_r+0xe6>
   12330:	0189b783          	ld	a5,24(s3)
   12334:	0109b703          	ld	a4,16(s3)
   12338:	ff848613          	addi	a2,s1,-8
   1233c:	04800693          	li	a3,72
   12340:	ef1c                	sd	a5,24(a4)
   12342:	eb98                	sd	a4,16(a5)
   12344:	010c3703          	ld	a4,16(s8)
   12348:	018c3783          	ld	a5,24(s8)
   1234c:	010c0913          	addi	s2,s8,16
   12350:	017c09b3          	add	s3,s8,s7
   12354:	ef1c                	sd	a5,24(a4)
   12356:	eb98                	sd	a4,16(a5)
   12358:	04c6ee63          	bltu	a3,a2,123b4 <_realloc_r+0x3a0>
   1235c:	02700693          	li	a3,39
   12360:	000ab703          	ld	a4,0(s5)
   12364:	87ca                	mv	a5,s2
   12366:	e0c6fde3          	bgeu	a3,a2,12180 <_realloc_r+0x16c>
   1236a:	00ec3823          	sd	a4,16(s8)
   1236e:	008ab703          	ld	a4,8(s5)
   12372:	03700793          	li	a5,55
   12376:	00ec3c23          	sd	a4,24(s8)
   1237a:	010ab703          	ld	a4,16(s5)
   1237e:	dec7fee3          	bgeu	a5,a2,1217a <_realloc_r+0x166>
   12382:	02ec3023          	sd	a4,32(s8)
   12386:	018ab703          	ld	a4,24(s5)
   1238a:	04800793          	li	a5,72
   1238e:	02ec3423          	sd	a4,40(s8)
   12392:	020ab703          	ld	a4,32(s5)
   12396:	06f61f63          	bne	a2,a5,12414 <_realloc_r+0x400>
   1239a:	02ec3823          	sd	a4,48(s8)
   1239e:	028ab703          	ld	a4,40(s5)
   123a2:	040c0793          	addi	a5,s8,64
   123a6:	030a8a93          	addi	s5,s5,48
   123aa:	02ec3c23          	sd	a4,56(s8)
   123ae:	000ab703          	ld	a4,0(s5)
   123b2:	b3f9                	j	12180 <_realloc_r+0x16c>
   123b4:	85d6                	mv	a1,s5
   123b6:	854a                	mv	a0,s2
   123b8:	a47ff0ef          	jal	ra,11dfe <memmove>
   123bc:	8aca                	mv	s5,s2
   123be:	84de                	mv	s1,s7
   123c0:	8b62                	mv	s6,s8
   123c2:	bbc9                	j	12194 <_realloc_r+0x180>
   123c4:	010ab703          	ld	a4,16(s5)
   123c8:	e918                	sd	a4,16(a0)
   123ca:	018ab703          	ld	a4,24(s5)
   123ce:	ed18                	sd	a4,24(a0)
   123d0:	00f60963          	beq	a2,a5,123e2 <_realloc_r+0x3ce>
   123d4:	020a8713          	addi	a4,s5,32
   123d8:	02050793          	addi	a5,a0,32
   123dc:	020ab683          	ld	a3,32(s5)
   123e0:	bb01                	j	120f0 <_realloc_r+0xdc>
   123e2:	020ab683          	ld	a3,32(s5)
   123e6:	030a8713          	addi	a4,s5,48
   123ea:	03050793          	addi	a5,a0,48
   123ee:	f114                	sd	a3,32(a0)
   123f0:	028ab683          	ld	a3,40(s5)
   123f4:	f514                	sd	a3,40(a0)
   123f6:	030ab683          	ld	a3,48(s5)
   123fa:	b9dd                	j	120f0 <_realloc_r+0xdc>
   123fc:	010ab783          	ld	a5,16(s5)
   12400:	02fc3023          	sd	a5,32(s8)
   12404:	018ab783          	ld	a5,24(s5)
   12408:	02fc3423          	sd	a5,40(s8)
   1240c:	020ab703          	ld	a4,32(s5)
   12410:	f8d605e3          	beq	a2,a3,1239a <_realloc_r+0x386>
   12414:	030c0793          	addi	a5,s8,48
   12418:	020a8a93          	addi	s5,s5,32
   1241c:	b395                	j	12180 <_realloc_r+0x16c>
   1241e:	85d6                	mv	a1,s5
   12420:	854a                	mv	a0,s2
   12422:	9ddff0ef          	jal	ra,11dfe <memmove>
   12426:	bd95                	j	1229a <_realloc_r+0x286>
   12428:	010ab783          	ld	a5,16(s5)
   1242c:	02fc3023          	sd	a5,32(s8)
   12430:	018ab783          	ld	a5,24(s5)
   12434:	02fc3423          	sd	a5,40(s8)
   12438:	020ab703          	ld	a4,32(s5)
   1243c:	00d60763          	beq	a2,a3,1244a <_realloc_r+0x436>
   12440:	030c0793          	addi	a5,s8,48
   12444:	020a8a93          	addi	s5,s5,32
   12448:	b591                	j	1228c <_realloc_r+0x278>
   1244a:	02ec3823          	sd	a4,48(s8)
   1244e:	028ab703          	ld	a4,40(s5)
   12452:	040c0793          	addi	a5,s8,64
   12456:	030a8a93          	addi	s5,s5,48
   1245a:	02ec3c23          	sd	a4,56(s8)
   1245e:	000ab703          	ld	a4,0(s5)
   12462:	b52d                	j	1228c <_realloc_r+0x278>

0000000000012464 <cleanup_glue>:
   12464:	1101                	addi	sp,sp,-32
   12466:	e822                	sd	s0,16(sp)
   12468:	842e                	mv	s0,a1
   1246a:	618c                	ld	a1,0(a1)
   1246c:	e426                	sd	s1,8(sp)
   1246e:	ec06                	sd	ra,24(sp)
   12470:	84aa                	mv	s1,a0
   12472:	c199                	beqz	a1,12478 <cleanup_glue+0x14>
   12474:	ff1ff0ef          	jal	ra,12464 <cleanup_glue>
   12478:	85a2                	mv	a1,s0
   1247a:	6442                	ld	s0,16(sp)
   1247c:	60e2                	ld	ra,24(sp)
   1247e:	8526                	mv	a0,s1
   12480:	64a2                	ld	s1,8(sp)
   12482:	6105                	addi	sp,sp,32
   12484:	e0cfe06f          	j	10a90 <_free_r>

0000000000012488 <_reclaim_reent>:
   12488:	7581b783          	ld	a5,1880(gp) # 1f6e8 <_impure_ptr>
   1248c:	0aa78063          	beq	a5,a0,1252c <_reclaim_reent+0xa4>
   12490:	7d38                	ld	a4,120(a0)
   12492:	7179                	addi	sp,sp,-48
   12494:	ec26                	sd	s1,24(sp)
   12496:	f406                	sd	ra,40(sp)
   12498:	f022                	sd	s0,32(sp)
   1249a:	e84a                	sd	s2,16(sp)
   1249c:	e44e                	sd	s3,8(sp)
   1249e:	84aa                	mv	s1,a0
   124a0:	c715                	beqz	a4,124cc <_reclaim_reent+0x44>
   124a2:	4901                	li	s2,0
   124a4:	20000993          	li	s3,512
   124a8:	012707b3          	add	a5,a4,s2
   124ac:	638c                	ld	a1,0(a5)
   124ae:	c981                	beqz	a1,124be <_reclaim_reent+0x36>
   124b0:	6180                	ld	s0,0(a1)
   124b2:	8526                	mv	a0,s1
   124b4:	ddcfe0ef          	jal	ra,10a90 <_free_r>
   124b8:	85a2                	mv	a1,s0
   124ba:	f87d                	bnez	s0,124b0 <_reclaim_reent+0x28>
   124bc:	7cb8                	ld	a4,120(s1)
   124be:	0921                	addi	s2,s2,8
   124c0:	ff3914e3          	bne	s2,s3,124a8 <_reclaim_reent+0x20>
   124c4:	85ba                	mv	a1,a4
   124c6:	8526                	mv	a0,s1
   124c8:	dc8fe0ef          	jal	ra,10a90 <_free_r>
   124cc:	70ac                	ld	a1,96(s1)
   124ce:	c581                	beqz	a1,124d6 <_reclaim_reent+0x4e>
   124d0:	8526                	mv	a0,s1
   124d2:	dbefe0ef          	jal	ra,10a90 <_free_r>
   124d6:	1f84b583          	ld	a1,504(s1)
   124da:	cd81                	beqz	a1,124f2 <_reclaim_reent+0x6a>
   124dc:	20048913          	addi	s2,s1,512
   124e0:	01258963          	beq	a1,s2,124f2 <_reclaim_reent+0x6a>
   124e4:	6180                	ld	s0,0(a1)
   124e6:	8526                	mv	a0,s1
   124e8:	da8fe0ef          	jal	ra,10a90 <_free_r>
   124ec:	85a2                	mv	a1,s0
   124ee:	fe891be3          	bne	s2,s0,124e4 <_reclaim_reent+0x5c>
   124f2:	64cc                	ld	a1,136(s1)
   124f4:	c581                	beqz	a1,124fc <_reclaim_reent+0x74>
   124f6:	8526                	mv	a0,s1
   124f8:	d98fe0ef          	jal	ra,10a90 <_free_r>
   124fc:	48bc                	lw	a5,80(s1)
   124fe:	c385                	beqz	a5,1251e <_reclaim_reent+0x96>
   12500:	6cbc                	ld	a5,88(s1)
   12502:	8526                	mv	a0,s1
   12504:	9782                	jalr	a5
   12506:	5204b583          	ld	a1,1312(s1)
   1250a:	c991                	beqz	a1,1251e <_reclaim_reent+0x96>
   1250c:	7402                	ld	s0,32(sp)
   1250e:	70a2                	ld	ra,40(sp)
   12510:	6942                	ld	s2,16(sp)
   12512:	69a2                	ld	s3,8(sp)
   12514:	8526                	mv	a0,s1
   12516:	64e2                	ld	s1,24(sp)
   12518:	6145                	addi	sp,sp,48
   1251a:	f4bff06f          	j	12464 <cleanup_glue>
   1251e:	70a2                	ld	ra,40(sp)
   12520:	7402                	ld	s0,32(sp)
   12522:	64e2                	ld	s1,24(sp)
   12524:	6942                	ld	s2,16(sp)
   12526:	69a2                	ld	s3,8(sp)
   12528:	6145                	addi	sp,sp,48
   1252a:	8082                	ret
   1252c:	8082                	ret

000000000001252e <lflush>:
   1252e:	01055783          	lhu	a5,16(a0)
   12532:	4725                	li	a4,9
   12534:	8ba5                	andi	a5,a5,9
   12536:	00e78463          	beq	a5,a4,1253e <lflush+0x10>
   1253a:	4501                	li	a0,0
   1253c:	8082                	ret
   1253e:	fa3fd06f          	j	104e0 <fflush>

0000000000012542 <__srefill_r>:
   12542:	7179                	addi	sp,sp,-48
   12544:	f022                	sd	s0,32(sp)
   12546:	ec26                	sd	s1,24(sp)
   12548:	f406                	sd	ra,40(sp)
   1254a:	e84a                	sd	s2,16(sp)
   1254c:	e44e                	sd	s3,8(sp)
   1254e:	84aa                	mv	s1,a0
   12550:	842e                	mv	s0,a1
   12552:	c119                	beqz	a0,12558 <__srefill_r+0x16>
   12554:	493c                	lw	a5,80(a0)
   12556:	c3f1                	beqz	a5,1261a <__srefill_r+0xd8>
   12558:	01041703          	lh	a4,16(s0)
   1255c:	03071793          	slli	a5,a4,0x30
   12560:	93c1                	srli	a5,a5,0x30
   12562:	03279693          	slli	a3,a5,0x32
   12566:	0206c063          	bltz	a3,12586 <__srefill_r+0x44>
   1256a:	0ac42783          	lw	a5,172(s0)
   1256e:	6689                	lui	a3,0x2
   12570:	8f55                	or	a4,a4,a3
   12572:	76f9                	lui	a3,0xffffe
   12574:	16fd                	addi	a3,a3,-1
   12576:	8ff5                	and	a5,a5,a3
   12578:	0af42623          	sw	a5,172(s0)
   1257c:	03071793          	slli	a5,a4,0x30
   12580:	00e41823          	sh	a4,16(s0)
   12584:	93c1                	srli	a5,a5,0x30
   12586:	00042423          	sw	zero,8(s0)
   1258a:	0207f693          	andi	a3,a5,32
   1258e:	0e069863          	bnez	a3,1267e <__srefill_r+0x13c>
   12592:	0047f693          	andi	a3,a5,4
   12596:	eab1                	bnez	a3,125ea <__srefill_r+0xa8>
   12598:	0107f693          	andi	a3,a5,16
   1259c:	0e068c63          	beqz	a3,12694 <__srefill_r+0x152>
   125a0:	8ba1                	andi	a5,a5,8
   125a2:	e7d5                	bnez	a5,1264e <__srefill_r+0x10c>
   125a4:	00476713          	ori	a4,a4,4
   125a8:	00e41823          	sh	a4,16(s0)
   125ac:	6c1c                	ld	a5,24(s0)
   125ae:	cfcd                	beqz	a5,12668 <__srefill_r+0x126>
   125b0:	01041983          	lh	s3,16(s0)
   125b4:	03099913          	slli	s2,s3,0x30
   125b8:	03095913          	srli	s2,s2,0x30
   125bc:	00397793          	andi	a5,s2,3
   125c0:	e3a5                	bnez	a5,12620 <__srefill_r+0xde>
   125c2:	6c10                	ld	a2,24(s0)
   125c4:	7c1c                	ld	a5,56(s0)
   125c6:	5014                	lw	a3,32(s0)
   125c8:	780c                	ld	a1,48(s0)
   125ca:	e010                	sd	a2,0(s0)
   125cc:	8526                	mv	a0,s1
   125ce:	9782                	jalr	a5
   125d0:	0005079b          	sext.w	a5,a0
   125d4:	c41c                	sw	a5,8(s0)
   125d6:	4501                	li	a0,0
   125d8:	0af05563          	blez	a5,12682 <__srefill_r+0x140>
   125dc:	70a2                	ld	ra,40(sp)
   125de:	7402                	ld	s0,32(sp)
   125e0:	64e2                	ld	s1,24(sp)
   125e2:	6942                	ld	s2,16(sp)
   125e4:	69a2                	ld	s3,8(sp)
   125e6:	6145                	addi	sp,sp,48
   125e8:	8082                	ret
   125ea:	6c2c                	ld	a1,88(s0)
   125ec:	d1e1                	beqz	a1,125ac <__srefill_r+0x6a>
   125ee:	07440793          	addi	a5,s0,116
   125f2:	00f58563          	beq	a1,a5,125fc <__srefill_r+0xba>
   125f6:	8526                	mv	a0,s1
   125f8:	c98fe0ef          	jal	ra,10a90 <_free_r>
   125fc:	583c                	lw	a5,112(s0)
   125fe:	04043c23          	sd	zero,88(s0)
   12602:	c41c                	sw	a5,8(s0)
   12604:	d7c5                	beqz	a5,125ac <__srefill_r+0x6a>
   12606:	743c                	ld	a5,104(s0)
   12608:	70a2                	ld	ra,40(sp)
   1260a:	64e2                	ld	s1,24(sp)
   1260c:	e01c                	sd	a5,0(s0)
   1260e:	7402                	ld	s0,32(sp)
   12610:	6942                	ld	s2,16(sp)
   12612:	69a2                	ld	s3,8(sp)
   12614:	4501                	li	a0,0
   12616:	6145                	addi	sp,sp,48
   12618:	8082                	ret
   1261a:	a08fe0ef          	jal	ra,10822 <__sinit>
   1261e:	bf2d                	j	12558 <__srefill_r+0x16>
   12620:	7481b503          	ld	a0,1864(gp) # 1f6d8 <_global_impure_ptr>
   12624:	000125b7          	lui	a1,0x12
   12628:	4785                	li	a5,1
   1262a:	00f41823          	sh	a5,16(s0)
   1262e:	52e58593          	addi	a1,a1,1326 # 1252e <lflush>
   12632:	d51fe0ef          	jal	ra,11382 <_fwalk>
   12636:	00997913          	andi	s2,s2,9
   1263a:	01341823          	sh	s3,16(s0)
   1263e:	47a5                	li	a5,9
   12640:	f8f911e3          	bne	s2,a5,125c2 <__srefill_r+0x80>
   12644:	85a2                	mv	a1,s0
   12646:	8526                	mv	a0,s1
   12648:	ccbfd0ef          	jal	ra,10312 <__sflush_r>
   1264c:	bf9d                	j	125c2 <__srefill_r+0x80>
   1264e:	85a2                	mv	a1,s0
   12650:	8526                	mv	a0,s1
   12652:	e57fd0ef          	jal	ra,104a8 <_fflush_r>
   12656:	e505                	bnez	a0,1267e <__srefill_r+0x13c>
   12658:	01041703          	lh	a4,16(s0)
   1265c:	00042623          	sw	zero,12(s0)
   12660:	02042423          	sw	zero,40(s0)
   12664:	9b5d                	andi	a4,a4,-9
   12666:	bf3d                	j	125a4 <__srefill_r+0x62>
   12668:	85a2                	mv	a1,s0
   1266a:	8526                	mv	a0,s1
   1266c:	f23fe0ef          	jal	ra,1158e <__smakebuf_r>
   12670:	b781                	j	125b0 <__srefill_r+0x6e>
   12672:	04076713          	ori	a4,a4,64
   12676:	00042423          	sw	zero,8(s0)
   1267a:	00e41823          	sh	a4,16(s0)
   1267e:	557d                	li	a0,-1
   12680:	bfb1                	j	125dc <__srefill_r+0x9a>
   12682:	01041703          	lh	a4,16(s0)
   12686:	f7f5                	bnez	a5,12672 <__srefill_r+0x130>
   12688:	02076713          	ori	a4,a4,32
   1268c:	00e41823          	sh	a4,16(s0)
   12690:	557d                	li	a0,-1
   12692:	b7a9                	j	125dc <__srefill_r+0x9a>
   12694:	47a5                	li	a5,9
   12696:	c09c                	sw	a5,0(s1)
   12698:	04076713          	ori	a4,a4,64
   1269c:	00e41823          	sh	a4,16(s0)
   126a0:	557d                	li	a0,-1
   126a2:	bf2d                	j	125dc <__srefill_r+0x9a>

00000000000126a4 <_sbrk_r>:
   126a4:	1101                	addi	sp,sp,-32
   126a6:	e822                	sd	s0,16(sp)
   126a8:	e426                	sd	s1,8(sp)
   126aa:	0001f437          	lui	s0,0x1f
   126ae:	84aa                	mv	s1,a0
   126b0:	852e                	mv	a0,a1
   126b2:	ec06                	sd	ra,24(sp)
   126b4:	78042423          	sw	zero,1928(s0) # 1f788 <errno>
   126b8:	463080ef          	jal	ra,1b31a <_sbrk>
   126bc:	57fd                	li	a5,-1
   126be:	00f50763          	beq	a0,a5,126cc <_sbrk_r+0x28>
   126c2:	60e2                	ld	ra,24(sp)
   126c4:	6442                	ld	s0,16(sp)
   126c6:	64a2                	ld	s1,8(sp)
   126c8:	6105                	addi	sp,sp,32
   126ca:	8082                	ret
   126cc:	78842783          	lw	a5,1928(s0)
   126d0:	dbed                	beqz	a5,126c2 <_sbrk_r+0x1e>
   126d2:	60e2                	ld	ra,24(sp)
   126d4:	6442                	ld	s0,16(sp)
   126d6:	c09c                	sw	a5,0(s1)
   126d8:	64a2                	ld	s1,8(sp)
   126da:	6105                	addi	sp,sp,32
   126dc:	8082                	ret

00000000000126de <__sread>:
   126de:	1141                	addi	sp,sp,-16
   126e0:	e022                	sd	s0,0(sp)
   126e2:	842e                	mv	s0,a1
   126e4:	01259583          	lh	a1,18(a1)
   126e8:	e406                	sd	ra,8(sp)
   126ea:	669040ef          	jal	ra,17552 <_read_r>
   126ee:	00054963          	bltz	a0,12700 <__sread+0x22>
   126f2:	685c                	ld	a5,144(s0)
   126f4:	60a2                	ld	ra,8(sp)
   126f6:	97aa                	add	a5,a5,a0
   126f8:	e85c                	sd	a5,144(s0)
   126fa:	6402                	ld	s0,0(sp)
   126fc:	0141                	addi	sp,sp,16
   126fe:	8082                	ret
   12700:	01045783          	lhu	a5,16(s0)
   12704:	777d                	lui	a4,0xfffff
   12706:	177d                	addi	a4,a4,-1
   12708:	8ff9                	and	a5,a5,a4
   1270a:	00f41823          	sh	a5,16(s0)
   1270e:	60a2                	ld	ra,8(sp)
   12710:	6402                	ld	s0,0(sp)
   12712:	0141                	addi	sp,sp,16
   12714:	8082                	ret

0000000000012716 <__seofread>:
   12716:	4501                	li	a0,0
   12718:	8082                	ret

000000000001271a <__swrite>:
   1271a:	01059783          	lh	a5,16(a1)
   1271e:	7179                	addi	sp,sp,-48
   12720:	f022                	sd	s0,32(sp)
   12722:	ec26                	sd	s1,24(sp)
   12724:	e84a                	sd	s2,16(sp)
   12726:	e44e                	sd	s3,8(sp)
   12728:	f406                	sd	ra,40(sp)
   1272a:	1007f713          	andi	a4,a5,256
   1272e:	842e                	mv	s0,a1
   12730:	84aa                	mv	s1,a0
   12732:	8932                	mv	s2,a2
   12734:	89b6                	mv	s3,a3
   12736:	01259583          	lh	a1,18(a1)
   1273a:	e30d                	bnez	a4,1275c <__swrite+0x42>
   1273c:	777d                	lui	a4,0xfffff
   1273e:	177d                	addi	a4,a4,-1
   12740:	8ff9                	and	a5,a5,a4
   12742:	00f41823          	sh	a5,16(s0)
   12746:	7402                	ld	s0,32(sp)
   12748:	70a2                	ld	ra,40(sp)
   1274a:	86ce                	mv	a3,s3
   1274c:	864a                	mv	a2,s2
   1274e:	69a2                	ld	s3,8(sp)
   12750:	6942                	ld	s2,16(sp)
   12752:	8526                	mv	a0,s1
   12754:	64e2                	ld	s1,24(sp)
   12756:	6145                	addi	sp,sp,48
   12758:	56b0106f          	j	144c2 <_write_r>
   1275c:	4689                	li	a3,2
   1275e:	4601                	li	a2,0
   12760:	240040ef          	jal	ra,169a0 <_lseek_r>
   12764:	01041783          	lh	a5,16(s0)
   12768:	01241583          	lh	a1,18(s0)
   1276c:	bfc1                	j	1273c <__swrite+0x22>

000000000001276e <__sseek>:
   1276e:	1141                	addi	sp,sp,-16
   12770:	e022                	sd	s0,0(sp)
   12772:	842e                	mv	s0,a1
   12774:	01259583          	lh	a1,18(a1)
   12778:	e406                	sd	ra,8(sp)
   1277a:	226040ef          	jal	ra,169a0 <_lseek_r>
   1277e:	57fd                	li	a5,-1
   12780:	00f50d63          	beq	a0,a5,1279a <__sseek+0x2c>
   12784:	01045783          	lhu	a5,16(s0)
   12788:	6705                	lui	a4,0x1
   1278a:	e848                	sd	a0,144(s0)
   1278c:	8fd9                	or	a5,a5,a4
   1278e:	00f41823          	sh	a5,16(s0)
   12792:	60a2                	ld	ra,8(sp)
   12794:	6402                	ld	s0,0(sp)
   12796:	0141                	addi	sp,sp,16
   12798:	8082                	ret
   1279a:	01045783          	lhu	a5,16(s0)
   1279e:	777d                	lui	a4,0xfffff
   127a0:	177d                	addi	a4,a4,-1
   127a2:	8ff9                	and	a5,a5,a4
   127a4:	00f41823          	sh	a5,16(s0)
   127a8:	60a2                	ld	ra,8(sp)
   127aa:	6402                	ld	s0,0(sp)
   127ac:	0141                	addi	sp,sp,16
   127ae:	8082                	ret

00000000000127b0 <__sclose>:
   127b0:	01259583          	lh	a1,18(a1)
   127b4:	7750106f          	j	14728 <_close_r>

00000000000127b8 <strlen>:
   127b8:	00757793          	andi	a5,a0,7
   127bc:	872a                	mv	a4,a0
   127be:	efa1                	bnez	a5,12816 <strlen+0x5e>
   127c0:	0001f7b7          	lui	a5,0x1f
   127c4:	6b87b683          	ld	a3,1720(a5) # 1f6b8 <mask>
   127c8:	55fd                	li	a1,-1
   127ca:	0721                	addi	a4,a4,8
   127cc:	ff873603          	ld	a2,-8(a4) # ffffffffffffeff8 <__BSS_END__+0xfffffffffffdf868>
   127d0:	00d677b3          	and	a5,a2,a3
   127d4:	97b6                	add	a5,a5,a3
   127d6:	8fd1                	or	a5,a5,a2
   127d8:	8fd5                	or	a5,a5,a3
   127da:	feb788e3          	beq	a5,a1,127ca <strlen+0x12>
   127de:	ff874783          	lbu	a5,-8(a4)
   127e2:	40a706b3          	sub	a3,a4,a0
   127e6:	c7a9                	beqz	a5,12830 <strlen+0x78>
   127e8:	ff974783          	lbu	a5,-7(a4)
   127ec:	cf9d                	beqz	a5,1282a <strlen+0x72>
   127ee:	ffa74783          	lbu	a5,-6(a4)
   127f2:	c7a9                	beqz	a5,1283c <strlen+0x84>
   127f4:	ffb74783          	lbu	a5,-5(a4)
   127f8:	cf9d                	beqz	a5,12836 <strlen+0x7e>
   127fa:	ffc74603          	lbu	a2,-4(a4)
   127fe:	ffd74583          	lbu	a1,-3(a4)
   12802:	ffe74783          	lbu	a5,-2(a4)
   12806:	ce15                	beqz	a2,12842 <strlen+0x8a>
   12808:	c1a1                	beqz	a1,12848 <strlen+0x90>
   1280a:	00f03533          	snez	a0,a5
   1280e:	9536                	add	a0,a0,a3
   12810:	1579                	addi	a0,a0,-2
   12812:	8082                	ret
   12814:	d6d5                	beqz	a3,127c0 <strlen+0x8>
   12816:	00074783          	lbu	a5,0(a4)
   1281a:	0705                	addi	a4,a4,1
   1281c:	00777693          	andi	a3,a4,7
   12820:	fbf5                	bnez	a5,12814 <strlen+0x5c>
   12822:	8f09                	sub	a4,a4,a0
   12824:	fff70513          	addi	a0,a4,-1
   12828:	8082                	ret
   1282a:	ff968513          	addi	a0,a3,-7 # ffffffffffffdff9 <__BSS_END__+0xfffffffffffde869>
   1282e:	8082                	ret
   12830:	ff868513          	addi	a0,a3,-8
   12834:	8082                	ret
   12836:	ffb68513          	addi	a0,a3,-5
   1283a:	8082                	ret
   1283c:	ffa68513          	addi	a0,a3,-6
   12840:	8082                	ret
   12842:	ffc68513          	addi	a0,a3,-4
   12846:	8082                	ret
   12848:	ffd68513          	addi	a0,a3,-3
   1284c:	8082                	ret

000000000001284e <_vfprintf_r>:
   1284e:	d8010113          	addi	sp,sp,-640
   12852:	26113c23          	sd	ra,632(sp)
   12856:	25313c23          	sd	s3,600(sp)
   1285a:	25413823          	sd	s4,592(sp)
   1285e:	23a13023          	sd	s10,544(sp)
   12862:	89ae                	mv	s3,a1
   12864:	8d32                	mv	s10,a2
   12866:	e836                	sd	a3,16(sp)
   12868:	26813823          	sd	s0,624(sp)
   1286c:	26913423          	sd	s1,616(sp)
   12870:	27213023          	sd	s2,608(sp)
   12874:	25513423          	sd	s5,584(sp)
   12878:	25613023          	sd	s6,576(sp)
   1287c:	23713c23          	sd	s7,568(sp)
   12880:	23813823          	sd	s8,560(sp)
   12884:	23913423          	sd	s9,552(sp)
   12888:	21b13c23          	sd	s11,536(sp)
   1288c:	8a2a                	mv	s4,a0
   1288e:	052040ef          	jal	ra,168e0 <_localeconv_r>
   12892:	611c                	ld	a5,0(a0)
   12894:	853e                	mv	a0,a5
   12896:	f8be                	sd	a5,112(sp)
   12898:	f21ff0ef          	jal	ra,127b8 <strlen>
   1289c:	f4aa                	sd	a0,104(sp)
   1289e:	e202                	sd	zero,256(sp)
   128a0:	e602                	sd	zero,264(sp)
   128a2:	000a0663          	beqz	s4,128ae <_vfprintf_r+0x60>
   128a6:	050a2783          	lw	a5,80(s4)
   128aa:	1c0780e3          	beqz	a5,1326a <_vfprintf_r+0xa1c>
   128ae:	01099683          	lh	a3,16(s3)
   128b2:	03069793          	slli	a5,a3,0x30
   128b6:	93c1                	srli	a5,a5,0x30
   128b8:	03279713          	slli	a4,a5,0x32
   128bc:	00074f63          	bltz	a4,128da <_vfprintf_r+0x8c>
   128c0:	0ac9a603          	lw	a2,172(s3)
   128c4:	6789                	lui	a5,0x2
   128c6:	8fd5                	or	a5,a5,a3
   128c8:	76f9                	lui	a3,0xffffe
   128ca:	16fd                	addi	a3,a3,-1
   128cc:	8ef1                	and	a3,a3,a2
   128ce:	00f99823          	sh	a5,16(s3)
   128d2:	17c2                	slli	a5,a5,0x30
   128d4:	0ad9a623          	sw	a3,172(s3)
   128d8:	93c1                	srli	a5,a5,0x30
   128da:	0087f693          	andi	a3,a5,8
   128de:	cafd                	beqz	a3,129d4 <_vfprintf_r+0x186>
   128e0:	0189b683          	ld	a3,24(s3)
   128e4:	cae5                	beqz	a3,129d4 <_vfprintf_r+0x186>
   128e6:	8be9                	andi	a5,a5,26
   128e8:	46a9                	li	a3,10
   128ea:	10d78263          	beq	a5,a3,129ee <_vfprintf_r+0x1a0>
   128ee:	0001d7b7          	lui	a5,0x1d
   128f2:	a487b783          	ld	a5,-1464(a5) # 1ca48 <zeroes.4550+0x40>
   128f6:	19010a93          	addi	s5,sp,400
   128fa:	ea56                	sd	s5,272(sp)
   128fc:	f13e                	sd	a5,160(sp)
   128fe:	0001d7b7          	lui	a5,0x1d
   12902:	a287b783          	ld	a5,-1496(a5) # 1ca28 <zeroes.4550+0x20>
   12906:	f202                	sd	zero,288(sp)
   12908:	10012c23          	sw	zero,280(sp)
   1290c:	e93e                	sd	a5,144(sp)
   1290e:	0001d7b7          	lui	a5,0x1d
   12912:	a387b783          	ld	a5,-1480(a5) # 1ca38 <zeroes.4550+0x30>
   12916:	f002                	sd	zero,32(sp)
   12918:	f402                	sd	zero,40(sp)
   1291a:	ed3e                	sd	a5,152(sp)
   1291c:	000d4783          	lbu	a5,0(s10)
   12920:	e102                	sd	zero,128(sp)
   12922:	f082                	sd	zero,96(sp)
   12924:	fc82                	sd	zero,120(sp)
   12926:	e502                	sd	zero,136(sp)
   12928:	e402                	sd	zero,8(sp)
   1292a:	8356                	mv	t1,s5
   1292c:	72078e63          	beqz	a5,13068 <_vfprintf_r+0x81a>
   12930:	02500693          	li	a3,37
   12934:	00d79463          	bne	a5,a3,1293c <_vfprintf_r+0xee>
   12938:	0960106f          	j	139ce <_vfprintf_r+0x1180>
   1293c:	846a                	mv	s0,s10
   1293e:	a021                	j	12946 <_vfprintf_r+0xf8>
   12940:	0cd78363          	beq	a5,a3,12a06 <_vfprintf_r+0x1b8>
   12944:	844a                	mv	s0,s2
   12946:	00144783          	lbu	a5,1(s0)
   1294a:	00140913          	addi	s2,s0,1
   1294e:	fbed                	bnez	a5,12940 <_vfprintf_r+0xf2>
   12950:	41a904bb          	subw	s1,s2,s10
   12954:	70048a63          	beqz	s1,13068 <_vfprintf_r+0x81a>
   12958:	7692                	ld	a3,288(sp)
   1295a:	11812783          	lw	a5,280(sp)
   1295e:	01a33023          	sd	s10,0(t1)
   12962:	96a6                	add	a3,a3,s1
   12964:	2785                	addiw	a5,a5,1
   12966:	00933423          	sd	s1,8(t1)
   1296a:	f236                	sd	a3,288(sp)
   1296c:	10f12c23          	sw	a5,280(sp)
   12970:	0007869b          	sext.w	a3,a5
   12974:	479d                	li	a5,7
   12976:	0341                	addi	t1,t1,16
   12978:	08d7cb63          	blt	a5,a3,12a0e <_vfprintf_r+0x1c0>
   1297c:	6722                	ld	a4,8(sp)
   1297e:	00144783          	lbu	a5,1(s0)
   12982:	9f25                	addw	a4,a4,s1
   12984:	e43a                	sd	a4,8(sp)
   12986:	6e078163          	beqz	a5,13068 <_vfprintf_r+0x81a>
   1298a:	67f5                	lui	a5,0x1d
   1298c:	00190493          	addi	s1,s2,1
   12990:	00194e83          	lbu	t4,1(s2)
   12994:	0c010fa3          	sb	zero,223(sp)
   12998:	5c7d                	li	s8,-1
   1299a:	4b01                	li	s6,0
   1299c:	4401                	li	s0,0
   1299e:	05a00913          	li	s2,90
   129a2:	88878b93          	addi	s7,a5,-1912 # 1c888 <__clzdi2+0x5a>
   129a6:	4da5                	li	s11,9
   129a8:	0485                	addi	s1,s1,1
   129aa:	000e8c9b          	sext.w	s9,t4
   129ae:	02a00613          	li	a2,42
   129b2:	fe0c879b          	addiw	a5,s9,-32
   129b6:	0007869b          	sext.w	a3,a5
   129ba:	18d96363          	bltu	s2,a3,12b40 <_vfprintf_r+0x2f2>
   129be:	1782                	slli	a5,a5,0x20
   129c0:	83f9                	srli	a5,a5,0x1e
   129c2:	97de                	add	a5,a5,s7
   129c4:	439c                	lw	a5,0(a5)
   129c6:	8782                	jr	a5
   129c8:	01046413          	ori	s0,s0,16
   129cc:	2401                	sext.w	s0,s0
   129ce:	0004ce83          	lbu	t4,0(s1)
   129d2:	bfd9                	j	129a8 <_vfprintf_r+0x15a>
   129d4:	85ce                	mv	a1,s3
   129d6:	8552                	mv	a0,s4
   129d8:	32b010ef          	jal	ra,14502 <__swsetup_r>
   129dc:	c119                	beqz	a0,129e2 <_vfprintf_r+0x194>
   129de:	7700106f          	j	1414e <_vfprintf_r+0x1900>
   129e2:	0109d783          	lhu	a5,16(s3)
   129e6:	46a9                	li	a3,10
   129e8:	8be9                	andi	a5,a5,26
   129ea:	f0d792e3          	bne	a5,a3,128ee <_vfprintf_r+0xa0>
   129ee:	01299783          	lh	a5,18(s3)
   129f2:	ee07cee3          	bltz	a5,128ee <_vfprintf_r+0xa0>
   129f6:	66c2                	ld	a3,16(sp)
   129f8:	866a                	mv	a2,s10
   129fa:	85ce                	mv	a1,s3
   129fc:	8552                	mv	a0,s4
   129fe:	231010ef          	jal	ra,1442e <__sbprintf>
   12a02:	e42a                	sd	a0,8(sp)
   12a04:	a089                	j	12a46 <_vfprintf_r+0x1f8>
   12a06:	41a904bb          	subw	s1,s2,s10
   12a0a:	d0c1                	beqz	s1,1298a <_vfprintf_r+0x13c>
   12a0c:	b7b1                	j	12958 <_vfprintf_r+0x10a>
   12a0e:	0a10                	addi	a2,sp,272
   12a10:	85ce                	mv	a1,s3
   12a12:	8552                	mv	a0,s4
   12a14:	2cd060ef          	jal	ra,194e0 <__sprint_r>
   12a18:	e105                	bnez	a0,12a38 <_vfprintf_r+0x1ea>
   12a1a:	8356                	mv	t1,s5
   12a1c:	b785                	j	1297c <_vfprintf_r+0x12e>
   12a1e:	0a10                	addi	a2,sp,272
   12a20:	85ce                	mv	a1,s3
   12a22:	8552                	mv	a0,s4
   12a24:	2bd060ef          	jal	ra,194e0 <__sprint_r>
   12a28:	62050263          	beqz	a0,1304c <_vfprintf_r+0x7fe>
   12a2c:	67e2                	ld	a5,24(sp)
   12a2e:	c789                	beqz	a5,12a38 <_vfprintf_r+0x1ea>
   12a30:	85be                	mv	a1,a5
   12a32:	8552                	mv	a0,s4
   12a34:	85cfe0ef          	jal	ra,10a90 <_free_r>
   12a38:	0109d783          	lhu	a5,16(s3)
   12a3c:	0407f793          	andi	a5,a5,64
   12a40:	c399                	beqz	a5,12a46 <_vfprintf_r+0x1f8>
   12a42:	70c0106f          	j	1414e <_vfprintf_r+0x1900>
   12a46:	27813083          	ld	ra,632(sp)
   12a4a:	27013403          	ld	s0,624(sp)
   12a4e:	6522                	ld	a0,8(sp)
   12a50:	26813483          	ld	s1,616(sp)
   12a54:	26013903          	ld	s2,608(sp)
   12a58:	25813983          	ld	s3,600(sp)
   12a5c:	25013a03          	ld	s4,592(sp)
   12a60:	24813a83          	ld	s5,584(sp)
   12a64:	24013b03          	ld	s6,576(sp)
   12a68:	23813b83          	ld	s7,568(sp)
   12a6c:	23013c03          	ld	s8,560(sp)
   12a70:	22813c83          	ld	s9,552(sp)
   12a74:	22013d03          	ld	s10,544(sp)
   12a78:	21813d83          	ld	s11,536(sp)
   12a7c:	28010113          	addi	sp,sp,640
   12a80:	8082                	ret
   12a82:	0001d7b7          	lui	a5,0x1d
   12a86:	66c2                	ld	a3,16(sp)
   12a88:	a7078793          	addi	a5,a5,-1424 # 1ca70 <zeroes.4550+0x68>
   12a8c:	f43e                	sd	a5,40(sp)
   12a8e:	02047793          	andi	a5,s0,32
   12a92:	00868713          	addi	a4,a3,8 # ffffffffffffe008 <__BSS_END__+0xfffffffffffde878>
   12a96:	cbf9                	beqz	a5,12b6c <_vfprintf_r+0x31e>
   12a98:	0006b903          	ld	s2,0(a3)
   12a9c:	00147793          	andi	a5,s0,1
   12aa0:	cf81                	beqz	a5,12ab8 <_vfprintf_r+0x26a>
   12aa2:	00090b63          	beqz	s2,12ab8 <_vfprintf_r+0x26a>
   12aa6:	00246413          	ori	s0,s0,2
   12aaa:	03000793          	li	a5,48
   12aae:	0ef10023          	sb	a5,224(sp)
   12ab2:	0f9100a3          	sb	s9,225(sp)
   12ab6:	2401                	sext.w	s0,s0
   12ab8:	bff47413          	andi	s0,s0,-1025
   12abc:	00040d9b          	sext.w	s11,s0
   12ac0:	e83a                	sd	a4,16(sp)
   12ac2:	4789                	li	a5,2
   12ac4:	0c010fa3          	sb	zero,223(sp)
   12ac8:	577d                	li	a4,-1
   12aca:	44ec0263          	beq	s8,a4,12f0e <_vfprintf_r+0x6c0>
   12ace:	f7fdf413          	andi	s0,s11,-129
   12ad2:	2401                	sext.w	s0,s0
   12ad4:	2c0913e3          	bnez	s2,1359a <_vfprintf_r+0xd4c>
   12ad8:	3e0c19e3          	bnez	s8,136ca <_vfprintf_r+0xe7c>
   12adc:	3a079363          	bnez	a5,12e82 <_vfprintf_r+0x634>
   12ae0:	001dfb93          	andi	s7,s11,1
   12ae4:	18c10d13          	addi	s10,sp,396
   12ae8:	5a0b9be3          	bnez	s7,1389e <_vfprintf_r+0x1050>
   12aec:	000b891b          	sext.w	s2,s7
   12af0:	018bd463          	bge	s7,s8,12af8 <_vfprintf_r+0x2aa>
   12af4:	000c091b          	sext.w	s2,s8
   12af8:	0df14783          	lbu	a5,223(sp)
   12afc:	ec02                	sd	zero,24(sp)
   12afe:	e482                	sd	zero,72(sp)
   12b00:	ec82                	sd	zero,88(sp)
   12b02:	e882                	sd	zero,80(sp)
   12b04:	46078d63          	beqz	a5,12f7e <_vfprintf_r+0x730>
   12b08:	2905                	addiw	s2,s2,1
   12b0a:	a995                	j	12f7e <_vfprintf_r+0x730>
   12b0c:	4b01                	li	s6,0
   12b0e:	0485                	addi	s1,s1,1
   12b10:	fff4c683          	lbu	a3,-1(s1)
   12b14:	002b179b          	slliw	a5,s6,0x2
   12b18:	01678b3b          	addw	s6,a5,s6
   12b1c:	fd0c8e9b          	addiw	t4,s9,-48
   12b20:	001b1b1b          	slliw	s6,s6,0x1
   12b24:	fd06879b          	addiw	a5,a3,-48
   12b28:	016e8b3b          	addw	s6,t4,s6
   12b2c:	00068c9b          	sext.w	s9,a3
   12b30:	fcfdffe3          	bgeu	s11,a5,12b0e <_vfprintf_r+0x2c0>
   12b34:	fe0c879b          	addiw	a5,s9,-32
   12b38:	0007869b          	sext.w	a3,a5
   12b3c:	e8d971e3          	bgeu	s2,a3,129be <_vfprintf_r+0x170>
   12b40:	520c8463          	beqz	s9,13068 <_vfprintf_r+0x81a>
   12b44:	13910423          	sb	s9,296(sp)
   12b48:	0c010fa3          	sb	zero,223(sp)
   12b4c:	4905                	li	s2,1
   12b4e:	4b85                	li	s7,1
   12b50:	12810d13          	addi	s10,sp,296
   12b54:	a105                	j	12f74 <_vfprintf_r+0x726>
   12b56:	0001d7b7          	lui	a5,0x1d
   12b5a:	66c2                	ld	a3,16(sp)
   12b5c:	a8878793          	addi	a5,a5,-1400 # 1ca88 <zeroes.4550+0x80>
   12b60:	f43e                	sd	a5,40(sp)
   12b62:	02047793          	andi	a5,s0,32
   12b66:	00868713          	addi	a4,a3,8
   12b6a:	f79d                	bnez	a5,12a98 <_vfprintf_r+0x24a>
   12b6c:	01047793          	andi	a5,s0,16
   12b70:	560792e3          	bnez	a5,138d4 <_vfprintf_r+0x1086>
   12b74:	66c2                	ld	a3,16(sp)
   12b76:	04047793          	andi	a5,s0,64
   12b7a:	0006a903          	lw	s2,0(a3)
   12b7e:	e399                	bnez	a5,12b84 <_vfprintf_r+0x336>
   12b80:	78b0006f          	j	13b0a <_vfprintf_r+0x12bc>
   12b84:	1942                	slli	s2,s2,0x30
   12b86:	03095913          	srli	s2,s2,0x30
   12b8a:	bf09                	j	12a9c <_vfprintf_r+0x24e>
   12b8c:	0004ce83          	lbu	t4,0(s1)
   12b90:	00446413          	ori	s0,s0,4
   12b94:	2401                	sext.w	s0,s0
   12b96:	bd09                	j	129a8 <_vfprintf_r+0x15a>
   12b98:	0004ce83          	lbu	t4,0(s1)
   12b9c:	06800793          	li	a5,104
   12ba0:	58fe86e3          	beq	t4,a5,1392c <_vfprintf_r+0x10de>
   12ba4:	04046413          	ori	s0,s0,64
   12ba8:	2401                	sext.w	s0,s0
   12baa:	bbfd                	j	129a8 <_vfprintf_r+0x15a>
   12bac:	00847793          	andi	a5,s0,8
   12bb0:	500794e3          	bnez	a5,138b8 <_vfprintf_r+0x106a>
   12bb4:	67c2                	ld	a5,16(sp)
   12bb6:	ec1a                	sd	t1,24(sp)
   12bb8:	2388                	fld	fa0,0(a5)
   12bba:	07a1                	addi	a5,a5,8
   12bbc:	e83e                	sd	a5,16(sp)
   12bbe:	185090ef          	jal	ra,1c542 <__extenddftf2>
   12bc2:	6362                	ld	t1,24(sp)
   12bc4:	e22a                	sd	a0,256(sp)
   12bc6:	e62e                	sd	a1,264(sp)
   12bc8:	0208                	addi	a0,sp,256
   12bca:	ec1a                	sd	t1,24(sp)
   12bcc:	4d9030ef          	jal	ra,168a4 <_ldcheck>
   12bd0:	d5aa                	sw	a0,232(sp)
   12bd2:	4789                	li	a5,2
   12bd4:	6362                	ld	t1,24(sp)
   12bd6:	6af50de3          	beq	a0,a5,13a90 <_vfprintf_r+0x1242>
   12bda:	4785                	li	a5,1
   12bdc:	00f51463          	bne	a0,a5,12be4 <_vfprintf_r+0x396>
   12be0:	77b0006f          	j	13b5a <_vfprintf_r+0x130c>
   12be4:	06100793          	li	a5,97
   12be8:	00fc9463          	bne	s9,a5,12bf0 <_vfprintf_r+0x3a2>
   12bec:	6040106f          	j	141f0 <_vfprintf_r+0x19a2>
   12bf0:	04100793          	li	a5,65
   12bf4:	00fc9463          	bne	s9,a5,12bfc <_vfprintf_r+0x3ae>
   12bf8:	1f40106f          	j	13dec <_vfprintf_r+0x159e>
   12bfc:	fdfcf713          	andi	a4,s9,-33
   12c00:	57fd                	li	a5,-1
   12c02:	f53a                	sd	a4,168(sp)
   12c04:	00fc1463          	bne	s8,a5,12c0c <_vfprintf_r+0x3be>
   12c08:	6760106f          	j	1427e <_vfprintf_r+0x1a30>
   12c0c:	04700793          	li	a5,71
   12c10:	00f71463          	bne	a4,a5,12c18 <_vfprintf_r+0x3ca>
   12c14:	65c0106f          	j	14270 <_vfprintf_r+0x1a22>
   12c18:	6bb2                	ld	s7,264(sp)
   12c1a:	10046793          	ori	a5,s0,256
   12c1e:	f922                	sd	s0,176(sp)
   12c20:	2781                	sext.w	a5,a5
   12c22:	6d92                	ld	s11,256(sp)
   12c24:	000bd463          	bgez	s7,12c2c <_vfprintf_r+0x3de>
   12c28:	4220106f          	j	1404a <_vfprintf_r+0x17fc>
   12c2c:	e582                	sd	zero,200(sp)
   12c2e:	843e                	mv	s0,a5
   12c30:	ec02                	sd	zero,24(sp)
   12c32:	772a                	ld	a4,168(sp)
   12c34:	04600793          	li	a5,70
   12c38:	00f71463          	bne	a4,a5,12c40 <_vfprintf_r+0x3f2>
   12c3c:	3540106f          	j	13f90 <_vfprintf_r+0x1742>
   12c40:	04500793          	li	a5,69
   12c44:	f01a                	sd	t1,32(sp)
   12c46:	00f71463          	bne	a4,a5,12c4e <_vfprintf_r+0x400>
   12c4a:	6020106f          	j	1424c <_vfprintf_r+0x19fe>
   12c4e:	11bc                	addi	a5,sp,232
   12c50:	8762                	mv	a4,s8
   12c52:	0f810893          	addi	a7,sp,248
   12c56:	0ec10813          	addi	a6,sp,236
   12c5a:	4689                	li	a3,2
   12c5c:	85ee                	mv	a1,s11
   12c5e:	865e                	mv	a2,s7
   12c60:	8552                	mv	a0,s4
   12c62:	595020ef          	jal	ra,159f6 <_ldtoa_r>
   12c66:	772a                	ld	a4,168(sp)
   12c68:	04700793          	li	a5,71
   12c6c:	8d2a                	mv	s10,a0
   12c6e:	7302                	ld	t1,32(sp)
   12c70:	00f70463          	beq	a4,a5,12c78 <_vfprintf_r+0x42a>
   12c74:	7a60106f          	j	1441a <_vfprintf_r+0x1bcc>
   12c78:	77ca                	ld	a5,176(sp)
   12c7a:	01850933          	add	s2,a0,s8
   12c7e:	8b85                	andi	a5,a5,1
   12c80:	c399                	beqz	a5,12c86 <_vfprintf_r+0x438>
   12c82:	3400106f          	j	13fc2 <_vfprintf_r+0x1774>
   12c86:	776e                	ld	a4,248(sp)
   12c88:	41a707bb          	subw	a5,a4,s10
   12c8c:	f03e                	sd	a5,32(sp)
   12c8e:	572e                	lw	a4,232(sp)
   12c90:	04700793          	li	a5,71
   12c94:	e8ba                	sd	a4,80(sp)
   12c96:	772a                	ld	a4,168(sp)
   12c98:	00f71463          	bne	a4,a5,12ca0 <_vfprintf_r+0x452>
   12c9c:	2dc0106f          	j	13f78 <_vfprintf_r+0x172a>
   12ca0:	772a                	ld	a4,168(sp)
   12ca2:	04600793          	li	a5,70
   12ca6:	00f71463          	bne	a4,a5,12cae <_vfprintf_r+0x460>
   12caa:	4680106f          	j	14112 <_vfprintf_r+0x18c4>
   12cae:	67c6                	ld	a5,80(sp)
   12cb0:	772a                	ld	a4,168(sp)
   12cb2:	04100593          	li	a1,65
   12cb6:	37fd                	addiw	a5,a5,-1
   12cb8:	d5be                	sw	a5,232(sp)
   12cba:	0ffcf693          	andi	a3,s9,255
   12cbe:	4601                	li	a2,0
   12cc0:	00b71663          	bne	a4,a1,12ccc <_vfprintf_r+0x47e>
   12cc4:	26bd                	addiw	a3,a3,15
   12cc6:	0ff6f693          	andi	a3,a3,255
   12cca:	4605                	li	a2,1
   12ccc:	0ed10823          	sb	a3,240(sp)
   12cd0:	0007d463          	bgez	a5,12cd8 <_vfprintf_r+0x48a>
   12cd4:	6aa0106f          	j	1437e <_vfprintf_r+0x1b30>
   12cd8:	02b00693          	li	a3,43
   12cdc:	0ed108a3          	sb	a3,241(sp)
   12ce0:	46a5                	li	a3,9
   12ce2:	00f6c463          	blt	a3,a5,12cea <_vfprintf_r+0x49c>
   12ce6:	65e0106f          	j	14344 <_vfprintf_r+0x1af6>
   12cea:	0ff10813          	addi	a6,sp,255
   12cee:	85c2                	mv	a1,a6
   12cf0:	4529                	li	a0,10
   12cf2:	06300893          	li	a7,99
   12cf6:	a019                	j	12cfc <_vfprintf_r+0x4ae>
   12cf8:	85b2                	mv	a1,a2
   12cfa:	87b6                	mv	a5,a3
   12cfc:	02a7e6bb          	remw	a3,a5,a0
   12d00:	fff58613          	addi	a2,a1,-1
   12d04:	0306869b          	addiw	a3,a3,48
   12d08:	fed58fa3          	sb	a3,-1(a1)
   12d0c:	02a7c6bb          	divw	a3,a5,a0
   12d10:	fef8c4e3          	blt	a7,a5,12cf8 <_vfprintf_r+0x4aa>
   12d14:	0306879b          	addiw	a5,a3,48
   12d18:	0ff7f793          	andi	a5,a5,255
   12d1c:	ffe58693          	addi	a3,a1,-2
   12d20:	fef60fa3          	sb	a5,-1(a2)
   12d24:	0106e463          	bltu	a3,a6,12d2c <_vfprintf_r+0x4de>
   12d28:	6ea0106f          	j	14412 <_vfprintf_r+0x1bc4>
   12d2c:	0f210613          	addi	a2,sp,242
   12d30:	a019                	j	12d36 <_vfprintf_r+0x4e8>
   12d32:	0006c783          	lbu	a5,0(a3)
   12d36:	0605                	addi	a2,a2,1
   12d38:	0685                	addi	a3,a3,1
   12d3a:	fef60fa3          	sb	a5,-1(a2)
   12d3e:	ff069ae3          	bne	a3,a6,12d32 <_vfprintf_r+0x4e4>
   12d42:	10110793          	addi	a5,sp,257
   12d46:	8f8d                	sub	a5,a5,a1
   12d48:	0f210713          	addi	a4,sp,242
   12d4c:	97ba                	add	a5,a5,a4
   12d4e:	1994                	addi	a3,sp,240
   12d50:	9f95                	subw	a5,a5,a3
   12d52:	e13e                	sd	a5,128(sp)
   12d54:	678a                	ld	a5,128(sp)
   12d56:	7702                	ld	a4,32(sp)
   12d58:	4685                	li	a3,1
   12d5a:	00f70bbb          	addw	s7,a4,a5
   12d5e:	87de                	mv	a5,s7
   12d60:	00e6c463          	blt	a3,a4,12d68 <_vfprintf_r+0x51a>
   12d64:	60a0106f          	j	1436e <_vfprintf_r+0x1b20>
   12d68:	7726                	ld	a4,104(sp)
   12d6a:	00e78bbb          	addw	s7,a5,a4
   12d6e:	77ca                	ld	a5,176(sp)
   12d70:	fffbc913          	not	s2,s7
   12d74:	43f95913          	srai	s2,s2,0x3f
   12d78:	bff7f413          	andi	s0,a5,-1025
   12d7c:	2401                	sext.w	s0,s0
   12d7e:	012bf933          	and	s2,s7,s2
   12d82:	10046413          	ori	s0,s0,256
   12d86:	2901                	sext.w	s2,s2
   12d88:	e482                	sd	zero,72(sp)
   12d8a:	ec82                	sd	zero,88(sp)
   12d8c:	e882                	sd	zero,80(sp)
   12d8e:	67ae                	ld	a5,200(sp)
   12d90:	e399                	bnez	a5,12d96 <_vfprintf_r+0x548>
   12d92:	2a80106f          	j	1403a <_vfprintf_r+0x17ec>
   12d96:	02d00793          	li	a5,45
   12d9a:	0cf10fa3          	sb	a5,223(sp)
   12d9e:	4c01                	li	s8,0
   12da0:	2905                	addiw	s2,s2,1
   12da2:	aaf1                	j	12f7e <_vfprintf_r+0x730>
   12da4:	67c2                	ld	a5,16(sp)
   12da6:	01046d93          	ori	s11,s0,16
   12daa:	2d81                	sext.w	s11,s11
   12dac:	00878713          	addi	a4,a5,8
   12db0:	67c2                	ld	a5,16(sp)
   12db2:	0007b903          	ld	s2,0(a5)
   12db6:	4785                	li	a5,1
   12db8:	e83a                	sd	a4,16(sp)
   12dba:	b329                	j	12ac4 <_vfprintf_r+0x276>
   12dbc:	67c2                	ld	a5,16(sp)
   12dbe:	0c010fa3          	sb	zero,223(sp)
   12dc2:	0007bd03          	ld	s10,0(a5)
   12dc6:	00878d93          	addi	s11,a5,8
   12dca:	380d0be3          	beqz	s10,13960 <_vfprintf_r+0x1112>
   12dce:	57fd                	li	a5,-1
   12dd0:	50fc02e3          	beq	s8,a5,13ad4 <_vfprintf_r+0x1286>
   12dd4:	8662                	mv	a2,s8
   12dd6:	4581                	li	a1,0
   12dd8:	856a                	mv	a0,s10
   12dda:	e81a                	sd	t1,16(sp)
   12ddc:	e97fe0ef          	jal	ra,11c72 <memchr>
   12de0:	ec2a                	sd	a0,24(sp)
   12de2:	6342                	ld	t1,16(sp)
   12de4:	e119                	bnez	a0,12dea <_vfprintf_r+0x59c>
   12de6:	2da0106f          	j	140c0 <_vfprintf_r+0x1872>
   12dea:	67e2                	ld	a5,24(sp)
   12dec:	e86e                	sd	s11,16(sp)
   12dee:	ec02                	sd	zero,24(sp)
   12df0:	41a78bbb          	subw	s7,a5,s10
   12df4:	fffbc913          	not	s2,s7
   12df8:	0df14783          	lbu	a5,223(sp)
   12dfc:	43f95913          	srai	s2,s2,0x3f
   12e00:	012bf933          	and	s2,s7,s2
   12e04:	e482                	sd	zero,72(sp)
   12e06:	ec82                	sd	zero,88(sp)
   12e08:	e882                	sd	zero,80(sp)
   12e0a:	2901                	sext.w	s2,s2
   12e0c:	4c01                	li	s8,0
   12e0e:	ce079de3          	bnez	a5,12b08 <_vfprintf_r+0x2ba>
   12e12:	a2b5                	j	12f7e <_vfprintf_r+0x730>
   12e14:	6742                	ld	a4,16(sp)
   12e16:	01046d93          	ori	s11,s0,16
   12e1a:	000d841b          	sext.w	s0,s11
   12e1e:	0721                	addi	a4,a4,8
   12e20:	67c2                	ld	a5,16(sp)
   12e22:	0007b903          	ld	s2,0(a5)
   12e26:	e83a                	sd	a4,16(sp)
   12e28:	bff47d93          	andi	s11,s0,-1025
   12e2c:	2d81                	sext.w	s11,s11
   12e2e:	4781                	li	a5,0
   12e30:	b951                	j	12ac4 <_vfprintf_r+0x276>
   12e32:	00846413          	ori	s0,s0,8
   12e36:	2401                	sext.w	s0,s0
   12e38:	0004ce83          	lbu	t4,0(s1)
   12e3c:	b6b5                	j	129a8 <_vfprintf_r+0x15a>
   12e3e:	6742                	ld	a4,16(sp)
   12e40:	02047793          	andi	a5,s0,32
   12e44:	0721                	addi	a4,a4,8
   12e46:	280794e3          	bnez	a5,138ce <_vfprintf_r+0x1080>
   12e4a:	01047793          	andi	a5,s0,16
   12e4e:	280790e3          	bnez	a5,138ce <_vfprintf_r+0x1080>
   12e52:	04047793          	andi	a5,s0,64
   12e56:	4e0786e3          	beqz	a5,13b42 <_vfprintf_r+0x12f4>
   12e5a:	67c2                	ld	a5,16(sp)
   12e5c:	8da2                	mv	s11,s0
   12e5e:	e83a                	sd	a4,16(sp)
   12e60:	00079903          	lh	s2,0(a5)
   12e64:	87ca                	mv	a5,s2
   12e66:	0807ca63          	bltz	a5,12efa <_vfprintf_r+0x6ac>
   12e6a:	57fd                	li	a5,-1
   12e6c:	40fc0563          	beq	s8,a5,13276 <_vfprintf_r+0xa28>
   12e70:	f7fdf413          	andi	s0,s11,-129
   12e74:	2401                	sext.w	s0,s0
   12e76:	3e091f63          	bnez	s2,13274 <_vfprintf_r+0xa26>
   12e7a:	000c0463          	beqz	s8,12e82 <_vfprintf_r+0x634>
   12e7e:	0e40106f          	j	13f62 <_vfprintf_r+0x1714>
   12e82:	4c01                	li	s8,0
   12e84:	4b81                	li	s7,0
   12e86:	18c10d13          	addi	s10,sp,396
   12e8a:	b18d                	j	12aec <_vfprintf_r+0x29e>
   12e8c:	02b00793          	li	a5,43
   12e90:	0cf10fa3          	sb	a5,223(sp)
   12e94:	0004ce83          	lbu	t4,0(s1)
   12e98:	be01                	j	129a8 <_vfprintf_r+0x15a>
   12e9a:	08046413          	ori	s0,s0,128
   12e9e:	2401                	sext.w	s0,s0
   12ea0:	0004ce83          	lbu	t4,0(s1)
   12ea4:	b611                	j	129a8 <_vfprintf_r+0x15a>
   12ea6:	0004cc83          	lbu	s9,0(s1)
   12eaa:	00148793          	addi	a5,s1,1
   12eae:	00cc9463          	bne	s9,a2,12eb6 <_vfprintf_r+0x668>
   12eb2:	5340106f          	j	143e6 <_vfprintf_r+0x1b98>
   12eb6:	fd0c869b          	addiw	a3,s9,-48
   12eba:	84be                	mv	s1,a5
   12ebc:	4c01                	li	s8,0
   12ebe:	aeddeae3          	bltu	s11,a3,129b2 <_vfprintf_r+0x164>
   12ec2:	0485                	addi	s1,s1,1
   12ec4:	002c179b          	slliw	a5,s8,0x2
   12ec8:	fff4cc83          	lbu	s9,-1(s1)
   12ecc:	01878e3b          	addw	t3,a5,s8
   12ed0:	001e1e1b          	slliw	t3,t3,0x1
   12ed4:	00de0c3b          	addw	s8,t3,a3
   12ed8:	fd0c869b          	addiw	a3,s9,-48
   12edc:	feddf3e3          	bgeu	s11,a3,12ec2 <_vfprintf_r+0x674>
   12ee0:	bcc9                	j	129b2 <_vfprintf_r+0x164>
   12ee2:	67c2                	ld	a5,16(sp)
   12ee4:	01046d93          	ori	s11,s0,16
   12ee8:	2d81                	sext.w	s11,s11
   12eea:	00878713          	addi	a4,a5,8
   12eee:	67c2                	ld	a5,16(sp)
   12ef0:	639c                	ld	a5,0(a5)
   12ef2:	e83a                	sd	a4,16(sp)
   12ef4:	893e                	mv	s2,a5
   12ef6:	f607dae3          	bgez	a5,12e6a <_vfprintf_r+0x61c>
   12efa:	02d00793          	li	a5,45
   12efe:	0cf10fa3          	sb	a5,223(sp)
   12f02:	577d                	li	a4,-1
   12f04:	41200933          	neg	s2,s2
   12f08:	4785                	li	a5,1
   12f0a:	bcec12e3          	bne	s8,a4,12ace <_vfprintf_r+0x280>
   12f0e:	4705                	li	a4,1
   12f10:	36e78363          	beq	a5,a4,13276 <_vfprintf_r+0xa28>
   12f14:	4709                	li	a4,2
   12f16:	7ce78163          	beq	a5,a4,136d8 <_vfprintf_r+0xe8a>
   12f1a:	18c10b93          	addi	s7,sp,396
   12f1e:	86de                	mv	a3,s7
   12f20:	a011                	j	12f24 <_vfprintf_r+0x6d6>
   12f22:	86ea                	mv	a3,s10
   12f24:	00797793          	andi	a5,s2,7
   12f28:	03078793          	addi	a5,a5,48
   12f2c:	fef68fa3          	sb	a5,-1(a3)
   12f30:	00395913          	srli	s2,s2,0x3
   12f34:	fff68d13          	addi	s10,a3,-1
   12f38:	fe0915e3          	bnez	s2,12f22 <_vfprintf_r+0x6d4>
   12f3c:	001df613          	andi	a2,s11,1
   12f40:	38060e63          	beqz	a2,132dc <_vfprintf_r+0xa8e>
   12f44:	03000613          	li	a2,48
   12f48:	38c78a63          	beq	a5,a2,132dc <_vfprintf_r+0xa8e>
   12f4c:	16f9                	addi	a3,a3,-2
   12f4e:	fecd0fa3          	sb	a2,-1(s10)
   12f52:	40db8bbb          	subw	s7,s7,a3
   12f56:	846e                	mv	s0,s11
   12f58:	8d36                	mv	s10,a3
   12f5a:	be49                	j	12aec <_vfprintf_r+0x29e>
   12f5c:	6742                	ld	a4,16(sp)
   12f5e:	0c010fa3          	sb	zero,223(sp)
   12f62:	4905                	li	s2,1
   12f64:	431c                	lw	a5,0(a4)
   12f66:	0721                	addi	a4,a4,8
   12f68:	e83a                	sd	a4,16(sp)
   12f6a:	12f10423          	sb	a5,296(sp)
   12f6e:	4b85                	li	s7,1
   12f70:	12810d13          	addi	s10,sp,296
   12f74:	ec02                	sd	zero,24(sp)
   12f76:	4c01                	li	s8,0
   12f78:	e482                	sd	zero,72(sp)
   12f7a:	ec82                	sd	zero,88(sp)
   12f7c:	e882                	sd	zero,80(sp)
   12f7e:	00247f13          	andi	t5,s0,2
   12f82:	2f01                	sext.w	t5,t5
   12f84:	000f0363          	beqz	t5,12f8a <_vfprintf_r+0x73c>
   12f88:	2909                	addiw	s2,s2,2
   12f8a:	08447293          	andi	t0,s0,132
   12f8e:	7792                	ld	a5,288(sp)
   12f90:	00029663          	bnez	t0,12f9c <_vfprintf_r+0x74e>
   12f94:	412b083b          	subw	a6,s6,s2
   12f98:	61004363          	bgtz	a6,1359e <_vfprintf_r+0xd50>
   12f9c:	0df14683          	lbu	a3,223(sp)
   12fa0:	c68d                	beqz	a3,12fca <_vfprintf_r+0x77c>
   12fa2:	11812683          	lw	a3,280(sp)
   12fa6:	0df10613          	addi	a2,sp,223
   12faa:	00c33023          	sd	a2,0(t1)
   12fae:	2685                	addiw	a3,a3,1
   12fb0:	4605                	li	a2,1
   12fb2:	0785                	addi	a5,a5,1
   12fb4:	00c33423          	sd	a2,8(t1)
   12fb8:	10d12c23          	sw	a3,280(sp)
   12fbc:	0006861b          	sext.w	a2,a3
   12fc0:	f23e                	sd	a5,288(sp)
   12fc2:	469d                	li	a3,7
   12fc4:	0341                	addi	t1,t1,16
   12fc6:	0ac6ca63          	blt	a3,a2,1307a <_vfprintf_r+0x82c>
   12fca:	020f0563          	beqz	t5,12ff4 <_vfprintf_r+0x7a6>
   12fce:	11812683          	lw	a3,280(sp)
   12fd2:	1190                	addi	a2,sp,224
   12fd4:	00c33023          	sd	a2,0(t1)
   12fd8:	2685                	addiw	a3,a3,1
   12fda:	4609                	li	a2,2
   12fdc:	0789                	addi	a5,a5,2
   12fde:	00c33423          	sd	a2,8(t1)
   12fe2:	10d12c23          	sw	a3,280(sp)
   12fe6:	0006861b          	sext.w	a2,a3
   12fea:	f23e                	sd	a5,288(sp)
   12fec:	469d                	li	a3,7
   12fee:	0341                	addi	t1,t1,16
   12ff0:	64c6c363          	blt	a3,a2,13636 <_vfprintf_r+0xde8>
   12ff4:	08000693          	li	a3,128
   12ff8:	3cd28563          	beq	t0,a3,133c2 <_vfprintf_r+0xb74>
   12ffc:	417c0c3b          	subw	s8,s8,s7
   13000:	45804963          	bgtz	s8,13452 <_vfprintf_r+0xc04>
   13004:	10047693          	andi	a3,s0,256
   13008:	2c069f63          	bnez	a3,132e6 <_vfprintf_r+0xa98>
   1300c:	11812703          	lw	a4,280(sp)
   13010:	97de                	add	a5,a5,s7
   13012:	01a33023          	sd	s10,0(t1)
   13016:	0017069b          	addiw	a3,a4,1
   1301a:	8736                	mv	a4,a3
   1301c:	01733423          	sd	s7,8(t1)
   13020:	10e12c23          	sw	a4,280(sp)
   13024:	f23e                	sd	a5,288(sp)
   13026:	471d                	li	a4,7
   13028:	0cd74763          	blt	a4,a3,130f6 <_vfprintf_r+0x8a8>
   1302c:	0341                	addi	t1,t1,16
   1302e:	8811                	andi	s0,s0,4
   13030:	c409                	beqz	s0,1303a <_vfprintf_r+0x7ec>
   13032:	412b043b          	subw	s0,s6,s2
   13036:	60804c63          	bgtz	s0,1364e <_vfprintf_r+0xe00>
   1303a:	875a                	mv	a4,s6
   1303c:	012b5363          	bge	s6,s2,13042 <_vfprintf_r+0x7f4>
   13040:	874a                	mv	a4,s2
   13042:	66a2                	ld	a3,8(sp)
   13044:	9f35                	addw	a4,a4,a3
   13046:	e43a                	sd	a4,8(sp)
   13048:	9c079be3          	bnez	a5,12a1e <_vfprintf_r+0x1d0>
   1304c:	67e2                	ld	a5,24(sp)
   1304e:	10012c23          	sw	zero,280(sp)
   13052:	c789                	beqz	a5,1305c <_vfprintf_r+0x80e>
   13054:	65e2                	ld	a1,24(sp)
   13056:	8552                	mv	a0,s4
   13058:	a39fd0ef          	jal	ra,10a90 <_free_r>
   1305c:	8356                	mv	t1,s5
   1305e:	8d26                	mv	s10,s1
   13060:	000d4783          	lbu	a5,0(s10)
   13064:	8c0796e3          	bnez	a5,12930 <_vfprintf_r+0xe2>
   13068:	7792                	ld	a5,288(sp)
   1306a:	9c0787e3          	beqz	a5,12a38 <_vfprintf_r+0x1ea>
   1306e:	0a10                	addi	a2,sp,272
   13070:	85ce                	mv	a1,s3
   13072:	8552                	mv	a0,s4
   13074:	46c060ef          	jal	ra,194e0 <__sprint_r>
   13078:	b2c1                	j	12a38 <_vfprintf_r+0x1ea>
   1307a:	0a10                	addi	a2,sp,272
   1307c:	85ce                	mv	a1,s3
   1307e:	8552                	mv	a0,s4
   13080:	fc16                	sd	t0,56(sp)
   13082:	f87a                	sd	t5,48(sp)
   13084:	45c060ef          	jal	ra,194e0 <__sprint_r>
   13088:	9a0512e3          	bnez	a0,12a2c <_vfprintf_r+0x1de>
   1308c:	7792                	ld	a5,288(sp)
   1308e:	8356                	mv	t1,s5
   13090:	72e2                	ld	t0,56(sp)
   13092:	7f42                	ld	t5,48(sp)
   13094:	bf1d                	j	12fca <_vfprintf_r+0x77c>
   13096:	11812603          	lw	a2,280(sp)
   1309a:	7726                	ld	a4,104(sp)
   1309c:	76c6                	ld	a3,112(sp)
   1309e:	0341                	addi	t1,t1,16
   130a0:	97ba                	add	a5,a5,a4
   130a2:	fed33823          	sd	a3,-16(t1)
   130a6:	0016069b          	addiw	a3,a2,1
   130aa:	fee33c23          	sd	a4,-8(t1)
   130ae:	f23e                	sd	a5,288(sp)
   130b0:	10d12c23          	sw	a3,280(sp)
   130b4:	461d                	li	a2,7
   130b6:	00d65e63          	bge	a2,a3,130d2 <_vfprintf_r+0x884>
   130ba:	0a10                	addi	a2,sp,272
   130bc:	85ce                	mv	a1,s3
   130be:	8552                	mv	a0,s4
   130c0:	420060ef          	jal	ra,194e0 <__sprint_r>
   130c4:	960514e3          	bnez	a0,12a2c <_vfprintf_r+0x1de>
   130c8:	55ae                	lw	a1,232(sp)
   130ca:	7792                	ld	a5,288(sp)
   130cc:	11812683          	lw	a3,280(sp)
   130d0:	8356                	mv	t1,s5
   130d2:	0005d463          	bgez	a1,130da <_vfprintf_r+0x88c>
   130d6:	0800106f          	j	14156 <_vfprintf_r+0x1908>
   130da:	7702                	ld	a4,32(sp)
   130dc:	0016861b          	addiw	a2,a3,1
   130e0:	01a33023          	sd	s10,0(t1)
   130e4:	97ba                	add	a5,a5,a4
   130e6:	00e33423          	sd	a4,8(t1)
   130ea:	f23e                	sd	a5,288(sp)
   130ec:	10c12c23          	sw	a2,280(sp)
   130f0:	471d                	li	a4,7
   130f2:	f2c75de3          	bge	a4,a2,1302c <_vfprintf_r+0x7de>
   130f6:	0a10                	addi	a2,sp,272
   130f8:	85ce                	mv	a1,s3
   130fa:	8552                	mv	a0,s4
   130fc:	3e4060ef          	jal	ra,194e0 <__sprint_r>
   13100:	920516e3          	bnez	a0,12a2c <_vfprintf_r+0x1de>
   13104:	7792                	ld	a5,288(sp)
   13106:	8356                	mv	t1,s5
   13108:	b71d                	j	1302e <_vfprintf_r+0x7e0>
   1310a:	67c2                	ld	a5,16(sp)
   1310c:	0004ce83          	lbu	t4,0(s1)
   13110:	0007ab03          	lw	s6,0(a5)
   13114:	07a1                	addi	a5,a5,8
   13116:	e83e                	sd	a5,16(sp)
   13118:	880b58e3          	bgez	s6,129a8 <_vfprintf_r+0x15a>
   1311c:	41600b3b          	negw	s6,s6
   13120:	bc85                	j	12b90 <_vfprintf_r+0x342>
   13122:	8552                	mv	a0,s4
   13124:	ec1a                	sd	t1,24(sp)
   13126:	7ba030ef          	jal	ra,168e0 <_localeconv_r>
   1312a:	651c                	ld	a5,8(a0)
   1312c:	853e                	mv	a0,a5
   1312e:	e53e                	sd	a5,136(sp)
   13130:	e88ff0ef          	jal	ra,127b8 <strlen>
   13134:	fcaa                	sd	a0,120(sp)
   13136:	8caa                	mv	s9,a0
   13138:	8552                	mv	a0,s4
   1313a:	7a6030ef          	jal	ra,168e0 <_localeconv_r>
   1313e:	6918                	ld	a4,16(a0)
   13140:	6362                	ld	t1,24(sp)
   13142:	0004ce83          	lbu	t4,0(s1)
   13146:	f0ba                	sd	a4,96(sp)
   13148:	860c80e3          	beqz	s9,129a8 <_vfprintf_r+0x15a>
   1314c:	84070ee3          	beqz	a4,129a8 <_vfprintf_r+0x15a>
   13150:	00074783          	lbu	a5,0(a4)
   13154:	84078ae3          	beqz	a5,129a8 <_vfprintf_r+0x15a>
   13158:	40046413          	ori	s0,s0,1024
   1315c:	2401                	sext.w	s0,s0
   1315e:	b0a9                	j	129a8 <_vfprintf_r+0x15a>
   13160:	00146413          	ori	s0,s0,1
   13164:	2401                	sext.w	s0,s0
   13166:	0004ce83          	lbu	t4,0(s1)
   1316a:	83fff06f          	j	129a8 <_vfprintf_r+0x15a>
   1316e:	0df14783          	lbu	a5,223(sp)
   13172:	0004ce83          	lbu	t4,0(s1)
   13176:	820799e3          	bnez	a5,129a8 <_vfprintf_r+0x15a>
   1317a:	02000793          	li	a5,32
   1317e:	0cf10fa3          	sb	a5,223(sp)
   13182:	827ff06f          	j	129a8 <_vfprintf_r+0x15a>
   13186:	6742                	ld	a4,16(sp)
   13188:	02047793          	andi	a5,s0,32
   1318c:	0721                	addi	a4,a4,8
   1318e:	74079863          	bnez	a5,138de <_vfprintf_r+0x1090>
   13192:	01047793          	andi	a5,s0,16
   13196:	74079463          	bnez	a5,138de <_vfprintf_r+0x1090>
   1319a:	66c2                	ld	a3,16(sp)
   1319c:	04047793          	andi	a5,s0,64
   131a0:	0006a903          	lw	s2,0(a3)
   131a4:	16078be3          	beqz	a5,13b1a <_vfprintf_r+0x12cc>
   131a8:	1942                	slli	s2,s2,0x30
   131aa:	03095913          	srli	s2,s2,0x30
   131ae:	e83a                	sd	a4,16(sp)
   131b0:	8da2                	mv	s11,s0
   131b2:	4785                	li	a5,1
   131b4:	ba01                	j	12ac4 <_vfprintf_r+0x276>
   131b6:	02046413          	ori	s0,s0,32
   131ba:	2401                	sext.w	s0,s0
   131bc:	0004ce83          	lbu	t4,0(s1)
   131c0:	fe8ff06f          	j	129a8 <_vfprintf_r+0x15a>
   131c4:	6742                	ld	a4,16(sp)
   131c6:	77e1                	lui	a5,0xffff8
   131c8:	8307c793          	xori	a5,a5,-2000
   131cc:	0ef11023          	sh	a5,224(sp)
   131d0:	00870793          	addi	a5,a4,8
   131d4:	e83e                	sd	a5,16(sp)
   131d6:	0001d7b7          	lui	a5,0x1d
   131da:	a7078793          	addi	a5,a5,-1424 # 1ca70 <zeroes.4550+0x68>
   131de:	00246413          	ori	s0,s0,2
   131e2:	f43e                	sd	a5,40(sp)
   131e4:	00073903          	ld	s2,0(a4)
   131e8:	00040d9b          	sext.w	s11,s0
   131ec:	4789                	li	a5,2
   131ee:	07800c93          	li	s9,120
   131f2:	b8c9                	j	12ac4 <_vfprintf_r+0x276>
   131f4:	6742                	ld	a4,16(sp)
   131f6:	02047793          	andi	a5,s0,32
   131fa:	0721                	addi	a4,a4,8
   131fc:	c20792e3          	bnez	a5,12e20 <_vfprintf_r+0x5d2>
   13200:	01047793          	andi	a5,s0,16
   13204:	c0079ee3          	bnez	a5,12e20 <_vfprintf_r+0x5d2>
   13208:	66c2                	ld	a3,16(sp)
   1320a:	04047793          	andi	a5,s0,64
   1320e:	0006a903          	lw	s2,0(a3)
   13212:	10078fe3          	beqz	a5,13b30 <_vfprintf_r+0x12e2>
   13216:	1942                	slli	s2,s2,0x30
   13218:	03095913          	srli	s2,s2,0x30
   1321c:	e83a                	sd	a4,16(sp)
   1321e:	b129                	j	12e28 <_vfprintf_r+0x5da>
   13220:	66c2                	ld	a3,16(sp)
   13222:	02047793          	andi	a5,s0,32
   13226:	6298                	ld	a4,0(a3)
   13228:	06a1                	addi	a3,a3,8
   1322a:	e836                	sd	a3,16(sp)
   1322c:	68079163          	bnez	a5,138ae <_vfprintf_r+0x1060>
   13230:	01047793          	andi	a5,s0,16
   13234:	66079d63          	bnez	a5,138ae <_vfprintf_r+0x1060>
   13238:	04047793          	andi	a5,s0,64
   1323c:	360790e3          	bnez	a5,13d9c <_vfprintf_r+0x154e>
   13240:	20047413          	andi	s0,s0,512
   13244:	67a2                	ld	a5,8(sp)
   13246:	e019                	bnez	s0,1324c <_vfprintf_r+0x9fe>
   13248:	03c0106f          	j	14284 <_vfprintf_r+0x1a36>
   1324c:	00f70023          	sb	a5,0(a4)
   13250:	8d26                	mv	s10,s1
   13252:	b539                	j	13060 <_vfprintf_r+0x812>
   13254:	0004ce83          	lbu	t4,0(s1)
   13258:	06c00793          	li	a5,108
   1325c:	6efe8a63          	beq	t4,a5,13950 <_vfprintf_r+0x1102>
   13260:	01046413          	ori	s0,s0,16
   13264:	2401                	sext.w	s0,s0
   13266:	f42ff06f          	j	129a8 <_vfprintf_r+0x15a>
   1326a:	8552                	mv	a0,s4
   1326c:	db6fd0ef          	jal	ra,10822 <__sinit>
   13270:	e3eff06f          	j	128ae <_vfprintf_r+0x60>
   13274:	8da2                	mv	s11,s0
   13276:	47a5                	li	a5,9
   13278:	0127eb63          	bltu	a5,s2,1328e <_vfprintf_r+0xa40>
   1327c:	0309091b          	addiw	s2,s2,48
   13280:	192105a3          	sb	s2,395(sp)
   13284:	846e                	mv	s0,s11
   13286:	4b85                	li	s7,1
   13288:	18b10d13          	addi	s10,sp,395
   1328c:	b085                	j	12aec <_vfprintf_r+0x29e>
   1328e:	400df693          	andi	a3,s11,1024
   13292:	18c10b93          	addi	s7,sp,396
   13296:	2681                	sext.w	a3,a3
   13298:	f002                	sd	zero,32(sp)
   1329a:	865e                	mv	a2,s7
   1329c:	4429                	li	s0,10
   1329e:	4825                	li	a6,9
   132a0:	0ff00893          	li	a7,255
   132a4:	a039                	j	132b2 <_vfprintf_r+0xa64>
   132a6:	028957b3          	divu	a5,s2,s0
   132aa:	03287963          	bgeu	a6,s2,132dc <_vfprintf_r+0xa8e>
   132ae:	893e                	mv	s2,a5
   132b0:	866a                	mv	a2,s10
   132b2:	7702                	ld	a4,32(sp)
   132b4:	fff60d13          	addi	s10,a2,-1
   132b8:	2705                	addiw	a4,a4,1
   132ba:	f03a                	sd	a4,32(sp)
   132bc:	028977b3          	remu	a5,s2,s0
   132c0:	0307879b          	addiw	a5,a5,48
   132c4:	fef60fa3          	sb	a5,-1(a2)
   132c8:	def9                	beqz	a3,132a6 <_vfprintf_r+0xa58>
   132ca:	7786                	ld	a5,96(sp)
   132cc:	0007c783          	lbu	a5,0(a5)
   132d0:	fcf71be3          	bne	a4,a5,132a6 <_vfprintf_r+0xa58>
   132d4:	fd1789e3          	beq	a5,a7,132a6 <_vfprintf_r+0xa58>
   132d8:	272869e3          	bltu	a6,s2,13d4a <_vfprintf_r+0x14fc>
   132dc:	41ab8bbb          	subw	s7,s7,s10
   132e0:	846e                	mv	s0,s11
   132e2:	80bff06f          	j	12aec <_vfprintf_r+0x29e>
   132e6:	06500693          	li	a3,101
   132ea:	1f96d663          	bge	a3,s9,134d6 <_vfprintf_r+0xc88>
   132ee:	6512                	ld	a0,256(sp)
   132f0:	65b2                	ld	a1,264(sp)
   132f2:	4601                	li	a2,0
   132f4:	4681                	li	a3,0
   132f6:	fc3e                	sd	a5,56(sp)
   132f8:	f81a                	sd	t1,48(sp)
   132fa:	146080ef          	jal	ra,1b440 <__eqtf2>
   132fe:	7342                	ld	t1,48(sp)
   13300:	77e2                	ld	a5,56(sp)
   13302:	40051063          	bnez	a0,13702 <_vfprintf_r+0xeb4>
   13306:	11812703          	lw	a4,280(sp)
   1330a:	0001d6b7          	lui	a3,0x1d
   1330e:	aa868693          	addi	a3,a3,-1368 # 1caa8 <zeroes.4550+0xa0>
   13312:	2705                	addiw	a4,a4,1
   13314:	0785                	addi	a5,a5,1
   13316:	00d33023          	sd	a3,0(t1)
   1331a:	4685                	li	a3,1
   1331c:	00d33423          	sd	a3,8(t1)
   13320:	f23e                	sd	a5,288(sp)
   13322:	0007069b          	sext.w	a3,a4
   13326:	10e12c23          	sw	a4,280(sp)
   1332a:	479d                	li	a5,7
   1332c:	0341                	addi	t1,t1,16
   1332e:	72d7cf63          	blt	a5,a3,13a6c <_vfprintf_r+0x121e>
   13332:	57ae                	lw	a5,232(sp)
   13334:	7702                	ld	a4,32(sp)
   13336:	00e7c763          	blt	a5,a4,13344 <_vfprintf_r+0xaf6>
   1333a:	00147793          	andi	a5,s0,1
   1333e:	e399                	bnez	a5,13344 <_vfprintf_r+0xaf6>
   13340:	7792                	ld	a5,288(sp)
   13342:	b1f5                	j	1302e <_vfprintf_r+0x7e0>
   13344:	77c6                	ld	a5,112(sp)
   13346:	76a6                	ld	a3,104(sp)
   13348:	11812703          	lw	a4,280(sp)
   1334c:	00f33023          	sd	a5,0(t1)
   13350:	7792                	ld	a5,288(sp)
   13352:	2705                	addiw	a4,a4,1
   13354:	00d33423          	sd	a3,8(t1)
   13358:	97b6                	add	a5,a5,a3
   1335a:	10e12c23          	sw	a4,280(sp)
   1335e:	0007069b          	sext.w	a3,a4
   13362:	f23e                	sd	a5,288(sp)
   13364:	471d                	li	a4,7
   13366:	0341                	addi	t1,t1,16
   13368:	5cd74a63          	blt	a4,a3,1393c <_vfprintf_r+0x10ee>
   1336c:	7702                	ld	a4,32(sp)
   1336e:	fff70b9b          	addiw	s7,a4,-1
   13372:	cb705ee3          	blez	s7,1302e <_vfprintf_r+0x7e0>
   13376:	6875                	lui	a6,0x1d
   13378:	46c1                	li	a3,16
   1337a:	11812703          	lw	a4,280(sp)
   1337e:	a0880d93          	addi	s11,a6,-1528 # 1ca08 <zeroes.4550>
   13382:	4cc1                	li	s9,16
   13384:	4c1d                	li	s8,7
   13386:	0176c663          	blt	a3,s7,13392 <_vfprintf_r+0xb44>
   1338a:	addd                	j	13a80 <_vfprintf_r+0x1232>
   1338c:	3bc1                	addiw	s7,s7,-16
   1338e:	6f7cd963          	bge	s9,s7,13a80 <_vfprintf_r+0x1232>
   13392:	2705                	addiw	a4,a4,1
   13394:	07c1                	addi	a5,a5,16
   13396:	01b33023          	sd	s11,0(t1)
   1339a:	01933423          	sd	s9,8(t1)
   1339e:	f23e                	sd	a5,288(sp)
   133a0:	10e12c23          	sw	a4,280(sp)
   133a4:	0341                	addi	t1,t1,16
   133a6:	feec53e3          	bge	s8,a4,1338c <_vfprintf_r+0xb3e>
   133aa:	0a10                	addi	a2,sp,272
   133ac:	85ce                	mv	a1,s3
   133ae:	8552                	mv	a0,s4
   133b0:	130060ef          	jal	ra,194e0 <__sprint_r>
   133b4:	e6051c63          	bnez	a0,12a2c <_vfprintf_r+0x1de>
   133b8:	7792                	ld	a5,288(sp)
   133ba:	11812703          	lw	a4,280(sp)
   133be:	8356                	mv	t1,s5
   133c0:	b7f1                	j	1338c <_vfprintf_r+0xb3e>
   133c2:	412b08bb          	subw	a7,s6,s2
   133c6:	c3105be3          	blez	a7,12ffc <_vfprintf_r+0x7ae>
   133ca:	6875                	lui	a6,0x1d
   133cc:	4641                	li	a2,16
   133ce:	11812683          	lw	a3,280(sp)
   133d2:	a0880d93          	addi	s11,a6,-1528 # 1ca08 <zeroes.4550>
   133d6:	4f41                	li	t5,16
   133d8:	4f9d                	li	t6,7
   133da:	01164663          	blt	a2,a7,133e6 <_vfprintf_r+0xb98>
   133de:	a091                	j	13422 <_vfprintf_r+0xbd4>
   133e0:	38c1                	addiw	a7,a7,-16
   133e2:	051f5063          	bge	t5,a7,13422 <_vfprintf_r+0xbd4>
   133e6:	2685                	addiw	a3,a3,1
   133e8:	07c1                	addi	a5,a5,16
   133ea:	01b33023          	sd	s11,0(t1)
   133ee:	01e33423          	sd	t5,8(t1)
   133f2:	f23e                	sd	a5,288(sp)
   133f4:	10d12c23          	sw	a3,280(sp)
   133f8:	0341                	addi	t1,t1,16
   133fa:	fedfd3e3          	bge	t6,a3,133e0 <_vfprintf_r+0xb92>
   133fe:	0a10                	addi	a2,sp,272
   13400:	85ce                	mv	a1,s3
   13402:	8552                	mv	a0,s4
   13404:	f846                	sd	a7,48(sp)
   13406:	0da060ef          	jal	ra,194e0 <__sprint_r>
   1340a:	e2051163          	bnez	a0,12a2c <_vfprintf_r+0x1de>
   1340e:	78c2                	ld	a7,48(sp)
   13410:	4f41                	li	t5,16
   13412:	7792                	ld	a5,288(sp)
   13414:	38c1                	addiw	a7,a7,-16
   13416:	11812683          	lw	a3,280(sp)
   1341a:	8356                	mv	t1,s5
   1341c:	4f9d                	li	t6,7
   1341e:	fd1f44e3          	blt	t5,a7,133e6 <_vfprintf_r+0xb98>
   13422:	0016861b          	addiw	a2,a3,1
   13426:	97c6                	add	a5,a5,a7
   13428:	01b33023          	sd	s11,0(t1)
   1342c:	01133423          	sd	a7,8(t1)
   13430:	f23e                	sd	a5,288(sp)
   13432:	10c12c23          	sw	a2,280(sp)
   13436:	469d                	li	a3,7
   13438:	0341                	addi	t1,t1,16
   1343a:	bcc6d1e3          	bge	a3,a2,12ffc <_vfprintf_r+0x7ae>
   1343e:	0a10                	addi	a2,sp,272
   13440:	85ce                	mv	a1,s3
   13442:	8552                	mv	a0,s4
   13444:	09c060ef          	jal	ra,194e0 <__sprint_r>
   13448:	de051263          	bnez	a0,12a2c <_vfprintf_r+0x1de>
   1344c:	7792                	ld	a5,288(sp)
   1344e:	8356                	mv	t1,s5
   13450:	b675                	j	12ffc <_vfprintf_r+0x7ae>
   13452:	6875                	lui	a6,0x1d
   13454:	4641                	li	a2,16
   13456:	11812683          	lw	a3,280(sp)
   1345a:	a0880d93          	addi	s11,a6,-1528 # 1ca08 <zeroes.4550>
   1345e:	48c1                	li	a7,16
   13460:	4f1d                	li	t5,7
   13462:	01864663          	blt	a2,s8,1346e <_vfprintf_r+0xc20>
   13466:	a081                	j	134a6 <_vfprintf_r+0xc58>
   13468:	3c41                	addiw	s8,s8,-16
   1346a:	0388de63          	bge	a7,s8,134a6 <_vfprintf_r+0xc58>
   1346e:	2685                	addiw	a3,a3,1
   13470:	07c1                	addi	a5,a5,16
   13472:	01b33023          	sd	s11,0(t1)
   13476:	01133423          	sd	a7,8(t1)
   1347a:	f23e                	sd	a5,288(sp)
   1347c:	10d12c23          	sw	a3,280(sp)
   13480:	0341                	addi	t1,t1,16
   13482:	fedf53e3          	bge	t5,a3,13468 <_vfprintf_r+0xc1a>
   13486:	0a10                	addi	a2,sp,272
   13488:	85ce                	mv	a1,s3
   1348a:	8552                	mv	a0,s4
   1348c:	054060ef          	jal	ra,194e0 <__sprint_r>
   13490:	d8051e63          	bnez	a0,12a2c <_vfprintf_r+0x1de>
   13494:	48c1                	li	a7,16
   13496:	3c41                	addiw	s8,s8,-16
   13498:	7792                	ld	a5,288(sp)
   1349a:	11812683          	lw	a3,280(sp)
   1349e:	8356                	mv	t1,s5
   134a0:	4f1d                	li	t5,7
   134a2:	fd88c6e3          	blt	a7,s8,1346e <_vfprintf_r+0xc20>
   134a6:	0016861b          	addiw	a2,a3,1
   134aa:	97e2                	add	a5,a5,s8
   134ac:	01b33023          	sd	s11,0(t1)
   134b0:	01833423          	sd	s8,8(t1)
   134b4:	f23e                	sd	a5,288(sp)
   134b6:	10c12c23          	sw	a2,280(sp)
   134ba:	469d                	li	a3,7
   134bc:	0341                	addi	t1,t1,16
   134be:	b4c6d3e3          	bge	a3,a2,13004 <_vfprintf_r+0x7b6>
   134c2:	0a10                	addi	a2,sp,272
   134c4:	85ce                	mv	a1,s3
   134c6:	8552                	mv	a0,s4
   134c8:	018060ef          	jal	ra,194e0 <__sprint_r>
   134cc:	d6051063          	bnez	a0,12a2c <_vfprintf_r+0x1de>
   134d0:	7792                	ld	a5,288(sp)
   134d2:	8356                	mv	t1,s5
   134d4:	be05                	j	13004 <_vfprintf_r+0x7b6>
   134d6:	11812f03          	lw	t5,280(sp)
   134da:	00178c93          	addi	s9,a5,1
   134de:	7782                	ld	a5,32(sp)
   134e0:	001f069b          	addiw	a3,t5,1
   134e4:	4585                	li	a1,1
   134e6:	01a33023          	sd	s10,0(t1)
   134ea:	8636                	mv	a2,a3
   134ec:	01030b93          	addi	s7,t1,16
   134f0:	32f5db63          	bge	a1,a5,13826 <_vfprintf_r+0xfd8>
   134f4:	4585                	li	a1,1
   134f6:	10c12c23          	sw	a2,280(sp)
   134fa:	00b33423          	sd	a1,8(t1)
   134fe:	f266                	sd	s9,288(sp)
   13500:	461d                	li	a2,7
   13502:	4cd64963          	blt	a2,a3,139d4 <_vfprintf_r+0x1186>
   13506:	77a6                	ld	a5,104(sp)
   13508:	7746                	ld	a4,112(sp)
   1350a:	0016889b          	addiw	a7,a3,1
   1350e:	9cbe                	add	s9,s9,a5
   13510:	00ebb023          	sd	a4,0(s7)
   13514:	00fbb423          	sd	a5,8(s7)
   13518:	f266                	sd	s9,288(sp)
   1351a:	11112c23          	sw	a7,280(sp)
   1351e:	469d                	li	a3,7
   13520:	0bc1                	addi	s7,s7,16
   13522:	4d16c663          	blt	a3,a7,139ee <_vfprintf_r+0x11a0>
   13526:	7782                	ld	a5,32(sp)
   13528:	6512                	ld	a0,256(sp)
   1352a:	65b2                	ld	a1,264(sp)
   1352c:	00188e9b          	addiw	t4,a7,1
   13530:	010b8313          	addi	t1,s7,16
   13534:	37fd                	addiw	a5,a5,-1
   13536:	4601                	li	a2,0
   13538:	4681                	li	a3,0
   1353a:	000e8c1b          	sext.w	s8,t4
   1353e:	e0f6                	sd	t4,64(sp)
   13540:	fc1a                	sd	t1,56(sp)
   13542:	f83e                	sd	a5,48(sp)
   13544:	e4c6                	sd	a7,72(sp)
   13546:	6fb070ef          	jal	ra,1b440 <__eqtf2>
   1354a:	77c2                	ld	a5,48(sp)
   1354c:	7362                	ld	t1,56(sp)
   1354e:	6e86                	ld	t4,64(sp)
   13550:	2e050c63          	beqz	a0,13848 <_vfprintf_r+0xffa>
   13554:	001d0713          	addi	a4,s10,1
   13558:	9cbe                	add	s9,s9,a5
   1355a:	00ebb023          	sd	a4,0(s7)
   1355e:	00fbb423          	sd	a5,8(s7)
   13562:	f266                	sd	s9,288(sp)
   13564:	11d12c23          	sw	t4,280(sp)
   13568:	471d                	li	a4,7
   1356a:	3b874163          	blt	a4,s8,1390c <_vfprintf_r+0x10be>
   1356e:	68a6                	ld	a7,72(sp)
   13570:	020b8713          	addi	a4,s7,32
   13574:	8b9a                	mv	s7,t1
   13576:	00288c1b          	addiw	s8,a7,2
   1357a:	833a                	mv	t1,a4
   1357c:	668a                	ld	a3,128(sp)
   1357e:	1998                	addi	a4,sp,240
   13580:	00ebb023          	sd	a4,0(s7)
   13584:	00dc87b3          	add	a5,s9,a3
   13588:	00dbb423          	sd	a3,8(s7)
   1358c:	f23e                	sd	a5,288(sp)
   1358e:	11812c23          	sw	s8,280(sp)
   13592:	471d                	li	a4,7
   13594:	a9875de3          	bge	a4,s8,1302e <_vfprintf_r+0x7e0>
   13598:	beb9                	j	130f6 <_vfprintf_r+0x8a8>
   1359a:	8da2                	mv	s11,s0
   1359c:	ba8d                	j	12f0e <_vfprintf_r+0x6c0>
   1359e:	68f5                	lui	a7,0x1d
   135a0:	4641                	li	a2,16
   135a2:	11812683          	lw	a3,280(sp)
   135a6:	9f888d93          	addi	s11,a7,-1544 # 1c9f8 <blanks.4549>
   135aa:	4fc1                	li	t6,16
   135ac:	439d                	li	t2,7
   135ae:	01064663          	blt	a2,a6,135ba <_vfprintf_r+0xd6c>
   135b2:	a0b1                	j	135fe <_vfprintf_r+0xdb0>
   135b4:	3841                	addiw	a6,a6,-16
   135b6:	050fd463          	bge	t6,a6,135fe <_vfprintf_r+0xdb0>
   135ba:	2685                	addiw	a3,a3,1
   135bc:	07c1                	addi	a5,a5,16
   135be:	01b33023          	sd	s11,0(t1)
   135c2:	01f33423          	sd	t6,8(t1)
   135c6:	f23e                	sd	a5,288(sp)
   135c8:	10d12c23          	sw	a3,280(sp)
   135cc:	0341                	addi	t1,t1,16
   135ce:	fed3d3e3          	bge	t2,a3,135b4 <_vfprintf_r+0xd66>
   135d2:	0a10                	addi	a2,sp,272
   135d4:	85ce                	mv	a1,s3
   135d6:	8552                	mv	a0,s4
   135d8:	e0c2                	sd	a6,64(sp)
   135da:	fc16                	sd	t0,56(sp)
   135dc:	f87a                	sd	t5,48(sp)
   135de:	703050ef          	jal	ra,194e0 <__sprint_r>
   135e2:	c4051563          	bnez	a0,12a2c <_vfprintf_r+0x1de>
   135e6:	6806                	ld	a6,64(sp)
   135e8:	4fc1                	li	t6,16
   135ea:	7792                	ld	a5,288(sp)
   135ec:	3841                	addiw	a6,a6,-16
   135ee:	11812683          	lw	a3,280(sp)
   135f2:	8356                	mv	t1,s5
   135f4:	439d                	li	t2,7
   135f6:	72e2                	ld	t0,56(sp)
   135f8:	7f42                	ld	t5,48(sp)
   135fa:	fd0fc0e3          	blt	t6,a6,135ba <_vfprintf_r+0xd6c>
   135fe:	0016861b          	addiw	a2,a3,1
   13602:	97c2                	add	a5,a5,a6
   13604:	01b33023          	sd	s11,0(t1)
   13608:	01033423          	sd	a6,8(t1)
   1360c:	f23e                	sd	a5,288(sp)
   1360e:	10c12c23          	sw	a2,280(sp)
   13612:	469d                	li	a3,7
   13614:	0341                	addi	t1,t1,16
   13616:	98c6d3e3          	bge	a3,a2,12f9c <_vfprintf_r+0x74e>
   1361a:	0a10                	addi	a2,sp,272
   1361c:	85ce                	mv	a1,s3
   1361e:	8552                	mv	a0,s4
   13620:	fc16                	sd	t0,56(sp)
   13622:	f87a                	sd	t5,48(sp)
   13624:	6bd050ef          	jal	ra,194e0 <__sprint_r>
   13628:	c0051263          	bnez	a0,12a2c <_vfprintf_r+0x1de>
   1362c:	7792                	ld	a5,288(sp)
   1362e:	8356                	mv	t1,s5
   13630:	72e2                	ld	t0,56(sp)
   13632:	7f42                	ld	t5,48(sp)
   13634:	b2a5                	j	12f9c <_vfprintf_r+0x74e>
   13636:	0a10                	addi	a2,sp,272
   13638:	85ce                	mv	a1,s3
   1363a:	8552                	mv	a0,s4
   1363c:	f816                	sd	t0,48(sp)
   1363e:	6a3050ef          	jal	ra,194e0 <__sprint_r>
   13642:	be051563          	bnez	a0,12a2c <_vfprintf_r+0x1de>
   13646:	7792                	ld	a5,288(sp)
   13648:	8356                	mv	t1,s5
   1364a:	72c2                	ld	t0,48(sp)
   1364c:	b265                	j	12ff4 <_vfprintf_r+0x7a6>
   1364e:	68f5                	lui	a7,0x1d
   13650:	46c1                	li	a3,16
   13652:	11812703          	lw	a4,280(sp)
   13656:	9f888d93          	addi	s11,a7,-1544 # 1c9f8 <blanks.4549>
   1365a:	4bc1                	li	s7,16
   1365c:	4c1d                	li	s8,7
   1365e:	0086c663          	blt	a3,s0,1366a <_vfprintf_r+0xe1c>
   13662:	a835                	j	1369e <_vfprintf_r+0xe50>
   13664:	3441                	addiw	s0,s0,-16
   13666:	028bdc63          	bge	s7,s0,1369e <_vfprintf_r+0xe50>
   1366a:	2705                	addiw	a4,a4,1
   1366c:	07c1                	addi	a5,a5,16
   1366e:	01b33023          	sd	s11,0(t1)
   13672:	01733423          	sd	s7,8(t1)
   13676:	f23e                	sd	a5,288(sp)
   13678:	10e12c23          	sw	a4,280(sp)
   1367c:	0341                	addi	t1,t1,16
   1367e:	feec53e3          	bge	s8,a4,13664 <_vfprintf_r+0xe16>
   13682:	0a10                	addi	a2,sp,272
   13684:	85ce                	mv	a1,s3
   13686:	8552                	mv	a0,s4
   13688:	659050ef          	jal	ra,194e0 <__sprint_r>
   1368c:	ba051063          	bnez	a0,12a2c <_vfprintf_r+0x1de>
   13690:	3441                	addiw	s0,s0,-16
   13692:	7792                	ld	a5,288(sp)
   13694:	11812703          	lw	a4,280(sp)
   13698:	8356                	mv	t1,s5
   1369a:	fc8bc8e3          	blt	s7,s0,1366a <_vfprintf_r+0xe1c>
   1369e:	0017069b          	addiw	a3,a4,1
   136a2:	97a2                	add	a5,a5,s0
   136a4:	01b33023          	sd	s11,0(t1)
   136a8:	00833423          	sd	s0,8(t1)
   136ac:	f23e                	sd	a5,288(sp)
   136ae:	10d12c23          	sw	a3,280(sp)
   136b2:	471d                	li	a4,7
   136b4:	98d753e3          	bge	a4,a3,1303a <_vfprintf_r+0x7ec>
   136b8:	0a10                	addi	a2,sp,272
   136ba:	85ce                	mv	a1,s3
   136bc:	8552                	mv	a0,s4
   136be:	623050ef          	jal	ra,194e0 <__sprint_r>
   136c2:	b6051563          	bnez	a0,12a2c <_vfprintf_r+0x1de>
   136c6:	7792                	ld	a5,288(sp)
   136c8:	ba8d                	j	1303a <_vfprintf_r+0x7ec>
   136ca:	4705                	li	a4,1
   136cc:	08e78be3          	beq	a5,a4,13f62 <_vfprintf_r+0x1714>
   136d0:	4709                	li	a4,2
   136d2:	8da2                	mv	s11,s0
   136d4:	84e793e3          	bne	a5,a4,12f1a <_vfprintf_r+0x6cc>
   136d8:	18c10b93          	addi	s7,sp,396
   136dc:	8d5e                	mv	s10,s7
   136de:	7722                	ld	a4,40(sp)
   136e0:	00f97793          	andi	a5,s2,15
   136e4:	1d7d                	addi	s10,s10,-1
   136e6:	97ba                	add	a5,a5,a4
   136e8:	0007c783          	lbu	a5,0(a5)
   136ec:	00495913          	srli	s2,s2,0x4
   136f0:	00fd0023          	sb	a5,0(s10)
   136f4:	fe0915e3          	bnez	s2,136de <_vfprintf_r+0xe90>
   136f8:	41ab8bbb          	subw	s7,s7,s10
   136fc:	846e                	mv	s0,s11
   136fe:	beeff06f          	j	12aec <_vfprintf_r+0x29e>
   13702:	55ae                	lw	a1,232(sp)
   13704:	30b05263          	blez	a1,13a08 <_vfprintf_r+0x11ba>
   13708:	7702                	ld	a4,32(sp)
   1370a:	66c6                	ld	a3,80(sp)
   1370c:	00070b9b          	sext.w	s7,a4
   13710:	1ce6ca63          	blt	a3,a4,138e4 <_vfprintf_r+0x1096>
   13714:	03705263          	blez	s7,13738 <_vfprintf_r+0xeea>
   13718:	11812683          	lw	a3,280(sp)
   1371c:	97de                	add	a5,a5,s7
   1371e:	01a33023          	sd	s10,0(t1)
   13722:	0016861b          	addiw	a2,a3,1
   13726:	01733423          	sd	s7,8(t1)
   1372a:	f23e                	sd	a5,288(sp)
   1372c:	10c12c23          	sw	a2,280(sp)
   13730:	469d                	li	a3,7
   13732:	0341                	addi	t1,t1,16
   13734:	5ec6ce63          	blt	a3,a2,13d30 <_vfprintf_r+0x14e2>
   13738:	fffbc693          	not	a3,s7
   1373c:	6746                	ld	a4,80(sp)
   1373e:	96fd                	srai	a3,a3,0x3f
   13740:	00dbfbb3          	and	s7,s7,a3
   13744:	41770bbb          	subw	s7,a4,s7
   13748:	23704c63          	bgtz	s7,13980 <_vfprintf_r+0x1132>
   1374c:	6746                	ld	a4,80(sp)
   1374e:	40047693          	andi	a3,s0,1024
   13752:	00ed0c33          	add	s8,s10,a4
   13756:	44069963          	bnez	a3,13ba8 <_vfprintf_r+0x135a>
   1375a:	5bae                	lw	s7,232(sp)
   1375c:	7702                	ld	a4,32(sp)
   1375e:	00ebc663          	blt	s7,a4,1376a <_vfprintf_r+0xf1c>
   13762:	00147693          	andi	a3,s0,1
   13766:	60068d63          	beqz	a3,13d80 <_vfprintf_r+0x1532>
   1376a:	76c6                	ld	a3,112(sp)
   1376c:	7726                	ld	a4,104(sp)
   1376e:	0341                	addi	t1,t1,16
   13770:	fed33823          	sd	a3,-16(t1)
   13774:	11812683          	lw	a3,280(sp)
   13778:	97ba                	add	a5,a5,a4
   1377a:	fee33c23          	sd	a4,-8(t1)
   1377e:	0016861b          	addiw	a2,a3,1
   13782:	f23e                	sd	a5,288(sp)
   13784:	10c12c23          	sw	a2,280(sp)
   13788:	469d                	li	a3,7
   1378a:	0ec6c9e3          	blt	a3,a2,1407c <_vfprintf_r+0x182e>
   1378e:	7702                	ld	a4,32(sp)
   13790:	4177063b          	subw	a2,a4,s7
   13794:	976a                	add	a4,a4,s10
   13796:	4187073b          	subw	a4,a4,s8
   1379a:	8bb2                	mv	s7,a2
   1379c:	00c75463          	bge	a4,a2,137a4 <_vfprintf_r+0xf56>
   137a0:	00070b9b          	sext.w	s7,a4
   137a4:	03705263          	blez	s7,137c8 <_vfprintf_r+0xf7a>
   137a8:	11812703          	lw	a4,280(sp)
   137ac:	97de                	add	a5,a5,s7
   137ae:	01833023          	sd	s8,0(t1)
   137b2:	0017069b          	addiw	a3,a4,1
   137b6:	01733423          	sd	s7,8(t1)
   137ba:	f23e                	sd	a5,288(sp)
   137bc:	10d12c23          	sw	a3,280(sp)
   137c0:	471d                	li	a4,7
   137c2:	0341                	addi	t1,t1,16
   137c4:	16d745e3          	blt	a4,a3,1412e <_vfprintf_r+0x18e0>
   137c8:	fffbc713          	not	a4,s7
   137cc:	977d                	srai	a4,a4,0x3f
   137ce:	00ebfbb3          	and	s7,s7,a4
   137d2:	41760bbb          	subw	s7,a2,s7
   137d6:	85705ce3          	blez	s7,1302e <_vfprintf_r+0x7e0>
   137da:	6875                	lui	a6,0x1d
   137dc:	46c1                	li	a3,16
   137de:	11812703          	lw	a4,280(sp)
   137e2:	a0880d93          	addi	s11,a6,-1528 # 1ca08 <zeroes.4550>
   137e6:	4cc1                	li	s9,16
   137e8:	4c1d                	li	s8,7
   137ea:	0176c663          	blt	a3,s7,137f6 <_vfprintf_r+0xfa8>
   137ee:	ac49                	j	13a80 <_vfprintf_r+0x1232>
   137f0:	3bc1                	addiw	s7,s7,-16
   137f2:	297cd763          	bge	s9,s7,13a80 <_vfprintf_r+0x1232>
   137f6:	2705                	addiw	a4,a4,1
   137f8:	07c1                	addi	a5,a5,16
   137fa:	01b33023          	sd	s11,0(t1)
   137fe:	01933423          	sd	s9,8(t1)
   13802:	f23e                	sd	a5,288(sp)
   13804:	10e12c23          	sw	a4,280(sp)
   13808:	0341                	addi	t1,t1,16
   1380a:	feec53e3          	bge	s8,a4,137f0 <_vfprintf_r+0xfa2>
   1380e:	0a10                	addi	a2,sp,272
   13810:	85ce                	mv	a1,s3
   13812:	8552                	mv	a0,s4
   13814:	4cd050ef          	jal	ra,194e0 <__sprint_r>
   13818:	a0051a63          	bnez	a0,12a2c <_vfprintf_r+0x1de>
   1381c:	7792                	ld	a5,288(sp)
   1381e:	11812703          	lw	a4,280(sp)
   13822:	8356                	mv	t1,s5
   13824:	b7f1                	j	137f0 <_vfprintf_r+0xfa2>
   13826:	00147513          	andi	a0,s0,1
   1382a:	cc0515e3          	bnez	a0,134f4 <_vfprintf_r+0xca6>
   1382e:	00b33423          	sd	a1,8(t1)
   13832:	f266                	sd	s9,288(sp)
   13834:	10d12c23          	sw	a3,280(sp)
   13838:	471d                	li	a4,7
   1383a:	0cd74963          	blt	a4,a3,1390c <_vfprintf_r+0x10be>
   1383e:	002f0c1b          	addiw	s8,t5,2
   13842:	02030313          	addi	t1,t1,32
   13846:	bb1d                	j	1357c <_vfprintf_r+0xd2e>
   13848:	d2f05ae3          	blez	a5,1357c <_vfprintf_r+0xd2e>
   1384c:	4741                	li	a4,16
   1384e:	38f756e3          	bge	a4,a5,143da <_vfprintf_r+0x1b8c>
   13852:	6875                	lui	a6,0x1d
   13854:	a0880d93          	addi	s11,a6,-1528 # 1ca08 <zeroes.4550>
   13858:	4d41                	li	s10,16
   1385a:	4c1d                	li	s8,7
   1385c:	a031                	j	13868 <_vfprintf_r+0x101a>
   1385e:	37c1                	addiw	a5,a5,-16
   13860:	08fd5763          	bge	s10,a5,138ee <_vfprintf_r+0x10a0>
   13864:	00188e9b          	addiw	t4,a7,1
   13868:	0cc1                	addi	s9,s9,16
   1386a:	01bbb023          	sd	s11,0(s7)
   1386e:	01abb423          	sd	s10,8(s7)
   13872:	f266                	sd	s9,288(sp)
   13874:	000e889b          	sext.w	a7,t4
   13878:	11d12c23          	sw	t4,280(sp)
   1387c:	0bc1                	addi	s7,s7,16
   1387e:	ff1c50e3          	bge	s8,a7,1385e <_vfprintf_r+0x1010>
   13882:	0a10                	addi	a2,sp,272
   13884:	85ce                	mv	a1,s3
   13886:	8552                	mv	a0,s4
   13888:	f83e                	sd	a5,48(sp)
   1388a:	457050ef          	jal	ra,194e0 <__sprint_r>
   1388e:	98051f63          	bnez	a0,12a2c <_vfprintf_r+0x1de>
   13892:	7c92                	ld	s9,288(sp)
   13894:	11812883          	lw	a7,280(sp)
   13898:	8bd6                	mv	s7,s5
   1389a:	77c2                	ld	a5,48(sp)
   1389c:	b7c9                	j	1385e <_vfprintf_r+0x1010>
   1389e:	03000793          	li	a5,48
   138a2:	18f105a3          	sb	a5,395(sp)
   138a6:	18b10d13          	addi	s10,sp,395
   138aa:	a42ff06f          	j	12aec <_vfprintf_r+0x29e>
   138ae:	67a2                	ld	a5,8(sp)
   138b0:	8d26                	mv	s10,s1
   138b2:	e31c                	sd	a5,0(a4)
   138b4:	facff06f          	j	13060 <_vfprintf_r+0x812>
   138b8:	67c2                	ld	a5,16(sp)
   138ba:	07bd                	addi	a5,a5,15
   138bc:	9bc1                	andi	a5,a5,-16
   138be:	6394                	ld	a3,0(a5)
   138c0:	6798                	ld	a4,8(a5)
   138c2:	07c1                	addi	a5,a5,16
   138c4:	e83e                	sd	a5,16(sp)
   138c6:	e236                	sd	a3,256(sp)
   138c8:	e63a                	sd	a4,264(sp)
   138ca:	afeff06f          	j	12bc8 <_vfprintf_r+0x37a>
   138ce:	8da2                	mv	s11,s0
   138d0:	e1eff06f          	j	12eee <_vfprintf_r+0x6a0>
   138d4:	67c2                	ld	a5,16(sp)
   138d6:	0007b903          	ld	s2,0(a5)
   138da:	9c2ff06f          	j	12a9c <_vfprintf_r+0x24e>
   138de:	8da2                	mv	s11,s0
   138e0:	cd0ff06f          	j	12db0 <_vfprintf_r+0x562>
   138e4:	00068b9b          	sext.w	s7,a3
   138e8:	e37048e3          	bgtz	s7,13718 <_vfprintf_r+0xeca>
   138ec:	b5b1                	j	13738 <_vfprintf_r+0xeea>
   138ee:	00188c1b          	addiw	s8,a7,1
   138f2:	010b8713          	addi	a4,s7,16
   138f6:	9cbe                	add	s9,s9,a5
   138f8:	01bbb023          	sd	s11,0(s7)
   138fc:	00fbb423          	sd	a5,8(s7)
   13900:	f266                	sd	s9,288(sp)
   13902:	11812c23          	sw	s8,280(sp)
   13906:	469d                	li	a3,7
   13908:	3f86de63          	bge	a3,s8,13d04 <_vfprintf_r+0x14b6>
   1390c:	0a10                	addi	a2,sp,272
   1390e:	85ce                	mv	a1,s3
   13910:	8552                	mv	a0,s4
   13912:	3cf050ef          	jal	ra,194e0 <__sprint_r>
   13916:	90051b63          	bnez	a0,12a2c <_vfprintf_r+0x1de>
   1391a:	11812f03          	lw	t5,280(sp)
   1391e:	7c92                	ld	s9,288(sp)
   13920:	1a010313          	addi	t1,sp,416
   13924:	001f0c1b          	addiw	s8,t5,1
   13928:	8bd6                	mv	s7,s5
   1392a:	b989                	j	1357c <_vfprintf_r+0xd2e>
   1392c:	20046413          	ori	s0,s0,512
   13930:	0014ce83          	lbu	t4,1(s1)
   13934:	2401                	sext.w	s0,s0
   13936:	0485                	addi	s1,s1,1
   13938:	870ff06f          	j	129a8 <_vfprintf_r+0x15a>
   1393c:	0a10                	addi	a2,sp,272
   1393e:	85ce                	mv	a1,s3
   13940:	8552                	mv	a0,s4
   13942:	39f050ef          	jal	ra,194e0 <__sprint_r>
   13946:	8e051363          	bnez	a0,12a2c <_vfprintf_r+0x1de>
   1394a:	7792                	ld	a5,288(sp)
   1394c:	8356                	mv	t1,s5
   1394e:	bc39                	j	1336c <_vfprintf_r+0xb1e>
   13950:	02046413          	ori	s0,s0,32
   13954:	0014ce83          	lbu	t4,1(s1)
   13958:	2401                	sext.w	s0,s0
   1395a:	0485                	addi	s1,s1,1
   1395c:	84cff06f          	j	129a8 <_vfprintf_r+0x15a>
   13960:	000c071b          	sext.w	a4,s8
   13964:	4799                	li	a5,6
   13966:	8e62                	mv	t3,s8
   13968:	3ce7ef63          	bltu	a5,a4,13d46 <_vfprintf_r+0x14f8>
   1396c:	000e0b9b          	sext.w	s7,t3
   13970:	0001d737          	lui	a4,0x1d
   13974:	895e                	mv	s2,s7
   13976:	e86e                	sd	s11,16(sp)
   13978:	aa070d13          	addi	s10,a4,-1376 # 1caa0 <zeroes.4550+0x98>
   1397c:	df8ff06f          	j	12f74 <_vfprintf_r+0x726>
   13980:	6875                	lui	a6,0x1d
   13982:	4641                	li	a2,16
   13984:	11812683          	lw	a3,280(sp)
   13988:	a0880d93          	addi	s11,a6,-1528 # 1ca08 <zeroes.4550>
   1398c:	4cc1                	li	s9,16
   1398e:	4c1d                	li	s8,7
   13990:	01764663          	blt	a2,s7,1399c <_vfprintf_r+0x114e>
   13994:	a2cd                	j	13b76 <_vfprintf_r+0x1328>
   13996:	3bc1                	addiw	s7,s7,-16
   13998:	1d7cdf63          	bge	s9,s7,13b76 <_vfprintf_r+0x1328>
   1399c:	2685                	addiw	a3,a3,1
   1399e:	07c1                	addi	a5,a5,16
   139a0:	01b33023          	sd	s11,0(t1)
   139a4:	01933423          	sd	s9,8(t1)
   139a8:	f23e                	sd	a5,288(sp)
   139aa:	10d12c23          	sw	a3,280(sp)
   139ae:	0341                	addi	t1,t1,16
   139b0:	fedc53e3          	bge	s8,a3,13996 <_vfprintf_r+0x1148>
   139b4:	0a10                	addi	a2,sp,272
   139b6:	85ce                	mv	a1,s3
   139b8:	8552                	mv	a0,s4
   139ba:	327050ef          	jal	ra,194e0 <__sprint_r>
   139be:	c119                	beqz	a0,139c4 <_vfprintf_r+0x1176>
   139c0:	86cff06f          	j	12a2c <_vfprintf_r+0x1de>
   139c4:	7792                	ld	a5,288(sp)
   139c6:	11812683          	lw	a3,280(sp)
   139ca:	8356                	mv	t1,s5
   139cc:	b7e9                	j	13996 <_vfprintf_r+0x1148>
   139ce:	896a                	mv	s2,s10
   139d0:	fbbfe06f          	j	1298a <_vfprintf_r+0x13c>
   139d4:	0a10                	addi	a2,sp,272
   139d6:	85ce                	mv	a1,s3
   139d8:	8552                	mv	a0,s4
   139da:	307050ef          	jal	ra,194e0 <__sprint_r>
   139de:	c119                	beqz	a0,139e4 <_vfprintf_r+0x1196>
   139e0:	84cff06f          	j	12a2c <_vfprintf_r+0x1de>
   139e4:	7c92                	ld	s9,288(sp)
   139e6:	11812683          	lw	a3,280(sp)
   139ea:	8bd6                	mv	s7,s5
   139ec:	be29                	j	13506 <_vfprintf_r+0xcb8>
   139ee:	0a10                	addi	a2,sp,272
   139f0:	85ce                	mv	a1,s3
   139f2:	8552                	mv	a0,s4
   139f4:	2ed050ef          	jal	ra,194e0 <__sprint_r>
   139f8:	c119                	beqz	a0,139fe <_vfprintf_r+0x11b0>
   139fa:	832ff06f          	j	12a2c <_vfprintf_r+0x1de>
   139fe:	7c92                	ld	s9,288(sp)
   13a00:	11812883          	lw	a7,280(sp)
   13a04:	8bd6                	mv	s7,s5
   13a06:	b605                	j	13526 <_vfprintf_r+0xcd8>
   13a08:	11812683          	lw	a3,280(sp)
   13a0c:	0001d637          	lui	a2,0x1d
   13a10:	aa860613          	addi	a2,a2,-1368 # 1caa8 <zeroes.4550+0xa0>
   13a14:	2685                	addiw	a3,a3,1
   13a16:	00c33023          	sd	a2,0(t1)
   13a1a:	0785                	addi	a5,a5,1
   13a1c:	4605                	li	a2,1
   13a1e:	00c33423          	sd	a2,8(t1)
   13a22:	10d12c23          	sw	a3,280(sp)
   13a26:	0006861b          	sext.w	a2,a3
   13a2a:	f23e                	sd	a5,288(sp)
   13a2c:	469d                	li	a3,7
   13a2e:	0341                	addi	t1,t1,16
   13a30:	2cc6cf63          	blt	a3,a2,13d0e <_vfprintf_r+0x14c0>
   13a34:	e6059163          	bnez	a1,13096 <_vfprintf_r+0x848>
   13a38:	7702                	ld	a4,32(sp)
   13a3a:	00147693          	andi	a3,s0,1
   13a3e:	8ed9                	or	a3,a3,a4
   13a40:	de068763          	beqz	a3,1302e <_vfprintf_r+0x7e0>
   13a44:	11812603          	lw	a2,280(sp)
   13a48:	7726                	ld	a4,104(sp)
   13a4a:	76c6                	ld	a3,112(sp)
   13a4c:	97ba                	add	a5,a5,a4
   13a4e:	00d33023          	sd	a3,0(t1)
   13a52:	0016069b          	addiw	a3,a2,1
   13a56:	00e33423          	sd	a4,8(t1)
   13a5a:	f23e                	sd	a5,288(sp)
   13a5c:	10d12c23          	sw	a3,280(sp)
   13a60:	461d                	li	a2,7
   13a62:	e4d64c63          	blt	a2,a3,130ba <_vfprintf_r+0x86c>
   13a66:	0341                	addi	t1,t1,16
   13a68:	e72ff06f          	j	130da <_vfprintf_r+0x88c>
   13a6c:	0a10                	addi	a2,sp,272
   13a6e:	85ce                	mv	a1,s3
   13a70:	8552                	mv	a0,s4
   13a72:	26f050ef          	jal	ra,194e0 <__sprint_r>
   13a76:	c119                	beqz	a0,13a7c <_vfprintf_r+0x122e>
   13a78:	fb5fe06f          	j	12a2c <_vfprintf_r+0x1de>
   13a7c:	8356                	mv	t1,s5
   13a7e:	b855                	j	13332 <_vfprintf_r+0xae4>
   13a80:	0017069b          	addiw	a3,a4,1
   13a84:	8736                	mv	a4,a3
   13a86:	97de                	add	a5,a5,s7
   13a88:	01b33023          	sd	s11,0(t1)
   13a8c:	d90ff06f          	j	1301c <_vfprintf_r+0x7ce>
   13a90:	6512                	ld	a0,256(sp)
   13a92:	65b2                	ld	a1,264(sp)
   13a94:	4601                	li	a2,0
   13a96:	4681                	li	a3,0
   13a98:	2f3070ef          	jal	ra,1b58a <__letf2>
   13a9c:	6362                	ld	t1,24(sp)
   13a9e:	60054a63          	bltz	a0,140b2 <_vfprintf_r+0x1864>
   13aa2:	0df14783          	lbu	a5,223(sp)
   13aa6:	04700713          	li	a4,71
   13aaa:	27974e63          	blt	a4,s9,13d26 <_vfprintf_r+0x14d8>
   13aae:	0001d737          	lui	a4,0x1d
   13ab2:	a5070d13          	addi	s10,a4,-1456 # 1ca50 <zeroes.4550+0x48>
   13ab6:	f7f47413          	andi	s0,s0,-129
   13aba:	ec02                	sd	zero,24(sp)
   13abc:	e482                	sd	zero,72(sp)
   13abe:	ec82                	sd	zero,88(sp)
   13ac0:	e882                	sd	zero,80(sp)
   13ac2:	2401                	sext.w	s0,s0
   13ac4:	490d                	li	s2,3
   13ac6:	4b8d                	li	s7,3
   13ac8:	4c01                	li	s8,0
   13aca:	c399                	beqz	a5,13ad0 <_vfprintf_r+0x1282>
   13acc:	83cff06f          	j	12b08 <_vfprintf_r+0x2ba>
   13ad0:	caeff06f          	j	12f7e <_vfprintf_r+0x730>
   13ad4:	856a                	mv	a0,s10
   13ad6:	f81a                	sd	t1,48(sp)
   13ad8:	ce1fe0ef          	jal	ra,127b8 <strlen>
   13adc:	00050b9b          	sext.w	s7,a0
   13ae0:	fffbc913          	not	s2,s7
   13ae4:	0df14783          	lbu	a5,223(sp)
   13ae8:	43f95913          	srai	s2,s2,0x3f
   13aec:	012bf933          	and	s2,s7,s2
   13af0:	e86e                	sd	s11,16(sp)
   13af2:	ec02                	sd	zero,24(sp)
   13af4:	e482                	sd	zero,72(sp)
   13af6:	ec82                	sd	zero,88(sp)
   13af8:	e882                	sd	zero,80(sp)
   13afa:	2901                	sext.w	s2,s2
   13afc:	4c01                	li	s8,0
   13afe:	7342                	ld	t1,48(sp)
   13b00:	c399                	beqz	a5,13b06 <_vfprintf_r+0x12b8>
   13b02:	806ff06f          	j	12b08 <_vfprintf_r+0x2ba>
   13b06:	c78ff06f          	j	12f7e <_vfprintf_r+0x730>
   13b0a:	20047793          	andi	a5,s0,512
   13b0e:	2c078363          	beqz	a5,13dd4 <_vfprintf_r+0x1586>
   13b12:	0ff97913          	andi	s2,s2,255
   13b16:	f87fe06f          	j	12a9c <_vfprintf_r+0x24e>
   13b1a:	20047793          	andi	a5,s0,512
   13b1e:	2a078363          	beqz	a5,13dc4 <_vfprintf_r+0x1576>
   13b22:	0ff97913          	andi	s2,s2,255
   13b26:	e83a                	sd	a4,16(sp)
   13b28:	8da2                	mv	s11,s0
   13b2a:	4785                	li	a5,1
   13b2c:	f99fe06f          	j	12ac4 <_vfprintf_r+0x276>
   13b30:	20047793          	andi	a5,s0,512
   13b34:	28078263          	beqz	a5,13db8 <_vfprintf_r+0x156a>
   13b38:	0ff97913          	andi	s2,s2,255
   13b3c:	e83a                	sd	a4,16(sp)
   13b3e:	aeaff06f          	j	12e28 <_vfprintf_r+0x5da>
   13b42:	20047793          	andi	a5,s0,512
   13b46:	26078163          	beqz	a5,13da8 <_vfprintf_r+0x155a>
   13b4a:	67c2                	ld	a5,16(sp)
   13b4c:	8da2                	mv	s11,s0
   13b4e:	e83a                	sd	a4,16(sp)
   13b50:	00078903          	lb	s2,0(a5)
   13b54:	87ca                	mv	a5,s2
   13b56:	b10ff06f          	j	12e66 <_vfprintf_r+0x618>
   13b5a:	67b2                	ld	a5,264(sp)
   13b5c:	2807c163          	bltz	a5,13dde <_vfprintf_r+0x1590>
   13b60:	0df14783          	lbu	a5,223(sp)
   13b64:	04700713          	li	a4,71
   13b68:	5b975063          	bge	a4,s9,14108 <_vfprintf_r+0x18ba>
   13b6c:	0001d737          	lui	a4,0x1d
   13b70:	a6870d13          	addi	s10,a4,-1432 # 1ca68 <zeroes.4550+0x60>
   13b74:	b789                	j	13ab6 <_vfprintf_r+0x1268>
   13b76:	0016861b          	addiw	a2,a3,1
   13b7a:	97de                	add	a5,a5,s7
   13b7c:	01b33023          	sd	s11,0(t1)
   13b80:	01733423          	sd	s7,8(t1)
   13b84:	f23e                	sd	a5,288(sp)
   13b86:	10c12c23          	sw	a2,280(sp)
   13b8a:	469d                	li	a3,7
   13b8c:	0341                	addi	t1,t1,16
   13b8e:	bac6dfe3          	bge	a3,a2,1374c <_vfprintf_r+0xefe>
   13b92:	0a10                	addi	a2,sp,272
   13b94:	85ce                	mv	a1,s3
   13b96:	8552                	mv	a0,s4
   13b98:	149050ef          	jal	ra,194e0 <__sprint_r>
   13b9c:	c119                	beqz	a0,13ba2 <_vfprintf_r+0x1354>
   13b9e:	e8ffe06f          	j	12a2c <_vfprintf_r+0x1de>
   13ba2:	7792                	ld	a5,288(sp)
   13ba4:	8356                	mv	t1,s5
   13ba6:	b65d                	j	1374c <_vfprintf_r+0xefe>
   13ba8:	7702                	ld	a4,32(sp)
   13baa:	6ef5                	lui	t4,0x1d
   13bac:	4b9d                	li	s7,7
   13bae:	976a                	add	a4,a4,s10
   13bb0:	fc3a                	sd	a4,56(sp)
   13bb2:	6766                	ld	a4,88(sp)
   13bb4:	4dc1                	li	s11,16
   13bb6:	a08e8c93          	addi	s9,t4,-1528 # 1ca08 <zeroes.4550>
   13bba:	cb49                	beqz	a4,13c4c <_vfprintf_r+0x13fe>
   13bbc:	6726                	ld	a4,72(sp)
   13bbe:	eb51                	bnez	a4,13c52 <_vfprintf_r+0x1404>
   13bc0:	7706                	ld	a4,96(sp)
   13bc2:	177d                	addi	a4,a4,-1
   13bc4:	f0ba                	sd	a4,96(sp)
   13bc6:	6766                	ld	a4,88(sp)
   13bc8:	377d                	addiw	a4,a4,-1
   13bca:	ecba                	sd	a4,88(sp)
   13bcc:	66aa                	ld	a3,136(sp)
   13bce:	7766                	ld	a4,120(sp)
   13bd0:	0341                	addi	t1,t1,16
   13bd2:	fed33823          	sd	a3,-16(t1)
   13bd6:	11812683          	lw	a3,280(sp)
   13bda:	97ba                	add	a5,a5,a4
   13bdc:	fee33c23          	sd	a4,-8(t1)
   13be0:	0016861b          	addiw	a2,a3,1
   13be4:	f23e                	sd	a5,288(sp)
   13be6:	10c12c23          	sw	a2,280(sp)
