
file.elf:     file format elf64-littleriscv


Disassembly of section .text:

00000000000100b0 <register_fini>:
   100b0:	000007b7          	lui	a5,0x0
   100b4:	00078793          	mv	a5,a5
   100b8:	c799                	beqz	a5,100c6 <register_fini+0x16>
   100ba:	00011537          	lui	a0,0x11
   100be:	85450513          	addi	a0,a0,-1964 # 10854 <__libc_fini_array>
   100c2:	16e0006f          	j	10230 <atexit>
   100c6:	8082                	ret

00000000000100c8 <_start>:
   100c8:	0000f197          	auipc	gp,0xf
   100cc:	ec818193          	addi	gp,gp,-312 # 1ef90 <__global_pointer$>
   100d0:	77018513          	addi	a0,gp,1904 # 1f700 <_edata>
   100d4:	0000f617          	auipc	a2,0xf
   100d8:	6bc60613          	addi	a2,a2,1724 # 1f790 <__BSS_END__>
   100dc:	8e09                	sub	a2,a2,a0
   100de:	4581                	li	a1,0
   100e0:	5f5010ef          	jal	ra,11ed4 <memset>
   100e4:	00000517          	auipc	a0,0x0
   100e8:	77050513          	addi	a0,a0,1904 # 10854 <__libc_fini_array>
   100ec:	144000ef          	jal	ra,10230 <atexit>
   100f0:	3ae010ef          	jal	ra,1149e <__libc_init_array>
   100f4:	4502                	lw	a0,0(sp)
   100f6:	002c                	addi	a1,sp,8
   100f8:	4601                	li	a2,0
   100fa:	0b4000ef          	jal	ra,101ae <main>
   100fe:	13e0006f          	j	1023c <exit>

0000000000010102 <_fini>:
   10102:	8082                	ret

0000000000010104 <deregister_tm_clones>:
   10104:	71818713          	addi	a4,gp,1816 # 1f6a8 <__SDATA_BEGIN__>
   10108:	71818793          	addi	a5,gp,1816 # 1f6a8 <__SDATA_BEGIN__>
   1010c:	00e78b63          	beq	a5,a4,10122 <deregister_tm_clones+0x1e>
   10110:	00000337          	lui	t1,0x0
   10114:	00030313          	mv	t1,t1
   10118:	00030563          	beqz	t1,10122 <deregister_tm_clones+0x1e>
   1011c:	71818513          	addi	a0,gp,1816 # 1f6a8 <__SDATA_BEGIN__>
   10120:	8302                	jr	t1
   10122:	8082                	ret

0000000000010124 <register_tm_clones>:
   10124:	71818593          	addi	a1,gp,1816 # 1f6a8 <__SDATA_BEGIN__>
   10128:	71818793          	addi	a5,gp,1816 # 1f6a8 <__SDATA_BEGIN__>
   1012c:	8d9d                	sub	a1,a1,a5
   1012e:	858d                	srai	a1,a1,0x3
   10130:	4789                	li	a5,2
   10132:	02f5c5b3          	div	a1,a1,a5
   10136:	c991                	beqz	a1,1014a <register_tm_clones+0x26>
   10138:	00000337          	lui	t1,0x0
   1013c:	00030313          	mv	t1,t1
   10140:	00030563          	beqz	t1,1014a <register_tm_clones+0x26>
   10144:	71818513          	addi	a0,gp,1816 # 1f6a8 <__SDATA_BEGIN__>
   10148:	8302                	jr	t1
   1014a:	8082                	ret

000000000001014c <__do_global_dtors_aux>:
   1014c:	7981c703          	lbu	a4,1944(gp) # 1f728 <completed.5466>
   10150:	eb15                	bnez	a4,10184 <__do_global_dtors_aux+0x38>
   10152:	1141                	addi	sp,sp,-16
   10154:	e022                	sd	s0,0(sp)
   10156:	e406                	sd	ra,8(sp)
   10158:	843e                	mv	s0,a5
   1015a:	fabff0ef          	jal	ra,10104 <deregister_tm_clones>
   1015e:	000007b7          	lui	a5,0x0
   10162:	00078793          	mv	a5,a5
   10166:	cb81                	beqz	a5,10176 <__do_global_dtors_aux+0x2a>
   10168:	6579                	lui	a0,0x1e
   1016a:	58850513          	addi	a0,a0,1416 # 1e588 <__FRAME_END__>
   1016e:	00000097          	auipc	ra,0x0
   10172:	000000e7          	jalr	zero # 0 <register_fini-0x100b0>
   10176:	4785                	li	a5,1
   10178:	78f18c23          	sb	a5,1944(gp) # 1f728 <completed.5466>
   1017c:	60a2                	ld	ra,8(sp)
   1017e:	6402                	ld	s0,0(sp)
   10180:	0141                	addi	sp,sp,16
   10182:	8082                	ret
   10184:	8082                	ret

0000000000010186 <frame_dummy>:
   10186:	000007b7          	lui	a5,0x0
   1018a:	00078793          	mv	a5,a5
   1018e:	cf91                	beqz	a5,101aa <frame_dummy+0x24>
   10190:	6579                	lui	a0,0x1e
   10192:	1141                	addi	sp,sp,-16
   10194:	7a018593          	addi	a1,gp,1952 # 1f730 <object.5471>
   10198:	58850513          	addi	a0,a0,1416 # 1e588 <__FRAME_END__>
   1019c:	e406                	sd	ra,8(sp)
   1019e:	00000097          	auipc	ra,0x0
   101a2:	000000e7          	jalr	zero # 0 <register_fini-0x100b0>
   101a6:	60a2                	ld	ra,8(sp)
   101a8:	0141                	addi	sp,sp,16
   101aa:	f7bff06f          	j	10124 <register_tm_clones>

00000000000101ae <main>:
   101ae:	7175                	addi	sp,sp,-144
   101b0:	e506                	sd	ra,136(sp)
   101b2:	e122                	sd	s0,128(sp)
   101b4:	0900                	addi	s0,sp,144
   101b6:	67f5                	lui	a5,0x1d
   101b8:	86078593          	addi	a1,a5,-1952 # 1c860 <__clzdi2+0x32>
   101bc:	67f5                	lui	a5,0x1d
   101be:	86878513          	addi	a0,a5,-1944 # 1c868 <__clzdi2+0x3a>
   101c2:	784000ef          	jal	ra,10946 <fopen>
   101c6:	fea43423          	sd	a0,-24(s0)
   101ca:	67f5                	lui	a5,0x1d
   101cc:	87078593          	addi	a1,a5,-1936 # 1c870 <__clzdi2+0x42>
   101d0:	67f5                	lui	a5,0x1d
   101d2:	87878513          	addi	a0,a5,-1928 # 1c878 <__clzdi2+0x4a>
   101d6:	770000ef          	jal	ra,10946 <fopen>
   101da:	fea43023          	sd	a0,-32(s0)
   101de:	a005                	j	101fe <main+0x50>
   101e0:	f7840793          	addi	a5,s0,-136
   101e4:	85be                	mv	a1,a5
   101e6:	67f5                	lui	a5,0x1d
   101e8:	88078513          	addi	a0,a5,-1920 # 1c880 <__clzdi2+0x52>
   101ec:	5fb010ef          	jal	ra,11fe6 <printf>
   101f0:	f7840793          	addi	a5,s0,-136
   101f4:	fe043583          	ld	a1,-32(s0)
   101f8:	853e                	mv	a0,a5
   101fa:	7bc000ef          	jal	ra,109b6 <fputs>
   101fe:	f7840793          	addi	a5,s0,-136
   10202:	fe843603          	ld	a2,-24(s0)
   10206:	06400593          	li	a1,100
   1020a:	853e                	mv	a0,a5
   1020c:	3ba000ef          	jal	ra,105c6 <fgets>
   10210:	87aa                	mv	a5,a0
   10212:	f7f9                	bnez	a5,101e0 <main+0x32>
   10214:	fe843503          	ld	a0,-24(s0)
   10218:	0f0000ef          	jal	ra,10308 <fclose>
   1021c:	fe043503          	ld	a0,-32(s0)
   10220:	0e8000ef          	jal	ra,10308 <fclose>
   10224:	4781                	li	a5,0
   10226:	853e                	mv	a0,a5
   10228:	60aa                	ld	ra,136(sp)
   1022a:	640a                	ld	s0,128(sp)
   1022c:	6149                	addi	sp,sp,144
   1022e:	8082                	ret

0000000000010230 <atexit>:
   10230:	85aa                	mv	a1,a0
   10232:	4681                	li	a3,0
   10234:	4601                	li	a2,0
   10236:	4501                	li	a0,0
   10238:	3bc0406f          	j	145f4 <__register_exitproc>

000000000001023c <exit>:
   1023c:	1141                	addi	sp,sp,-16
   1023e:	4581                	li	a1,0
   10240:	e022                	sd	s0,0(sp)
   10242:	e406                	sd	ra,8(sp)
   10244:	842a                	mv	s0,a0
   10246:	424040ef          	jal	ra,1466a <__call_exitprocs>
   1024a:	7481b503          	ld	a0,1864(gp) # 1f6d8 <_global_impure_ptr>
   1024e:	6d3c                	ld	a5,88(a0)
   10250:	c391                	beqz	a5,10254 <exit+0x18>
   10252:	9782                	jalr	a5
   10254:	8522                	mv	a0,s0
   10256:	7950a0ef          	jal	ra,1b1ea <_exit>

000000000001025a <_fclose_r>:
   1025a:	1101                	addi	sp,sp,-32
   1025c:	ec06                	sd	ra,24(sp)
   1025e:	e822                	sd	s0,16(sp)
   10260:	e426                	sd	s1,8(sp)
   10262:	e04a                	sd	s2,0(sp)
   10264:	c989                	beqz	a1,10276 <_fclose_r+0x1c>
   10266:	84aa                	mv	s1,a0
   10268:	842e                	mv	s0,a1
   1026a:	c119                	beqz	a0,10270 <_fclose_r+0x16>
   1026c:	493c                	lw	a5,80(a0)
   1026e:	cfa5                	beqz	a5,102e6 <_fclose_r+0x8c>
   10270:	01041783          	lh	a5,16(s0)
   10274:	eb89                	bnez	a5,10286 <_fclose_r+0x2c>
   10276:	60e2                	ld	ra,24(sp)
   10278:	6442                	ld	s0,16(sp)
   1027a:	4901                	li	s2,0
   1027c:	854a                	mv	a0,s2
   1027e:	64a2                	ld	s1,8(sp)
   10280:	6902                	ld	s2,0(sp)
   10282:	6105                	addi	sp,sp,32
   10284:	8082                	ret
   10286:	85a2                	mv	a1,s0
   10288:	8526                	mv	a0,s1
   1028a:	088000ef          	jal	ra,10312 <__sflush_r>
   1028e:	683c                	ld	a5,80(s0)
   10290:	892a                	mv	s2,a0
   10292:	c791                	beqz	a5,1029e <_fclose_r+0x44>
   10294:	780c                	ld	a1,48(s0)
   10296:	8526                	mv	a0,s1
   10298:	9782                	jalr	a5
   1029a:	04054c63          	bltz	a0,102f2 <_fclose_r+0x98>
   1029e:	01045783          	lhu	a5,16(s0)
   102a2:	0807f793          	andi	a5,a5,128
   102a6:	efa1                	bnez	a5,102fe <_fclose_r+0xa4>
   102a8:	6c2c                	ld	a1,88(s0)
   102aa:	c991                	beqz	a1,102be <_fclose_r+0x64>
   102ac:	07440793          	addi	a5,s0,116
   102b0:	00f58563          	beq	a1,a5,102ba <_fclose_r+0x60>
   102b4:	8526                	mv	a0,s1
   102b6:	7da000ef          	jal	ra,10a90 <_free_r>
   102ba:	04043c23          	sd	zero,88(s0)
   102be:	7c2c                	ld	a1,120(s0)
   102c0:	c591                	beqz	a1,102cc <_fclose_r+0x72>
   102c2:	8526                	mv	a0,s1
   102c4:	7cc000ef          	jal	ra,10a90 <_free_r>
   102c8:	06043c23          	sd	zero,120(s0)
   102cc:	560000ef          	jal	ra,1082c <__sfp_lock_acquire>
   102d0:	00041823          	sh	zero,16(s0)
   102d4:	55a000ef          	jal	ra,1082e <__sfp_lock_release>
   102d8:	60e2                	ld	ra,24(sp)
   102da:	6442                	ld	s0,16(sp)
   102dc:	854a                	mv	a0,s2
   102de:	64a2                	ld	s1,8(sp)
   102e0:	6902                	ld	s2,0(sp)
   102e2:	6105                	addi	sp,sp,32
   102e4:	8082                	ret
   102e6:	53c000ef          	jal	ra,10822 <__sinit>
   102ea:	01041783          	lh	a5,16(s0)
   102ee:	d7c1                	beqz	a5,10276 <_fclose_r+0x1c>
   102f0:	bf59                	j	10286 <_fclose_r+0x2c>
   102f2:	01045783          	lhu	a5,16(s0)
   102f6:	597d                	li	s2,-1
   102f8:	0807f793          	andi	a5,a5,128
   102fc:	d7d5                	beqz	a5,102a8 <_fclose_r+0x4e>
   102fe:	6c0c                	ld	a1,24(s0)
   10300:	8526                	mv	a0,s1
   10302:	78e000ef          	jal	ra,10a90 <_free_r>
   10306:	b74d                	j	102a8 <_fclose_r+0x4e>

0000000000010308 <fclose>:
   10308:	85aa                	mv	a1,a0
   1030a:	7581b503          	ld	a0,1880(gp) # 1f6e8 <_impure_ptr>
   1030e:	f4dff06f          	j	1025a <_fclose_r>

0000000000010312 <__sflush_r>:
   10312:	01059783          	lh	a5,16(a1)
   10316:	7179                	addi	sp,sp,-48
   10318:	f022                	sd	s0,32(sp)
   1031a:	03079713          	slli	a4,a5,0x30
   1031e:	9341                	srli	a4,a4,0x30
   10320:	e44e                	sd	s3,8(sp)
   10322:	f406                	sd	ra,40(sp)
   10324:	ec26                	sd	s1,24(sp)
   10326:	e84a                	sd	s2,16(sp)
   10328:	00877693          	andi	a3,a4,8
   1032c:	842e                	mv	s0,a1
   1032e:	89aa                	mv	s3,a0
   10330:	eadd                	bnez	a3,103e6 <__sflush_r+0xd4>
   10332:	6705                	lui	a4,0x1
   10334:	80070713          	addi	a4,a4,-2048 # 800 <register_fini-0xf8b0>
   10338:	4594                	lw	a3,8(a1)
   1033a:	8fd9                	or	a5,a5,a4
   1033c:	00f59823          	sh	a5,16(a1)
   10340:	0ed05e63          	blez	a3,1043c <__sflush_r+0x12a>
   10344:	6438                	ld	a4,72(s0)
   10346:	cb41                	beqz	a4,103d6 <__sflush_r+0xc4>
   10348:	17c2                	slli	a5,a5,0x30
   1034a:	93c1                	srli	a5,a5,0x30
   1034c:	0009a483          	lw	s1,0(s3)
   10350:	03379693          	slli	a3,a5,0x33
   10354:	0009a023          	sw	zero,0(s3)
   10358:	780c                	ld	a1,48(s0)
   1035a:	0e06c563          	bltz	a3,10444 <__sflush_r+0x132>
   1035e:	4601                	li	a2,0
   10360:	4685                	li	a3,1
   10362:	854e                	mv	a0,s3
   10364:	9702                	jalr	a4
   10366:	57fd                	li	a5,-1
   10368:	862a                	mv	a2,a0
   1036a:	10f50563          	beq	a0,a5,10474 <__sflush_r+0x162>
   1036e:	01045783          	lhu	a5,16(s0)
   10372:	6438                	ld	a4,72(s0)
   10374:	780c                	ld	a1,48(s0)
   10376:	8b91                	andi	a5,a5,4
   10378:	c799                	beqz	a5,10386 <__sflush_r+0x74>
   1037a:	4414                	lw	a3,8(s0)
   1037c:	6c3c                	ld	a5,88(s0)
   1037e:	8e15                	sub	a2,a2,a3
   10380:	c399                	beqz	a5,10386 <__sflush_r+0x74>
   10382:	583c                	lw	a5,112(s0)
   10384:	8e1d                	sub	a2,a2,a5
   10386:	4681                	li	a3,0
   10388:	854e                	mv	a0,s3
   1038a:	9702                	jalr	a4
   1038c:	57fd                	li	a5,-1
   1038e:	0af51d63          	bne	a0,a5,10448 <__sflush_r+0x136>
   10392:	0009a703          	lw	a4,0(s3)
   10396:	01041783          	lh	a5,16(s0)
   1039a:	cb7d                	beqz	a4,10490 <__sflush_r+0x17e>
   1039c:	46f5                	li	a3,29
   1039e:	00d70563          	beq	a4,a3,103a8 <__sflush_r+0x96>
   103a2:	46d9                	li	a3,22
   103a4:	0ed71c63          	bne	a4,a3,1049c <__sflush_r+0x18a>
   103a8:	6c14                	ld	a3,24(s0)
   103aa:	777d                	lui	a4,0xfffff
   103ac:	7ff70713          	addi	a4,a4,2047 # fffffffffffff7ff <__BSS_END__+0xfffffffffffe006f>
   103b0:	8ff9                	and	a5,a5,a4
   103b2:	00f41823          	sh	a5,16(s0)
   103b6:	00042423          	sw	zero,8(s0)
   103ba:	e014                	sd	a3,0(s0)
   103bc:	6c2c                	ld	a1,88(s0)
   103be:	0099a023          	sw	s1,0(s3)
   103c2:	c991                	beqz	a1,103d6 <__sflush_r+0xc4>
   103c4:	07440793          	addi	a5,s0,116
   103c8:	00f58563          	beq	a1,a5,103d2 <__sflush_r+0xc0>
   103cc:	854e                	mv	a0,s3
   103ce:	6c2000ef          	jal	ra,10a90 <_free_r>
   103d2:	04043c23          	sd	zero,88(s0)
   103d6:	4501                	li	a0,0
   103d8:	70a2                	ld	ra,40(sp)
   103da:	7402                	ld	s0,32(sp)
   103dc:	64e2                	ld	s1,24(sp)
   103de:	6942                	ld	s2,16(sp)
   103e0:	69a2                	ld	s3,8(sp)
   103e2:	6145                	addi	sp,sp,48
   103e4:	8082                	ret
   103e6:	0185b903          	ld	s2,24(a1)
   103ea:	fe0906e3          	beqz	s2,103d6 <__sflush_r+0xc4>
   103ee:	6184                	ld	s1,0(a1)
   103f0:	8b0d                	andi	a4,a4,3
   103f2:	0125b023          	sd	s2,0(a1)
   103f6:	412484bb          	subw	s1,s1,s2
   103fa:	4781                	li	a5,0
   103fc:	e311                	bnez	a4,10400 <__sflush_r+0xee>
   103fe:	519c                	lw	a5,32(a1)
   10400:	c45c                	sw	a5,12(s0)
   10402:	00904663          	bgtz	s1,1040e <__sflush_r+0xfc>
   10406:	bfc1                	j	103d6 <__sflush_r+0xc4>
   10408:	992a                	add	s2,s2,a0
   1040a:	fc9056e3          	blez	s1,103d6 <__sflush_r+0xc4>
   1040e:	603c                	ld	a5,64(s0)
   10410:	780c                	ld	a1,48(s0)
   10412:	86a6                	mv	a3,s1
   10414:	864a                	mv	a2,s2
   10416:	854e                	mv	a0,s3
   10418:	9782                	jalr	a5
   1041a:	9c89                	subw	s1,s1,a0
   1041c:	fea046e3          	bgtz	a0,10408 <__sflush_r+0xf6>
   10420:	01045783          	lhu	a5,16(s0)
   10424:	70a2                	ld	ra,40(sp)
   10426:	64e2                	ld	s1,24(sp)
   10428:	0407e793          	ori	a5,a5,64
   1042c:	00f41823          	sh	a5,16(s0)
   10430:	7402                	ld	s0,32(sp)
   10432:	6942                	ld	s2,16(sp)
   10434:	69a2                	ld	s3,8(sp)
   10436:	557d                	li	a0,-1
   10438:	6145                	addi	sp,sp,48
   1043a:	8082                	ret
   1043c:	59b8                	lw	a4,112(a1)
   1043e:	f0e043e3          	bgtz	a4,10344 <__sflush_r+0x32>
   10442:	bf51                	j	103d6 <__sflush_r+0xc4>
   10444:	6850                	ld	a2,144(s0)
   10446:	bf05                	j	10376 <__sflush_r+0x64>
   10448:	01045783          	lhu	a5,16(s0)
   1044c:	777d                	lui	a4,0xfffff
   1044e:	7ff70713          	addi	a4,a4,2047 # fffffffffffff7ff <__BSS_END__+0xfffffffffffe006f>
   10452:	8ff9                	and	a5,a5,a4
   10454:	6c14                	ld	a3,24(s0)
   10456:	0107979b          	slliw	a5,a5,0x10
   1045a:	4107d79b          	sraiw	a5,a5,0x10
   1045e:	00f41823          	sh	a5,16(s0)
   10462:	00042423          	sw	zero,8(s0)
   10466:	e014                	sd	a3,0(s0)
   10468:	03379713          	slli	a4,a5,0x33
   1046c:	f40758e3          	bgez	a4,103bc <__sflush_r+0xaa>
   10470:	e848                	sd	a0,144(s0)
   10472:	b7a9                	j	103bc <__sflush_r+0xaa>
   10474:	0009a783          	lw	a5,0(s3)
   10478:	ee078be3          	beqz	a5,1036e <__sflush_r+0x5c>
   1047c:	4775                	li	a4,29
   1047e:	00e78563          	beq	a5,a4,10488 <__sflush_r+0x176>
   10482:	4759                	li	a4,22
   10484:	f8e79ee3          	bne	a5,a4,10420 <__sflush_r+0x10e>
   10488:	0099a023          	sw	s1,0(s3)
   1048c:	4501                	li	a0,0
   1048e:	b7a9                	j	103d8 <__sflush_r+0xc6>
   10490:	777d                	lui	a4,0xfffff
   10492:	7ff70713          	addi	a4,a4,2047 # fffffffffffff7ff <__BSS_END__+0xfffffffffffe006f>
   10496:	6c14                	ld	a3,24(s0)
   10498:	8ff9                	and	a5,a5,a4
   1049a:	b7d1                	j	1045e <__sflush_r+0x14c>
   1049c:	0407e793          	ori	a5,a5,64
   104a0:	00f41823          	sh	a5,16(s0)
   104a4:	557d                	li	a0,-1
   104a6:	bf0d                	j	103d8 <__sflush_r+0xc6>

00000000000104a8 <_fflush_r>:
   104a8:	1101                	addi	sp,sp,-32
   104aa:	e822                	sd	s0,16(sp)
   104ac:	ec06                	sd	ra,24(sp)
   104ae:	842a                	mv	s0,a0
   104b0:	c119                	beqz	a0,104b6 <_fflush_r+0xe>
   104b2:	493c                	lw	a5,80(a0)
   104b4:	cb89                	beqz	a5,104c6 <_fflush_r+0x1e>
   104b6:	01059783          	lh	a5,16(a1)
   104ba:	ef89                	bnez	a5,104d4 <_fflush_r+0x2c>
   104bc:	60e2                	ld	ra,24(sp)
   104be:	6442                	ld	s0,16(sp)
   104c0:	4501                	li	a0,0
   104c2:	6105                	addi	sp,sp,32
   104c4:	8082                	ret
   104c6:	e42e                	sd	a1,8(sp)
   104c8:	35a000ef          	jal	ra,10822 <__sinit>
   104cc:	65a2                	ld	a1,8(sp)
   104ce:	01059783          	lh	a5,16(a1)
   104d2:	d7ed                	beqz	a5,104bc <_fflush_r+0x14>
   104d4:	8522                	mv	a0,s0
   104d6:	6442                	ld	s0,16(sp)
   104d8:	60e2                	ld	ra,24(sp)
   104da:	6105                	addi	sp,sp,32
   104dc:	e37ff06f          	j	10312 <__sflush_r>

00000000000104e0 <fflush>:
   104e0:	85aa                	mv	a1,a0
   104e2:	c509                	beqz	a0,104ec <fflush+0xc>
   104e4:	7581b503          	ld	a0,1880(gp) # 1f6e8 <_impure_ptr>
   104e8:	fc1ff06f          	j	104a8 <_fflush_r>
   104ec:	7481b503          	ld	a0,1864(gp) # 1f6d8 <_global_impure_ptr>
   104f0:	000105b7          	lui	a1,0x10
   104f4:	4a858593          	addi	a1,a1,1192 # 104a8 <_fflush_r>
   104f8:	7150006f          	j	1140c <_fwalk_reent>

00000000000104fc <_fgets_r>:
   104fc:	4785                	li	a5,1
   104fe:	0cc7d263          	bge	a5,a2,105c2 <_fgets_r+0xc6>
   10502:	715d                	addi	sp,sp,-80
   10504:	e0a2                	sd	s0,64(sp)
   10506:	f84a                	sd	s2,48(sp)
   10508:	f44e                	sd	s3,40(sp)
   1050a:	f052                	sd	s4,32(sp)
   1050c:	e486                	sd	ra,72(sp)
   1050e:	fc26                	sd	s1,56(sp)
   10510:	ec56                	sd	s5,24(sp)
   10512:	e85a                	sd	s6,16(sp)
   10514:	e45e                	sd	s7,8(sp)
   10516:	89aa                	mv	s3,a0
   10518:	8436                	mv	s0,a3
   1051a:	8a2e                	mv	s4,a1
   1051c:	8932                	mv	s2,a2
   1051e:	c119                	beqz	a0,10524 <_fgets_r+0x28>
   10520:	493c                	lw	a5,80(a0)
   10522:	cfa9                	beqz	a5,1057c <_fgets_r+0x80>
   10524:	397d                	addiw	s2,s2,-1
   10526:	8ad2                	mv	s5,s4
   10528:	a081                	j	10568 <_fgets_r+0x6c>
   1052a:	45a9                	li	a1,10
   1052c:	00043b03          	ld	s6,0(s0)
   10530:	0127f363          	bgeu	a5,s2,10536 <_fgets_r+0x3a>
   10534:	84be                	mv	s1,a5
   10536:	8626                	mv	a2,s1
   10538:	855a                	mv	a0,s6
   1053a:	738010ef          	jal	ra,11c72 <memchr>
   1053e:	00048b9b          	sext.w	s7,s1
   10542:	87aa                	mv	a5,a0
   10544:	8626                	mv	a2,s1
   10546:	8556                	mv	a0,s5
   10548:	85da                	mv	a1,s6
   1054a:	4179093b          	subw	s2,s2,s7
   1054e:	4418                	lw	a4,8(s0)
   10550:	eba9                	bnez	a5,105a2 <_fgets_r+0xa6>
   10552:	601c                	ld	a5,0(s0)
   10554:	9aa6                	add	s5,s5,s1
   10556:	4177073b          	subw	a4,a4,s7
   1055a:	94be                	add	s1,s1,a5
   1055c:	c418                	sw	a4,8(s0)
   1055e:	e004                	sd	s1,0(s0)
   10560:	7bc010ef          	jal	ra,11d1c <memcpy>
   10564:	02090163          	beqz	s2,10586 <_fgets_r+0x8a>
   10568:	441c                	lw	a5,8(s0)
   1056a:	84ca                	mv	s1,s2
   1056c:	ffdd                	bnez	a5,1052a <_fgets_r+0x2e>
   1056e:	85a2                	mv	a1,s0
   10570:	854e                	mv	a0,s3
   10572:	7d1010ef          	jal	ra,12542 <__srefill_r>
   10576:	e511                	bnez	a0,10582 <_fgets_r+0x86>
   10578:	441c                	lw	a5,8(s0)
   1057a:	bf45                	j	1052a <_fgets_r+0x2e>
   1057c:	2a6000ef          	jal	ra,10822 <__sinit>
   10580:	b755                	j	10524 <_fgets_r+0x28>
   10582:	034a8e63          	beq	s5,s4,105be <_fgets_r+0xc2>
   10586:	000a8023          	sb	zero,0(s5)
   1058a:	8552                	mv	a0,s4
   1058c:	60a6                	ld	ra,72(sp)
   1058e:	6406                	ld	s0,64(sp)
   10590:	74e2                	ld	s1,56(sp)
   10592:	7942                	ld	s2,48(sp)
   10594:	79a2                	ld	s3,40(sp)
   10596:	7a02                	ld	s4,32(sp)
   10598:	6ae2                	ld	s5,24(sp)
   1059a:	6b42                	ld	s6,16(sp)
   1059c:	6ba2                	ld	s7,8(sp)
   1059e:	6161                	addi	sp,sp,80
   105a0:	8082                	ret
   105a2:	0785                	addi	a5,a5,1
   105a4:	416784b3          	sub	s1,a5,s6
   105a8:	9f05                	subw	a4,a4,s1
   105aa:	c418                	sw	a4,8(s0)
   105ac:	e01c                	sd	a5,0(s0)
   105ae:	8626                	mv	a2,s1
   105b0:	76c010ef          	jal	ra,11d1c <memcpy>
   105b4:	9aa6                	add	s5,s5,s1
   105b6:	000a8023          	sb	zero,0(s5)
   105ba:	8552                	mv	a0,s4
   105bc:	bfc1                	j	1058c <_fgets_r+0x90>
   105be:	4501                	li	a0,0
   105c0:	b7f1                	j	1058c <_fgets_r+0x90>
   105c2:	4501                	li	a0,0
   105c4:	8082                	ret

00000000000105c6 <fgets>:
   105c6:	86b2                	mv	a3,a2
   105c8:	862e                	mv	a2,a1
   105ca:	85aa                	mv	a1,a0
   105cc:	7581b503          	ld	a0,1880(gp) # 1f6e8 <_impure_ptr>
   105d0:	f2dff06f          	j	104fc <_fgets_r>

00000000000105d4 <__fp_lock>:
   105d4:	4501                	li	a0,0
   105d6:	8082                	ret

00000000000105d8 <_cleanup_r>:
   105d8:	000105b7          	lui	a1,0x10
   105dc:	25a58593          	addi	a1,a1,602 # 1025a <_fclose_r>
   105e0:	62d0006f          	j	1140c <_fwalk_reent>

00000000000105e4 <__sinit.part.0>:
   105e4:	7139                	addi	sp,sp,-64
   105e6:	000107b7          	lui	a5,0x10
   105ea:	fc06                	sd	ra,56(sp)
   105ec:	f822                	sd	s0,48(sp)
   105ee:	f426                	sd	s1,40(sp)
   105f0:	f04a                	sd	s2,32(sp)
   105f2:	ec4e                	sd	s3,24(sp)
   105f4:	e852                	sd	s4,16(sp)
   105f6:	e456                	sd	s5,8(sp)
   105f8:	e05a                	sd	s6,0(sp)
   105fa:	6500                	ld	s0,8(a0)
   105fc:	5d878793          	addi	a5,a5,1496 # 105d8 <_cleanup_r>
   10600:	ed3c                	sd	a5,88(a0)
   10602:	53850713          	addi	a4,a0,1336
   10606:	478d                	li	a5,3
   10608:	52e53823          	sd	a4,1328(a0)
   1060c:	52f52423          	sw	a5,1320(a0)
   10610:	52053023          	sd	zero,1312(a0)
   10614:	4791                	li	a5,4
   10616:	892a                	mv	s2,a0
   10618:	c81c                	sw	a5,16(s0)
   1061a:	4621                	li	a2,8
   1061c:	4581                	li	a1,0
   1061e:	0a042623          	sw	zero,172(s0)
   10622:	00043023          	sd	zero,0(s0)
   10626:	00043423          	sd	zero,8(s0)
   1062a:	00043c23          	sd	zero,24(s0)
   1062e:	02042023          	sw	zero,32(s0)
   10632:	02042423          	sw	zero,40(s0)
   10636:	0a440513          	addi	a0,s0,164
   1063a:	09b010ef          	jal	ra,11ed4 <memset>
   1063e:	00012b37          	lui	s6,0x12
   10642:	01093483          	ld	s1,16(s2)
   10646:	00012ab7          	lui	s5,0x12
   1064a:	00012a37          	lui	s4,0x12
   1064e:	000129b7          	lui	s3,0x12
   10652:	6deb0b13          	addi	s6,s6,1758 # 126de <__sread>
   10656:	71aa8a93          	addi	s5,s5,1818 # 1271a <__swrite>
   1065a:	76ea0a13          	addi	s4,s4,1902 # 1276e <__sseek>
   1065e:	7b098993          	addi	s3,s3,1968 # 127b0 <__sclose>
   10662:	67c1                	lui	a5,0x10
   10664:	03643c23          	sd	s6,56(s0)
   10668:	05543023          	sd	s5,64(s0)
   1066c:	05443423          	sd	s4,72(s0)
   10670:	05343823          	sd	s3,80(s0)
   10674:	f800                	sd	s0,48(s0)
   10676:	27a5                	addiw	a5,a5,9
   10678:	c89c                	sw	a5,16(s1)
   1067a:	4621                	li	a2,8
   1067c:	4581                	li	a1,0
   1067e:	0a04a623          	sw	zero,172(s1)
   10682:	0004b023          	sd	zero,0(s1)
   10686:	0004b423          	sd	zero,8(s1)
   1068a:	0004bc23          	sd	zero,24(s1)
   1068e:	0204a023          	sw	zero,32(s1)
   10692:	0204a423          	sw	zero,40(s1)
   10696:	0a448513          	addi	a0,s1,164
   1069a:	03b010ef          	jal	ra,11ed4 <memset>
   1069e:	01893403          	ld	s0,24(s2)
   106a2:	000207b7          	lui	a5,0x20
   106a6:	0364bc23          	sd	s6,56(s1)
   106aa:	0554b023          	sd	s5,64(s1)
   106ae:	0544b423          	sd	s4,72(s1)
   106b2:	0534b823          	sd	s3,80(s1)
   106b6:	f884                	sd	s1,48(s1)
   106b8:	27c9                	addiw	a5,a5,18
   106ba:	c81c                	sw	a5,16(s0)
   106bc:	0a042623          	sw	zero,172(s0)
   106c0:	00043023          	sd	zero,0(s0)
   106c4:	00043423          	sd	zero,8(s0)
   106c8:	00043c23          	sd	zero,24(s0)
   106cc:	02042023          	sw	zero,32(s0)
   106d0:	02042423          	sw	zero,40(s0)
   106d4:	0a440513          	addi	a0,s0,164
   106d8:	4621                	li	a2,8
   106da:	4581                	li	a1,0
   106dc:	7f8010ef          	jal	ra,11ed4 <memset>
   106e0:	70e2                	ld	ra,56(sp)
   106e2:	03643c23          	sd	s6,56(s0)
   106e6:	05543023          	sd	s5,64(s0)
   106ea:	05443423          	sd	s4,72(s0)
   106ee:	05343823          	sd	s3,80(s0)
   106f2:	f800                	sd	s0,48(s0)
   106f4:	7442                	ld	s0,48(sp)
   106f6:	4785                	li	a5,1
   106f8:	04f92823          	sw	a5,80(s2)
   106fc:	74a2                	ld	s1,40(sp)
   106fe:	7902                	ld	s2,32(sp)
   10700:	69e2                	ld	s3,24(sp)
   10702:	6a42                	ld	s4,16(sp)
   10704:	6aa2                	ld	s5,8(sp)
   10706:	6b02                	ld	s6,0(sp)
   10708:	6121                	addi	sp,sp,64
   1070a:	8082                	ret

000000000001070c <__fp_unlock>:
   1070c:	4501                	li	a0,0
   1070e:	8082                	ret

0000000000010710 <__sfmoreglue>:
   10710:	1101                	addi	sp,sp,-32
   10712:	e426                	sd	s1,8(sp)
   10714:	0b000613          	li	a2,176
   10718:	fff5849b          	addiw	s1,a1,-1
   1071c:	02c484b3          	mul	s1,s1,a2
   10720:	e04a                	sd	s2,0(sp)
   10722:	892e                	mv	s2,a1
   10724:	e822                	sd	s0,16(sp)
   10726:	ec06                	sd	ra,24(sp)
   10728:	0c848593          	addi	a1,s1,200
   1072c:	71f000ef          	jal	ra,1164a <_malloc_r>
   10730:	842a                	mv	s0,a0
   10732:	cd01                	beqz	a0,1074a <__sfmoreglue+0x3a>
   10734:	0561                	addi	a0,a0,24
   10736:	00043023          	sd	zero,0(s0)
   1073a:	01242423          	sw	s2,8(s0)
   1073e:	e808                	sd	a0,16(s0)
   10740:	0b048613          	addi	a2,s1,176
   10744:	4581                	li	a1,0
   10746:	78e010ef          	jal	ra,11ed4 <memset>
   1074a:	8522                	mv	a0,s0
   1074c:	60e2                	ld	ra,24(sp)
   1074e:	6442                	ld	s0,16(sp)
   10750:	64a2                	ld	s1,8(sp)
   10752:	6902                	ld	s2,0(sp)
   10754:	6105                	addi	sp,sp,32
   10756:	8082                	ret

0000000000010758 <__sfp>:
   10758:	7179                	addi	sp,sp,-48
   1075a:	ec26                	sd	s1,24(sp)
   1075c:	7481b483          	ld	s1,1864(gp) # 1f6d8 <_global_impure_ptr>
   10760:	e44e                	sd	s3,8(sp)
   10762:	f406                	sd	ra,40(sp)
   10764:	48bc                	lw	a5,80(s1)
   10766:	f022                	sd	s0,32(sp)
   10768:	e84a                	sd	s2,16(sp)
   1076a:	89aa                	mv	s3,a0
   1076c:	c7c1                	beqz	a5,107f4 <__sfp+0x9c>
   1076e:	52048493          	addi	s1,s1,1312
   10772:	0b000913          	li	s2,176
   10776:	449c                	lw	a5,8(s1)
   10778:	6880                	ld	s0,16(s1)
   1077a:	02f05463          	blez	a5,107a2 <__sfp+0x4a>
   1077e:	01041703          	lh	a4,16(s0)
   10782:	c705                	beqz	a4,107aa <__sfp+0x52>
   10784:	37fd                	addiw	a5,a5,-1
   10786:	1782                	slli	a5,a5,0x20
   10788:	9381                	srli	a5,a5,0x20
   1078a:	0785                	addi	a5,a5,1
   1078c:	032787b3          	mul	a5,a5,s2
   10790:	97a2                	add	a5,a5,s0
   10792:	a021                	j	1079a <__sfp+0x42>
   10794:	01041703          	lh	a4,16(s0)
   10798:	cb09                	beqz	a4,107aa <__sfp+0x52>
   1079a:	0b040413          	addi	s0,s0,176
   1079e:	fef41be3          	bne	s0,a5,10794 <__sfp+0x3c>
   107a2:	6080                	ld	s0,0(s1)
   107a4:	cc21                	beqz	s0,107fc <__sfp+0xa4>
   107a6:	84a2                	mv	s1,s0
   107a8:	b7f9                	j	10776 <__sfp+0x1e>
   107aa:	77c1                	lui	a5,0xffff0
   107ac:	2785                	addiw	a5,a5,1
   107ae:	0a042623          	sw	zero,172(s0)
   107b2:	00043023          	sd	zero,0(s0)
   107b6:	00043423          	sd	zero,8(s0)
   107ba:	c81c                	sw	a5,16(s0)
   107bc:	00043c23          	sd	zero,24(s0)
   107c0:	02042023          	sw	zero,32(s0)
   107c4:	02042423          	sw	zero,40(s0)
   107c8:	4621                	li	a2,8
   107ca:	4581                	li	a1,0
   107cc:	0a440513          	addi	a0,s0,164
   107d0:	704010ef          	jal	ra,11ed4 <memset>
   107d4:	04043c23          	sd	zero,88(s0)
   107d8:	06042023          	sw	zero,96(s0)
   107dc:	06043c23          	sd	zero,120(s0)
   107e0:	08042023          	sw	zero,128(s0)
   107e4:	8522                	mv	a0,s0
   107e6:	70a2                	ld	ra,40(sp)
   107e8:	7402                	ld	s0,32(sp)
   107ea:	64e2                	ld	s1,24(sp)
   107ec:	6942                	ld	s2,16(sp)
   107ee:	69a2                	ld	s3,8(sp)
   107f0:	6145                	addi	sp,sp,48
   107f2:	8082                	ret
   107f4:	8526                	mv	a0,s1
   107f6:	defff0ef          	jal	ra,105e4 <__sinit.part.0>
   107fa:	bf95                	j	1076e <__sfp+0x16>
   107fc:	4591                	li	a1,4
   107fe:	854e                	mv	a0,s3
   10800:	f11ff0ef          	jal	ra,10710 <__sfmoreglue>
   10804:	e088                	sd	a0,0(s1)
   10806:	842a                	mv	s0,a0
   10808:	fd59                	bnez	a0,107a6 <__sfp+0x4e>
   1080a:	47b1                	li	a5,12
   1080c:	00f9a023          	sw	a5,0(s3)
   10810:	bfd1                	j	107e4 <__sfp+0x8c>

0000000000010812 <_cleanup>:
   10812:	7481b503          	ld	a0,1864(gp) # 1f6d8 <_global_impure_ptr>
   10816:	000105b7          	lui	a1,0x10
   1081a:	25a58593          	addi	a1,a1,602 # 1025a <_fclose_r>
   1081e:	3ef0006f          	j	1140c <_fwalk_reent>

0000000000010822 <__sinit>:
   10822:	493c                	lw	a5,80(a0)
   10824:	c391                	beqz	a5,10828 <__sinit+0x6>
   10826:	8082                	ret
   10828:	dbdff06f          	j	105e4 <__sinit.part.0>

000000000001082c <__sfp_lock_acquire>:
   1082c:	8082                	ret

000000000001082e <__sfp_lock_release>:
   1082e:	8082                	ret

0000000000010830 <__sinit_lock_acquire>:
   10830:	8082                	ret

0000000000010832 <__sinit_lock_release>:
   10832:	8082                	ret

0000000000010834 <__fp_lock_all>:
   10834:	7581b503          	ld	a0,1880(gp) # 1f6e8 <_impure_ptr>
   10838:	000105b7          	lui	a1,0x10
   1083c:	5d458593          	addi	a1,a1,1492 # 105d4 <__fp_lock>
   10840:	3430006f          	j	11382 <_fwalk>

0000000000010844 <__fp_unlock_all>:
   10844:	7581b503          	ld	a0,1880(gp) # 1f6e8 <_impure_ptr>
   10848:	000105b7          	lui	a1,0x10
   1084c:	70c58593          	addi	a1,a1,1804 # 1070c <__fp_unlock>
   10850:	3330006f          	j	11382 <_fwalk>

0000000000010854 <__libc_fini_array>:
   10854:	1101                	addi	sp,sp,-32
   10856:	e822                	sd	s0,16(sp)
   10858:	67f9                	lui	a5,0x1e
   1085a:	6479                	lui	s0,0x1e
   1085c:	5a040413          	addi	s0,s0,1440 # 1e5a0 <__init_array_end>
   10860:	5a878793          	addi	a5,a5,1448 # 1e5a8 <__fini_array_end>
   10864:	8f81                	sub	a5,a5,s0
   10866:	e426                	sd	s1,8(sp)
   10868:	ec06                	sd	ra,24(sp)
   1086a:	4037d493          	srai	s1,a5,0x3
   1086e:	c881                	beqz	s1,1087e <__libc_fini_array+0x2a>
   10870:	17e1                	addi	a5,a5,-8
   10872:	943e                	add	s0,s0,a5
   10874:	601c                	ld	a5,0(s0)
   10876:	14fd                	addi	s1,s1,-1
   10878:	1461                	addi	s0,s0,-8
   1087a:	9782                	jalr	a5
   1087c:	fce5                	bnez	s1,10874 <__libc_fini_array+0x20>
   1087e:	6442                	ld	s0,16(sp)
   10880:	60e2                	ld	ra,24(sp)
   10882:	64a2                	ld	s1,8(sp)
   10884:	6105                	addi	sp,sp,32
   10886:	87dff06f          	j	10102 <_fini>

000000000001088a <_fopen_r>:
   1088a:	7139                	addi	sp,sp,-64
   1088c:	87b2                	mv	a5,a2
   1088e:	ec4e                	sd	s3,24(sp)
   10890:	0070                	addi	a2,sp,12
   10892:	89ae                	mv	s3,a1
   10894:	85be                	mv	a1,a5
   10896:	f04a                	sd	s2,32(sp)
   10898:	fc06                	sd	ra,56(sp)
   1089a:	f822                	sd	s0,48(sp)
   1089c:	f426                	sd	s1,40(sp)
   1089e:	892a                	mv	s2,a0
   108a0:	6c3030ef          	jal	ra,14762 <__sflags>
   108a4:	c935                	beqz	a0,10918 <_fopen_r+0x8e>
   108a6:	84aa                	mv	s1,a0
   108a8:	854a                	mv	a0,s2
   108aa:	eafff0ef          	jal	ra,10758 <__sfp>
   108ae:	842a                	mv	s0,a0
   108b0:	c525                	beqz	a0,10918 <_fopen_r+0x8e>
   108b2:	4632                	lw	a2,12(sp)
   108b4:	1b600693          	li	a3,438
   108b8:	85ce                	mv	a1,s3
   108ba:	854a                	mv	a0,s2
   108bc:	6c6010ef          	jal	ra,11f82 <_open_r>
   108c0:	04054663          	bltz	a0,1090c <_fopen_r+0x82>
   108c4:	000127b7          	lui	a5,0x12
   108c8:	6de78793          	addi	a5,a5,1758 # 126de <__sread>
   108cc:	fc1c                	sd	a5,56(s0)
   108ce:	000127b7          	lui	a5,0x12
   108d2:	71a78793          	addi	a5,a5,1818 # 1271a <__swrite>
   108d6:	e03c                	sd	a5,64(s0)
   108d8:	000127b7          	lui	a5,0x12
   108dc:	76e78793          	addi	a5,a5,1902 # 1276e <__sseek>
   108e0:	e43c                	sd	a5,72(s0)
   108e2:	000127b7          	lui	a5,0x12
   108e6:	7b078793          	addi	a5,a5,1968 # 127b0 <__sclose>
   108ea:	00941823          	sh	s1,16(s0)
   108ee:	00a41923          	sh	a0,18(s0)
   108f2:	f800                	sd	s0,48(s0)
   108f4:	e83c                	sd	a5,80(s0)
   108f6:	1004f493          	andi	s1,s1,256
   108fa:	e885                	bnez	s1,1092a <_fopen_r+0xa0>
   108fc:	8522                	mv	a0,s0
   108fe:	70e2                	ld	ra,56(sp)
   10900:	7442                	ld	s0,48(sp)
   10902:	74a2                	ld	s1,40(sp)
   10904:	7902                	ld	s2,32(sp)
   10906:	69e2                	ld	s3,24(sp)
   10908:	6121                	addi	sp,sp,64
   1090a:	8082                	ret
   1090c:	f21ff0ef          	jal	ra,1082c <__sfp_lock_acquire>
   10910:	00041823          	sh	zero,16(s0)
   10914:	f1bff0ef          	jal	ra,1082e <__sfp_lock_release>
   10918:	4401                	li	s0,0
   1091a:	8522                	mv	a0,s0
   1091c:	70e2                	ld	ra,56(sp)
   1091e:	7442                	ld	s0,48(sp)
   10920:	74a2                	ld	s1,40(sp)
   10922:	7902                	ld	s2,32(sp)
   10924:	69e2                	ld	s3,24(sp)
   10926:	6121                	addi	sp,sp,64
   10928:	8082                	ret
   1092a:	85a2                	mv	a1,s0
   1092c:	854a                	mv	a0,s2
   1092e:	4689                	li	a3,2
   10930:	4601                	li	a2,0
   10932:	3aa000ef          	jal	ra,10cdc <_fseek_r>
   10936:	8522                	mv	a0,s0
   10938:	70e2                	ld	ra,56(sp)
   1093a:	7442                	ld	s0,48(sp)
   1093c:	74a2                	ld	s1,40(sp)
   1093e:	7902                	ld	s2,32(sp)
   10940:	69e2                	ld	s3,24(sp)
   10942:	6121                	addi	sp,sp,64
   10944:	8082                	ret

0000000000010946 <fopen>:
   10946:	862e                	mv	a2,a1
   10948:	85aa                	mv	a1,a0
   1094a:	7581b503          	ld	a0,1880(gp) # 1f6e8 <_impure_ptr>
   1094e:	f3dff06f          	j	1088a <_fopen_r>

0000000000010952 <_fputs_r>:
   10952:	715d                	addi	sp,sp,-80
   10954:	fc26                	sd	s1,56(sp)
   10956:	84aa                	mv	s1,a0
   10958:	852e                	mv	a0,a1
   1095a:	e0a2                	sd	s0,64(sp)
   1095c:	e486                	sd	ra,72(sp)
   1095e:	8432                	mv	s0,a2
   10960:	e42e                	sd	a1,8(sp)
   10962:	657010ef          	jal	ra,127b8 <strlen>
   10966:	003c                	addi	a5,sp,8
   10968:	ec3e                	sd	a5,24(sp)
   1096a:	4785                	li	a5,1
   1096c:	f42a                	sd	a0,40(sp)
   1096e:	e82a                	sd	a0,16(sp)
   10970:	d03e                	sw	a5,32(sp)
   10972:	c099                	beqz	s1,10978 <_fputs_r+0x26>
   10974:	48bc                	lw	a5,80(s1)
   10976:	cf85                	beqz	a5,109ae <_fputs_r+0x5c>
   10978:	01041783          	lh	a5,16(s0)
   1097c:	03279713          	slli	a4,a5,0x32
   10980:	00074d63          	bltz	a4,1099a <_fputs_r+0x48>
   10984:	0ac42703          	lw	a4,172(s0)
   10988:	6689                	lui	a3,0x2
   1098a:	8fd5                	or	a5,a5,a3
   1098c:	76f9                	lui	a3,0xffffe
   1098e:	16fd                	addi	a3,a3,-1
   10990:	8f75                	and	a4,a4,a3
   10992:	00f41823          	sh	a5,16(s0)
   10996:	0ae42623          	sw	a4,172(s0)
   1099a:	0830                	addi	a2,sp,24
   1099c:	85a2                	mv	a1,s0
   1099e:	8526                	mv	a0,s1
   109a0:	6b6000ef          	jal	ra,11056 <__sfvwrite_r>
   109a4:	60a6                	ld	ra,72(sp)
   109a6:	6406                	ld	s0,64(sp)
   109a8:	74e2                	ld	s1,56(sp)
   109aa:	6161                	addi	sp,sp,80
   109ac:	8082                	ret
   109ae:	8526                	mv	a0,s1
   109b0:	e73ff0ef          	jal	ra,10822 <__sinit>
   109b4:	b7d1                	j	10978 <_fputs_r+0x26>

00000000000109b6 <fputs>:
   109b6:	862e                	mv	a2,a1
   109b8:	85aa                	mv	a1,a0
   109ba:	7581b503          	ld	a0,1880(gp) # 1f6e8 <_impure_ptr>
   109be:	f95ff06f          	j	10952 <_fputs_r>

00000000000109c2 <_malloc_trim_r>:
   109c2:	7179                	addi	sp,sp,-48
   109c4:	e84a                	sd	s2,16(sp)
   109c6:	697d                	lui	s2,0x1f
   109c8:	f022                	sd	s0,32(sp)
   109ca:	ec26                	sd	s1,24(sp)
   109cc:	e44e                	sd	s3,8(sp)
   109ce:	842e                	mv	s0,a1
   109d0:	f406                	sd	ra,40(sp)
   109d2:	89aa                	mv	s3,a0
   109d4:	cf090913          	addi	s2,s2,-784 # 1ecf0 <__malloc_av_>
   109d8:	5a6010ef          	jal	ra,11f7e <__malloc_lock>
   109dc:	01093683          	ld	a3,16(s2)
   109e0:	6705                	lui	a4,0x1
   109e2:	fdf70793          	addi	a5,a4,-33 # fdf <register_fini-0xf0d1>
   109e6:	6684                	ld	s1,8(a3)
   109e8:	40878433          	sub	s0,a5,s0
   109ec:	98f1                	andi	s1,s1,-4
   109ee:	9426                	add	s0,s0,s1
   109f0:	8031                	srli	s0,s0,0xc
   109f2:	147d                	addi	s0,s0,-1
   109f4:	0432                	slli	s0,s0,0xc
   109f6:	00e44b63          	blt	s0,a4,10a0c <_malloc_trim_r+0x4a>
   109fa:	4581                	li	a1,0
   109fc:	854e                	mv	a0,s3
   109fe:	4a7010ef          	jal	ra,126a4 <_sbrk_r>
   10a02:	01093783          	ld	a5,16(s2)
   10a06:	97a6                	add	a5,a5,s1
   10a08:	00f50d63          	beq	a0,a5,10a22 <_malloc_trim_r+0x60>
   10a0c:	854e                	mv	a0,s3
   10a0e:	572010ef          	jal	ra,11f80 <__malloc_unlock>
   10a12:	70a2                	ld	ra,40(sp)
   10a14:	7402                	ld	s0,32(sp)
   10a16:	64e2                	ld	s1,24(sp)
   10a18:	6942                	ld	s2,16(sp)
   10a1a:	69a2                	ld	s3,8(sp)
   10a1c:	4501                	li	a0,0
   10a1e:	6145                	addi	sp,sp,48
   10a20:	8082                	ret
   10a22:	408005b3          	neg	a1,s0
   10a26:	854e                	mv	a0,s3
   10a28:	47d010ef          	jal	ra,126a4 <_sbrk_r>
   10a2c:	57fd                	li	a5,-1
   10a2e:	02f50b63          	beq	a0,a5,10a64 <_malloc_trim_r+0xa2>
   10a32:	0001f737          	lui	a4,0x1f
   10a36:	76072783          	lw	a5,1888(a4) # 1f760 <__malloc_current_mallinfo>
   10a3a:	01093683          	ld	a3,16(s2)
   10a3e:	8c81                	sub	s1,s1,s0
   10a40:	0014e493          	ori	s1,s1,1
   10a44:	4087843b          	subw	s0,a5,s0
   10a48:	854e                	mv	a0,s3
   10a4a:	e684                	sd	s1,8(a3)
   10a4c:	76872023          	sw	s0,1888(a4)
   10a50:	530010ef          	jal	ra,11f80 <__malloc_unlock>
   10a54:	70a2                	ld	ra,40(sp)
   10a56:	7402                	ld	s0,32(sp)
   10a58:	64e2                	ld	s1,24(sp)
   10a5a:	6942                	ld	s2,16(sp)
   10a5c:	69a2                	ld	s3,8(sp)
   10a5e:	4505                	li	a0,1
   10a60:	6145                	addi	sp,sp,48
   10a62:	8082                	ret
   10a64:	4581                	li	a1,0
   10a66:	854e                	mv	a0,s3
   10a68:	43d010ef          	jal	ra,126a4 <_sbrk_r>
   10a6c:	01093703          	ld	a4,16(s2)
   10a70:	46fd                	li	a3,31
   10a72:	40e507b3          	sub	a5,a0,a4
   10a76:	f8f6dbe3          	bge	a3,a5,10a0c <_malloc_trim_r+0x4a>
   10a7a:	7601b683          	ld	a3,1888(gp) # 1f6f0 <__malloc_sbrk_base>
   10a7e:	0017e793          	ori	a5,a5,1
   10a82:	e71c                	sd	a5,8(a4)
   10a84:	8d15                	sub	a0,a0,a3
   10a86:	0001f6b7          	lui	a3,0x1f
   10a8a:	76a6a023          	sw	a0,1888(a3) # 1f760 <__malloc_current_mallinfo>
   10a8e:	bfbd                	j	10a0c <_malloc_trim_r+0x4a>

0000000000010a90 <_free_r>:
   10a90:	c5f5                	beqz	a1,10b7c <_free_r+0xec>
   10a92:	1101                	addi	sp,sp,-32
   10a94:	e822                	sd	s0,16(sp)
   10a96:	e426                	sd	s1,8(sp)
   10a98:	842e                	mv	s0,a1
   10a9a:	84aa                	mv	s1,a0
   10a9c:	ec06                	sd	ra,24(sp)
   10a9e:	4e0010ef          	jal	ra,11f7e <__malloc_lock>
   10aa2:	ff843503          	ld	a0,-8(s0)
   10aa6:	ff040713          	addi	a4,s0,-16
   10aaa:	65fd                	lui	a1,0x1f
   10aac:	ffe57793          	andi	a5,a0,-2
   10ab0:	00f70633          	add	a2,a4,a5
   10ab4:	cf058593          	addi	a1,a1,-784 # 1ecf0 <__malloc_av_>
   10ab8:	6614                	ld	a3,8(a2)
   10aba:	0105b803          	ld	a6,16(a1)
   10abe:	9af1                	andi	a3,a3,-4
   10ac0:	12c80c63          	beq	a6,a2,10bf8 <_free_r+0x168>
   10ac4:	e614                	sd	a3,8(a2)
   10ac6:	8905                	andi	a0,a0,1
   10ac8:	00d60833          	add	a6,a2,a3
   10acc:	e149                	bnez	a0,10b4e <_free_r+0xbe>
   10ace:	ff043303          	ld	t1,-16(s0)
   10ad2:	00883803          	ld	a6,8(a6)
   10ad6:	657d                	lui	a0,0x1f
   10ad8:	40670733          	sub	a4,a4,t1
   10adc:	01073883          	ld	a7,16(a4)
   10ae0:	d0050513          	addi	a0,a0,-768 # 1ed00 <__malloc_av_+0x10>
   10ae4:	979a                	add	a5,a5,t1
   10ae6:	00187813          	andi	a6,a6,1
   10aea:	0ea88a63          	beq	a7,a0,10bde <_free_r+0x14e>
   10aee:	01873303          	ld	t1,24(a4)
   10af2:	0068bc23          	sd	t1,24(a7)
   10af6:	01133823          	sd	a7,16(t1) # 10 <register_fini-0x100a0>
   10afa:	14080a63          	beqz	a6,10c4e <_free_r+0x1be>
   10afe:	0017e693          	ori	a3,a5,1
   10b02:	e714                	sd	a3,8(a4)
   10b04:	e21c                	sd	a5,0(a2)
   10b06:	1ff00693          	li	a3,511
   10b0a:	08f6e363          	bltu	a3,a5,10b90 <_free_r+0x100>
   10b0e:	838d                	srli	a5,a5,0x3
   10b10:	2781                	sext.w	a5,a5
   10b12:	0017869b          	addiw	a3,a5,1
   10b16:	0016969b          	slliw	a3,a3,0x1
   10b1a:	068e                	slli	a3,a3,0x3
   10b1c:	0085b803          	ld	a6,8(a1)
   10b20:	96ae                	add	a3,a3,a1
   10b22:	6288                	ld	a0,0(a3)
   10b24:	4605                	li	a2,1
   10b26:	4027d79b          	sraiw	a5,a5,0x2
   10b2a:	00f617b3          	sll	a5,a2,a5
   10b2e:	0107e7b3          	or	a5,a5,a6
   10b32:	ff068613          	addi	a2,a3,-16
   10b36:	ef10                	sd	a2,24(a4)
   10b38:	eb08                	sd	a0,16(a4)
   10b3a:	e59c                	sd	a5,8(a1)
   10b3c:	e298                	sd	a4,0(a3)
   10b3e:	ed18                	sd	a4,24(a0)
   10b40:	6442                	ld	s0,16(sp)
   10b42:	60e2                	ld	ra,24(sp)
   10b44:	8526                	mv	a0,s1
   10b46:	64a2                	ld	s1,8(sp)
   10b48:	6105                	addi	sp,sp,32
   10b4a:	4360106f          	j	11f80 <__malloc_unlock>
   10b4e:	00883503          	ld	a0,8(a6)
   10b52:	8905                	andi	a0,a0,1
   10b54:	e50d                	bnez	a0,10b7e <_free_r+0xee>
   10b56:	657d                	lui	a0,0x1f
   10b58:	97b6                	add	a5,a5,a3
   10b5a:	d0050513          	addi	a0,a0,-768 # 1ed00 <__malloc_av_+0x10>
   10b5e:	6a14                	ld	a3,16(a2)
   10b60:	0017e893          	ori	a7,a5,1
   10b64:	00f70833          	add	a6,a4,a5
   10b68:	0ea68e63          	beq	a3,a0,10c64 <_free_r+0x1d4>
   10b6c:	6e10                	ld	a2,24(a2)
   10b6e:	ee90                	sd	a2,24(a3)
   10b70:	ea14                	sd	a3,16(a2)
   10b72:	01173423          	sd	a7,8(a4)
   10b76:	00f83023          	sd	a5,0(a6)
   10b7a:	b771                	j	10b06 <_free_r+0x76>
   10b7c:	8082                	ret
   10b7e:	0017e693          	ori	a3,a5,1
   10b82:	fed43c23          	sd	a3,-8(s0)
   10b86:	e21c                	sd	a5,0(a2)
   10b88:	1ff00693          	li	a3,511
   10b8c:	f8f6f1e3          	bgeu	a3,a5,10b0e <_free_r+0x7e>
   10b90:	0097d693          	srli	a3,a5,0x9
   10b94:	4611                	li	a2,4
   10b96:	08d66a63          	bltu	a2,a3,10c2a <_free_r+0x19a>
   10b9a:	0067d693          	srli	a3,a5,0x6
   10b9e:	2681                	sext.w	a3,a3
   10ba0:	0396851b          	addiw	a0,a3,57
   10ba4:	0015151b          	slliw	a0,a0,0x1
   10ba8:	0386861b          	addiw	a2,a3,56
   10bac:	050e                	slli	a0,a0,0x3
   10bae:	952e                	add	a0,a0,a1
   10bb0:	6114                	ld	a3,0(a0)
   10bb2:	1541                	addi	a0,a0,-16
   10bb4:	0cd50163          	beq	a0,a3,10c76 <_free_r+0x1e6>
   10bb8:	6690                	ld	a2,8(a3)
   10bba:	9a71                	andi	a2,a2,-4
   10bbc:	00c7f563          	bgeu	a5,a2,10bc6 <_free_r+0x136>
   10bc0:	6a94                	ld	a3,16(a3)
   10bc2:	fed51be3          	bne	a0,a3,10bb8 <_free_r+0x128>
   10bc6:	6e88                	ld	a0,24(a3)
   10bc8:	ef08                	sd	a0,24(a4)
   10bca:	eb14                	sd	a3,16(a4)
   10bcc:	6442                	ld	s0,16(sp)
   10bce:	e918                	sd	a4,16(a0)
   10bd0:	60e2                	ld	ra,24(sp)
   10bd2:	8526                	mv	a0,s1
   10bd4:	64a2                	ld	s1,8(sp)
   10bd6:	ee98                	sd	a4,24(a3)
   10bd8:	6105                	addi	sp,sp,32
   10bda:	3a60106f          	j	11f80 <__malloc_unlock>
   10bde:	0e081a63          	bnez	a6,10cd2 <_free_r+0x242>
   10be2:	6a0c                	ld	a1,16(a2)
   10be4:	6e10                	ld	a2,24(a2)
   10be6:	97b6                	add	a5,a5,a3
   10be8:	0017e693          	ori	a3,a5,1
   10bec:	ed90                	sd	a2,24(a1)
   10bee:	ea0c                	sd	a1,16(a2)
   10bf0:	e714                	sd	a3,8(a4)
   10bf2:	973e                	add	a4,a4,a5
   10bf4:	e31c                	sd	a5,0(a4)
   10bf6:	b7a9                	j	10b40 <_free_r+0xb0>
   10bf8:	8905                	andi	a0,a0,1
   10bfa:	97b6                	add	a5,a5,a3
   10bfc:	e909                	bnez	a0,10c0e <_free_r+0x17e>
   10bfe:	ff043503          	ld	a0,-16(s0)
   10c02:	8f09                	sub	a4,a4,a0
   10c04:	6f14                	ld	a3,24(a4)
   10c06:	6b10                	ld	a2,16(a4)
   10c08:	97aa                	add	a5,a5,a0
   10c0a:	ee14                	sd	a3,24(a2)
   10c0c:	ea90                	sd	a2,16(a3)
   10c0e:	0017e613          	ori	a2,a5,1
   10c12:	7681b683          	ld	a3,1896(gp) # 1f6f8 <__malloc_trim_threshold>
   10c16:	e710                	sd	a2,8(a4)
   10c18:	e998                	sd	a4,16(a1)
   10c1a:	f2d7e3e3          	bltu	a5,a3,10b40 <_free_r+0xb0>
   10c1e:	7801b583          	ld	a1,1920(gp) # 1f710 <__malloc_top_pad>
   10c22:	8526                	mv	a0,s1
   10c24:	d9fff0ef          	jal	ra,109c2 <_malloc_trim_r>
   10c28:	bf21                	j	10b40 <_free_r+0xb0>
   10c2a:	4651                	li	a2,20
   10c2c:	02d67363          	bgeu	a2,a3,10c52 <_free_r+0x1c2>
   10c30:	05400613          	li	a2,84
   10c34:	04d66c63          	bltu	a2,a3,10c8c <_free_r+0x1fc>
   10c38:	00c7d693          	srli	a3,a5,0xc
   10c3c:	2681                	sext.w	a3,a3
   10c3e:	06f6851b          	addiw	a0,a3,111
   10c42:	0015151b          	slliw	a0,a0,0x1
   10c46:	06e6861b          	addiw	a2,a3,110
   10c4a:	050e                	slli	a0,a0,0x3
   10c4c:	b78d                	j	10bae <_free_r+0x11e>
   10c4e:	97b6                	add	a5,a5,a3
   10c50:	b739                	j	10b5e <_free_r+0xce>
   10c52:	2681                	sext.w	a3,a3
   10c54:	05c6851b          	addiw	a0,a3,92
   10c58:	0015151b          	slliw	a0,a0,0x1
   10c5c:	05b6861b          	addiw	a2,a3,91
   10c60:	050e                	slli	a0,a0,0x3
   10c62:	b7b1                	j	10bae <_free_r+0x11e>
   10c64:	f598                	sd	a4,40(a1)
   10c66:	f198                	sd	a4,32(a1)
   10c68:	ef08                	sd	a0,24(a4)
   10c6a:	eb08                	sd	a0,16(a4)
   10c6c:	01173423          	sd	a7,8(a4)
   10c70:	00f83023          	sd	a5,0(a6)
   10c74:	b5f1                	j	10b40 <_free_r+0xb0>
   10c76:	0085b803          	ld	a6,8(a1)
   10c7a:	4026561b          	sraiw	a2,a2,0x2
   10c7e:	4785                	li	a5,1
   10c80:	00c79633          	sll	a2,a5,a2
   10c84:	01066633          	or	a2,a2,a6
   10c88:	e590                	sd	a2,8(a1)
   10c8a:	bf3d                	j	10bc8 <_free_r+0x138>
   10c8c:	15400613          	li	a2,340
   10c90:	00d66d63          	bltu	a2,a3,10caa <_free_r+0x21a>
   10c94:	00f7d693          	srli	a3,a5,0xf
   10c98:	2681                	sext.w	a3,a3
   10c9a:	0786851b          	addiw	a0,a3,120
   10c9e:	0015151b          	slliw	a0,a0,0x1
   10ca2:	0776861b          	addiw	a2,a3,119
   10ca6:	050e                	slli	a0,a0,0x3
   10ca8:	b719                	j	10bae <_free_r+0x11e>
   10caa:	55400613          	li	a2,1364
   10cae:	00d66d63          	bltu	a2,a3,10cc8 <_free_r+0x238>
   10cb2:	0127d693          	srli	a3,a5,0x12
   10cb6:	2681                	sext.w	a3,a3
   10cb8:	07d6851b          	addiw	a0,a3,125
   10cbc:	0015151b          	slliw	a0,a0,0x1
   10cc0:	07c6861b          	addiw	a2,a3,124
   10cc4:	050e                	slli	a0,a0,0x3
   10cc6:	b5e5                	j	10bae <_free_r+0x11e>
   10cc8:	7f000513          	li	a0,2032
   10ccc:	07e00613          	li	a2,126
   10cd0:	bdf9                	j	10bae <_free_r+0x11e>
   10cd2:	0017e693          	ori	a3,a5,1
   10cd6:	e714                	sd	a3,8(a4)
   10cd8:	e21c                	sd	a5,0(a2)
   10cda:	b59d                	j	10b40 <_free_r+0xb0>

0000000000010cdc <_fseek_r>:
   10cdc:	0120006f          	j	10cee <_fseeko_r>

0000000000010ce0 <fseek>:
   10ce0:	86b2                	mv	a3,a2
   10ce2:	862e                	mv	a2,a1
   10ce4:	85aa                	mv	a1,a0
   10ce6:	7581b503          	ld	a0,1880(gp) # 1f6e8 <_impure_ptr>
   10cea:	0040006f          	j	10cee <_fseeko_r>

0000000000010cee <_fseeko_r>:
   10cee:	7131                	addi	sp,sp,-192
   10cf0:	f922                	sd	s0,176(sp)
   10cf2:	f526                	sd	s1,168(sp)
   10cf4:	f14a                	sd	s2,160(sp)
   10cf6:	e952                	sd	s4,144(sp)
   10cf8:	fd06                	sd	ra,184(sp)
   10cfa:	ed4e                	sd	s3,152(sp)
   10cfc:	e556                	sd	s5,136(sp)
   10cfe:	e15a                	sd	s6,128(sp)
   10d00:	fcde                	sd	s7,120(sp)
   10d02:	84aa                	mv	s1,a0
   10d04:	842e                	mv	s0,a1
   10d06:	8a32                	mv	s4,a2
   10d08:	8936                	mv	s2,a3
   10d0a:	c119                	beqz	a0,10d10 <_fseeko_r+0x22>
   10d0c:	493c                	lw	a5,80(a0)
   10d0e:	c7a1                	beqz	a5,10d56 <_fseeko_r+0x68>
   10d10:	01045783          	lhu	a5,16(s0)
   10d14:	10800713          	li	a4,264
   10d18:	1087f793          	andi	a5,a5,264
   10d1c:	04e78763          	beq	a5,a4,10d6a <_fseeko_r+0x7c>
   10d20:	04843983          	ld	s3,72(s0)
   10d24:	2c098f63          	beqz	s3,11002 <_fseeko_r+0x314>
   10d28:	4785                	li	a5,1
   10d2a:	0cf90f63          	beq	s2,a5,10e08 <_fseeko_r+0x11a>
   10d2e:	4789                	li	a5,2
   10d30:	04f90263          	beq	s2,a5,10d74 <_fseeko_r+0x86>
   10d34:	04090063          	beqz	s2,10d74 <_fseeko_r+0x86>
   10d38:	47d9                	li	a5,22
   10d3a:	c09c                	sw	a5,0(s1)
   10d3c:	5afd                	li	s5,-1
   10d3e:	70ea                	ld	ra,184(sp)
   10d40:	744a                	ld	s0,176(sp)
   10d42:	8556                	mv	a0,s5
   10d44:	74aa                	ld	s1,168(sp)
   10d46:	790a                	ld	s2,160(sp)
   10d48:	69ea                	ld	s3,152(sp)
   10d4a:	6a4a                	ld	s4,144(sp)
   10d4c:	6aaa                	ld	s5,136(sp)
   10d4e:	6b0a                	ld	s6,128(sp)
   10d50:	7be6                	ld	s7,120(sp)
   10d52:	6129                	addi	sp,sp,192
   10d54:	8082                	ret
   10d56:	acdff0ef          	jal	ra,10822 <__sinit>
   10d5a:	01045783          	lhu	a5,16(s0)
   10d5e:	10800713          	li	a4,264
   10d62:	1087f793          	andi	a5,a5,264
   10d66:	fae79de3          	bne	a5,a4,10d20 <_fseeko_r+0x32>
   10d6a:	85a2                	mv	a1,s0
   10d6c:	8526                	mv	a0,s1
   10d6e:	f3aff0ef          	jal	ra,104a8 <_fflush_r>
   10d72:	b77d                	j	10d20 <_fseeko_r+0x32>
   10d74:	6c18                	ld	a4,24(s0)
   10d76:	4b81                	li	s7,0
   10d78:	4a81                	li	s5,0
   10d7a:	cf61                	beqz	a4,10e52 <_fseeko_r+0x164>
   10d7c:	01041683          	lh	a3,16(s0)
   10d80:	6785                	lui	a5,0x1
   10d82:	81a78793          	addi	a5,a5,-2022 # 81a <register_fini-0xf896>
   10d86:	03069713          	slli	a4,a3,0x30
   10d8a:	9341                	srli	a4,a4,0x30
   10d8c:	8ff9                	and	a5,a5,a4
   10d8e:	e38d                	bnez	a5,10db0 <_fseeko_r+0xc2>
   10d90:	40077713          	andi	a4,a4,1024
   10d94:	0e071e63          	bnez	a4,10e90 <_fseeko_r+0x1a2>
   10d98:	000127b7          	lui	a5,0x12
   10d9c:	76e78793          	addi	a5,a5,1902 # 1276e <__sseek>
   10da0:	0af98e63          	beq	s3,a5,10e5c <_fseeko_r+0x16e>
   10da4:	6785                	lui	a5,0x1
   10da6:	80078793          	addi	a5,a5,-2048 # 800 <register_fini-0xf8b0>
   10daa:	8edd                	or	a3,a3,a5
   10dac:	00d41823          	sh	a3,16(s0)
   10db0:	85a2                	mv	a1,s0
   10db2:	8526                	mv	a0,s1
   10db4:	ef4ff0ef          	jal	ra,104a8 <_fflush_r>
   10db8:	8aaa                	mv	s5,a0
   10dba:	f149                	bnez	a0,10d3c <_fseeko_r+0x4e>
   10dbc:	780c                	ld	a1,48(s0)
   10dbe:	86ca                	mv	a3,s2
   10dc0:	8652                	mv	a2,s4
   10dc2:	8526                	mv	a0,s1
   10dc4:	9982                	jalr	s3
   10dc6:	57fd                	li	a5,-1
   10dc8:	f6f50ae3          	beq	a0,a5,10d3c <_fseeko_r+0x4e>
   10dcc:	6c2c                	ld	a1,88(s0)
   10dce:	c991                	beqz	a1,10de2 <_fseeko_r+0xf4>
   10dd0:	07440793          	addi	a5,s0,116
   10dd4:	00f58563          	beq	a1,a5,10dde <_fseeko_r+0xf0>
   10dd8:	8526                	mv	a0,s1
   10dda:	cb7ff0ef          	jal	ra,10a90 <_free_r>
   10dde:	04043c23          	sd	zero,88(s0)
   10de2:	01045783          	lhu	a5,16(s0)
   10de6:	6c14                	ld	a3,24(s0)
   10de8:	777d                	lui	a4,0xfffff
   10dea:	7df70713          	addi	a4,a4,2015 # fffffffffffff7df <__BSS_END__+0xfffffffffffe004f>
   10dee:	8ff9                	and	a5,a5,a4
   10df0:	e014                	sd	a3,0(s0)
   10df2:	00042423          	sw	zero,8(s0)
   10df6:	00f41823          	sh	a5,16(s0)
   10dfa:	4621                	li	a2,8
   10dfc:	4581                	li	a1,0
   10dfe:	0a440513          	addi	a0,s0,164
   10e02:	0d2010ef          	jal	ra,11ed4 <memset>
   10e06:	bf25                	j	10d3e <_fseeko_r+0x50>
   10e08:	85a2                	mv	a1,s0
   10e0a:	8526                	mv	a0,s1
   10e0c:	e9cff0ef          	jal	ra,104a8 <_fflush_r>
   10e10:	01045783          	lhu	a5,16(s0)
   10e14:	03379713          	slli	a4,a5,0x33
   10e18:	0a074263          	bltz	a4,10ebc <_fseeko_r+0x1ce>
   10e1c:	780c                	ld	a1,48(s0)
   10e1e:	4685                	li	a3,1
   10e20:	4601                	li	a2,0
   10e22:	8526                	mv	a0,s1
   10e24:	9982                	jalr	s3
   10e26:	57fd                	li	a5,-1
   10e28:	8aaa                	mv	s5,a0
   10e2a:	f0f509e3          	beq	a0,a5,10d3c <_fseeko_r+0x4e>
   10e2e:	01045783          	lhu	a5,16(s0)
   10e32:	6c18                	ld	a4,24(s0)
   10e34:	0047f693          	andi	a3,a5,4
   10e38:	cac1                	beqz	a3,10ec8 <_fseeko_r+0x1da>
   10e3a:	441c                	lw	a5,8(s0)
   10e3c:	6c34                	ld	a3,88(s0)
   10e3e:	40fa8ab3          	sub	s5,s5,a5
   10e42:	c681                	beqz	a3,10e4a <_fseeko_r+0x15c>
   10e44:	5834                	lw	a3,112(s0)
   10e46:	40da8ab3          	sub	s5,s5,a3
   10e4a:	8bca                	mv	s7,s2
   10e4c:	9a56                	add	s4,s4,s5
   10e4e:	4901                	li	s2,0
   10e50:	f715                	bnez	a4,10d7c <_fseeko_r+0x8e>
   10e52:	85a2                	mv	a1,s0
   10e54:	8526                	mv	a0,s1
   10e56:	738000ef          	jal	ra,1158e <__smakebuf_r>
   10e5a:	b70d                	j	10d7c <_fseeko_r+0x8e>
   10e5c:	01241583          	lh	a1,18(s0)
   10e60:	f405c2e3          	bltz	a1,10da4 <_fseeko_r+0xb6>
   10e64:	0030                	addi	a2,sp,8
   10e66:	8526                	mv	a0,s1
   10e68:	1b0000ef          	jal	ra,11018 <_fstat_r>
   10e6c:	14051563          	bnez	a0,10fb6 <_fseeko_r+0x2c8>
   10e70:	47b2                	lw	a5,12(sp)
   10e72:	66bd                	lui	a3,0xf
   10e74:	6721                	lui	a4,0x8
   10e76:	8ff5                	and	a5,a5,a3
   10e78:	01041683          	lh	a3,16(s0)
   10e7c:	f2e794e3          	bne	a5,a4,10da4 <_fseeko_r+0xb6>
   10e80:	4006e693          	ori	a3,a3,1024
   10e84:	40000793          	li	a5,1024
   10e88:	08f42423          	sw	a5,136(s0)
   10e8c:	00d41823          	sh	a3,16(s0)
   10e90:	8b52                	mv	s6,s4
   10e92:	0e091363          	bnez	s2,10f78 <_fseeko_r+0x28a>
   10e96:	040b9063          	bnez	s7,10ed6 <_fseeko_r+0x1e8>
   10e9a:	01045783          	lhu	a5,16(s0)
   10e9e:	03379713          	slli	a4,a5,0x33
   10ea2:	10075163          	bgez	a4,10fa4 <_fseeko_r+0x2b6>
   10ea6:	6848                	ld	a0,144(s0)
   10ea8:	441c                	lw	a5,8(s0)
   10eaa:	6c2c                	ld	a1,88(s0)
   10eac:	86be                	mv	a3,a5
   10eae:	40f50ab3          	sub	s5,a0,a5
   10eb2:	c1ed                	beqz	a1,10f94 <_fseeko_r+0x2a6>
   10eb4:	5834                	lw	a3,112(s0)
   10eb6:	40da8ab3          	sub	s5,s5,a3
   10eba:	a015                	j	10ede <_fseeko_r+0x1f0>
   10ebc:	0047f693          	andi	a3,a5,4
   10ec0:	09043a83          	ld	s5,144(s0)
   10ec4:	6c18                	ld	a4,24(s0)
   10ec6:	fab5                	bnez	a3,10e3a <_fseeko_r+0x14c>
   10ec8:	8ba1                	andi	a5,a5,8
   10eca:	d3c1                	beqz	a5,10e4a <_fseeko_r+0x15c>
   10ecc:	601c                	ld	a5,0(s0)
   10ece:	dfb5                	beqz	a5,10e4a <_fseeko_r+0x15c>
   10ed0:	8f99                	sub	a5,a5,a4
   10ed2:	9abe                	add	s5,s5,a5
   10ed4:	bf9d                	j	10e4a <_fseeko_r+0x15c>
   10ed6:	6c2c                	ld	a1,88(s0)
   10ed8:	cdcd                	beqz	a1,10f92 <_fseeko_r+0x2a4>
   10eda:	441c                	lw	a5,8(s0)
   10edc:	5834                	lw	a3,112(s0)
   10ede:	7438                	ld	a4,104(s0)
   10ee0:	6c10                	ld	a2,24(s0)
   10ee2:	9abe                	add	s5,s5,a5
   10ee4:	40c707b3          	sub	a5,a4,a2
   10ee8:	40fa8ab3          	sub	s5,s5,a5
   10eec:	96be                	add	a3,a3,a5
   10eee:	015b4663          	blt	s6,s5,10efa <_fseeko_r+0x20c>
   10ef2:	00da87b3          	add	a5,s5,a3
   10ef6:	0cfb6363          	bltu	s6,a5,10fbc <_fseeko_r+0x2ce>
   10efa:	08842a83          	lw	s5,136(s0)
   10efe:	780c                	ld	a1,48(s0)
   10f00:	4681                	li	a3,0
   10f02:	41500abb          	negw	s5,s5
   10f06:	016afab3          	and	s5,s5,s6
   10f0a:	8656                	mv	a2,s5
   10f0c:	8526                	mv	a0,s1
   10f0e:	9982                	jalr	s3
   10f10:	57fd                	li	a5,-1
   10f12:	e8f50fe3          	beq	a0,a5,10db0 <_fseeko_r+0xc2>
   10f16:	6c1c                	ld	a5,24(s0)
   10f18:	6c2c                	ld	a1,88(s0)
   10f1a:	00042423          	sw	zero,8(s0)
   10f1e:	e01c                	sd	a5,0(s0)
   10f20:	c991                	beqz	a1,10f34 <_fseeko_r+0x246>
   10f22:	07440793          	addi	a5,s0,116
   10f26:	00f58563          	beq	a1,a5,10f30 <_fseeko_r+0x242>
   10f2a:	8526                	mv	a0,s1
   10f2c:	b65ff0ef          	jal	ra,10a90 <_free_r>
   10f30:	04043c23          	sd	zero,88(s0)
   10f34:	01045783          	lhu	a5,16(s0)
   10f38:	415b0b33          	sub	s6,s6,s5
   10f3c:	fdf7f793          	andi	a5,a5,-33
   10f40:	00f41823          	sh	a5,16(s0)
   10f44:	020b0263          	beqz	s6,10f68 <_fseeko_r+0x27a>
   10f48:	85a2                	mv	a1,s0
   10f4a:	8526                	mv	a0,s1
   10f4c:	5f6010ef          	jal	ra,12542 <__srefill_r>
   10f50:	e60510e3          	bnez	a0,10db0 <_fseeko_r+0xc2>
   10f54:	441c                	lw	a5,8(s0)
   10f56:	e567ede3          	bltu	a5,s6,10db0 <_fseeko_r+0xc2>
   10f5a:	6018                	ld	a4,0(s0)
   10f5c:	416787bb          	subw	a5,a5,s6
   10f60:	c41c                	sw	a5,8(s0)
   10f62:	9b3a                	add	s6,s6,a4
   10f64:	01643023          	sd	s6,0(s0)
   10f68:	4621                	li	a2,8
   10f6a:	4581                	li	a1,0
   10f6c:	0a440513          	addi	a0,s0,164
   10f70:	765000ef          	jal	ra,11ed4 <memset>
   10f74:	4a81                	li	s5,0
   10f76:	b3e1                	j	10d3e <_fseeko_r+0x50>
   10f78:	01241583          	lh	a1,18(s0)
   10f7c:	0030                	addi	a2,sp,8
   10f7e:	8526                	mv	a0,s1
   10f80:	098000ef          	jal	ra,11018 <_fstat_r>
   10f84:	e20516e3          	bnez	a0,10db0 <_fseeko_r+0xc2>
   10f88:	6b62                	ld	s6,24(sp)
   10f8a:	9b52                	add	s6,s6,s4
   10f8c:	f40b95e3          	bnez	s7,10ed6 <_fseeko_r+0x1e8>
   10f90:	b729                	j	10e9a <_fseeko_r+0x1ac>
   10f92:	4414                	lw	a3,8(s0)
   10f94:	601c                	ld	a5,0(s0)
   10f96:	6c10                	ld	a2,24(s0)
   10f98:	4581                	li	a1,0
   10f9a:	8f91                	sub	a5,a5,a2
   10f9c:	40fa8ab3          	sub	s5,s5,a5
   10fa0:	96be                	add	a3,a3,a5
   10fa2:	b7b1                	j	10eee <_fseeko_r+0x200>
   10fa4:	780c                	ld	a1,48(s0)
   10fa6:	4685                	li	a3,1
   10fa8:	4601                	li	a2,0
   10faa:	8526                	mv	a0,s1
   10fac:	9982                	jalr	s3
   10fae:	57fd                	li	a5,-1
   10fb0:	eef51ce3          	bne	a0,a5,10ea8 <_fseeko_r+0x1ba>
   10fb4:	bbf5                	j	10db0 <_fseeko_r+0xc2>
   10fb6:	01041683          	lh	a3,16(s0)
   10fba:	b3ed                	j	10da4 <_fseeko_r+0xb6>
   10fbc:	2b01                	sext.w	s6,s6
   10fbe:	2a81                	sext.w	s5,s5
   10fc0:	415b07bb          	subw	a5,s6,s5
   10fc4:	015686bb          	addw	a3,a3,s5
   10fc8:	963e                	add	a2,a2,a5
   10fca:	416686bb          	subw	a3,a3,s6
   10fce:	e010                	sd	a2,0(s0)
   10fd0:	c414                	sw	a3,8(s0)
   10fd2:	c991                	beqz	a1,10fe6 <_fseeko_r+0x2f8>
   10fd4:	07440793          	addi	a5,s0,116
   10fd8:	00f58563          	beq	a1,a5,10fe2 <_fseeko_r+0x2f4>
   10fdc:	8526                	mv	a0,s1
   10fde:	ab3ff0ef          	jal	ra,10a90 <_free_r>
   10fe2:	04043c23          	sd	zero,88(s0)
   10fe6:	01045783          	lhu	a5,16(s0)
   10fea:	4621                	li	a2,8
   10fec:	4581                	li	a1,0
   10fee:	fdf7f793          	andi	a5,a5,-33
   10ff2:	00f41823          	sh	a5,16(s0)
   10ff6:	0a440513          	addi	a0,s0,164
   10ffa:	6db000ef          	jal	ra,11ed4 <memset>
   10ffe:	4a81                	li	s5,0
   11000:	bb3d                	j	10d3e <_fseeko_r+0x50>
   11002:	47f5                	li	a5,29
   11004:	c09c                	sw	a5,0(s1)
   11006:	5afd                	li	s5,-1
   11008:	bb1d                	j	10d3e <_fseeko_r+0x50>

000000000001100a <fseeko>:
   1100a:	86b2                	mv	a3,a2
   1100c:	862e                	mv	a2,a1
   1100e:	85aa                	mv	a1,a0
   11010:	7581b503          	ld	a0,1880(gp) # 1f6e8 <_impure_ptr>
   11014:	cdbff06f          	j	10cee <_fseeko_r>

0000000000011018 <_fstat_r>:
   11018:	1101                	addi	sp,sp,-32
   1101a:	87ae                	mv	a5,a1
   1101c:	e822                	sd	s0,16(sp)
   1101e:	e426                	sd	s1,8(sp)
   11020:	0001f437          	lui	s0,0x1f
   11024:	84aa                	mv	s1,a0
   11026:	85b2                	mv	a1,a2
   11028:	853e                	mv	a0,a5
   1102a:	ec06                	sd	ra,24(sp)
   1102c:	78042423          	sw	zero,1928(s0) # 1f788 <errno>
   11030:	1e60a0ef          	jal	ra,1b216 <_fstat>
   11034:	57fd                	li	a5,-1
   11036:	00f50763          	beq	a0,a5,11044 <_fstat_r+0x2c>
   1103a:	60e2                	ld	ra,24(sp)
   1103c:	6442                	ld	s0,16(sp)
   1103e:	64a2                	ld	s1,8(sp)
   11040:	6105                	addi	sp,sp,32
   11042:	8082                	ret
   11044:	78842783          	lw	a5,1928(s0)
   11048:	dbed                	beqz	a5,1103a <_fstat_r+0x22>
   1104a:	60e2                	ld	ra,24(sp)
   1104c:	6442                	ld	s0,16(sp)
   1104e:	c09c                	sw	a5,0(s1)
   11050:	64a2                	ld	s1,8(sp)
   11052:	6105                	addi	sp,sp,32
   11054:	8082                	ret

0000000000011056 <__sfvwrite_r>:
   11056:	6a1c                	ld	a5,16(a2)
   11058:	1a078e63          	beqz	a5,11214 <__sfvwrite_r+0x1be>
   1105c:	0105d783          	lhu	a5,16(a1)
   11060:	711d                	addi	sp,sp,-96
   11062:	e8a2                	sd	s0,80(sp)
   11064:	f852                	sd	s4,48(sp)
   11066:	f456                	sd	s5,40(sp)
   11068:	ec86                	sd	ra,88(sp)
   1106a:	e4a6                	sd	s1,72(sp)
   1106c:	e0ca                	sd	s2,64(sp)
   1106e:	fc4e                	sd	s3,56(sp)
   11070:	f05a                	sd	s6,32(sp)
   11072:	ec5e                	sd	s7,24(sp)
   11074:	e862                	sd	s8,16(sp)
   11076:	e466                	sd	s9,8(sp)
   11078:	e06a                	sd	s10,0(sp)
   1107a:	0087f713          	andi	a4,a5,8
   1107e:	842e                	mv	s0,a1
   11080:	8aaa                	mv	s5,a0
   11082:	8a32                	mv	s4,a2
   11084:	c335                	beqz	a4,110e8 <__sfvwrite_r+0x92>
   11086:	6d98                	ld	a4,24(a1)
   11088:	c325                	beqz	a4,110e8 <__sfvwrite_r+0x92>
   1108a:	0027f713          	andi	a4,a5,2
   1108e:	000a3903          	ld	s2,0(s4)
   11092:	cb25                	beqz	a4,11102 <__sfvwrite_r+0xac>
   11094:	6038                	ld	a4,64(s0)
   11096:	781c                	ld	a5,48(s0)
   11098:	80000b37          	lui	s6,0x80000
   1109c:	4981                	li	s3,0
   1109e:	4481                	li	s1,0
   110a0:	c00b4b13          	xori	s6,s6,-1024
   110a4:	864e                	mv	a2,s3
   110a6:	85be                	mv	a1,a5
   110a8:	8556                	mv	a0,s5
   110aa:	c88d                	beqz	s1,110dc <__sfvwrite_r+0x86>
   110ac:	86a6                	mv	a3,s1
   110ae:	009b7363          	bgeu	s6,s1,110b4 <__sfvwrite_r+0x5e>
   110b2:	86da                	mv	a3,s6
   110b4:	2681                	sext.w	a3,a3
   110b6:	9702                	jalr	a4
   110b8:	14a05663          	blez	a0,11204 <__sfvwrite_r+0x1ae>
   110bc:	010a3783          	ld	a5,16(s4)
   110c0:	99aa                	add	s3,s3,a0
   110c2:	8c89                	sub	s1,s1,a0
   110c4:	40a78533          	sub	a0,a5,a0
   110c8:	00aa3823          	sd	a0,16(s4)
   110cc:	10050863          	beqz	a0,111dc <__sfvwrite_r+0x186>
   110d0:	781c                	ld	a5,48(s0)
   110d2:	6038                	ld	a4,64(s0)
   110d4:	864e                	mv	a2,s3
   110d6:	85be                	mv	a1,a5
   110d8:	8556                	mv	a0,s5
   110da:	f8e9                	bnez	s1,110ac <__sfvwrite_r+0x56>
   110dc:	00093983          	ld	s3,0(s2)
   110e0:	00893483          	ld	s1,8(s2)
   110e4:	0941                	addi	s2,s2,16
   110e6:	bf7d                	j	110a4 <__sfvwrite_r+0x4e>
   110e8:	85a2                	mv	a1,s0
   110ea:	8556                	mv	a0,s5
   110ec:	416030ef          	jal	ra,14502 <__swsetup_r>
   110f0:	28051763          	bnez	a0,1137e <__sfvwrite_r+0x328>
   110f4:	01045783          	lhu	a5,16(s0)
   110f8:	000a3903          	ld	s2,0(s4)
   110fc:	0027f713          	andi	a4,a5,2
   11100:	fb51                	bnez	a4,11094 <__sfvwrite_r+0x3e>
   11102:	0017f713          	andi	a4,a5,1
   11106:	eb35                	bnez	a4,1117a <__sfvwrite_r+0x124>
   11108:	4444                	lw	s1,12(s0)
   1110a:	6008                	ld	a0,0(s0)
   1110c:	80000b37          	lui	s6,0x80000
   11110:	ffeb4b93          	xori	s7,s6,-2
   11114:	4c01                	li	s8,0
   11116:	4981                	li	s3,0
   11118:	fffb4b13          	not	s6,s6
   1111c:	8ca6                	mv	s9,s1
   1111e:	04098863          	beqz	s3,1116e <__sfvwrite_r+0x118>
   11122:	2007f713          	andi	a4,a5,512
   11126:	12070963          	beqz	a4,11258 <__sfvwrite_r+0x202>
   1112a:	8d26                	mv	s10,s1
   1112c:	1899f663          	bgeu	s3,s1,112b8 <__sfvwrite_r+0x262>
   11130:	8cce                	mv	s9,s3
   11132:	8d4e                	mv	s10,s3
   11134:	866a                	mv	a2,s10
   11136:	85e2                	mv	a1,s8
   11138:	4c7000ef          	jal	ra,11dfe <memmove>
   1113c:	445c                	lw	a5,12(s0)
   1113e:	6010                	ld	a2,0(s0)
   11140:	84ce                	mv	s1,s3
   11142:	41978cbb          	subw	s9,a5,s9
   11146:	966a                	add	a2,a2,s10
   11148:	01942623          	sw	s9,12(s0)
   1114c:	e010                	sd	a2,0(s0)
   1114e:	4981                	li	s3,0
   11150:	010a3783          	ld	a5,16(s4)
   11154:	9c26                	add	s8,s8,s1
   11156:	409784b3          	sub	s1,a5,s1
   1115a:	009a3823          	sd	s1,16(s4)
   1115e:	ccbd                	beqz	s1,111dc <__sfvwrite_r+0x186>
   11160:	4444                	lw	s1,12(s0)
   11162:	6008                	ld	a0,0(s0)
   11164:	01045783          	lhu	a5,16(s0)
   11168:	8ca6                	mv	s9,s1
   1116a:	fa099ce3          	bnez	s3,11122 <__sfvwrite_r+0xcc>
   1116e:	00093c03          	ld	s8,0(s2)
   11172:	00893983          	ld	s3,8(s2)
   11176:	0941                	addi	s2,s2,16
   11178:	b755                	j	1111c <__sfvwrite_r+0xc6>
   1117a:	4981                	li	s3,0
   1117c:	4501                	li	a0,0
   1117e:	4c81                	li	s9,0
   11180:	4481                	li	s1,0
   11182:	c8d9                	beqz	s1,11218 <__sfvwrite_r+0x1c2>
   11184:	c145                	beqz	a0,11224 <__sfvwrite_r+0x1ce>
   11186:	8c4e                	mv	s8,s3
   11188:	0134f363          	bgeu	s1,s3,1118e <__sfvwrite_r+0x138>
   1118c:	8c26                	mv	s8,s1
   1118e:	6008                	ld	a0,0(s0)
   11190:	6c1c                	ld	a5,24(s0)
   11192:	8b62                	mv	s6,s8
   11194:	5014                	lw	a3,32(s0)
   11196:	00a7f763          	bgeu	a5,a0,111a4 <__sfvwrite_r+0x14e>
   1119a:	4450                	lw	a2,12(s0)
   1119c:	00d60bbb          	addw	s7,a2,a3
   111a0:	098bcd63          	blt	s7,s8,1123a <__sfvwrite_r+0x1e4>
   111a4:	18dc4463          	blt	s8,a3,1132c <__sfvwrite_r+0x2d6>
   111a8:	603c                	ld	a5,64(s0)
   111aa:	780c                	ld	a1,48(s0)
   111ac:	8666                	mv	a2,s9
   111ae:	8556                	mv	a0,s5
   111b0:	9782                	jalr	a5
   111b2:	8b2a                	mv	s6,a0
   111b4:	04a05863          	blez	a0,11204 <__sfvwrite_r+0x1ae>
   111b8:	0005061b          	sext.w	a2,a0
   111bc:	40c989bb          	subw	s3,s3,a2
   111c0:	4505                	li	a0,1
   111c2:	02098c63          	beqz	s3,111fa <__sfvwrite_r+0x1a4>
   111c6:	010a3783          	ld	a5,16(s4)
   111ca:	9cda                	add	s9,s9,s6
   111cc:	416484b3          	sub	s1,s1,s6
   111d0:	41678b33          	sub	s6,a5,s6
   111d4:	016a3823          	sd	s6,16(s4)
   111d8:	fa0b15e3          	bnez	s6,11182 <__sfvwrite_r+0x12c>
   111dc:	4501                	li	a0,0
   111de:	60e6                	ld	ra,88(sp)
   111e0:	6446                	ld	s0,80(sp)
   111e2:	64a6                	ld	s1,72(sp)
   111e4:	6906                	ld	s2,64(sp)
   111e6:	79e2                	ld	s3,56(sp)
   111e8:	7a42                	ld	s4,48(sp)
   111ea:	7aa2                	ld	s5,40(sp)
   111ec:	7b02                	ld	s6,32(sp)
   111ee:	6be2                	ld	s7,24(sp)
   111f0:	6c42                	ld	s8,16(sp)
   111f2:	6ca2                	ld	s9,8(sp)
   111f4:	6d02                	ld	s10,0(sp)
   111f6:	6125                	addi	sp,sp,96
   111f8:	8082                	ret
   111fa:	85a2                	mv	a1,s0
   111fc:	8556                	mv	a0,s5
   111fe:	aaaff0ef          	jal	ra,104a8 <_fflush_r>
   11202:	d171                	beqz	a0,111c6 <__sfvwrite_r+0x170>
   11204:	01041783          	lh	a5,16(s0)
   11208:	0407e793          	ori	a5,a5,64
   1120c:	00f41823          	sh	a5,16(s0)
   11210:	557d                	li	a0,-1
   11212:	b7f1                	j	111de <__sfvwrite_r+0x188>
   11214:	4501                	li	a0,0
   11216:	8082                	ret
   11218:	00893483          	ld	s1,8(s2)
   1121c:	00093c83          	ld	s9,0(s2)
   11220:	0941                	addi	s2,s2,16
   11222:	d8fd                	beqz	s1,11218 <__sfvwrite_r+0x1c2>
   11224:	8626                	mv	a2,s1
   11226:	45a9                	li	a1,10
   11228:	8566                	mv	a0,s9
   1122a:	249000ef          	jal	ra,11c72 <memchr>
   1122e:	12050f63          	beqz	a0,1136c <__sfvwrite_r+0x316>
   11232:	0505                	addi	a0,a0,1
   11234:	419509bb          	subw	s3,a0,s9
   11238:	b7b9                	j	11186 <__sfvwrite_r+0x130>
   1123a:	85e6                	mv	a1,s9
   1123c:	865e                	mv	a2,s7
   1123e:	3c1000ef          	jal	ra,11dfe <memmove>
   11242:	601c                	ld	a5,0(s0)
   11244:	85a2                	mv	a1,s0
   11246:	8556                	mv	a0,s5
   11248:	97de                	add	a5,a5,s7
   1124a:	e01c                	sd	a5,0(s0)
   1124c:	a5cff0ef          	jal	ra,104a8 <_fflush_r>
   11250:	f955                	bnez	a0,11204 <__sfvwrite_r+0x1ae>
   11252:	865e                	mv	a2,s7
   11254:	8b5e                	mv	s6,s7
   11256:	b79d                	j	111bc <__sfvwrite_r+0x166>
   11258:	6c1c                	ld	a5,24(s0)
   1125a:	02a7e863          	bltu	a5,a0,1128a <__sfvwrite_r+0x234>
   1125e:	501c                	lw	a5,32(s0)
   11260:	02f9e563          	bltu	s3,a5,1128a <__sfvwrite_r+0x234>
   11264:	86ce                	mv	a3,s3
   11266:	013bf363          	bgeu	s7,s3,1126c <__sfvwrite_r+0x216>
   1126a:	86da                	mv	a3,s6
   1126c:	02f6c6bb          	divw	a3,a3,a5
   11270:	6038                	ld	a4,64(s0)
   11272:	780c                	ld	a1,48(s0)
   11274:	8662                	mv	a2,s8
   11276:	8556                	mv	a0,s5
   11278:	02f686bb          	mulw	a3,a3,a5
   1127c:	9702                	jalr	a4
   1127e:	f8a053e3          	blez	a0,11204 <__sfvwrite_r+0x1ae>
   11282:	84aa                	mv	s1,a0
   11284:	409989b3          	sub	s3,s3,s1
   11288:	b5e1                	j	11150 <__sfvwrite_r+0xfa>
   1128a:	0099f363          	bgeu	s3,s1,11290 <__sfvwrite_r+0x23a>
   1128e:	84ce                	mv	s1,s3
   11290:	8626                	mv	a2,s1
   11292:	85e2                	mv	a1,s8
   11294:	36b000ef          	jal	ra,11dfe <memmove>
   11298:	445c                	lw	a5,12(s0)
   1129a:	6018                	ld	a4,0(s0)
   1129c:	409786bb          	subw	a3,a5,s1
   112a0:	9726                	add	a4,a4,s1
   112a2:	c454                	sw	a3,12(s0)
   112a4:	e018                	sd	a4,0(s0)
   112a6:	fef9                	bnez	a3,11284 <__sfvwrite_r+0x22e>
   112a8:	85a2                	mv	a1,s0
   112aa:	8556                	mv	a0,s5
   112ac:	9fcff0ef          	jal	ra,104a8 <_fflush_r>
   112b0:	f931                	bnez	a0,11204 <__sfvwrite_r+0x1ae>
   112b2:	409989b3          	sub	s3,s3,s1
   112b6:	bd69                	j	11150 <__sfvwrite_r+0xfa>
   112b8:	4807f713          	andi	a4,a5,1152
   112bc:	e6070ce3          	beqz	a4,11134 <__sfvwrite_r+0xde>
   112c0:	5014                	lw	a3,32(s0)
   112c2:	6c0c                	ld	a1,24(s0)
   112c4:	00198713          	addi	a4,s3,1
   112c8:	0016949b          	slliw	s1,a3,0x1
   112cc:	9ea5                	addw	a3,a3,s1
   112ce:	8d0d                	sub	a0,a0,a1
   112d0:	01f6d49b          	srliw	s1,a3,0x1f
   112d4:	00050c9b          	sext.w	s9,a0
   112d8:	9cb5                	addw	s1,s1,a3
   112da:	4014d49b          	sraiw	s1,s1,0x1
   112de:	9766                	add	a4,a4,s9
   112e0:	00e4f563          	bgeu	s1,a4,112ea <__sfvwrite_r+0x294>
   112e4:	0019849b          	addiw	s1,s3,1
   112e8:	9ca9                	addw	s1,s1,a0
   112ea:	4007f793          	andi	a5,a5,1024
   112ee:	cfa9                	beqz	a5,11348 <__sfvwrite_r+0x2f2>
   112f0:	85a6                	mv	a1,s1
   112f2:	8556                	mv	a0,s5
   112f4:	356000ef          	jal	ra,1164a <_malloc_r>
   112f8:	8d2a                	mv	s10,a0
   112fa:	cd25                	beqz	a0,11372 <__sfvwrite_r+0x31c>
   112fc:	6c0c                	ld	a1,24(s0)
   112fe:	8666                	mv	a2,s9
   11300:	21d000ef          	jal	ra,11d1c <memcpy>
   11304:	01045783          	lhu	a5,16(s0)
   11308:	b7f7f793          	andi	a5,a5,-1153
   1130c:	0807e793          	ori	a5,a5,128
   11310:	00f41823          	sh	a5,16(s0)
   11314:	019d0533          	add	a0,s10,s9
   11318:	419487bb          	subw	a5,s1,s9
   1131c:	01a43c23          	sd	s10,24(s0)
   11320:	e008                	sd	a0,0(s0)
   11322:	d004                	sw	s1,32(s0)
   11324:	8cce                	mv	s9,s3
   11326:	c45c                	sw	a5,12(s0)
   11328:	8d4e                	mv	s10,s3
   1132a:	b529                	j	11134 <__sfvwrite_r+0xde>
   1132c:	8662                	mv	a2,s8
   1132e:	85e6                	mv	a1,s9
   11330:	2cf000ef          	jal	ra,11dfe <memmove>
   11334:	4458                	lw	a4,12(s0)
   11336:	601c                	ld	a5,0(s0)
   11338:	000c061b          	sext.w	a2,s8
   1133c:	9f11                	subw	a4,a4,a2
   1133e:	9c3e                	add	s8,s8,a5
   11340:	c458                	sw	a4,12(s0)
   11342:	01843023          	sd	s8,0(s0)
   11346:	bd9d                	j	111bc <__sfvwrite_r+0x166>
   11348:	8626                	mv	a2,s1
   1134a:	8556                	mv	a0,s5
   1134c:	4c9000ef          	jal	ra,12014 <_realloc_r>
   11350:	8d2a                	mv	s10,a0
   11352:	f169                	bnez	a0,11314 <__sfvwrite_r+0x2be>
   11354:	6c0c                	ld	a1,24(s0)
   11356:	8556                	mv	a0,s5
   11358:	f38ff0ef          	jal	ra,10a90 <_free_r>
   1135c:	01041783          	lh	a5,16(s0)
   11360:	4731                	li	a4,12
   11362:	00eaa023          	sw	a4,0(s5)
   11366:	f7f7f793          	andi	a5,a5,-129
   1136a:	bd79                	j	11208 <__sfvwrite_r+0x1b2>
   1136c:	0014899b          	addiw	s3,s1,1
   11370:	bd19                	j	11186 <__sfvwrite_r+0x130>
   11372:	47b1                	li	a5,12
   11374:	00faa023          	sw	a5,0(s5)
   11378:	01041783          	lh	a5,16(s0)
   1137c:	b571                	j	11208 <__sfvwrite_r+0x1b2>
   1137e:	557d                	li	a0,-1
   11380:	bdb9                	j	111de <__sfvwrite_r+0x188>

0000000000011382 <_fwalk>:
   11382:	715d                	addi	sp,sp,-80
   11384:	f84a                	sd	s2,48(sp)
   11386:	e486                	sd	ra,72(sp)
   11388:	e0a2                	sd	s0,64(sp)
   1138a:	fc26                	sd	s1,56(sp)
   1138c:	f44e                	sd	s3,40(sp)
   1138e:	f052                	sd	s4,32(sp)
   11390:	ec56                	sd	s5,24(sp)
   11392:	e85a                	sd	s6,16(sp)
   11394:	e45e                	sd	s7,8(sp)
   11396:	52050913          	addi	s2,a0,1312
   1139a:	06090763          	beqz	s2,11408 <_fwalk+0x86>
   1139e:	8a2e                	mv	s4,a1
   113a0:	4b01                	li	s6,0
   113a2:	0b000a93          	li	s5,176
   113a6:	4b85                	li	s7,1
   113a8:	59fd                	li	s3,-1
   113aa:	00892783          	lw	a5,8(s2)
   113ae:	01093403          	ld	s0,16(s2)
   113b2:	02f05b63          	blez	a5,113e8 <_fwalk+0x66>
   113b6:	fff7849b          	addiw	s1,a5,-1
   113ba:	1482                	slli	s1,s1,0x20
   113bc:	9081                	srli	s1,s1,0x20
   113be:	0485                	addi	s1,s1,1
   113c0:	035484b3          	mul	s1,s1,s5
   113c4:	94a2                	add	s1,s1,s0
   113c6:	01045783          	lhu	a5,16(s0)
   113ca:	00fbfb63          	bgeu	s7,a5,113e0 <_fwalk+0x5e>
   113ce:	01241783          	lh	a5,18(s0)
   113d2:	8522                	mv	a0,s0
   113d4:	01378663          	beq	a5,s3,113e0 <_fwalk+0x5e>
   113d8:	9a02                	jalr	s4
   113da:	01656b33          	or	s6,a0,s6
   113de:	2b01                	sext.w	s6,s6
   113e0:	0b040413          	addi	s0,s0,176
   113e4:	fe9411e3          	bne	s0,s1,113c6 <_fwalk+0x44>
   113e8:	00093903          	ld	s2,0(s2)
   113ec:	fa091fe3          	bnez	s2,113aa <_fwalk+0x28>
   113f0:	60a6                	ld	ra,72(sp)
   113f2:	6406                	ld	s0,64(sp)
   113f4:	855a                	mv	a0,s6
   113f6:	74e2                	ld	s1,56(sp)
   113f8:	7942                	ld	s2,48(sp)
   113fa:	79a2                	ld	s3,40(sp)
   113fc:	7a02                	ld	s4,32(sp)
   113fe:	6ae2                	ld	s5,24(sp)
   11400:	6b42                	ld	s6,16(sp)
   11402:	6ba2                	ld	s7,8(sp)
   11404:	6161                	addi	sp,sp,80
   11406:	8082                	ret
   11408:	4b01                	li	s6,0
   1140a:	b7dd                	j	113f0 <_fwalk+0x6e>

000000000001140c <_fwalk_reent>:
   1140c:	715d                	addi	sp,sp,-80
   1140e:	f84a                	sd	s2,48(sp)
   11410:	e486                	sd	ra,72(sp)
   11412:	e0a2                	sd	s0,64(sp)
   11414:	fc26                	sd	s1,56(sp)
   11416:	f44e                	sd	s3,40(sp)
   11418:	f052                	sd	s4,32(sp)
   1141a:	ec56                	sd	s5,24(sp)
   1141c:	e85a                	sd	s6,16(sp)
   1141e:	e45e                	sd	s7,8(sp)
   11420:	e062                	sd	s8,0(sp)
   11422:	52050913          	addi	s2,a0,1312
   11426:	06090a63          	beqz	s2,1149a <_fwalk_reent+0x8e>
   1142a:	8aae                	mv	s5,a1
   1142c:	89aa                	mv	s3,a0
   1142e:	4b81                	li	s7,0
   11430:	0b000b13          	li	s6,176
   11434:	4c05                	li	s8,1
   11436:	5a7d                	li	s4,-1
   11438:	00892783          	lw	a5,8(s2)
   1143c:	01093403          	ld	s0,16(s2)
   11440:	02f05c63          	blez	a5,11478 <_fwalk_reent+0x6c>
   11444:	fff7849b          	addiw	s1,a5,-1
   11448:	1482                	slli	s1,s1,0x20
   1144a:	9081                	srli	s1,s1,0x20
   1144c:	0485                	addi	s1,s1,1
   1144e:	036484b3          	mul	s1,s1,s6
   11452:	94a2                	add	s1,s1,s0
   11454:	01045783          	lhu	a5,16(s0)
   11458:	00fc7c63          	bgeu	s8,a5,11470 <_fwalk_reent+0x64>
   1145c:	01241783          	lh	a5,18(s0)
   11460:	85a2                	mv	a1,s0
   11462:	854e                	mv	a0,s3
   11464:	01478663          	beq	a5,s4,11470 <_fwalk_reent+0x64>
   11468:	9a82                	jalr	s5
   1146a:	01756bb3          	or	s7,a0,s7
   1146e:	2b81                	sext.w	s7,s7
   11470:	0b040413          	addi	s0,s0,176
   11474:	fe9410e3          	bne	s0,s1,11454 <_fwalk_reent+0x48>
   11478:	00093903          	ld	s2,0(s2)
   1147c:	fa091ee3          	bnez	s2,11438 <_fwalk_reent+0x2c>
   11480:	60a6                	ld	ra,72(sp)
   11482:	6406                	ld	s0,64(sp)
   11484:	855e                	mv	a0,s7
   11486:	74e2                	ld	s1,56(sp)
   11488:	7942                	ld	s2,48(sp)
   1148a:	79a2                	ld	s3,40(sp)
   1148c:	7a02                	ld	s4,32(sp)
   1148e:	6ae2                	ld	s5,24(sp)
   11490:	6b42                	ld	s6,16(sp)
   11492:	6ba2                	ld	s7,8(sp)
   11494:	6c02                	ld	s8,0(sp)
   11496:	6161                	addi	sp,sp,80
   11498:	8082                	ret
   1149a:	4b81                	li	s7,0
   1149c:	b7d5                	j	11480 <_fwalk_reent+0x74>

000000000001149e <__libc_init_array>:
   1149e:	1101                	addi	sp,sp,-32
   114a0:	e822                	sd	s0,16(sp)
   114a2:	e04a                	sd	s2,0(sp)
   114a4:	6479                	lui	s0,0x1e
   114a6:	6979                	lui	s2,0x1e
   114a8:	58c40793          	addi	a5,s0,1420 # 1e58c <__preinit_array_end>
   114ac:	58c90913          	addi	s2,s2,1420 # 1e58c <__preinit_array_end>
   114b0:	40f90933          	sub	s2,s2,a5
   114b4:	ec06                	sd	ra,24(sp)
   114b6:	e426                	sd	s1,8(sp)
   114b8:	40395913          	srai	s2,s2,0x3
   114bc:	00090b63          	beqz	s2,114d2 <__libc_init_array+0x34>
   114c0:	58c40413          	addi	s0,s0,1420
   114c4:	4481                	li	s1,0
   114c6:	601c                	ld	a5,0(s0)
   114c8:	0485                	addi	s1,s1,1
   114ca:	0421                	addi	s0,s0,8
   114cc:	9782                	jalr	a5
   114ce:	fe991ce3          	bne	s2,s1,114c6 <__libc_init_array+0x28>
   114d2:	c31fe0ef          	jal	ra,10102 <_fini>
   114d6:	6479                	lui	s0,0x1e
   114d8:	6979                	lui	s2,0x1e
   114da:	59040793          	addi	a5,s0,1424 # 1e590 <__init_array_start>
   114de:	5a090913          	addi	s2,s2,1440 # 1e5a0 <__init_array_end>
   114e2:	40f90933          	sub	s2,s2,a5
   114e6:	40395913          	srai	s2,s2,0x3
   114ea:	00090b63          	beqz	s2,11500 <__libc_init_array+0x62>
   114ee:	59040413          	addi	s0,s0,1424
   114f2:	4481                	li	s1,0
   114f4:	601c                	ld	a5,0(s0)
   114f6:	0485                	addi	s1,s1,1
   114f8:	0421                	addi	s0,s0,8
   114fa:	9782                	jalr	a5
   114fc:	fe991ce3          	bne	s2,s1,114f4 <__libc_init_array+0x56>
   11500:	60e2                	ld	ra,24(sp)
   11502:	6442                	ld	s0,16(sp)
   11504:	64a2                	ld	s1,8(sp)
   11506:	6902                	ld	s2,0(sp)
   11508:	6105                	addi	sp,sp,32
   1150a:	8082                	ret

000000000001150c <__swhatbuf_r>:
   1150c:	7175                	addi	sp,sp,-144
   1150e:	e122                	sd	s0,128(sp)
   11510:	842e                	mv	s0,a1
   11512:	01259583          	lh	a1,18(a1)
   11516:	fca6                	sd	s1,120(sp)
   11518:	f8ca                	sd	s2,112(sp)
   1151a:	e506                	sd	ra,136(sp)
   1151c:	84b2                	mv	s1,a2
   1151e:	8936                	mv	s2,a3
   11520:	0205cc63          	bltz	a1,11558 <__swhatbuf_r+0x4c>
   11524:	0030                	addi	a2,sp,8
   11526:	af3ff0ef          	jal	ra,11018 <_fstat_r>
   1152a:	02054763          	bltz	a0,11558 <__swhatbuf_r+0x4c>
   1152e:	47b2                	lw	a5,12(sp)
   11530:	673d                	lui	a4,0xf
   11532:	60aa                	ld	ra,136(sp)
   11534:	8ff9                	and	a5,a5,a4
   11536:	6709                	lui	a4,0x2
   11538:	8f99                	sub	a5,a5,a4
   1153a:	0017b793          	seqz	a5,a5
   1153e:	640a                	ld	s0,128(sp)
   11540:	00f92023          	sw	a5,0(s2)
   11544:	40000793          	li	a5,1024
   11548:	e09c                	sd	a5,0(s1)
   1154a:	6505                	lui	a0,0x1
   1154c:	74e6                	ld	s1,120(sp)
   1154e:	7946                	ld	s2,112(sp)
   11550:	80050513          	addi	a0,a0,-2048 # 800 <register_fini-0xf8b0>
   11554:	6149                	addi	sp,sp,144
   11556:	8082                	ret
   11558:	01045783          	lhu	a5,16(s0)
   1155c:	00092023          	sw	zero,0(s2)
   11560:	0807f793          	andi	a5,a5,128
   11564:	cb99                	beqz	a5,1157a <__swhatbuf_r+0x6e>
   11566:	60aa                	ld	ra,136(sp)
   11568:	640a                	ld	s0,128(sp)
   1156a:	04000793          	li	a5,64
   1156e:	e09c                	sd	a5,0(s1)
   11570:	7946                	ld	s2,112(sp)
   11572:	74e6                	ld	s1,120(sp)
   11574:	4501                	li	a0,0
   11576:	6149                	addi	sp,sp,144
   11578:	8082                	ret
   1157a:	60aa                	ld	ra,136(sp)
   1157c:	640a                	ld	s0,128(sp)
   1157e:	40000793          	li	a5,1024
   11582:	e09c                	sd	a5,0(s1)
   11584:	7946                	ld	s2,112(sp)
   11586:	74e6                	ld	s1,120(sp)
   11588:	4501                	li	a0,0
   1158a:	6149                	addi	sp,sp,144
   1158c:	8082                	ret

000000000001158e <__smakebuf_r>:
   1158e:	0105d703          	lhu	a4,16(a1)
   11592:	7179                	addi	sp,sp,-48
   11594:	f022                	sd	s0,32(sp)
   11596:	f406                	sd	ra,40(sp)
   11598:	ec26                	sd	s1,24(sp)
   1159a:	e84a                	sd	s2,16(sp)
   1159c:	8b09                	andi	a4,a4,2
   1159e:	842e                	mv	s0,a1
   115a0:	cf09                	beqz	a4,115ba <__smakebuf_r+0x2c>
   115a2:	07758713          	addi	a4,a1,119
   115a6:	e198                	sd	a4,0(a1)
   115a8:	ed98                	sd	a4,24(a1)
   115aa:	4705                	li	a4,1
   115ac:	d198                	sw	a4,32(a1)
   115ae:	70a2                	ld	ra,40(sp)
   115b0:	7402                	ld	s0,32(sp)
   115b2:	64e2                	ld	s1,24(sp)
   115b4:	6942                	ld	s2,16(sp)
   115b6:	6145                	addi	sp,sp,48
   115b8:	8082                	ret
   115ba:	0054                	addi	a3,sp,4
   115bc:	0030                	addi	a2,sp,8
   115be:	84aa                	mv	s1,a0
   115c0:	f4dff0ef          	jal	ra,1150c <__swhatbuf_r>
   115c4:	65a2                	ld	a1,8(sp)
   115c6:	892a                	mv	s2,a0
   115c8:	8526                	mv	a0,s1
   115ca:	080000ef          	jal	ra,1164a <_malloc_r>
   115ce:	01041783          	lh	a5,16(s0)
   115d2:	c915                	beqz	a0,11606 <__smakebuf_r+0x78>
   115d4:	00010737          	lui	a4,0x10
   115d8:	5d870713          	addi	a4,a4,1496 # 105d8 <_cleanup_r>
   115dc:	ecb8                	sd	a4,88(s1)
   115de:	6722                	ld	a4,8(sp)
   115e0:	4692                	lw	a3,4(sp)
   115e2:	0807e793          	ori	a5,a5,128
   115e6:	00f41823          	sh	a5,16(s0)
   115ea:	e008                	sd	a0,0(s0)
   115ec:	ec08                	sd	a0,24(s0)
   115ee:	d018                	sw	a4,32(s0)
   115f0:	ea95                	bnez	a3,11624 <__smakebuf_r+0x96>
   115f2:	0127e7b3          	or	a5,a5,s2
   115f6:	00f41823          	sh	a5,16(s0)
   115fa:	70a2                	ld	ra,40(sp)
   115fc:	7402                	ld	s0,32(sp)
   115fe:	64e2                	ld	s1,24(sp)
   11600:	6942                	ld	s2,16(sp)
   11602:	6145                	addi	sp,sp,48
   11604:	8082                	ret
   11606:	2007f713          	andi	a4,a5,512
   1160a:	f355                	bnez	a4,115ae <__smakebuf_r+0x20>
   1160c:	9bf1                	andi	a5,a5,-4
   1160e:	0027e793          	ori	a5,a5,2
   11612:	07740713          	addi	a4,s0,119
   11616:	00f41823          	sh	a5,16(s0)
   1161a:	4785                	li	a5,1
   1161c:	e018                	sd	a4,0(s0)
   1161e:	ec18                	sd	a4,24(s0)
   11620:	d01c                	sw	a5,32(s0)
   11622:	b771                	j	115ae <__smakebuf_r+0x20>
   11624:	01241583          	lh	a1,18(s0)
   11628:	8526                	mv	a0,s1
   1162a:	1b8030ef          	jal	ra,147e2 <_isatty_r>
   1162e:	e501                	bnez	a0,11636 <__smakebuf_r+0xa8>
   11630:	01041783          	lh	a5,16(s0)
   11634:	bf7d                	j	115f2 <__smakebuf_r+0x64>
   11636:	01045783          	lhu	a5,16(s0)
   1163a:	9bf1                	andi	a5,a5,-4
   1163c:	0017e793          	ori	a5,a5,1
   11640:	0107979b          	slliw	a5,a5,0x10
   11644:	4107d79b          	sraiw	a5,a5,0x10
   11648:	b76d                	j	115f2 <__smakebuf_r+0x64>

000000000001164a <_malloc_r>:
   1164a:	711d                	addi	sp,sp,-96
   1164c:	e4a6                	sd	s1,72(sp)
   1164e:	e0ca                	sd	s2,64(sp)
   11650:	ec86                	sd	ra,88(sp)
   11652:	e8a2                	sd	s0,80(sp)
   11654:	fc4e                	sd	s3,56(sp)
   11656:	f852                	sd	s4,48(sp)
   11658:	f456                	sd	s5,40(sp)
   1165a:	f05a                	sd	s6,32(sp)
   1165c:	ec5e                	sd	s7,24(sp)
   1165e:	e862                	sd	s8,16(sp)
   11660:	e466                	sd	s9,8(sp)
   11662:	01758493          	addi	s1,a1,23
   11666:	02e00793          	li	a5,46
   1166a:	892a                	mv	s2,a0
   1166c:	0697e863          	bltu	a5,s1,116dc <_malloc_r+0x92>
   11670:	02000793          	li	a5,32
   11674:	04b7e363          	bltu	a5,a1,116ba <_malloc_r+0x70>
   11678:	107000ef          	jal	ra,11f7e <__malloc_lock>
   1167c:	02000493          	li	s1,32
   11680:	05000793          	li	a5,80
   11684:	4611                	li	a2,4
   11686:	69fd                	lui	s3,0x1f
   11688:	cf098993          	addi	s3,s3,-784 # 1ecf0 <__malloc_av_>
   1168c:	97ce                	add	a5,a5,s3
   1168e:	6780                	ld	s0,8(a5)
   11690:	ff078713          	addi	a4,a5,-16
   11694:	1ee40a63          	beq	s0,a4,11888 <_malloc_r+0x23e>
   11698:	641c                	ld	a5,8(s0)
   1169a:	6c14                	ld	a3,24(s0)
   1169c:	6810                	ld	a2,16(s0)
   1169e:	9bf1                	andi	a5,a5,-4
   116a0:	97a2                	add	a5,a5,s0
   116a2:	6798                	ld	a4,8(a5)
   116a4:	ee14                	sd	a3,24(a2)
   116a6:	ea90                	sd	a2,16(a3)
   116a8:	00176713          	ori	a4,a4,1
   116ac:	854a                	mv	a0,s2
   116ae:	e798                	sd	a4,8(a5)
   116b0:	0d1000ef          	jal	ra,11f80 <__malloc_unlock>
   116b4:	01040513          	addi	a0,s0,16
   116b8:	a029                	j	116c2 <_malloc_r+0x78>
   116ba:	47b1                	li	a5,12
   116bc:	00f92023          	sw	a5,0(s2)
   116c0:	4501                	li	a0,0
   116c2:	60e6                	ld	ra,88(sp)
   116c4:	6446                	ld	s0,80(sp)
   116c6:	64a6                	ld	s1,72(sp)
   116c8:	6906                	ld	s2,64(sp)
   116ca:	79e2                	ld	s3,56(sp)
   116cc:	7a42                	ld	s4,48(sp)
   116ce:	7aa2                	ld	s5,40(sp)
   116d0:	7b02                	ld	s6,32(sp)
   116d2:	6be2                	ld	s7,24(sp)
   116d4:	6c42                	ld	s8,16(sp)
   116d6:	6ca2                	ld	s9,8(sp)
   116d8:	6125                	addi	sp,sp,96
   116da:	8082                	ret
   116dc:	800007b7          	lui	a5,0x80000
   116e0:	98c1                	andi	s1,s1,-16
   116e2:	fff7c793          	not	a5,a5
   116e6:	fc97eae3          	bltu	a5,s1,116ba <_malloc_r+0x70>
   116ea:	fcb4e8e3          	bltu	s1,a1,116ba <_malloc_r+0x70>
   116ee:	091000ef          	jal	ra,11f7e <__malloc_lock>
   116f2:	1f700793          	li	a5,503
   116f6:	3697fa63          	bgeu	a5,s1,11a6a <_malloc_r+0x420>
   116fa:	0094d793          	srli	a5,s1,0x9
   116fe:	28078263          	beqz	a5,11982 <_malloc_r+0x338>
   11702:	4711                	li	a4,4
   11704:	30f76763          	bltu	a4,a5,11a12 <_malloc_r+0x3c8>
   11708:	0064d513          	srli	a0,s1,0x6
   1170c:	2501                	sext.w	a0,a0
   1170e:	0395061b          	addiw	a2,a0,57
   11712:	0016169b          	slliw	a3,a2,0x1
   11716:	0385051b          	addiw	a0,a0,56
   1171a:	068e                	slli	a3,a3,0x3
   1171c:	69fd                	lui	s3,0x1f
   1171e:	cf098993          	addi	s3,s3,-784 # 1ecf0 <__malloc_av_>
   11722:	96ce                	add	a3,a3,s3
   11724:	6680                	ld	s0,8(a3)
   11726:	16c1                	addi	a3,a3,-16
   11728:	16868463          	beq	a3,s0,11890 <_malloc_r+0x246>
   1172c:	641c                	ld	a5,8(s0)
   1172e:	45fd                	li	a1,31
   11730:	9bf1                	andi	a5,a5,-4
   11732:	40978733          	sub	a4,a5,s1
   11736:	00e5cd63          	blt	a1,a4,11750 <_malloc_r+0x106>
   1173a:	28075563          	bgez	a4,119c4 <_malloc_r+0x37a>
   1173e:	6c00                	ld	s0,24(s0)
   11740:	14868863          	beq	a3,s0,11890 <_malloc_r+0x246>
   11744:	641c                	ld	a5,8(s0)
   11746:	9bf1                	andi	a5,a5,-4
   11748:	40978733          	sub	a4,a5,s1
   1174c:	fee5d7e3          	bge	a1,a4,1173a <_malloc_r+0xf0>
   11750:	0209b403          	ld	s0,32(s3)
   11754:	862a                	mv	a2,a0
   11756:	657d                	lui	a0,0x1f
   11758:	d0050513          	addi	a0,a0,-768 # 1ed00 <__malloc_av_+0x10>
   1175c:	14a41163          	bne	s0,a0,1189e <_malloc_r+0x254>
   11760:	0089b783          	ld	a5,8(s3)
   11764:	4026571b          	sraiw	a4,a2,0x2
   11768:	4685                	li	a3,1
   1176a:	00e696b3          	sll	a3,a3,a4
   1176e:	18d7fa63          	bgeu	a5,a3,11902 <_malloc_r+0x2b8>
   11772:	0109b403          	ld	s0,16(s3)
   11776:	00843a03          	ld	s4,8(s0)
   1177a:	ffca7a93          	andi	s5,s4,-4
   1177e:	009ae763          	bltu	s5,s1,1178c <_malloc_r+0x142>
   11782:	409a87b3          	sub	a5,s5,s1
   11786:	477d                	li	a4,31
   11788:	20f74f63          	blt	a4,a5,119a6 <_malloc_r+0x35c>
   1178c:	7801ba03          	ld	s4,1920(gp) # 1f710 <__malloc_top_pad>
   11790:	7601b703          	ld	a4,1888(gp) # 1f6f0 <__malloc_sbrk_base>
   11794:	57fd                	li	a5,-1
   11796:	01540c33          	add	s8,s0,s5
   1179a:	9a26                	add	s4,s4,s1
   1179c:	36f70763          	beq	a4,a5,11b0a <_malloc_r+0x4c0>
   117a0:	6785                	lui	a5,0x1
   117a2:	07fd                	addi	a5,a5,31
   117a4:	9a3e                	add	s4,s4,a5
   117a6:	77fd                	lui	a5,0xfffff
   117a8:	00fa7a33          	and	s4,s4,a5
   117ac:	85d2                	mv	a1,s4
   117ae:	854a                	mv	a0,s2
   117b0:	6f5000ef          	jal	ra,126a4 <_sbrk_r>
   117b4:	57fd                	li	a5,-1
   117b6:	8b2a                	mv	s6,a0
   117b8:	2cf50f63          	beq	a0,a5,11a96 <_malloc_r+0x44c>
   117bc:	2d856b63          	bltu	a0,s8,11a92 <_malloc_r+0x448>
   117c0:	7d018b93          	addi	s7,gp,2000 # 1f760 <__malloc_current_mallinfo>
   117c4:	000ba703          	lw	a4,0(s7)
   117c8:	014707bb          	addw	a5,a4,s4
   117cc:	00fba023          	sw	a5,0(s7)
   117d0:	86be                	mv	a3,a5
   117d2:	3cac0c63          	beq	s8,a0,11baa <_malloc_r+0x560>
   117d6:	7601b703          	ld	a4,1888(gp) # 1f6f0 <__malloc_sbrk_base>
   117da:	57fd                	li	a5,-1
   117dc:	3ef70363          	beq	a4,a5,11bc2 <_malloc_r+0x578>
   117e0:	418b07b3          	sub	a5,s6,s8
   117e4:	9fb5                	addw	a5,a5,a3
   117e6:	00fba023          	sw	a5,0(s7)
   117ea:	00fb7c13          	andi	s8,s6,15
   117ee:	320c0d63          	beqz	s8,11b28 <_malloc_r+0x4de>
   117f2:	418b0b33          	sub	s6,s6,s8
   117f6:	6785                	lui	a5,0x1
   117f8:	0b41                	addi	s6,s6,16
   117fa:	fff78713          	addi	a4,a5,-1 # fff <register_fini-0xf0b1>
   117fe:	014b0cb3          	add	s9,s6,s4
   11802:	07c1                	addi	a5,a5,16
   11804:	41878a33          	sub	s4,a5,s8
   11808:	00ecf7b3          	and	a5,s9,a4
   1180c:	40fa0a33          	sub	s4,s4,a5
   11810:	00ea7a33          	and	s4,s4,a4
   11814:	85d2                	mv	a1,s4
   11816:	854a                	mv	a0,s2
   11818:	68d000ef          	jal	ra,126a4 <_sbrk_r>
   1181c:	57fd                	li	a5,-1
   1181e:	3ef50963          	beq	a0,a5,11c10 <_malloc_r+0x5c6>
   11822:	41650533          	sub	a0,a0,s6
   11826:	000a071b          	sext.w	a4,s4
   1182a:	9a2a                	add	s4,s4,a0
   1182c:	000ba783          	lw	a5,0(s7)
   11830:	0169b823          	sd	s6,16(s3)
   11834:	001a6a13          	ori	s4,s4,1
   11838:	9fb9                	addw	a5,a5,a4
   1183a:	00fba023          	sw	a5,0(s7)
   1183e:	014b3423          	sd	s4,8(s6) # ffffffff80000008 <__BSS_END__+0xffffffff7ffe0878>
   11842:	39340363          	beq	s0,s3,11bc8 <_malloc_r+0x57e>
   11846:	467d                	li	a2,31
   11848:	39567263          	bgeu	a2,s5,11bcc <_malloc_r+0x582>
   1184c:	6414                	ld	a3,8(s0)
   1184e:	fe8a8713          	addi	a4,s5,-24
   11852:	9b41                	andi	a4,a4,-16
   11854:	8a85                	andi	a3,a3,1
   11856:	8ed9                	or	a3,a3,a4
   11858:	e414                	sd	a3,8(s0)
   1185a:	45a5                	li	a1,9
   1185c:	00e406b3          	add	a3,s0,a4
   11860:	e68c                	sd	a1,8(a3)
   11862:	ea8c                	sd	a1,16(a3)
   11864:	3ae66d63          	bltu	a2,a4,11c1e <_malloc_r+0x5d4>
   11868:	008b3a03          	ld	s4,8(s6)
   1186c:	845a                	mv	s0,s6
   1186e:	7781b683          	ld	a3,1912(gp) # 1f708 <__malloc_max_sbrked_mem>
   11872:	00f6f463          	bgeu	a3,a5,1187a <_malloc_r+0x230>
   11876:	76f1bc23          	sd	a5,1912(gp) # 1f708 <__malloc_max_sbrked_mem>
   1187a:	7701b683          	ld	a3,1904(gp) # 1f700 <_edata>
   1187e:	22f6f063          	bgeu	a3,a5,11a9e <_malloc_r+0x454>
   11882:	76f1b823          	sd	a5,1904(gp) # 1f700 <_edata>
   11886:	ac21                	j	11a9e <_malloc_r+0x454>
   11888:	6f80                	ld	s0,24(a5)
   1188a:	2609                	addiw	a2,a2,2
   1188c:	e08796e3          	bne	a5,s0,11698 <_malloc_r+0x4e>
   11890:	0209b403          	ld	s0,32(s3)
   11894:	657d                	lui	a0,0x1f
   11896:	d0050513          	addi	a0,a0,-768 # 1ed00 <__malloc_av_+0x10>
   1189a:	eca403e3          	beq	s0,a0,11760 <_malloc_r+0x116>
   1189e:	641c                	ld	a5,8(s0)
   118a0:	46fd                	li	a3,31
   118a2:	9bf1                	andi	a5,a5,-4
   118a4:	40978733          	sub	a4,a5,s1
   118a8:	1ae6cd63          	blt	a3,a4,11a62 <_malloc_r+0x418>
   118ac:	02a9b423          	sd	a0,40(s3)
   118b0:	02a9b023          	sd	a0,32(s3)
   118b4:	0c075e63          	bgez	a4,11990 <_malloc_r+0x346>
   118b8:	1ff00713          	li	a4,511
   118bc:	10f76763          	bltu	a4,a5,119ca <_malloc_r+0x380>
   118c0:	838d                	srli	a5,a5,0x3
   118c2:	2781                	sext.w	a5,a5
   118c4:	0017871b          	addiw	a4,a5,1
   118c8:	0017171b          	slliw	a4,a4,0x1
   118cc:	070e                	slli	a4,a4,0x3
   118ce:	0089b803          	ld	a6,8(s3)
   118d2:	974e                	add	a4,a4,s3
   118d4:	630c                	ld	a1,0(a4)
   118d6:	4027d69b          	sraiw	a3,a5,0x2
   118da:	4785                	li	a5,1
   118dc:	00d797b3          	sll	a5,a5,a3
   118e0:	0107e7b3          	or	a5,a5,a6
   118e4:	ff070693          	addi	a3,a4,-16
   118e8:	ec14                	sd	a3,24(s0)
   118ea:	e80c                	sd	a1,16(s0)
   118ec:	00f9b423          	sd	a5,8(s3)
   118f0:	e300                	sd	s0,0(a4)
   118f2:	ed80                	sd	s0,24(a1)
   118f4:	4026571b          	sraiw	a4,a2,0x2
   118f8:	4685                	li	a3,1
   118fa:	00e696b3          	sll	a3,a3,a4
   118fe:	e6d7eae3          	bltu	a5,a3,11772 <_malloc_r+0x128>
   11902:	00f6f733          	and	a4,a3,a5
   11906:	ef01                	bnez	a4,1191e <_malloc_r+0x2d4>
   11908:	0686                	slli	a3,a3,0x1
   1190a:	9a71                	andi	a2,a2,-4
   1190c:	00f6f733          	and	a4,a3,a5
   11910:	2611                	addiw	a2,a2,4
   11912:	e711                	bnez	a4,1191e <_malloc_r+0x2d4>
   11914:	0686                	slli	a3,a3,0x1
   11916:	00f6f733          	and	a4,a3,a5
   1191a:	2611                	addiw	a2,a2,4
   1191c:	df65                	beqz	a4,11914 <_malloc_r+0x2ca>
   1191e:	487d                	li	a6,31
   11920:	0016089b          	addiw	a7,a2,1
   11924:	0018989b          	slliw	a7,a7,0x1
   11928:	088e                	slli	a7,a7,0x3
   1192a:	18c1                	addi	a7,a7,-16
   1192c:	98ce                	add	a7,a7,s3
   1192e:	85c6                	mv	a1,a7
   11930:	8332                	mv	t1,a2
   11932:	6d80                	ld	s0,24(a1)
   11934:	00859863          	bne	a1,s0,11944 <_malloc_r+0x2fa>
   11938:	a8fd                	j	11a36 <_malloc_r+0x3ec>
   1193a:	10075563          	bgez	a4,11a44 <_malloc_r+0x3fa>
   1193e:	6c00                	ld	s0,24(s0)
   11940:	0e858b63          	beq	a1,s0,11a36 <_malloc_r+0x3ec>
   11944:	641c                	ld	a5,8(s0)
   11946:	9bf1                	andi	a5,a5,-4
   11948:	40978733          	sub	a4,a5,s1
   1194c:	fee857e3          	bge	a6,a4,1193a <_malloc_r+0x2f0>
   11950:	6c14                	ld	a3,24(s0)
   11952:	6810                	ld	a2,16(s0)
   11954:	0014e593          	ori	a1,s1,1
   11958:	e40c                	sd	a1,8(s0)
   1195a:	ee14                	sd	a3,24(a2)
   1195c:	ea90                	sd	a2,16(a3)
   1195e:	94a2                	add	s1,s1,s0
   11960:	0299b423          	sd	s1,40(s3)
   11964:	0299b023          	sd	s1,32(s3)
   11968:	00176693          	ori	a3,a4,1
   1196c:	ec88                	sd	a0,24(s1)
   1196e:	e888                	sd	a0,16(s1)
   11970:	e494                	sd	a3,8(s1)
   11972:	97a2                	add	a5,a5,s0
   11974:	854a                	mv	a0,s2
   11976:	e398                	sd	a4,0(a5)
   11978:	608000ef          	jal	ra,11f80 <__malloc_unlock>
   1197c:	01040513          	addi	a0,s0,16
   11980:	b389                	j	116c2 <_malloc_r+0x78>
   11982:	40000693          	li	a3,1024
   11986:	04000613          	li	a2,64
   1198a:	03f00513          	li	a0,63
   1198e:	b379                	j	1171c <_malloc_r+0xd2>
   11990:	97a2                	add	a5,a5,s0
   11992:	6798                	ld	a4,8(a5)
   11994:	854a                	mv	a0,s2
   11996:	00176713          	ori	a4,a4,1
   1199a:	e798                	sd	a4,8(a5)
   1199c:	5e4000ef          	jal	ra,11f80 <__malloc_unlock>
   119a0:	01040513          	addi	a0,s0,16
   119a4:	bb39                	j	116c2 <_malloc_r+0x78>
   119a6:	0014e713          	ori	a4,s1,1
   119aa:	e418                	sd	a4,8(s0)
   119ac:	94a2                	add	s1,s1,s0
   119ae:	0099b823          	sd	s1,16(s3)
   119b2:	0017e793          	ori	a5,a5,1
   119b6:	854a                	mv	a0,s2
   119b8:	e49c                	sd	a5,8(s1)
   119ba:	5c6000ef          	jal	ra,11f80 <__malloc_unlock>
   119be:	01040513          	addi	a0,s0,16
   119c2:	b301                	j	116c2 <_malloc_r+0x78>
   119c4:	6c14                	ld	a3,24(s0)
   119c6:	6810                	ld	a2,16(s0)
   119c8:	b9e1                	j	116a0 <_malloc_r+0x56>
   119ca:	0097d713          	srli	a4,a5,0x9
   119ce:	4691                	li	a3,4
   119d0:	0ae6f663          	bgeu	a3,a4,11a7c <_malloc_r+0x432>
   119d4:	46d1                	li	a3,20
   119d6:	18e6e363          	bltu	a3,a4,11b5c <_malloc_r+0x512>
   119da:	2701                	sext.w	a4,a4
   119dc:	05c7059b          	addiw	a1,a4,92
   119e0:	0015959b          	slliw	a1,a1,0x1
   119e4:	05b7069b          	addiw	a3,a4,91
   119e8:	058e                	slli	a1,a1,0x3
   119ea:	95ce                	add	a1,a1,s3
   119ec:	6198                	ld	a4,0(a1)
   119ee:	15c1                	addi	a1,a1,-16
   119f0:	12e58063          	beq	a1,a4,11b10 <_malloc_r+0x4c6>
   119f4:	6714                	ld	a3,8(a4)
   119f6:	9af1                	andi	a3,a3,-4
   119f8:	00d7f563          	bgeu	a5,a3,11a02 <_malloc_r+0x3b8>
   119fc:	6b18                	ld	a4,16(a4)
   119fe:	fee59be3          	bne	a1,a4,119f4 <_malloc_r+0x3aa>
   11a02:	6f0c                	ld	a1,24(a4)
   11a04:	0089b783          	ld	a5,8(s3)
   11a08:	ec0c                	sd	a1,24(s0)
   11a0a:	e818                	sd	a4,16(s0)
   11a0c:	e980                	sd	s0,16(a1)
   11a0e:	ef00                	sd	s0,24(a4)
   11a10:	b5d5                	j	118f4 <_malloc_r+0x2aa>
   11a12:	4751                	li	a4,20
   11a14:	0af77363          	bgeu	a4,a5,11aba <_malloc_r+0x470>
   11a18:	05400713          	li	a4,84
   11a1c:	14f76f63          	bltu	a4,a5,11b7a <_malloc_r+0x530>
   11a20:	00c4d513          	srli	a0,s1,0xc
   11a24:	2501                	sext.w	a0,a0
   11a26:	06f5061b          	addiw	a2,a0,111
   11a2a:	0016169b          	slliw	a3,a2,0x1
   11a2e:	06e5051b          	addiw	a0,a0,110
   11a32:	068e                	slli	a3,a3,0x3
   11a34:	b1e5                	j	1171c <_malloc_r+0xd2>
   11a36:	2305                	addiw	t1,t1,1
   11a38:	00337793          	andi	a5,t1,3
   11a3c:	05c1                	addi	a1,a1,16
   11a3e:	ee079ae3          	bnez	a5,11932 <_malloc_r+0x2e8>
   11a42:	a851                	j	11ad6 <_malloc_r+0x48c>
   11a44:	97a2                	add	a5,a5,s0
   11a46:	6798                	ld	a4,8(a5)
   11a48:	6c14                	ld	a3,24(s0)
   11a4a:	6810                	ld	a2,16(s0)
   11a4c:	00176713          	ori	a4,a4,1
   11a50:	e798                	sd	a4,8(a5)
   11a52:	ee14                	sd	a3,24(a2)
   11a54:	854a                	mv	a0,s2
   11a56:	ea90                	sd	a2,16(a3)
   11a58:	528000ef          	jal	ra,11f80 <__malloc_unlock>
   11a5c:	01040513          	addi	a0,s0,16
   11a60:	b18d                	j	116c2 <_malloc_r+0x78>
   11a62:	0014e693          	ori	a3,s1,1
   11a66:	e414                	sd	a3,8(s0)
   11a68:	bddd                	j	1195e <_malloc_r+0x314>
   11a6a:	0034d613          	srli	a2,s1,0x3
   11a6e:	2601                	sext.w	a2,a2
   11a70:	0016079b          	addiw	a5,a2,1
   11a74:	0017979b          	slliw	a5,a5,0x1
   11a78:	078e                	slli	a5,a5,0x3
   11a7a:	b131                	j	11686 <_malloc_r+0x3c>
   11a7c:	0067d713          	srli	a4,a5,0x6
   11a80:	2701                	sext.w	a4,a4
   11a82:	0397059b          	addiw	a1,a4,57
   11a86:	0015959b          	slliw	a1,a1,0x1
   11a8a:	0387069b          	addiw	a3,a4,56
   11a8e:	058e                	slli	a1,a1,0x3
   11a90:	bfa9                	j	119ea <_malloc_r+0x3a0>
   11a92:	11340363          	beq	s0,s3,11b98 <_malloc_r+0x54e>
   11a96:	0109b403          	ld	s0,16(s3)
   11a9a:	00843a03          	ld	s4,8(s0)
   11a9e:	ffca7a13          	andi	s4,s4,-4
   11aa2:	409a07b3          	sub	a5,s4,s1
   11aa6:	009a6563          	bltu	s4,s1,11ab0 <_malloc_r+0x466>
   11aaa:	477d                	li	a4,31
   11aac:	eef74de3          	blt	a4,a5,119a6 <_malloc_r+0x35c>
   11ab0:	854a                	mv	a0,s2
   11ab2:	4ce000ef          	jal	ra,11f80 <__malloc_unlock>
   11ab6:	4501                	li	a0,0
   11ab8:	b129                	j	116c2 <_malloc_r+0x78>
   11aba:	2781                	sext.w	a5,a5
   11abc:	05c7861b          	addiw	a2,a5,92
   11ac0:	0016169b          	slliw	a3,a2,0x1
   11ac4:	05b7851b          	addiw	a0,a5,91
   11ac8:	068e                	slli	a3,a3,0x3
   11aca:	b989                	j	1171c <_malloc_r+0xd2>
   11acc:	0108b783          	ld	a5,16(a7)
   11ad0:	367d                	addiw	a2,a2,-1
   11ad2:	19179d63          	bne	a5,a7,11c6c <_malloc_r+0x622>
   11ad6:	00367793          	andi	a5,a2,3
   11ada:	18c1                	addi	a7,a7,-16
   11adc:	fbe5                	bnez	a5,11acc <_malloc_r+0x482>
   11ade:	0089b703          	ld	a4,8(s3)
   11ae2:	fff6c793          	not	a5,a3
   11ae6:	8ff9                	and	a5,a5,a4
   11ae8:	00f9b423          	sd	a5,8(s3)
   11aec:	0686                	slli	a3,a3,0x1
   11aee:	c8d7e2e3          	bltu	a5,a3,11772 <_malloc_r+0x128>
   11af2:	c80680e3          	beqz	a3,11772 <_malloc_r+0x128>
   11af6:	00f6f733          	and	a4,a3,a5
   11afa:	e711                	bnez	a4,11b06 <_malloc_r+0x4bc>
   11afc:	0686                	slli	a3,a3,0x1
   11afe:	00f6f733          	and	a4,a3,a5
   11b02:	2311                	addiw	t1,t1,4
   11b04:	df65                	beqz	a4,11afc <_malloc_r+0x4b2>
   11b06:	861a                	mv	a2,t1
   11b08:	bd21                	j	11920 <_malloc_r+0x2d6>
   11b0a:	020a0a13          	addi	s4,s4,32
   11b0e:	b979                	j	117ac <_malloc_r+0x162>
   11b10:	0089b803          	ld	a6,8(s3)
   11b14:	4026d69b          	sraiw	a3,a3,0x2
   11b18:	4785                	li	a5,1
   11b1a:	00d797b3          	sll	a5,a5,a3
   11b1e:	0107e7b3          	or	a5,a5,a6
   11b22:	00f9b423          	sd	a5,8(s3)
   11b26:	b5cd                	j	11a08 <_malloc_r+0x3be>
   11b28:	6785                	lui	a5,0x1
   11b2a:	fff78713          	addi	a4,a5,-1 # fff <register_fini-0xf0b1>
   11b2e:	014b0c33          	add	s8,s6,s4
   11b32:	00ec7c33          	and	s8,s8,a4
   11b36:	418787b3          	sub	a5,a5,s8
   11b3a:	00e7fc33          	and	s8,a5,a4
   11b3e:	85e2                	mv	a1,s8
   11b40:	854a                	mv	a0,s2
   11b42:	363000ef          	jal	ra,126a4 <_sbrk_r>
   11b46:	57fd                	li	a5,-1
   11b48:	4701                	li	a4,0
   11b4a:	cef501e3          	beq	a0,a5,1182c <_malloc_r+0x1e2>
   11b4e:	41650533          	sub	a0,a0,s6
   11b52:	000c071b          	sext.w	a4,s8
   11b56:	01850a33          	add	s4,a0,s8
   11b5a:	b9c9                	j	1182c <_malloc_r+0x1e2>
   11b5c:	05400693          	li	a3,84
   11b60:	06e6ea63          	bltu	a3,a4,11bd4 <_malloc_r+0x58a>
   11b64:	00c7d713          	srli	a4,a5,0xc
   11b68:	2701                	sext.w	a4,a4
   11b6a:	06f7059b          	addiw	a1,a4,111
   11b6e:	0015959b          	slliw	a1,a1,0x1
   11b72:	06e7069b          	addiw	a3,a4,110
   11b76:	058e                	slli	a1,a1,0x3
   11b78:	bd8d                	j	119ea <_malloc_r+0x3a0>
   11b7a:	15400713          	li	a4,340
   11b7e:	06f76a63          	bltu	a4,a5,11bf2 <_malloc_r+0x5a8>
   11b82:	00f4d513          	srli	a0,s1,0xf
   11b86:	2501                	sext.w	a0,a0
   11b88:	0785061b          	addiw	a2,a0,120
   11b8c:	0016169b          	slliw	a3,a2,0x1
   11b90:	0775051b          	addiw	a0,a0,119
   11b94:	068e                	slli	a3,a3,0x3
   11b96:	b659                	j	1171c <_malloc_r+0xd2>
   11b98:	7d018b93          	addi	s7,gp,2000 # 1f760 <__malloc_current_mallinfo>
   11b9c:	000ba783          	lw	a5,0(s7)
   11ba0:	014786bb          	addw	a3,a5,s4
   11ba4:	00dba023          	sw	a3,0(s7)
   11ba8:	b13d                	j	117d6 <_malloc_r+0x18c>
   11baa:	034c1713          	slli	a4,s8,0x34
   11bae:	c20714e3          	bnez	a4,117d6 <_malloc_r+0x18c>
   11bb2:	0109b403          	ld	s0,16(s3)
   11bb6:	9a56                	add	s4,s4,s5
   11bb8:	001a6a13          	ori	s4,s4,1
   11bbc:	01443423          	sd	s4,8(s0)
   11bc0:	b17d                	j	1186e <_malloc_r+0x224>
   11bc2:	7761b023          	sd	s6,1888(gp) # 1f6f0 <__malloc_sbrk_base>
   11bc6:	b115                	j	117ea <_malloc_r+0x1a0>
   11bc8:	845a                	mv	s0,s6
   11bca:	b155                	j	1186e <_malloc_r+0x224>
   11bcc:	4785                	li	a5,1
   11bce:	00fb3423          	sd	a5,8(s6)
   11bd2:	bdf9                	j	11ab0 <_malloc_r+0x466>
   11bd4:	15400693          	li	a3,340
   11bd8:	04e6ef63          	bltu	a3,a4,11c36 <_malloc_r+0x5ec>
   11bdc:	00f7d713          	srli	a4,a5,0xf
   11be0:	2701                	sext.w	a4,a4
   11be2:	0787059b          	addiw	a1,a4,120
   11be6:	0015959b          	slliw	a1,a1,0x1
   11bea:	0777069b          	addiw	a3,a4,119
   11bee:	058e                	slli	a1,a1,0x3
   11bf0:	bbed                	j	119ea <_malloc_r+0x3a0>
   11bf2:	55400713          	li	a4,1364
   11bf6:	04f76f63          	bltu	a4,a5,11c54 <_malloc_r+0x60a>
   11bfa:	0124d513          	srli	a0,s1,0x12
   11bfe:	2501                	sext.w	a0,a0
   11c00:	07d5061b          	addiw	a2,a0,125
   11c04:	0016169b          	slliw	a3,a2,0x1
   11c08:	07c5051b          	addiw	a0,a0,124
   11c0c:	068e                	slli	a3,a3,0x3
   11c0e:	b639                	j	1171c <_malloc_r+0xd2>
   11c10:	1c41                	addi	s8,s8,-16
   11c12:	018c8a33          	add	s4,s9,s8
   11c16:	416a0a33          	sub	s4,s4,s6
   11c1a:	4701                	li	a4,0
   11c1c:	b901                	j	1182c <_malloc_r+0x1e2>
   11c1e:	01040593          	addi	a1,s0,16
   11c22:	854a                	mv	a0,s2
   11c24:	e6dfe0ef          	jal	ra,10a90 <_free_r>
   11c28:	0109b403          	ld	s0,16(s3)
   11c2c:	000ba783          	lw	a5,0(s7)
   11c30:	00843a03          	ld	s4,8(s0)
   11c34:	b92d                	j	1186e <_malloc_r+0x224>
   11c36:	55400693          	li	a3,1364
   11c3a:	02e6e463          	bltu	a3,a4,11c62 <_malloc_r+0x618>
   11c3e:	0127d713          	srli	a4,a5,0x12
   11c42:	2701                	sext.w	a4,a4
   11c44:	07d7059b          	addiw	a1,a4,125
   11c48:	0015959b          	slliw	a1,a1,0x1
   11c4c:	07c7069b          	addiw	a3,a4,124
   11c50:	058e                	slli	a1,a1,0x3
   11c52:	bb61                	j	119ea <_malloc_r+0x3a0>
   11c54:	7f000693          	li	a3,2032
   11c58:	07f00613          	li	a2,127
   11c5c:	07e00513          	li	a0,126
   11c60:	bc75                	j	1171c <_malloc_r+0xd2>
   11c62:	7f000593          	li	a1,2032
   11c66:	07e00693          	li	a3,126
   11c6a:	b341                	j	119ea <_malloc_r+0x3a0>
   11c6c:	0089b783          	ld	a5,8(s3)
   11c70:	bdb5                	j	11aec <_malloc_r+0x4a2>

0000000000011c72 <memchr>:
   11c72:	00757793          	andi	a5,a0,7
   11c76:	0ff5f813          	andi	a6,a1,255
   11c7a:	cfd9                	beqz	a5,11d18 <memchr+0xa6>
   11c7c:	fff60793          	addi	a5,a2,-1
   11c80:	c239                	beqz	a2,11cc6 <memchr+0x54>
   11c82:	00054703          	lbu	a4,0(a0)
   11c86:	05070163          	beq	a4,a6,11cc8 <memchr+0x56>
   11c8a:	56fd                	li	a3,-1
   11c8c:	a801                	j	11c9c <memchr+0x2a>
   11c8e:	17fd                	addi	a5,a5,-1
   11c90:	02d78b63          	beq	a5,a3,11cc6 <memchr+0x54>
   11c94:	00054703          	lbu	a4,0(a0)
   11c98:	03070863          	beq	a4,a6,11cc8 <memchr+0x56>
   11c9c:	0505                	addi	a0,a0,1
   11c9e:	00757713          	andi	a4,a0,7
   11ca2:	f775                	bnez	a4,11c8e <memchr+0x1c>
   11ca4:	471d                	li	a4,7
   11ca6:	02f76263          	bltu	a4,a5,11cca <memchr+0x58>
   11caa:	cf91                	beqz	a5,11cc6 <memchr+0x54>
   11cac:	00054703          	lbu	a4,0(a0)
   11cb0:	01070c63          	beq	a4,a6,11cc8 <memchr+0x56>
   11cb4:	97aa                	add	a5,a5,a0
   11cb6:	a029                	j	11cc0 <memchr+0x4e>
   11cb8:	00054703          	lbu	a4,0(a0)
   11cbc:	01070663          	beq	a4,a6,11cc8 <memchr+0x56>
   11cc0:	0505                	addi	a0,a0,1
   11cc2:	fea79be3          	bne	a5,a0,11cb8 <memchr+0x46>
   11cc6:	4501                	li	a0,0
   11cc8:	8082                	ret
   11cca:	66c1                	lui	a3,0x10
   11ccc:	0085971b          	slliw	a4,a1,0x8
   11cd0:	16fd                	addi	a3,a3,-1
   11cd2:	8f75                	and	a4,a4,a3
   11cd4:	0ff5f593          	andi	a1,a1,255
   11cd8:	8dd9                	or	a1,a1,a4
   11cda:	2581                	sext.w	a1,a1
   11cdc:	0001f6b7          	lui	a3,0x1f
   11ce0:	01059613          	slli	a2,a1,0x10
   11ce4:	6a86b883          	ld	a7,1704(a3) # 1f6a8 <__SDATA_BEGIN__>
   11ce8:	0001f6b7          	lui	a3,0x1f
   11cec:	00b66733          	or	a4,a2,a1
   11cf0:	6b06b583          	ld	a1,1712(a3) # 1f6b0 <__SDATA_BEGIN__+0x8>
   11cf4:	02071613          	slli	a2,a4,0x20
   11cf8:	8e59                	or	a2,a2,a4
   11cfa:	431d                	li	t1,7
   11cfc:	6118                	ld	a4,0(a0)
   11cfe:	8f31                	xor	a4,a4,a2
   11d00:	011706b3          	add	a3,a4,a7
   11d04:	fff74713          	not	a4,a4
   11d08:	8f75                	and	a4,a4,a3
   11d0a:	8f6d                	and	a4,a4,a1
   11d0c:	f345                	bnez	a4,11cac <memchr+0x3a>
   11d0e:	17e1                	addi	a5,a5,-8
   11d10:	0521                	addi	a0,a0,8
   11d12:	fef365e3          	bltu	t1,a5,11cfc <memchr+0x8a>
   11d16:	bf51                	j	11caa <memchr+0x38>
   11d18:	87b2                	mv	a5,a2
   11d1a:	b769                	j	11ca4 <memchr+0x32>

0000000000011d1c <memcpy>:
   11d1c:	00a5c7b3          	xor	a5,a1,a0
   11d20:	8b9d                	andi	a5,a5,7
   11d22:	00c508b3          	add	a7,a0,a2
   11d26:	e7a1                	bnez	a5,11d6e <memcpy+0x52>
   11d28:	479d                	li	a5,7
   11d2a:	04c7f263          	bgeu	a5,a2,11d6e <memcpy+0x52>
   11d2e:	00757793          	andi	a5,a0,7
   11d32:	872a                	mv	a4,a0
   11d34:	eba9                	bnez	a5,11d86 <memcpy+0x6a>
   11d36:	ff88f613          	andi	a2,a7,-8
   11d3a:	fc060793          	addi	a5,a2,-64
   11d3e:	06f76763          	bltu	a4,a5,11dac <memcpy+0x90>
   11d42:	02c77363          	bgeu	a4,a2,11d68 <memcpy+0x4c>
   11d46:	86ae                	mv	a3,a1
   11d48:	87ba                	mv	a5,a4
   11d4a:	0006b803          	ld	a6,0(a3)
   11d4e:	07a1                	addi	a5,a5,8
   11d50:	06a1                	addi	a3,a3,8
   11d52:	ff07bc23          	sd	a6,-8(a5)
   11d56:	fec7eae3          	bltu	a5,a2,11d4a <memcpy+0x2e>
   11d5a:	fff60793          	addi	a5,a2,-1
   11d5e:	8f99                	sub	a5,a5,a4
   11d60:	9be1                	andi	a5,a5,-8
   11d62:	07a1                	addi	a5,a5,8
   11d64:	973e                	add	a4,a4,a5
   11d66:	95be                	add	a1,a1,a5
   11d68:	01176663          	bltu	a4,a7,11d74 <memcpy+0x58>
   11d6c:	8082                	ret
   11d6e:	872a                	mv	a4,a0
   11d70:	ff157ee3          	bgeu	a0,a7,11d6c <memcpy+0x50>
   11d74:	0005c783          	lbu	a5,0(a1)
   11d78:	0705                	addi	a4,a4,1
   11d7a:	0585                	addi	a1,a1,1
   11d7c:	fef70fa3          	sb	a5,-1(a4)
   11d80:	ff176ae3          	bltu	a4,a7,11d74 <memcpy+0x58>
   11d84:	8082                	ret
   11d86:	0005c683          	lbu	a3,0(a1)
   11d8a:	0705                	addi	a4,a4,1
   11d8c:	00777793          	andi	a5,a4,7
   11d90:	fed70fa3          	sb	a3,-1(a4)
   11d94:	0585                	addi	a1,a1,1
   11d96:	d3c5                	beqz	a5,11d36 <memcpy+0x1a>
   11d98:	0005c683          	lbu	a3,0(a1)
   11d9c:	0705                	addi	a4,a4,1
   11d9e:	00777793          	andi	a5,a4,7
   11da2:	fed70fa3          	sb	a3,-1(a4)
   11da6:	0585                	addi	a1,a1,1
   11da8:	fff9                	bnez	a5,11d86 <memcpy+0x6a>
   11daa:	b771                	j	11d36 <memcpy+0x1a>
   11dac:	6194                	ld	a3,0(a1)
   11dae:	0085b283          	ld	t0,8(a1)
   11db2:	0105bf83          	ld	t6,16(a1)
   11db6:	0185bf03          	ld	t5,24(a1)
   11dba:	0205be83          	ld	t4,32(a1)
   11dbe:	0285be03          	ld	t3,40(a1)
   11dc2:	0305b303          	ld	t1,48(a1)
   11dc6:	0385b803          	ld	a6,56(a1)
   11dca:	04858593          	addi	a1,a1,72
   11dce:	e314                	sd	a3,0(a4)
   11dd0:	ff85b683          	ld	a3,-8(a1)
   11dd4:	00573423          	sd	t0,8(a4)
   11dd8:	01f73823          	sd	t6,16(a4)
   11ddc:	01e73c23          	sd	t5,24(a4)
   11de0:	03d73023          	sd	t4,32(a4)
   11de4:	03c73423          	sd	t3,40(a4)
   11de8:	02673823          	sd	t1,48(a4)
   11dec:	03073c23          	sd	a6,56(a4)
   11df0:	04870713          	addi	a4,a4,72
   11df4:	fed73c23          	sd	a3,-8(a4)
   11df8:	faf76ae3          	bltu	a4,a5,11dac <memcpy+0x90>
   11dfc:	b799                	j	11d42 <memcpy+0x26>

0000000000011dfe <memmove>:
   11dfe:	02a5f263          	bgeu	a1,a0,11e22 <memmove+0x24>
   11e02:	00c587b3          	add	a5,a1,a2
   11e06:	00f57e63          	bgeu	a0,a5,11e22 <memmove+0x24>
   11e0a:	00c50733          	add	a4,a0,a2
   11e0e:	ca5d                	beqz	a2,11ec4 <memmove+0xc6>
   11e10:	17fd                	addi	a5,a5,-1
   11e12:	0007c683          	lbu	a3,0(a5)
   11e16:	177d                	addi	a4,a4,-1
   11e18:	00d70023          	sb	a3,0(a4)
   11e1c:	fef59ae3          	bne	a1,a5,11e10 <memmove+0x12>
   11e20:	8082                	ret
   11e22:	47fd                	li	a5,31
   11e24:	02c7e163          	bltu	a5,a2,11e46 <memmove+0x48>
   11e28:	87aa                	mv	a5,a0
   11e2a:	fff60693          	addi	a3,a2,-1
   11e2e:	c245                	beqz	a2,11ece <memmove+0xd0>
   11e30:	0685                	addi	a3,a3,1
   11e32:	96be                	add	a3,a3,a5
   11e34:	0585                	addi	a1,a1,1
   11e36:	fff5c703          	lbu	a4,-1(a1)
   11e3a:	0785                	addi	a5,a5,1
   11e3c:	fee78fa3          	sb	a4,-1(a5)
   11e40:	fed79ae3          	bne	a5,a3,11e34 <memmove+0x36>
   11e44:	8082                	ret
   11e46:	00a5e7b3          	or	a5,a1,a0
   11e4a:	8b9d                	andi	a5,a5,7
   11e4c:	efad                	bnez	a5,11ec6 <memmove+0xc8>
   11e4e:	fe060893          	addi	a7,a2,-32
   11e52:	fe08f893          	andi	a7,a7,-32
   11e56:	02088893          	addi	a7,a7,32
   11e5a:	01150833          	add	a6,a0,a7
   11e5e:	872e                	mv	a4,a1
   11e60:	87aa                	mv	a5,a0
   11e62:	6314                	ld	a3,0(a4)
   11e64:	02078793          	addi	a5,a5,32
   11e68:	02070713          	addi	a4,a4,32
   11e6c:	fed7b023          	sd	a3,-32(a5)
   11e70:	fe873683          	ld	a3,-24(a4)
   11e74:	fed7b423          	sd	a3,-24(a5)
   11e78:	ff073683          	ld	a3,-16(a4)
   11e7c:	fed7b823          	sd	a3,-16(a5)
   11e80:	ff873683          	ld	a3,-8(a4)
   11e84:	fed7bc23          	sd	a3,-8(a5)
   11e88:	fcf81de3          	bne	a6,a5,11e62 <memmove+0x64>
   11e8c:	01867713          	andi	a4,a2,24
   11e90:	95c6                	add	a1,a1,a7
   11e92:	01f67813          	andi	a6,a2,31
   11e96:	cf0d                	beqz	a4,11ed0 <memmove+0xd2>
   11e98:	872e                	mv	a4,a1
   11e9a:	88be                	mv	a7,a5
   11e9c:	4e1d                	li	t3,7
   11e9e:	0721                	addi	a4,a4,8
   11ea0:	ff873303          	ld	t1,-8(a4)
   11ea4:	08a1                	addi	a7,a7,8
   11ea6:	40e806b3          	sub	a3,a6,a4
   11eaa:	fe68bc23          	sd	t1,-8(a7)
   11eae:	96ae                	add	a3,a3,a1
   11eb0:	fede67e3          	bltu	t3,a3,11e9e <memmove+0xa0>
   11eb4:	ff880713          	addi	a4,a6,-8
   11eb8:	9b61                	andi	a4,a4,-8
   11eba:	0721                	addi	a4,a4,8
   11ebc:	8a1d                	andi	a2,a2,7
   11ebe:	97ba                	add	a5,a5,a4
   11ec0:	95ba                	add	a1,a1,a4
   11ec2:	b7a5                	j	11e2a <memmove+0x2c>
   11ec4:	8082                	ret
   11ec6:	fff60693          	addi	a3,a2,-1
   11eca:	87aa                	mv	a5,a0
   11ecc:	b795                	j	11e30 <memmove+0x32>
   11ece:	8082                	ret
   11ed0:	8642                	mv	a2,a6
   11ed2:	bfa1                	j	11e2a <memmove+0x2c>

0000000000011ed4 <memset>:
   11ed4:	433d                	li	t1,15
   11ed6:	872a                	mv	a4,a0
   11ed8:	02c37163          	bgeu	t1,a2,11efa <memset+0x26>
   11edc:	00f77793          	andi	a5,a4,15
   11ee0:	e3c1                	bnez	a5,11f60 <memset+0x8c>
   11ee2:	e1bd                	bnez	a1,11f48 <memset+0x74>
   11ee4:	ff067693          	andi	a3,a2,-16
   11ee8:	8a3d                	andi	a2,a2,15
   11eea:	96ba                	add	a3,a3,a4
   11eec:	e30c                	sd	a1,0(a4)
   11eee:	e70c                	sd	a1,8(a4)
   11ef0:	0741                	addi	a4,a4,16
   11ef2:	fed76de3          	bltu	a4,a3,11eec <memset+0x18>
   11ef6:	e211                	bnez	a2,11efa <memset+0x26>
   11ef8:	8082                	ret
   11efa:	40c306b3          	sub	a3,t1,a2
   11efe:	068a                	slli	a3,a3,0x2
   11f00:	00000297          	auipc	t0,0x0
   11f04:	9696                	add	a3,a3,t0
   11f06:	00a68067          	jr	10(a3)
   11f0a:	00b70723          	sb	a1,14(a4)
   11f0e:	00b706a3          	sb	a1,13(a4)
   11f12:	00b70623          	sb	a1,12(a4)
   11f16:	00b705a3          	sb	a1,11(a4)
   11f1a:	00b70523          	sb	a1,10(a4)
   11f1e:	00b704a3          	sb	a1,9(a4)
   11f22:	00b70423          	sb	a1,8(a4)
   11f26:	00b703a3          	sb	a1,7(a4)
   11f2a:	00b70323          	sb	a1,6(a4)
   11f2e:	00b702a3          	sb	a1,5(a4)
   11f32:	00b70223          	sb	a1,4(a4)
   11f36:	00b701a3          	sb	a1,3(a4)
   11f3a:	00b70123          	sb	a1,2(a4)
   11f3e:	00b700a3          	sb	a1,1(a4)
   11f42:	00b70023          	sb	a1,0(a4)
   11f46:	8082                	ret
   11f48:	0ff5f593          	andi	a1,a1,255
   11f4c:	00859693          	slli	a3,a1,0x8
   11f50:	8dd5                	or	a1,a1,a3
   11f52:	01059693          	slli	a3,a1,0x10
   11f56:	8dd5                	or	a1,a1,a3
   11f58:	02059693          	slli	a3,a1,0x20
   11f5c:	8dd5                	or	a1,a1,a3
   11f5e:	b759                	j	11ee4 <memset+0x10>
   11f60:	00279693          	slli	a3,a5,0x2
   11f64:	00000297          	auipc	t0,0x0
   11f68:	9696                	add	a3,a3,t0
   11f6a:	8286                	mv	t0,ra
   11f6c:	fa2680e7          	jalr	-94(a3)
   11f70:	8096                	mv	ra,t0
   11f72:	17c1                	addi	a5,a5,-16
   11f74:	8f1d                	sub	a4,a4,a5
   11f76:	963e                	add	a2,a2,a5
   11f78:	f8c371e3          	bgeu	t1,a2,11efa <memset+0x26>
   11f7c:	b79d                	j	11ee2 <memset+0xe>

0000000000011f7e <__malloc_lock>:
   11f7e:	8082                	ret

0000000000011f80 <__malloc_unlock>:
   11f80:	8082                	ret

0000000000011f82 <_open_r>:
   11f82:	1101                	addi	sp,sp,-32
   11f84:	87ae                	mv	a5,a1
   11f86:	e822                	sd	s0,16(sp)
   11f88:	e426                	sd	s1,8(sp)
   11f8a:	85b2                	mv	a1,a2
   11f8c:	84aa                	mv	s1,a0
   11f8e:	0001f437          	lui	s0,0x1f
   11f92:	853e                	mv	a0,a5
   11f94:	8636                	mv	a2,a3
   11f96:	ec06                	sd	ra,24(sp)
   11f98:	78042423          	sw	zero,1928(s0) # 1f788 <errno>
   11f9c:	31a090ef          	jal	ra,1b2b6 <_open>
   11fa0:	57fd                	li	a5,-1
   11fa2:	00f50763          	beq	a0,a5,11fb0 <_open_r+0x2e>
   11fa6:	60e2                	ld	ra,24(sp)
   11fa8:	6442                	ld	s0,16(sp)
   11faa:	64a2                	ld	s1,8(sp)
   11fac:	6105                	addi	sp,sp,32
   11fae:	8082                	ret
   11fb0:	78842783          	lw	a5,1928(s0)
   11fb4:	dbed                	beqz	a5,11fa6 <_open_r+0x24>
   11fb6:	60e2                	ld	ra,24(sp)
   11fb8:	6442                	ld	s0,16(sp)
   11fba:	c09c                	sw	a5,0(s1)
   11fbc:	64a2                	ld	s1,8(sp)
   11fbe:	6105                	addi	sp,sp,32
   11fc0:	8082                	ret

0000000000011fc2 <_printf_r>:
   11fc2:	715d                	addi	sp,sp,-80
   11fc4:	f032                	sd	a2,32(sp)
   11fc6:	f436                	sd	a3,40(sp)
   11fc8:	fc3e                	sd	a5,56(sp)
   11fca:	f83a                	sd	a4,48(sp)
   11fcc:	e0c2                	sd	a6,64(sp)
   11fce:	e4c6                	sd	a7,72(sp)
   11fd0:	862e                	mv	a2,a1
   11fd2:	690c                	ld	a1,16(a0)
   11fd4:	101c                	addi	a5,sp,32
   11fd6:	86be                	mv	a3,a5
   11fd8:	ec06                	sd	ra,24(sp)
   11fda:	e43e                	sd	a5,8(sp)
   11fdc:	073000ef          	jal	ra,1284e <_vfprintf_r>
   11fe0:	60e2                	ld	ra,24(sp)
   11fe2:	6161                	addi	sp,sp,80
   11fe4:	8082                	ret

0000000000011fe6 <printf>:
   11fe6:	7581b303          	ld	t1,1880(gp) # 1f6e8 <_impure_ptr>
   11fea:	711d                	addi	sp,sp,-96
   11fec:	f832                	sd	a2,48(sp)
   11fee:	fc36                	sd	a3,56(sp)
   11ff0:	e4be                	sd	a5,72(sp)
   11ff2:	f42e                	sd	a1,40(sp)
   11ff4:	e0ba                	sd	a4,64(sp)
   11ff6:	e8c2                	sd	a6,80(sp)
   11ff8:	ecc6                	sd	a7,88(sp)
   11ffa:	01033583          	ld	a1,16(t1)
   11ffe:	103c                	addi	a5,sp,40
   12000:	862a                	mv	a2,a0
   12002:	86be                	mv	a3,a5
   12004:	851a                	mv	a0,t1
   12006:	ec06                	sd	ra,24(sp)
   12008:	e43e                	sd	a5,8(sp)
   1200a:	045000ef          	jal	ra,1284e <_vfprintf_r>
   1200e:	60e2                	ld	ra,24(sp)
   12010:	6125                	addi	sp,sp,96
   12012:	8082                	ret

0000000000012014 <_realloc_r>:
   12014:	715d                	addi	sp,sp,-80
   12016:	f84a                	sd	s2,48(sp)
   12018:	e486                	sd	ra,72(sp)
   1201a:	e0a2                	sd	s0,64(sp)
   1201c:	fc26                	sd	s1,56(sp)
   1201e:	f44e                	sd	s3,40(sp)
   12020:	f052                	sd	s4,32(sp)
   12022:	ec56                	sd	s5,24(sp)
   12024:	e85a                	sd	s6,16(sp)
   12026:	e45e                	sd	s7,8(sp)
   12028:	e062                	sd	s8,0(sp)
   1202a:	8932                	mv	s2,a2
   1202c:	1a058563          	beqz	a1,121d6 <_realloc_r+0x1c2>
   12030:	8aae                	mv	s5,a1
   12032:	8a2a                	mv	s4,a0
   12034:	f4bff0ef          	jal	ra,11f7e <__malloc_lock>
   12038:	ff8ab783          	ld	a5,-8(s5)
   1203c:	01790413          	addi	s0,s2,23
   12040:	02e00713          	li	a4,46
   12044:	ff0a8b13          	addi	s6,s5,-16
   12048:	ffc7f493          	andi	s1,a5,-4
   1204c:	0a877f63          	bgeu	a4,s0,1210a <_realloc_r+0xf6>
   12050:	80000737          	lui	a4,0x80000
   12054:	9841                	andi	s0,s0,-16
   12056:	fff74713          	not	a4,a4
   1205a:	0a876c63          	bltu	a4,s0,12112 <_realloc_r+0xfe>
   1205e:	0b246a63          	bltu	s0,s2,12112 <_realloc_r+0xfe>
   12062:	009b09b3          	add	s3,s6,s1
   12066:	1284d763          	bge	s1,s0,12194 <_realloc_r+0x180>
   1206a:	677d                	lui	a4,0x1f
   1206c:	cf070b93          	addi	s7,a4,-784 # 1ecf0 <__malloc_av_>
   12070:	010bb683          	ld	a3,16(s7)
   12074:	0089b703          	ld	a4,8(s3)
   12078:	1b368063          	beq	a3,s3,12218 <_realloc_r+0x204>
   1207c:	ffe77693          	andi	a3,a4,-2
   12080:	96ce                	add	a3,a3,s3
   12082:	6694                	ld	a3,8(a3)
   12084:	8a85                	andi	a3,a3,1
   12086:	12069d63          	bnez	a3,121c0 <_realloc_r+0x1ac>
   1208a:	9b71                	andi	a4,a4,-4
   1208c:	00e486b3          	add	a3,s1,a4
   12090:	2686db63          	bge	a3,s0,12306 <_realloc_r+0x2f2>
   12094:	8b85                	andi	a5,a5,1
   12096:	e38d                	bnez	a5,120b8 <_realloc_r+0xa4>
   12098:	ff0abc03          	ld	s8,-16(s5)
   1209c:	418b0c33          	sub	s8,s6,s8
   120a0:	008c3783          	ld	a5,8(s8)
   120a4:	9bf1                	andi	a5,a5,-4
   120a6:	973e                	add	a4,a4,a5
   120a8:	00970bb3          	add	s7,a4,s1
   120ac:	288bd263          	bge	s7,s0,12330 <_realloc_r+0x31c>
   120b0:	00f48bb3          	add	s7,s1,a5
   120b4:	088bd063          	bge	s7,s0,12134 <_realloc_r+0x120>
   120b8:	85ca                	mv	a1,s2
   120ba:	8552                	mv	a0,s4
   120bc:	d8eff0ef          	jal	ra,1164a <_malloc_r>
   120c0:	892a                	mv	s2,a0
   120c2:	c121                	beqz	a0,12102 <_realloc_r+0xee>
   120c4:	ff8ab783          	ld	a5,-8(s5)
   120c8:	ff050713          	addi	a4,a0,-16
   120cc:	9bf9                	andi	a5,a5,-2
   120ce:	97da                	add	a5,a5,s6
   120d0:	24e78563          	beq	a5,a4,1231a <_realloc_r+0x306>
   120d4:	ff848613          	addi	a2,s1,-8
   120d8:	04800793          	li	a5,72
   120dc:	24c7e663          	bltu	a5,a2,12328 <_realloc_r+0x314>
   120e0:	02700713          	li	a4,39
   120e4:	000ab683          	ld	a3,0(s5)
   120e8:	1cc76c63          	bltu	a4,a2,122c0 <_realloc_r+0x2ac>
   120ec:	87aa                	mv	a5,a0
   120ee:	8756                	mv	a4,s5
   120f0:	e394                	sd	a3,0(a5)
   120f2:	6714                	ld	a3,8(a4)
   120f4:	e794                	sd	a3,8(a5)
   120f6:	6b18                	ld	a4,16(a4)
   120f8:	eb98                	sd	a4,16(a5)
   120fa:	85d6                	mv	a1,s5
   120fc:	8552                	mv	a0,s4
   120fe:	993fe0ef          	jal	ra,10a90 <_free_r>
   12102:	8552                	mv	a0,s4
   12104:	e7dff0ef          	jal	ra,11f80 <__malloc_unlock>
   12108:	a809                	j	1211a <_realloc_r+0x106>
   1210a:	02000413          	li	s0,32
   1210e:	f5247ae3          	bgeu	s0,s2,12062 <_realloc_r+0x4e>
   12112:	47b1                	li	a5,12
   12114:	00fa2023          	sw	a5,0(s4)
   12118:	4901                	li	s2,0
   1211a:	60a6                	ld	ra,72(sp)
   1211c:	6406                	ld	s0,64(sp)
   1211e:	854a                	mv	a0,s2
   12120:	74e2                	ld	s1,56(sp)
   12122:	7942                	ld	s2,48(sp)
   12124:	79a2                	ld	s3,40(sp)
   12126:	7a02                	ld	s4,32(sp)
   12128:	6ae2                	ld	s5,24(sp)
   1212a:	6b42                	ld	s6,16(sp)
   1212c:	6ba2                	ld	s7,8(sp)
   1212e:	6c02                	ld	s8,0(sp)
   12130:	6161                	addi	sp,sp,80
   12132:	8082                	ret
   12134:	018c3783          	ld	a5,24(s8)
   12138:	010c3703          	ld	a4,16(s8)
   1213c:	ff848613          	addi	a2,s1,-8
   12140:	04800693          	li	a3,72
   12144:	ef1c                	sd	a5,24(a4)
   12146:	eb98                	sd	a4,16(a5)
   12148:	010c0913          	addi	s2,s8,16
   1214c:	017c09b3          	add	s3,s8,s7
   12150:	26c6e263          	bltu	a3,a2,123b4 <_realloc_r+0x3a0>
   12154:	02700593          	li	a1,39
   12158:	000ab703          	ld	a4,0(s5)
   1215c:	87ca                	mv	a5,s2
   1215e:	02c5f163          	bgeu	a1,a2,12180 <_realloc_r+0x16c>
   12162:	00ec3823          	sd	a4,16(s8)
   12166:	008ab703          	ld	a4,8(s5)
   1216a:	03700793          	li	a5,55
   1216e:	00ec3c23          	sd	a4,24(s8)
   12172:	28c7e563          	bltu	a5,a2,123fc <_realloc_r+0x3e8>
   12176:	010ab703          	ld	a4,16(s5)
   1217a:	020c0793          	addi	a5,s8,32
   1217e:	0ac1                	addi	s5,s5,16
   12180:	e398                	sd	a4,0(a5)
   12182:	008ab703          	ld	a4,8(s5)
   12186:	84de                	mv	s1,s7
   12188:	8b62                	mv	s6,s8
   1218a:	e798                	sd	a4,8(a5)
   1218c:	010ab703          	ld	a4,16(s5)
   12190:	8aca                	mv	s5,s2
   12192:	eb98                	sd	a4,16(a5)
   12194:	008b3603          	ld	a2,8(s6)
   12198:	408487b3          	sub	a5,s1,s0
   1219c:	477d                	li	a4,31
   1219e:	8a05                	andi	a2,a2,1
   121a0:	04f76963          	bltu	a4,a5,121f2 <_realloc_r+0x1de>
   121a4:	8e45                	or	a2,a2,s1
   121a6:	00cb3423          	sd	a2,8(s6)
   121aa:	0089b783          	ld	a5,8(s3)
   121ae:	0017e793          	ori	a5,a5,1
   121b2:	00f9b423          	sd	a5,8(s3)
   121b6:	8552                	mv	a0,s4
   121b8:	dc9ff0ef          	jal	ra,11f80 <__malloc_unlock>
   121bc:	8956                	mv	s2,s5
   121be:	bfb1                	j	1211a <_realloc_r+0x106>
   121c0:	8b85                	andi	a5,a5,1
   121c2:	ee079be3          	bnez	a5,120b8 <_realloc_r+0xa4>
   121c6:	ff0abc03          	ld	s8,-16(s5)
   121ca:	418b0c33          	sub	s8,s6,s8
   121ce:	008c3783          	ld	a5,8(s8)
   121d2:	9bf1                	andi	a5,a5,-4
   121d4:	bdf1                	j	120b0 <_realloc_r+0x9c>
   121d6:	6406                	ld	s0,64(sp)
   121d8:	60a6                	ld	ra,72(sp)
   121da:	74e2                	ld	s1,56(sp)
   121dc:	7942                	ld	s2,48(sp)
   121de:	79a2                	ld	s3,40(sp)
   121e0:	7a02                	ld	s4,32(sp)
   121e2:	6ae2                	ld	s5,24(sp)
   121e4:	6b42                	ld	s6,16(sp)
   121e6:	6ba2                	ld	s7,8(sp)
   121e8:	6c02                	ld	s8,0(sp)
   121ea:	85b2                	mv	a1,a2
   121ec:	6161                	addi	sp,sp,80
   121ee:	c5cff06f          	j	1164a <_malloc_r>
   121f2:	8e41                	or	a2,a2,s0
   121f4:	00cb3423          	sd	a2,8(s6)
   121f8:	008b05b3          	add	a1,s6,s0
   121fc:	0017e793          	ori	a5,a5,1
   12200:	e59c                	sd	a5,8(a1)
   12202:	0089b783          	ld	a5,8(s3)
   12206:	05c1                	addi	a1,a1,16
   12208:	8552                	mv	a0,s4
   1220a:	0017e793          	ori	a5,a5,1
   1220e:	00f9b423          	sd	a5,8(s3)
   12212:	87ffe0ef          	jal	ra,10a90 <_free_r>
   12216:	b745                	j	121b6 <_realloc_r+0x1a2>
   12218:	9b71                	andi	a4,a4,-4
   1221a:	00e486b3          	add	a3,s1,a4
   1221e:	02040613          	addi	a2,s0,32
   12222:	0ac6de63          	bge	a3,a2,122de <_realloc_r+0x2ca>
   12226:	8b85                	andi	a5,a5,1
   12228:	e80798e3          	bnez	a5,120b8 <_realloc_r+0xa4>
   1222c:	ff0abc03          	ld	s8,-16(s5)
   12230:	418b0c33          	sub	s8,s6,s8
   12234:	008c3783          	ld	a5,8(s8)
   12238:	9bf1                	andi	a5,a5,-4
   1223a:	973e                	add	a4,a4,a5
   1223c:	009709b3          	add	s3,a4,s1
   12240:	e6c9c8e3          	blt	s3,a2,120b0 <_realloc_r+0x9c>
   12244:	018c3783          	ld	a5,24(s8)
   12248:	010c3703          	ld	a4,16(s8)
   1224c:	ff848613          	addi	a2,s1,-8
   12250:	04800693          	li	a3,72
   12254:	ef1c                	sd	a5,24(a4)
   12256:	eb98                	sd	a4,16(a5)
   12258:	010c0913          	addi	s2,s8,16
   1225c:	1cc6e163          	bltu	a3,a2,1241e <_realloc_r+0x40a>
   12260:	02700593          	li	a1,39
   12264:	000ab703          	ld	a4,0(s5)
   12268:	87ca                	mv	a5,s2
   1226a:	02c5f163          	bgeu	a1,a2,1228c <_realloc_r+0x278>
   1226e:	00ec3823          	sd	a4,16(s8)
   12272:	008ab703          	ld	a4,8(s5)
   12276:	03700793          	li	a5,55
   1227a:	00ec3c23          	sd	a4,24(s8)
   1227e:	1ac7e563          	bltu	a5,a2,12428 <_realloc_r+0x414>
   12282:	010ab703          	ld	a4,16(s5)
   12286:	020c0793          	addi	a5,s8,32
   1228a:	0ac1                	addi	s5,s5,16
   1228c:	e398                	sd	a4,0(a5)
   1228e:	008ab703          	ld	a4,8(s5)
   12292:	e798                	sd	a4,8(a5)
   12294:	010ab703          	ld	a4,16(s5)
   12298:	eb98                	sd	a4,16(a5)
   1229a:	008c0733          	add	a4,s8,s0
   1229e:	408987b3          	sub	a5,s3,s0
   122a2:	00ebb823          	sd	a4,16(s7)
   122a6:	0017e793          	ori	a5,a5,1
   122aa:	e71c                	sd	a5,8(a4)
   122ac:	008c3783          	ld	a5,8(s8)
   122b0:	8552                	mv	a0,s4
   122b2:	8b85                	andi	a5,a5,1
   122b4:	8c5d                	or	s0,s0,a5
   122b6:	008c3423          	sd	s0,8(s8)
   122ba:	cc7ff0ef          	jal	ra,11f80 <__malloc_unlock>
   122be:	bdb1                	j	1211a <_realloc_r+0x106>
   122c0:	e114                	sd	a3,0(a0)
   122c2:	008ab683          	ld	a3,8(s5)
   122c6:	03700713          	li	a4,55
   122ca:	e514                	sd	a3,8(a0)
   122cc:	0ec76c63          	bltu	a4,a2,123c4 <_realloc_r+0x3b0>
   122d0:	010a8713          	addi	a4,s5,16
   122d4:	01050793          	addi	a5,a0,16
   122d8:	010ab683          	ld	a3,16(s5)
   122dc:	bd11                	j	120f0 <_realloc_r+0xdc>
   122de:	9b22                	add	s6,s6,s0
   122e0:	408687b3          	sub	a5,a3,s0
   122e4:	016bb823          	sd	s6,16(s7)
   122e8:	0017e793          	ori	a5,a5,1
   122ec:	00fb3423          	sd	a5,8(s6)
   122f0:	ff8ab783          	ld	a5,-8(s5)
   122f4:	8552                	mv	a0,s4
   122f6:	8956                	mv	s2,s5
   122f8:	8b85                	andi	a5,a5,1
   122fa:	8c5d                	or	s0,s0,a5
   122fc:	fe8abc23          	sd	s0,-8(s5)
   12300:	c81ff0ef          	jal	ra,11f80 <__malloc_unlock>
   12304:	bd19                	j	1211a <_realloc_r+0x106>
   12306:	0189b783          	ld	a5,24(s3)
   1230a:	0109b703          	ld	a4,16(s3)
   1230e:	84b6                	mv	s1,a3
   12310:	00db09b3          	add	s3,s6,a3
   12314:	ef1c                	sd	a5,24(a4)
   12316:	eb98                	sd	a4,16(a5)
   12318:	bdb5                	j	12194 <_realloc_r+0x180>
   1231a:	ff853783          	ld	a5,-8(a0)
   1231e:	9bf1                	andi	a5,a5,-4
   12320:	94be                	add	s1,s1,a5
   12322:	009b09b3          	add	s3,s6,s1
   12326:	b5bd                	j	12194 <_realloc_r+0x180>
   12328:	85d6                	mv	a1,s5
   1232a:	ad5ff0ef          	jal	ra,11dfe <memmove>
   1232e:	b3f1                	j	120fa <_realloc_r+0xe6>
   12330:	0189b783          	ld	a5,24(s3)
   12334:	0109b703          	ld	a4,16(s3)
   12338:	ff848613          	addi	a2,s1,-8
   1233c:	04800693          	li	a3,72
   12340:	ef1c                	sd	a5,24(a4)
   12342:	eb98                	sd	a4,16(a5)
   12344:	010c3703          	ld	a4,16(s8)
   12348:	018c3783          	ld	a5,24(s8)
   1234c:	010c0913          	addi	s2,s8,16
   12350:	017c09b3          	add	s3,s8,s7
   12354:	ef1c                	sd	a5,24(a4)
   12356:	eb98                	sd	a4,16(a5)
   12358:	04c6ee63          	bltu	a3,a2,123b4 <_realloc_r+0x3a0>
   1235c:	02700693          	li	a3,39
   12360:	000ab703          	ld	a4,0(s5)
   12364:	87ca                	mv	a5,s2
   12366:	e0c6fde3          	bgeu	a3,a2,12180 <_realloc_r+0x16c>
   1236a:	00ec3823          	sd	a4,16(s8)
   1236e:	008ab703          	ld	a4,8(s5)
   12372:	03700793          	li	a5,55
   12376:	00ec3c23          	sd	a4,24(s8)
   1237a:	010ab703          	ld	a4,16(s5)
   1237e:	dec7fee3          	bgeu	a5,a2,1217a <_realloc_r+0x166>
   12382:	02ec3023          	sd	a4,32(s8)
   12386:	018ab703          	ld	a4,24(s5)
   1238a:	04800793          	li	a5,72
   1238e:	02ec3423          	sd	a4,40(s8)
   12392:	020ab703          	ld	a4,32(s5)
   12396:	06f61f63          	bne	a2,a5,12414 <_realloc_r+0x400>
   1239a:	02ec3823          	sd	a4,48(s8)
   1239e:	028ab703          	ld	a4,40(s5)
   123a2:	040c0793          	addi	a5,s8,64
   123a6:	030a8a93          	addi	s5,s5,48
   123aa:	02ec3c23          	sd	a4,56(s8)
   123ae:	000ab703          	ld	a4,0(s5)
   123b2:	b3f9                	j	12180 <_realloc_r+0x16c>
   123b4:	85d6                	mv	a1,s5
   123b6:	854a                	mv	a0,s2
   123b8:	a47ff0ef          	jal	ra,11dfe <memmove>
   123bc:	8aca                	mv	s5,s2
   123be:	84de                	mv	s1,s7
   123c0:	8b62                	mv	s6,s8
   123c2:	bbc9                	j	12194 <_realloc_r+0x180>
   123c4:	010ab703          	ld	a4,16(s5)
   123c8:	e918                	sd	a4,16(a0)
   123ca:	018ab703          	ld	a4,24(s5)
   123ce:	ed18                	sd	a4,24(a0)
   123d0:	00f60963          	beq	a2,a5,123e2 <_realloc_r+0x3ce>
   123d4:	020a8713          	addi	a4,s5,32
   123d8:	02050793          	addi	a5,a0,32
   123dc:	020ab683          	ld	a3,32(s5)
   123e0:	bb01                	j	120f0 <_realloc_r+0xdc>
   123e2:	020ab683          	ld	a3,32(s5)
   123e6:	030a8713          	addi	a4,s5,48
   123ea:	03050793          	addi	a5,a0,48
   123ee:	f114                	sd	a3,32(a0)
   123f0:	028ab683          	ld	a3,40(s5)
   123f4:	f514                	sd	a3,40(a0)
   123f6:	030ab683          	ld	a3,48(s5)
   123fa:	b9dd                	j	120f0 <_realloc_r+0xdc>
   123fc:	010ab783          	ld	a5,16(s5)
   12400:	02fc3023          	sd	a5,32(s8)
   12404:	018ab783          	ld	a5,24(s5)
   12408:	02fc3423          	sd	a5,40(s8)
   1240c:	020ab703          	ld	a4,32(s5)
   12410:	f8d605e3          	beq	a2,a3,1239a <_realloc_r+0x386>
   12414:	030c0793          	addi	a5,s8,48
   12418:	020a8a93          	addi	s5,s5,32
   1241c:	b395                	j	12180 <_realloc_r+0x16c>
   1241e:	85d6                	mv	a1,s5
   12420:	854a                	mv	a0,s2
   12422:	9ddff0ef          	jal	ra,11dfe <memmove>
   12426:	bd95                	j	1229a <_realloc_r+0x286>
   12428:	010ab783          	ld	a5,16(s5)
   1242c:	02fc3023          	sd	a5,32(s8)
   12430:	018ab783          	ld	a5,24(s5)
   12434:	02fc3423          	sd	a5,40(s8)
   12438:	020ab703          	ld	a4,32(s5)
   1243c:	00d60763          	beq	a2,a3,1244a <_realloc_r+0x436>
   12440:	030c0793          	addi	a5,s8,48
   12444:	020a8a93          	addi	s5,s5,32
   12448:	b591                	j	1228c <_realloc_r+0x278>
   1244a:	02ec3823          	sd	a4,48(s8)
   1244e:	028ab703          	ld	a4,40(s5)
   12452:	040c0793          	addi	a5,s8,64
   12456:	030a8a93          	addi	s5,s5,48
   1245a:	02ec3c23          	sd	a4,56(s8)
   1245e:	000ab703          	ld	a4,0(s5)
   12462:	b52d                	j	1228c <_realloc_r+0x278>

0000000000012464 <cleanup_glue>:
   12464:	1101                	addi	sp,sp,-32
   12466:	e822                	sd	s0,16(sp)
   12468:	842e                	mv	s0,a1
   1246a:	618c                	ld	a1,0(a1)
   1246c:	e426                	sd	s1,8(sp)
   1246e:	ec06                	sd	ra,24(sp)
   12470:	84aa                	mv	s1,a0
   12472:	c199                	beqz	a1,12478 <cleanup_glue+0x14>
   12474:	ff1ff0ef          	jal	ra,12464 <cleanup_glue>
   12478:	85a2                	mv	a1,s0
   1247a:	6442                	ld	s0,16(sp)
   1247c:	60e2                	ld	ra,24(sp)
   1247e:	8526                	mv	a0,s1
   12480:	64a2                	ld	s1,8(sp)
   12482:	6105                	addi	sp,sp,32
   12484:	e0cfe06f          	j	10a90 <_free_r>

0000000000012488 <_reclaim_reent>:
   12488:	7581b783          	ld	a5,1880(gp) # 1f6e8 <_impure_ptr>
   1248c:	0aa78063          	beq	a5,a0,1252c <_reclaim_reent+0xa4>
   12490:	7d38                	ld	a4,120(a0)
   12492:	7179                	addi	sp,sp,-48
   12494:	ec26                	sd	s1,24(sp)
   12496:	f406                	sd	ra,40(sp)
   12498:	f022                	sd	s0,32(sp)
   1249a:	e84a                	sd	s2,16(sp)
   1249c:	e44e                	sd	s3,8(sp)
   1249e:	84aa                	mv	s1,a0
   124a0:	c715                	beqz	a4,124cc <_reclaim_reent+0x44>
   124a2:	4901                	li	s2,0
   124a4:	20000993          	li	s3,512
   124a8:	012707b3          	add	a5,a4,s2
   124ac:	638c                	ld	a1,0(a5)
   124ae:	c981                	beqz	a1,124be <_reclaim_reent+0x36>
   124b0:	6180                	ld	s0,0(a1)
   124b2:	8526                	mv	a0,s1
   124b4:	ddcfe0ef          	jal	ra,10a90 <_free_r>
   124b8:	85a2                	mv	a1,s0
   124ba:	f87d                	bnez	s0,124b0 <_reclaim_reent+0x28>
   124bc:	7cb8                	ld	a4,120(s1)
   124be:	0921                	addi	s2,s2,8
   124c0:	ff3914e3          	bne	s2,s3,124a8 <_reclaim_reent+0x20>
   124c4:	85ba                	mv	a1,a4
   124c6:	8526                	mv	a0,s1
   124c8:	dc8fe0ef          	jal	ra,10a90 <_free_r>
   124cc:	70ac                	ld	a1,96(s1)
   124ce:	c581                	beqz	a1,124d6 <_reclaim_reent+0x4e>
   124d0:	8526                	mv	a0,s1
   124d2:	dbefe0ef          	jal	ra,10a90 <_free_r>
   124d6:	1f84b583          	ld	a1,504(s1)
   124da:	cd81                	beqz	a1,124f2 <_reclaim_reent+0x6a>
   124dc:	20048913          	addi	s2,s1,512
   124e0:	01258963          	beq	a1,s2,124f2 <_reclaim_reent+0x6a>
   124e4:	6180                	ld	s0,0(a1)
   124e6:	8526                	mv	a0,s1
   124e8:	da8fe0ef          	jal	ra,10a90 <_free_r>
   124ec:	85a2                	mv	a1,s0
   124ee:	fe891be3          	bne	s2,s0,124e4 <_reclaim_reent+0x5c>
   124f2:	64cc                	ld	a1,136(s1)
   124f4:	c581                	beqz	a1,124fc <_reclaim_reent+0x74>
   124f6:	8526                	mv	a0,s1
   124f8:	d98fe0ef          	jal	ra,10a90 <_free_r>
   124fc:	48bc                	lw	a5,80(s1)
   124fe:	c385                	beqz	a5,1251e <_reclaim_reent+0x96>
   12500:	6cbc                	ld	a5,88(s1)
   12502:	8526                	mv	a0,s1
   12504:	9782                	jalr	a5
   12506:	5204b583          	ld	a1,1312(s1)
   1250a:	c991                	beqz	a1,1251e <_reclaim_reent+0x96>
   1250c:	7402                	ld	s0,32(sp)
   1250e:	70a2                	ld	ra,40(sp)
   12510:	6942                	ld	s2,16(sp)
   12512:	69a2                	ld	s3,8(sp)
   12514:	8526                	mv	a0,s1
   12516:	64e2                	ld	s1,24(sp)
   12518:	6145                	addi	sp,sp,48
   1251a:	f4bff06f          	j	12464 <cleanup_glue>
   1251e:	70a2                	ld	ra,40(sp)
   12520:	7402                	ld	s0,32(sp)
   12522:	64e2                	ld	s1,24(sp)
   12524:	6942                	ld	s2,16(sp)
   12526:	69a2                	ld	s3,8(sp)
   12528:	6145                	addi	sp,sp,48
   1252a:	8082                	ret
   1252c:	8082                	ret

000000000001252e <lflush>:
   1252e:	01055783          	lhu	a5,16(a0)
   12532:	4725                	li	a4,9
   12534:	8ba5                	andi	a5,a5,9
   12536:	00e78463          	beq	a5,a4,1253e <lflush+0x10>
   1253a:	4501                	li	a0,0
   1253c:	8082                	ret
   1253e:	fa3fd06f          	j	104e0 <fflush>

0000000000012542 <__srefill_r>:
   12542:	7179                	addi	sp,sp,-48
   12544:	f022                	sd	s0,32(sp)
   12546:	ec26                	sd	s1,24(sp)
   12548:	f406                	sd	ra,40(sp)
   1254a:	e84a                	sd	s2,16(sp)
   1254c:	e44e                	sd	s3,8(sp)
   1254e:	84aa                	mv	s1,a0
   12550:	842e                	mv	s0,a1
   12552:	c119                	beqz	a0,12558 <__srefill_r+0x16>
   12554:	493c                	lw	a5,80(a0)
   12556:	c3f1                	beqz	a5,1261a <__srefill_r+0xd8>
   12558:	01041703          	lh	a4,16(s0)
   1255c:	03071793          	slli	a5,a4,0x30
   12560:	93c1                	srli	a5,a5,0x30
   12562:	03279693          	slli	a3,a5,0x32
   12566:	0206c063          	bltz	a3,12586 <__srefill_r+0x44>
   1256a:	0ac42783          	lw	a5,172(s0)
   1256e:	6689                	lui	a3,0x2
   12570:	8f55                	or	a4,a4,a3
   12572:	76f9                	lui	a3,0xffffe
   12574:	16fd                	addi	a3,a3,-1
   12576:	8ff5                	and	a5,a5,a3
   12578:	0af42623          	sw	a5,172(s0)
   1257c:	03071793          	slli	a5,a4,0x30
   12580:	00e41823          	sh	a4,16(s0)
   12584:	93c1                	srli	a5,a5,0x30
   12586:	00042423          	sw	zero,8(s0)
   1258a:	0207f693          	andi	a3,a5,32
   1258e:	0e069863          	bnez	a3,1267e <__srefill_r+0x13c>
   12592:	0047f693          	andi	a3,a5,4
   12596:	eab1                	bnez	a3,125ea <__srefill_r+0xa8>
   12598:	0107f693          	andi	a3,a5,16
   1259c:	0e068c63          	beqz	a3,12694 <__srefill_r+0x152>
   125a0:	8ba1                	andi	a5,a5,8
   125a2:	e7d5                	bnez	a5,1264e <__srefill_r+0x10c>
   125a4:	00476713          	ori	a4,a4,4
   125a8:	00e41823          	sh	a4,16(s0)
   125ac:	6c1c                	ld	a5,24(s0)
   125ae:	cfcd                	beqz	a5,12668 <__srefill_r+0x126>
   125b0:	01041983          	lh	s3,16(s0)
   125b4:	03099913          	slli	s2,s3,0x30
   125b8:	03095913          	srli	s2,s2,0x30
   125bc:	00397793          	andi	a5,s2,3
   125c0:	e3a5                	bnez	a5,12620 <__srefill_r+0xde>
   125c2:	6c10                	ld	a2,24(s0)
   125c4:	7c1c                	ld	a5,56(s0)
   125c6:	5014                	lw	a3,32(s0)
   125c8:	780c                	ld	a1,48(s0)
   125ca:	e010                	sd	a2,0(s0)
   125cc:	8526                	mv	a0,s1
   125ce:	9782                	jalr	a5
   125d0:	0005079b          	sext.w	a5,a0
   125d4:	c41c                	sw	a5,8(s0)
   125d6:	4501                	li	a0,0
   125d8:	0af05563          	blez	a5,12682 <__srefill_r+0x140>
   125dc:	70a2                	ld	ra,40(sp)
   125de:	7402                	ld	s0,32(sp)
   125e0:	64e2                	ld	s1,24(sp)
   125e2:	6942                	ld	s2,16(sp)
   125e4:	69a2                	ld	s3,8(sp)
   125e6:	6145                	addi	sp,sp,48
   125e8:	8082                	ret
   125ea:	6c2c                	ld	a1,88(s0)
   125ec:	d1e1                	beqz	a1,125ac <__srefill_r+0x6a>
   125ee:	07440793          	addi	a5,s0,116
   125f2:	00f58563          	beq	a1,a5,125fc <__srefill_r+0xba>
   125f6:	8526                	mv	a0,s1
   125f8:	c98fe0ef          	jal	ra,10a90 <_free_r>
   125fc:	583c                	lw	a5,112(s0)
   125fe:	04043c23          	sd	zero,88(s0)
   12602:	c41c                	sw	a5,8(s0)
   12604:	d7c5                	beqz	a5,125ac <__srefill_r+0x6a>
   12606:	743c                	ld	a5,104(s0)
   12608:	70a2                	ld	ra,40(sp)
   1260a:	64e2                	ld	s1,24(sp)
   1260c:	e01c                	sd	a5,0(s0)
   1260e:	7402                	ld	s0,32(sp)
   12610:	6942                	ld	s2,16(sp)
   12612:	69a2                	ld	s3,8(sp)
   12614:	4501                	li	a0,0
   12616:	6145                	addi	sp,sp,48
   12618:	8082                	ret
   1261a:	a08fe0ef          	jal	ra,10822 <__sinit>
   1261e:	bf2d                	j	12558 <__srefill_r+0x16>
   12620:	7481b503          	ld	a0,1864(gp) # 1f6d8 <_global_impure_ptr>
   12624:	000125b7          	lui	a1,0x12
   12628:	4785                	li	a5,1
   1262a:	00f41823          	sh	a5,16(s0)
   1262e:	52e58593          	addi	a1,a1,1326 # 1252e <lflush>
   12632:	d51fe0ef          	jal	ra,11382 <_fwalk>
   12636:	00997913          	andi	s2,s2,9
   1263a:	01341823          	sh	s3,16(s0)
   1263e:	47a5                	li	a5,9
   12640:	f8f911e3          	bne	s2,a5,125c2 <__srefill_r+0x80>
   12644:	85a2                	mv	a1,s0
   12646:	8526                	mv	a0,s1
   12648:	ccbfd0ef          	jal	ra,10312 <__sflush_r>
   1264c:	bf9d                	j	125c2 <__srefill_r+0x80>
   1264e:	85a2                	mv	a1,s0
   12650:	8526                	mv	a0,s1
   12652:	e57fd0ef          	jal	ra,104a8 <_fflush_r>
   12656:	e505                	bnez	a0,1267e <__srefill_r+0x13c>
   12658:	01041703          	lh	a4,16(s0)
   1265c:	00042623          	sw	zero,12(s0)
   12660:	02042423          	sw	zero,40(s0)
   12664:	9b5d                	andi	a4,a4,-9
   12666:	bf3d                	j	125a4 <__srefill_r+0x62>
   12668:	85a2                	mv	a1,s0
   1266a:	8526                	mv	a0,s1
   1266c:	f23fe0ef          	jal	ra,1158e <__smakebuf_r>
   12670:	b781                	j	125b0 <__srefill_r+0x6e>
   12672:	04076713          	ori	a4,a4,64
   12676:	00042423          	sw	zero,8(s0)
   1267a:	00e41823          	sh	a4,16(s0)
   1267e:	557d                	li	a0,-1
   12680:	bfb1                	j	125dc <__srefill_r+0x9a>
   12682:	01041703          	lh	a4,16(s0)
   12686:	f7f5                	bnez	a5,12672 <__srefill_r+0x130>
   12688:	02076713          	ori	a4,a4,32
   1268c:	00e41823          	sh	a4,16(s0)
   12690:	557d                	li	a0,-1
   12692:	b7a9                	j	125dc <__srefill_r+0x9a>
   12694:	47a5                	li	a5,9
   12696:	c09c                	sw	a5,0(s1)
   12698:	04076713          	ori	a4,a4,64
   1269c:	00e41823          	sh	a4,16(s0)
   126a0:	557d                	li	a0,-1
   126a2:	bf2d                	j	125dc <__srefill_r+0x9a>

00000000000126a4 <_sbrk_r>:
   126a4:	1101                	addi	sp,sp,-32
   126a6:	e822                	sd	s0,16(sp)
   126a8:	e426                	sd	s1,8(sp)
   126aa:	0001f437          	lui	s0,0x1f
   126ae:	84aa                	mv	s1,a0
   126b0:	852e                	mv	a0,a1
   126b2:	ec06                	sd	ra,24(sp)
   126b4:	78042423          	sw	zero,1928(s0) # 1f788 <errno>
   126b8:	463080ef          	jal	ra,1b31a <_sbrk>
   126bc:	57fd                	li	a5,-1
   126be:	00f50763          	beq	a0,a5,126cc <_sbrk_r+0x28>
   126c2:	60e2                	ld	ra,24(sp)
   126c4:	6442                	ld	s0,16(sp)
   126c6:	64a2                	ld	s1,8(sp)
   126c8:	6105                	addi	sp,sp,32
   126ca:	8082                	ret
   126cc:	78842783          	lw	a5,1928(s0)
   126d0:	dbed                	beqz	a5,126c2 <_sbrk_r+0x1e>
   126d2:	60e2                	ld	ra,24(sp)
   126d4:	6442                	ld	s0,16(sp)
   126d6:	c09c                	sw	a5,0(s1)
   126d8:	64a2                	ld	s1,8(sp)
   126da:	6105                	addi	sp,sp,32
   126dc:	8082                	ret

00000000000126de <__sread>:
   126de:	1141                	addi	sp,sp,-16
   126e0:	e022                	sd	s0,0(sp)
   126e2:	842e                	mv	s0,a1
   126e4:	01259583          	lh	a1,18(a1)
   126e8:	e406                	sd	ra,8(sp)
   126ea:	669040ef          	jal	ra,17552 <_read_r>
   126ee:	00054963          	bltz	a0,12700 <__sread+0x22>
   126f2:	685c                	ld	a5,144(s0)
   126f4:	60a2                	ld	ra,8(sp)
   126f6:	97aa                	add	a5,a5,a0
   126f8:	e85c                	sd	a5,144(s0)
   126fa:	6402                	ld	s0,0(sp)
   126fc:	0141                	addi	sp,sp,16
   126fe:	8082                	ret
   12700:	01045783          	lhu	a5,16(s0)
   12704:	777d                	lui	a4,0xfffff
   12706:	177d                	addi	a4,a4,-1
   12708:	8ff9                	and	a5,a5,a4
   1270a:	00f41823          	sh	a5,16(s0)
   1270e:	60a2                	ld	ra,8(sp)
   12710:	6402                	ld	s0,0(sp)
   12712:	0141                	addi	sp,sp,16
   12714:	8082                	ret

0000000000012716 <__seofread>:
   12716:	4501                	li	a0,0
   12718:	8082                	ret

000000000001271a <__swrite>:
   1271a:	01059783          	lh	a5,16(a1)
   1271e:	7179                	addi	sp,sp,-48
   12720:	f022                	sd	s0,32(sp)
   12722:	ec26                	sd	s1,24(sp)
   12724:	e84a                	sd	s2,16(sp)
   12726:	e44e                	sd	s3,8(sp)
   12728:	f406                	sd	ra,40(sp)
   1272a:	1007f713          	andi	a4,a5,256
   1272e:	842e                	mv	s0,a1
   12730:	84aa                	mv	s1,a0
   12732:	8932                	mv	s2,a2
   12734:	89b6                	mv	s3,a3
   12736:	01259583          	lh	a1,18(a1)
   1273a:	e30d                	bnez	a4,1275c <__swrite+0x42>
   1273c:	777d                	lui	a4,0xfffff
   1273e:	177d                	addi	a4,a4,-1
   12740:	8ff9                	and	a5,a5,a4
   12742:	00f41823          	sh	a5,16(s0)
   12746:	7402                	ld	s0,32(sp)
   12748:	70a2                	ld	ra,40(sp)
   1274a:	86ce                	mv	a3,s3
   1274c:	864a                	mv	a2,s2
   1274e:	69a2                	ld	s3,8(sp)
   12750:	6942                	ld	s2,16(sp)
   12752:	8526                	mv	a0,s1
   12754:	64e2                	ld	s1,24(sp)
   12756:	6145                	addi	sp,sp,48
   12758:	56b0106f          	j	144c2 <_write_r>
   1275c:	4689                	li	a3,2
   1275e:	4601                	li	a2,0
   12760:	240040ef          	jal	ra,169a0 <_lseek_r>
   12764:	01041783          	lh	a5,16(s0)
   12768:	01241583          	lh	a1,18(s0)
   1276c:	bfc1                	j	1273c <__swrite+0x22>

000000000001276e <__sseek>:
   1276e:	1141                	addi	sp,sp,-16
   12770:	e022                	sd	s0,0(sp)
   12772:	842e                	mv	s0,a1
   12774:	01259583          	lh	a1,18(a1)
   12778:	e406                	sd	ra,8(sp)
   1277a:	226040ef          	jal	ra,169a0 <_lseek_r>
   1277e:	57fd                	li	a5,-1
   12780:	00f50d63          	beq	a0,a5,1279a <__sseek+0x2c>
   12784:	01045783          	lhu	a5,16(s0)
   12788:	6705                	lui	a4,0x1
   1278a:	e848                	sd	a0,144(s0)
   1278c:	8fd9                	or	a5,a5,a4
   1278e:	00f41823          	sh	a5,16(s0)
   12792:	60a2                	ld	ra,8(sp)
   12794:	6402                	ld	s0,0(sp)
   12796:	0141                	addi	sp,sp,16
   12798:	8082                	ret
   1279a:	01045783          	lhu	a5,16(s0)
   1279e:	777d                	lui	a4,0xfffff
   127a0:	177d                	addi	a4,a4,-1
   127a2:	8ff9                	and	a5,a5,a4
   127a4:	00f41823          	sh	a5,16(s0)
   127a8:	60a2                	ld	ra,8(sp)
   127aa:	6402                	ld	s0,0(sp)
   127ac:	0141                	addi	sp,sp,16
   127ae:	8082                	ret

00000000000127b0 <__sclose>:
   127b0:	01259583          	lh	a1,18(a1)
   127b4:	7750106f          	j	14728 <_close_r>

00000000000127b8 <strlen>:
   127b8:	00757793          	andi	a5,a0,7
   127bc:	872a                	mv	a4,a0
   127be:	efa1                	bnez	a5,12816 <strlen+0x5e>
   127c0:	0001f7b7          	lui	a5,0x1f
   127c4:	6b87b683          	ld	a3,1720(a5) # 1f6b8 <mask>
   127c8:	55fd                	li	a1,-1
   127ca:	0721                	addi	a4,a4,8
   127cc:	ff873603          	ld	a2,-8(a4) # ffffffffffffeff8 <__BSS_END__+0xfffffffffffdf868>
   127d0:	00d677b3          	and	a5,a2,a3
   127d4:	97b6                	add	a5,a5,a3
   127d6:	8fd1                	or	a5,a5,a2
   127d8:	8fd5                	or	a5,a5,a3
   127da:	feb788e3          	beq	a5,a1,127ca <strlen+0x12>
   127de:	ff874783          	lbu	a5,-8(a4)
   127e2:	40a706b3          	sub	a3,a4,a0
   127e6:	c7a9                	beqz	a5,12830 <strlen+0x78>
   127e8:	ff974783          	lbu	a5,-7(a4)
   127ec:	cf9d                	beqz	a5,1282a <strlen+0x72>
   127ee:	ffa74783          	lbu	a5,-6(a4)
   127f2:	c7a9                	beqz	a5,1283c <strlen+0x84>
   127f4:	ffb74783          	lbu	a5,-5(a4)
   127f8:	cf9d                	beqz	a5,12836 <strlen+0x7e>
   127fa:	ffc74603          	lbu	a2,-4(a4)
   127fe:	ffd74583          	lbu	a1,-3(a4)
   12802:	ffe74783          	lbu	a5,-2(a4)
   12806:	ce15                	beqz	a2,12842 <strlen+0x8a>
   12808:	c1a1                	beqz	a1,12848 <strlen+0x90>
   1280a:	00f03533          	snez	a0,a5
   1280e:	9536                	add	a0,a0,a3
   12810:	1579                	addi	a0,a0,-2
   12812:	8082                	ret
   12814:	d6d5                	beqz	a3,127c0 <strlen+0x8>
   12816:	00074783          	lbu	a5,0(a4)
   1281a:	0705                	addi	a4,a4,1
   1281c:	00777693          	andi	a3,a4,7
   12820:	fbf5                	bnez	a5,12814 <strlen+0x5c>
   12822:	8f09                	sub	a4,a4,a0
   12824:	fff70513          	addi	a0,a4,-1
   12828:	8082                	ret
   1282a:	ff968513          	addi	a0,a3,-7 # ffffffffffffdff9 <__BSS_END__+0xfffffffffffde869>
   1282e:	8082                	ret
   12830:	ff868513          	addi	a0,a3,-8
   12834:	8082                	ret
   12836:	ffb68513          	addi	a0,a3,-5
   1283a:	8082                	ret
   1283c:	ffa68513          	addi	a0,a3,-6
   12840:	8082                	ret
   12842:	ffc68513          	addi	a0,a3,-4
   12846:	8082                	ret
   12848:	ffd68513          	addi	a0,a3,-3
   1284c:	8082                	ret

000000000001284e <_vfprintf_r>:
   1284e:	d8010113          	addi	sp,sp,-640
   12852:	26113c23          	sd	ra,632(sp)
   12856:	25313c23          	sd	s3,600(sp)
   1285a:	25413823          	sd	s4,592(sp)
   1285e:	23a13023          	sd	s10,544(sp)
   12862:	89ae                	mv	s3,a1
   12864:	8d32                	mv	s10,a2
   12866:	e836                	sd	a3,16(sp)
   12868:	26813823          	sd	s0,624(sp)
   1286c:	26913423          	sd	s1,616(sp)
   12870:	27213023          	sd	s2,608(sp)
   12874:	25513423          	sd	s5,584(sp)
   12878:	25613023          	sd	s6,576(sp)
   1287c:	23713c23          	sd	s7,568(sp)
   12880:	23813823          	sd	s8,560(sp)
   12884:	23913423          	sd	s9,552(sp)
   12888:	21b13c23          	sd	s11,536(sp)
   1288c:	8a2a                	mv	s4,a0
   1288e:	052040ef          	jal	ra,168e0 <_localeconv_r>
   12892:	611c                	ld	a5,0(a0)
   12894:	853e                	mv	a0,a5
   12896:	f8be                	sd	a5,112(sp)
   12898:	f21ff0ef          	jal	ra,127b8 <strlen>
   1289c:	f4aa                	sd	a0,104(sp)
   1289e:	e202                	sd	zero,256(sp)
   128a0:	e602                	sd	zero,264(sp)
   128a2:	000a0663          	beqz	s4,128ae <_vfprintf_r+0x60>
   128a6:	050a2783          	lw	a5,80(s4)
   128aa:	1c0780e3          	beqz	a5,1326a <_vfprintf_r+0xa1c>
   128ae:	01099683          	lh	a3,16(s3)
   128b2:	03069793          	slli	a5,a3,0x30
   128b6:	93c1                	srli	a5,a5,0x30
   128b8:	03279713          	slli	a4,a5,0x32
   128bc:	00074f63          	bltz	a4,128da <_vfprintf_r+0x8c>
   128c0:	0ac9a603          	lw	a2,172(s3)
   128c4:	6789                	lui	a5,0x2
   128c6:	8fd5                	or	a5,a5,a3
   128c8:	76f9                	lui	a3,0xffffe
   128ca:	16fd                	addi	a3,a3,-1
   128cc:	8ef1                	and	a3,a3,a2
   128ce:	00f99823          	sh	a5,16(s3)
   128d2:	17c2                	slli	a5,a5,0x30
   128d4:	0ad9a623          	sw	a3,172(s3)
   128d8:	93c1                	srli	a5,a5,0x30
   128da:	0087f693          	andi	a3,a5,8
   128de:	cafd                	beqz	a3,129d4 <_vfprintf_r+0x186>
   128e0:	0189b683          	ld	a3,24(s3)
   128e4:	cae5                	beqz	a3,129d4 <_vfprintf_r+0x186>
   128e6:	8be9                	andi	a5,a5,26
   128e8:	46a9                	li	a3,10
   128ea:	10d78263          	beq	a5,a3,129ee <_vfprintf_r+0x1a0>
   128ee:	0001d7b7          	lui	a5,0x1d
   128f2:	a487b783          	ld	a5,-1464(a5) # 1ca48 <zeroes.4550+0x40>
   128f6:	19010a93          	addi	s5,sp,400
   128fa:	ea56                	sd	s5,272(sp)
   128fc:	f13e                	sd	a5,160(sp)
   128fe:	0001d7b7          	lui	a5,0x1d
   12902:	a287b783          	ld	a5,-1496(a5) # 1ca28 <zeroes.4550+0x20>
   12906:	f202                	sd	zero,288(sp)
   12908:	10012c23          	sw	zero,280(sp)
   1290c:	e93e                	sd	a5,144(sp)
   1290e:	0001d7b7          	lui	a5,0x1d
   12912:	a387b783          	ld	a5,-1480(a5) # 1ca38 <zeroes.4550+0x30>
   12916:	f002                	sd	zero,32(sp)
   12918:	f402                	sd	zero,40(sp)
   1291a:	ed3e                	sd	a5,152(sp)
   1291c:	000d4783          	lbu	a5,0(s10)
   12920:	e102                	sd	zero,128(sp)
   12922:	f082                	sd	zero,96(sp)
   12924:	fc82                	sd	zero,120(sp)
   12926:	e502                	sd	zero,136(sp)
   12928:	e402                	sd	zero,8(sp)
   1292a:	8356                	mv	t1,s5
   1292c:	72078e63          	beqz	a5,13068 <_vfprintf_r+0x81a>
   12930:	02500693          	li	a3,37
   12934:	00d79463          	bne	a5,a3,1293c <_vfprintf_r+0xee>
   12938:	0960106f          	j	139ce <_vfprintf_r+0x1180>
   1293c:	846a                	mv	s0,s10
   1293e:	a021                	j	12946 <_vfprintf_r+0xf8>
   12940:	0cd78363          	beq	a5,a3,12a06 <_vfprintf_r+0x1b8>
   12944:	844a                	mv	s0,s2
   12946:	00144783          	lbu	a5,1(s0)
   1294a:	00140913          	addi	s2,s0,1
   1294e:	fbed                	bnez	a5,12940 <_vfprintf_r+0xf2>
   12950:	41a904bb          	subw	s1,s2,s10
   12954:	70048a63          	beqz	s1,13068 <_vfprintf_r+0x81a>
   12958:	7692                	ld	a3,288(sp)
   1295a:	11812783          	lw	a5,280(sp)
   1295e:	01a33023          	sd	s10,0(t1)
   12962:	96a6                	add	a3,a3,s1
   12964:	2785                	addiw	a5,a5,1
   12966:	00933423          	sd	s1,8(t1)
   1296a:	f236                	sd	a3,288(sp)
   1296c:	10f12c23          	sw	a5,280(sp)
   12970:	0007869b          	sext.w	a3,a5
   12974:	479d                	li	a5,7
   12976:	0341                	addi	t1,t1,16
   12978:	08d7cb63          	blt	a5,a3,12a0e <_vfprintf_r+0x1c0>
   1297c:	6722                	ld	a4,8(sp)
   1297e:	00144783          	lbu	a5,1(s0)
   12982:	9f25                	addw	a4,a4,s1
   12984:	e43a                	sd	a4,8(sp)
   12986:	6e078163          	beqz	a5,13068 <_vfprintf_r+0x81a>
   1298a:	67f5                	lui	a5,0x1d
   1298c:	00190493          	addi	s1,s2,1
   12990:	00194e83          	lbu	t4,1(s2)
   12994:	0c010fa3          	sb	zero,223(sp)
   12998:	5c7d                	li	s8,-1
   1299a:	4b01                	li	s6,0
   1299c:	4401                	li	s0,0
   1299e:	05a00913          	li	s2,90
   129a2:	88878b93          	addi	s7,a5,-1912 # 1c888 <__clzdi2+0x5a>
   129a6:	4da5                	li	s11,9
   129a8:	0485                	addi	s1,s1,1
   129aa:	000e8c9b          	sext.w	s9,t4
   129ae:	02a00613          	li	a2,42
   129b2:	fe0c879b          	addiw	a5,s9,-32
   129b6:	0007869b          	sext.w	a3,a5
   129ba:	18d96363          	bltu	s2,a3,12b40 <_vfprintf_r+0x2f2>
   129be:	1782                	slli	a5,a5,0x20
   129c0:	83f9                	srli	a5,a5,0x1e
   129c2:	97de                	add	a5,a5,s7
   129c4:	439c                	lw	a5,0(a5)
   129c6:	8782                	jr	a5
   129c8:	01046413          	ori	s0,s0,16
   129cc:	2401                	sext.w	s0,s0
   129ce:	0004ce83          	lbu	t4,0(s1)
   129d2:	bfd9                	j	129a8 <_vfprintf_r+0x15a>
   129d4:	85ce                	mv	a1,s3
   129d6:	8552                	mv	a0,s4
   129d8:	32b010ef          	jal	ra,14502 <__swsetup_r>
   129dc:	c119                	beqz	a0,129e2 <_vfprintf_r+0x194>
   129de:	7700106f          	j	1414e <_vfprintf_r+0x1900>
   129e2:	0109d783          	lhu	a5,16(s3)
   129e6:	46a9                	li	a3,10
   129e8:	8be9                	andi	a5,a5,26
   129ea:	f0d792e3          	bne	a5,a3,128ee <_vfprintf_r+0xa0>
   129ee:	01299783          	lh	a5,18(s3)
   129f2:	ee07cee3          	bltz	a5,128ee <_vfprintf_r+0xa0>
   129f6:	66c2                	ld	a3,16(sp)
   129f8:	866a                	mv	a2,s10
   129fa:	85ce                	mv	a1,s3
   129fc:	8552                	mv	a0,s4
   129fe:	231010ef          	jal	ra,1442e <__sbprintf>
   12a02:	e42a                	sd	a0,8(sp)
   12a04:	a089                	j	12a46 <_vfprintf_r+0x1f8>
   12a06:	41a904bb          	subw	s1,s2,s10
   12a0a:	d0c1                	beqz	s1,1298a <_vfprintf_r+0x13c>
   12a0c:	b7b1                	j	12958 <_vfprintf_r+0x10a>
   12a0e:	0a10                	addi	a2,sp,272
   12a10:	85ce                	mv	a1,s3
   12a12:	8552                	mv	a0,s4
   12a14:	2cd060ef          	jal	ra,194e0 <__sprint_r>
   12a18:	e105                	bnez	a0,12a38 <_vfprintf_r+0x1ea>
   12a1a:	8356                	mv	t1,s5
   12a1c:	b785                	j	1297c <_vfprintf_r+0x12e>
   12a1e:	0a10                	addi	a2,sp,272
   12a20:	85ce                	mv	a1,s3
   12a22:	8552                	mv	a0,s4
   12a24:	2bd060ef          	jal	ra,194e0 <__sprint_r>
   12a28:	62050263          	beqz	a0,1304c <_vfprintf_r+0x7fe>
   12a2c:	67e2                	ld	a5,24(sp)
   12a2e:	c789                	beqz	a5,12a38 <_vfprintf_r+0x1ea>
   12a30:	85be                	mv	a1,a5
   12a32:	8552                	mv	a0,s4
   12a34:	85cfe0ef          	jal	ra,10a90 <_free_r>
   12a38:	0109d783          	lhu	a5,16(s3)
   12a3c:	0407f793          	andi	a5,a5,64
   12a40:	c399                	beqz	a5,12a46 <_vfprintf_r+0x1f8>
   12a42:	70c0106f          	j	1414e <_vfprintf_r+0x1900>
   12a46:	27813083          	ld	ra,632(sp)
   12a4a:	27013403          	ld	s0,624(sp)
   12a4e:	6522                	ld	a0,8(sp)
   12a50:	26813483          	ld	s1,616(sp)
   12a54:	26013903          	ld	s2,608(sp)
   12a58:	25813983          	ld	s3,600(sp)
   12a5c:	25013a03          	ld	s4,592(sp)
   12a60:	24813a83          	ld	s5,584(sp)
   12a64:	24013b03          	ld	s6,576(sp)
   12a68:	23813b83          	ld	s7,568(sp)
   12a6c:	23013c03          	ld	s8,560(sp)
   12a70:	22813c83          	ld	s9,552(sp)
   12a74:	22013d03          	ld	s10,544(sp)
   12a78:	21813d83          	ld	s11,536(sp)
   12a7c:	28010113          	addi	sp,sp,640
   12a80:	8082                	ret
   12a82:	0001d7b7          	lui	a5,0x1d
   12a86:	66c2                	ld	a3,16(sp)
   12a88:	a7078793          	addi	a5,a5,-1424 # 1ca70 <zeroes.4550+0x68>
   12a8c:	f43e                	sd	a5,40(sp)
   12a8e:	02047793          	andi	a5,s0,32
   12a92:	00868713          	addi	a4,a3,8 # ffffffffffffe008 <__BSS_END__+0xfffffffffffde878>
   12a96:	cbf9                	beqz	a5,12b6c <_vfprintf_r+0x31e>
   12a98:	0006b903          	ld	s2,0(a3)
   12a9c:	00147793          	andi	a5,s0,1
   12aa0:	cf81                	beqz	a5,12ab8 <_vfprintf_r+0x26a>
   12aa2:	00090b63          	beqz	s2,12ab8 <_vfprintf_r+0x26a>
   12aa6:	00246413          	ori	s0,s0,2
   12aaa:	03000793          	li	a5,48
   12aae:	0ef10023          	sb	a5,224(sp)
   12ab2:	0f9100a3          	sb	s9,225(sp)
   12ab6:	2401                	sext.w	s0,s0
   12ab8:	bff47413          	andi	s0,s0,-1025
   12abc:	00040d9b          	sext.w	s11,s0
   12ac0:	e83a                	sd	a4,16(sp)
   12ac2:	4789                	li	a5,2
   12ac4:	0c010fa3          	sb	zero,223(sp)
   12ac8:	577d                	li	a4,-1
   12aca:	44ec0263          	beq	s8,a4,12f0e <_vfprintf_r+0x6c0>
   12ace:	f7fdf413          	andi	s0,s11,-129
   12ad2:	2401                	sext.w	s0,s0
   12ad4:	2c0913e3          	bnez	s2,1359a <_vfprintf_r+0xd4c>
   12ad8:	3e0c19e3          	bnez	s8,136ca <_vfprintf_r+0xe7c>
   12adc:	3a079363          	bnez	a5,12e82 <_vfprintf_r+0x634>
   12ae0:	001dfb93          	andi	s7,s11,1
   12ae4:	18c10d13          	addi	s10,sp,396
   12ae8:	5a0b9be3          	bnez	s7,1389e <_vfprintf_r+0x1050>
   12aec:	000b891b          	sext.w	s2,s7
   12af0:	018bd463          	bge	s7,s8,12af8 <_vfprintf_r+0x2aa>
   12af4:	000c091b          	sext.w	s2,s8
   12af8:	0df14783          	lbu	a5,223(sp)
   12afc:	ec02                	sd	zero,24(sp)
   12afe:	e482                	sd	zero,72(sp)
   12b00:	ec82                	sd	zero,88(sp)
   12b02:	e882                	sd	zero,80(sp)
   12b04:	46078d63          	beqz	a5,12f7e <_vfprintf_r+0x730>
   12b08:	2905                	addiw	s2,s2,1
   12b0a:	a995                	j	12f7e <_vfprintf_r+0x730>
   12b0c:	4b01                	li	s6,0
   12b0e:	0485                	addi	s1,s1,1
   12b10:	fff4c683          	lbu	a3,-1(s1)
   12b14:	002b179b          	slliw	a5,s6,0x2
   12b18:	01678b3b          	addw	s6,a5,s6
   12b1c:	fd0c8e9b          	addiw	t4,s9,-48
   12b20:	001b1b1b          	slliw	s6,s6,0x1
   12b24:	fd06879b          	addiw	a5,a3,-48
   12b28:	016e8b3b          	addw	s6,t4,s6
   12b2c:	00068c9b          	sext.w	s9,a3
   12b30:	fcfdffe3          	bgeu	s11,a5,12b0e <_vfprintf_r+0x2c0>
   12b34:	fe0c879b          	addiw	a5,s9,-32
   12b38:	0007869b          	sext.w	a3,a5
   12b3c:	e8d971e3          	bgeu	s2,a3,129be <_vfprintf_r+0x170>
   12b40:	520c8463          	beqz	s9,13068 <_vfprintf_r+0x81a>
   12b44:	13910423          	sb	s9,296(sp)
   12b48:	0c010fa3          	sb	zero,223(sp)
   12b4c:	4905                	li	s2,1
   12b4e:	4b85                	li	s7,1
   12b50:	12810d13          	addi	s10,sp,296
   12b54:	a105                	j	12f74 <_vfprintf_r+0x726>
   12b56:	0001d7b7          	lui	a5,0x1d
   12b5a:	66c2                	ld	a3,16(sp)
   12b5c:	a8878793          	addi	a5,a5,-1400 # 1ca88 <zeroes.4550+0x80>
   12b60:	f43e                	sd	a5,40(sp)
   12b62:	02047793          	andi	a5,s0,32
   12b66:	00868713          	addi	a4,a3,8
   12b6a:	f79d                	bnez	a5,12a98 <_vfprintf_r+0x24a>
   12b6c:	01047793          	andi	a5,s0,16
   12b70:	560792e3          	bnez	a5,138d4 <_vfprintf_r+0x1086>
   12b74:	66c2                	ld	a3,16(sp)
   12b76:	04047793          	andi	a5,s0,64
   12b7a:	0006a903          	lw	s2,0(a3)
   12b7e:	e399                	bnez	a5,12b84 <_vfprintf_r+0x336>
   12b80:	78b0006f          	j	13b0a <_vfprintf_r+0x12bc>
   12b84:	1942                	slli	s2,s2,0x30
   12b86:	03095913          	srli	s2,s2,0x30
   12b8a:	bf09                	j	12a9c <_vfprintf_r+0x24e>
   12b8c:	0004ce83          	lbu	t4,0(s1)
   12b90:	00446413          	ori	s0,s0,4
   12b94:	2401                	sext.w	s0,s0
   12b96:	bd09                	j	129a8 <_vfprintf_r+0x15a>
   12b98:	0004ce83          	lbu	t4,0(s1)
   12b9c:	06800793          	li	a5,104
   12ba0:	58fe86e3          	beq	t4,a5,1392c <_vfprintf_r+0x10de>
   12ba4:	04046413          	ori	s0,s0,64
   12ba8:	2401                	sext.w	s0,s0
   12baa:	bbfd                	j	129a8 <_vfprintf_r+0x15a>
   12bac:	00847793          	andi	a5,s0,8
   12bb0:	500794e3          	bnez	a5,138b8 <_vfprintf_r+0x106a>
   12bb4:	67c2                	ld	a5,16(sp)
   12bb6:	ec1a                	sd	t1,24(sp)
   12bb8:	2388                	fld	fa0,0(a5)
   12bba:	07a1                	addi	a5,a5,8
   12bbc:	e83e                	sd	a5,16(sp)
   12bbe:	185090ef          	jal	ra,1c542 <__extenddftf2>
   12bc2:	6362                	ld	t1,24(sp)
   12bc4:	e22a                	sd	a0,256(sp)
   12bc6:	e62e                	sd	a1,264(sp)
   12bc8:	0208                	addi	a0,sp,256
   12bca:	ec1a                	sd	t1,24(sp)
   12bcc:	4d9030ef          	jal	ra,168a4 <_ldcheck>
   12bd0:	d5aa                	sw	a0,232(sp)
   12bd2:	4789                	li	a5,2
   12bd4:	6362                	ld	t1,24(sp)
   12bd6:	6af50de3          	beq	a0,a5,13a90 <_vfprintf_r+0x1242>
   12bda:	4785                	li	a5,1
   12bdc:	00f51463          	bne	a0,a5,12be4 <_vfprintf_r+0x396>
   12be0:	77b0006f          	j	13b5a <_vfprintf_r+0x130c>
   12be4:	06100793          	li	a5,97
   12be8:	00fc9463          	bne	s9,a5,12bf0 <_vfprintf_r+0x3a2>
   12bec:	6040106f          	j	141f0 <_vfprintf_r+0x19a2>
   12bf0:	04100793          	li	a5,65
   12bf4:	00fc9463          	bne	s9,a5,12bfc <_vfprintf_r+0x3ae>
   12bf8:	1f40106f          	j	13dec <_vfprintf_r+0x159e>
   12bfc:	fdfcf713          	andi	a4,s9,-33
   12c00:	57fd                	li	a5,-1
   12c02:	f53a                	sd	a4,168(sp)
   12c04:	00fc1463          	bne	s8,a5,12c0c <_vfprintf_r+0x3be>
   12c08:	6760106f          	j	1427e <_vfprintf_r+0x1a30>
   12c0c:	04700793          	li	a5,71
   12c10:	00f71463          	bne	a4,a5,12c18 <_vfprintf_r+0x3ca>
   12c14:	65c0106f          	j	14270 <_vfprintf_r+0x1a22>
   12c18:	6bb2                	ld	s7,264(sp)
   12c1a:	10046793          	ori	a5,s0,256
   12c1e:	f922                	sd	s0,176(sp)
   12c20:	2781                	sext.w	a5,a5
   12c22:	6d92                	ld	s11,256(sp)
   12c24:	000bd463          	bgez	s7,12c2c <_vfprintf_r+0x3de>
   12c28:	4220106f          	j	1404a <_vfprintf_r+0x17fc>
   12c2c:	e582                	sd	zero,200(sp)
   12c2e:	843e                	mv	s0,a5
   12c30:	ec02                	sd	zero,24(sp)
   12c32:	772a                	ld	a4,168(sp)
   12c34:	04600793          	li	a5,70
   12c38:	00f71463          	bne	a4,a5,12c40 <_vfprintf_r+0x3f2>
   12c3c:	3540106f          	j	13f90 <_vfprintf_r+0x1742>
   12c40:	04500793          	li	a5,69
   12c44:	f01a                	sd	t1,32(sp)
   12c46:	00f71463          	bne	a4,a5,12c4e <_vfprintf_r+0x400>
   12c4a:	6020106f          	j	1424c <_vfprintf_r+0x19fe>
   12c4e:	11bc                	addi	a5,sp,232
   12c50:	8762                	mv	a4,s8
   12c52:	0f810893          	addi	a7,sp,248
   12c56:	0ec10813          	addi	a6,sp,236
   12c5a:	4689                	li	a3,2
   12c5c:	85ee                	mv	a1,s11
   12c5e:	865e                	mv	a2,s7
   12c60:	8552                	mv	a0,s4
   12c62:	595020ef          	jal	ra,159f6 <_ldtoa_r>
   12c66:	772a                	ld	a4,168(sp)
   12c68:	04700793          	li	a5,71
   12c6c:	8d2a                	mv	s10,a0
   12c6e:	7302                	ld	t1,32(sp)
   12c70:	00f70463          	beq	a4,a5,12c78 <_vfprintf_r+0x42a>
   12c74:	7a60106f          	j	1441a <_vfprintf_r+0x1bcc>
   12c78:	77ca                	ld	a5,176(sp)
   12c7a:	01850933          	add	s2,a0,s8
   12c7e:	8b85                	andi	a5,a5,1
   12c80:	c399                	beqz	a5,12c86 <_vfprintf_r+0x438>
   12c82:	3400106f          	j	13fc2 <_vfprintf_r+0x1774>
   12c86:	776e                	ld	a4,248(sp)
   12c88:	41a707bb          	subw	a5,a4,s10
   12c8c:	f03e                	sd	a5,32(sp)
   12c8e:	572e                	lw	a4,232(sp)
   12c90:	04700793          	li	a5,71
   12c94:	e8ba                	sd	a4,80(sp)
   12c96:	772a                	ld	a4,168(sp)
   12c98:	00f71463          	bne	a4,a5,12ca0 <_vfprintf_r+0x452>
   12c9c:	2dc0106f          	j	13f78 <_vfprintf_r+0x172a>
   12ca0:	772a                	ld	a4,168(sp)
   12ca2:	04600793          	li	a5,70
   12ca6:	00f71463          	bne	a4,a5,12cae <_vfprintf_r+0x460>
   12caa:	4680106f          	j	14112 <_vfprintf_r+0x18c4>
   12cae:	67c6                	ld	a5,80(sp)
   12cb0:	772a                	ld	a4,168(sp)
   12cb2:	04100593          	li	a1,65
   12cb6:	37fd                	addiw	a5,a5,-1
   12cb8:	d5be                	sw	a5,232(sp)
   12cba:	0ffcf693          	andi	a3,s9,255
   12cbe:	4601                	li	a2,0
   12cc0:	00b71663          	bne	a4,a1,12ccc <_vfprintf_r+0x47e>
   12cc4:	26bd                	addiw	a3,a3,15
   12cc6:	0ff6f693          	andi	a3,a3,255
   12cca:	4605                	li	a2,1
   12ccc:	0ed10823          	sb	a3,240(sp)
   12cd0:	0007d463          	bgez	a5,12cd8 <_vfprintf_r+0x48a>
   12cd4:	6aa0106f          	j	1437e <_vfprintf_r+0x1b30>
   12cd8:	02b00693          	li	a3,43
   12cdc:	0ed108a3          	sb	a3,241(sp)
   12ce0:	46a5                	li	a3,9
   12ce2:	00f6c463          	blt	a3,a5,12cea <_vfprintf_r+0x49c>
   12ce6:	65e0106f          	j	14344 <_vfprintf_r+0x1af6>
   12cea:	0ff10813          	addi	a6,sp,255
   12cee:	85c2                	mv	a1,a6
   12cf0:	4529                	li	a0,10
   12cf2:	06300893          	li	a7,99
   12cf6:	a019                	j	12cfc <_vfprintf_r+0x4ae>
   12cf8:	85b2                	mv	a1,a2
   12cfa:	87b6                	mv	a5,a3
   12cfc:	02a7e6bb          	remw	a3,a5,a0
   12d00:	fff58613          	addi	a2,a1,-1
   12d04:	0306869b          	addiw	a3,a3,48
   12d08:	fed58fa3          	sb	a3,-1(a1)
   12d0c:	02a7c6bb          	divw	a3,a5,a0
   12d10:	fef8c4e3          	blt	a7,a5,12cf8 <_vfprintf_r+0x4aa>
   12d14:	0306879b          	addiw	a5,a3,48
   12d18:	0ff7f793          	andi	a5,a5,255
   12d1c:	ffe58693          	addi	a3,a1,-2
   12d20:	fef60fa3          	sb	a5,-1(a2)
   12d24:	0106e463          	bltu	a3,a6,12d2c <_vfprintf_r+0x4de>
   12d28:	6ea0106f          	j	14412 <_vfprintf_r+0x1bc4>
   12d2c:	0f210613          	addi	a2,sp,242
   12d30:	a019                	j	12d36 <_vfprintf_r+0x4e8>
   12d32:	0006c783          	lbu	a5,0(a3)
   12d36:	0605                	addi	a2,a2,1
   12d38:	0685                	addi	a3,a3,1
   12d3a:	fef60fa3          	sb	a5,-1(a2)
   12d3e:	ff069ae3          	bne	a3,a6,12d32 <_vfprintf_r+0x4e4>
   12d42:	10110793          	addi	a5,sp,257
   12d46:	8f8d                	sub	a5,a5,a1
   12d48:	0f210713          	addi	a4,sp,242
   12d4c:	97ba                	add	a5,a5,a4
   12d4e:	1994                	addi	a3,sp,240
   12d50:	9f95                	subw	a5,a5,a3
   12d52:	e13e                	sd	a5,128(sp)
   12d54:	678a                	ld	a5,128(sp)
   12d56:	7702                	ld	a4,32(sp)
   12d58:	4685                	li	a3,1
   12d5a:	00f70bbb          	addw	s7,a4,a5
   12d5e:	87de                	mv	a5,s7
   12d60:	00e6c463          	blt	a3,a4,12d68 <_vfprintf_r+0x51a>
   12d64:	60a0106f          	j	1436e <_vfprintf_r+0x1b20>
   12d68:	7726                	ld	a4,104(sp)
   12d6a:	00e78bbb          	addw	s7,a5,a4
   12d6e:	77ca                	ld	a5,176(sp)
   12d70:	fffbc913          	not	s2,s7
   12d74:	43f95913          	srai	s2,s2,0x3f
   12d78:	bff7f413          	andi	s0,a5,-1025
   12d7c:	2401                	sext.w	s0,s0
   12d7e:	012bf933          	and	s2,s7,s2
   12d82:	10046413          	ori	s0,s0,256
   12d86:	2901                	sext.w	s2,s2
   12d88:	e482                	sd	zero,72(sp)
   12d8a:	ec82                	sd	zero,88(sp)
   12d8c:	e882                	sd	zero,80(sp)
   12d8e:	67ae                	ld	a5,200(sp)
   12d90:	e399                	bnez	a5,12d96 <_vfprintf_r+0x548>
   12d92:	2a80106f          	j	1403a <_vfprintf_r+0x17ec>
   12d96:	02d00793          	li	a5,45
   12d9a:	0cf10fa3          	sb	a5,223(sp)
   12d9e:	4c01                	li	s8,0
   12da0:	2905                	addiw	s2,s2,1
   12da2:	aaf1                	j	12f7e <_vfprintf_r+0x730>
   12da4:	67c2                	ld	a5,16(sp)
   12da6:	01046d93          	ori	s11,s0,16
   12daa:	2d81                	sext.w	s11,s11
   12dac:	00878713          	addi	a4,a5,8
   12db0:	67c2                	ld	a5,16(sp)
   12db2:	0007b903          	ld	s2,0(a5)
   12db6:	4785                	li	a5,1
   12db8:	e83a                	sd	a4,16(sp)
   12dba:	b329                	j	12ac4 <_vfprintf_r+0x276>
   12dbc:	67c2                	ld	a5,16(sp)
   12dbe:	0c010fa3          	sb	zero,223(sp)
   12dc2:	0007bd03          	ld	s10,0(a5)
   12dc6:	00878d93          	addi	s11,a5,8
   12dca:	380d0be3          	beqz	s10,13960 <_vfprintf_r+0x1112>
   12dce:	57fd                	li	a5,-1
   12dd0:	50fc02e3          	beq	s8,a5,13ad4 <_vfprintf_r+0x1286>
   12dd4:	8662                	mv	a2,s8
   12dd6:	4581                	li	a1,0
   12dd8:	856a                	mv	a0,s10
   12dda:	e81a                	sd	t1,16(sp)
   12ddc:	e97fe0ef          	jal	ra,11c72 <memchr>
   12de0:	ec2a                	sd	a0,24(sp)
   12de2:	6342                	ld	t1,16(sp)
   12de4:	e119                	bnez	a0,12dea <_vfprintf_r+0x59c>
   12de6:	2da0106f          	j	140c0 <_vfprintf_r+0x1872>
   12dea:	67e2                	ld	a5,24(sp)
   12dec:	e86e                	sd	s11,16(sp)
   12dee:	ec02                	sd	zero,24(sp)
   12df0:	41a78bbb          	subw	s7,a5,s10
   12df4:	fffbc913          	not	s2,s7
   12df8:	0df14783          	lbu	a5,223(sp)
   12dfc:	43f95913          	srai	s2,s2,0x3f
   12e00:	012bf933          	and	s2,s7,s2
   12e04:	e482                	sd	zero,72(sp)
   12e06:	ec82                	sd	zero,88(sp)
   12e08:	e882                	sd	zero,80(sp)
   12e0a:	2901                	sext.w	s2,s2
   12e0c:	4c01                	li	s8,0
   12e0e:	ce079de3          	bnez	a5,12b08 <_vfprintf_r+0x2ba>
   12e12:	a2b5                	j	12f7e <_vfprintf_r+0x730>
   12e14:	6742                	ld	a4,16(sp)
   12e16:	01046d93          	ori	s11,s0,16
   12e1a:	000d841b          	sext.w	s0,s11
   12e1e:	0721                	addi	a4,a4,8
   12e20:	67c2                	ld	a5,16(sp)
   12e22:	0007b903          	ld	s2,0(a5)
   12e26:	e83a                	sd	a4,16(sp)
   12e28:	bff47d93          	andi	s11,s0,-1025
   12e2c:	2d81                	sext.w	s11,s11
   12e2e:	4781                	li	a5,0
   12e30:	b951                	j	12ac4 <_vfprintf_r+0x276>
   12e32:	00846413          	ori	s0,s0,8
   12e36:	2401                	sext.w	s0,s0
   12e38:	0004ce83          	lbu	t4,0(s1)
   12e3c:	b6b5                	j	129a8 <_vfprintf_r+0x15a>
   12e3e:	6742                	ld	a4,16(sp)
   12e40:	02047793          	andi	a5,s0,32
   12e44:	0721                	addi	a4,a4,8
   12e46:	280794e3          	bnez	a5,138ce <_vfprintf_r+0x1080>
   12e4a:	01047793          	andi	a5,s0,16
   12e4e:	280790e3          	bnez	a5,138ce <_vfprintf_r+0x1080>
   12e52:	04047793          	andi	a5,s0,64
   12e56:	4e0786e3          	beqz	a5,13b42 <_vfprintf_r+0x12f4>
   12e5a:	67c2                	ld	a5,16(sp)
   12e5c:	8da2                	mv	s11,s0
   12e5e:	e83a                	sd	a4,16(sp)
   12e60:	00079903          	lh	s2,0(a5)
   12e64:	87ca                	mv	a5,s2
   12e66:	0807ca63          	bltz	a5,12efa <_vfprintf_r+0x6ac>
   12e6a:	57fd                	li	a5,-1
   12e6c:	40fc0563          	beq	s8,a5,13276 <_vfprintf_r+0xa28>
   12e70:	f7fdf413          	andi	s0,s11,-129
   12e74:	2401                	sext.w	s0,s0
   12e76:	3e091f63          	bnez	s2,13274 <_vfprintf_r+0xa26>
   12e7a:	000c0463          	beqz	s8,12e82 <_vfprintf_r+0x634>
   12e7e:	0e40106f          	j	13f62 <_vfprintf_r+0x1714>
   12e82:	4c01                	li	s8,0
   12e84:	4b81                	li	s7,0
   12e86:	18c10d13          	addi	s10,sp,396
   12e8a:	b18d                	j	12aec <_vfprintf_r+0x29e>
   12e8c:	02b00793          	li	a5,43
   12e90:	0cf10fa3          	sb	a5,223(sp)
   12e94:	0004ce83          	lbu	t4,0(s1)
   12e98:	be01                	j	129a8 <_vfprintf_r+0x15a>
   12e9a:	08046413          	ori	s0,s0,128
   12e9e:	2401                	sext.w	s0,s0
   12ea0:	0004ce83          	lbu	t4,0(s1)
   12ea4:	b611                	j	129a8 <_vfprintf_r+0x15a>
   12ea6:	0004cc83          	lbu	s9,0(s1)
   12eaa:	00148793          	addi	a5,s1,1
   12eae:	00cc9463          	bne	s9,a2,12eb6 <_vfprintf_r+0x668>
   12eb2:	5340106f          	j	143e6 <_vfprintf_r+0x1b98>
   12eb6:	fd0c869b          	addiw	a3,s9,-48
   12eba:	84be                	mv	s1,a5
   12ebc:	4c01                	li	s8,0
   12ebe:	aeddeae3          	bltu	s11,a3,129b2 <_vfprintf_r+0x164>
   12ec2:	0485                	addi	s1,s1,1
   12ec4:	002c179b          	slliw	a5,s8,0x2
   12ec8:	fff4cc83          	lbu	s9,-1(s1)
   12ecc:	01878e3b          	addw	t3,a5,s8
   12ed0:	001e1e1b          	slliw	t3,t3,0x1
   12ed4:	00de0c3b          	addw	s8,t3,a3
   12ed8:	fd0c869b          	addiw	a3,s9,-48
   12edc:	feddf3e3          	bgeu	s11,a3,12ec2 <_vfprintf_r+0x674>
   12ee0:	bcc9                	j	129b2 <_vfprintf_r+0x164>
   12ee2:	67c2                	ld	a5,16(sp)
   12ee4:	01046d93          	ori	s11,s0,16
   12ee8:	2d81                	sext.w	s11,s11
   12eea:	00878713          	addi	a4,a5,8
   12eee:	67c2                	ld	a5,16(sp)
   12ef0:	639c                	ld	a5,0(a5)
   12ef2:	e83a                	sd	a4,16(sp)
   12ef4:	893e                	mv	s2,a5
   12ef6:	f607dae3          	bgez	a5,12e6a <_vfprintf_r+0x61c>
   12efa:	02d00793          	li	a5,45
   12efe:	0cf10fa3          	sb	a5,223(sp)
   12f02:	577d                	li	a4,-1
   12f04:	41200933          	neg	s2,s2
   12f08:	4785                	li	a5,1
   12f0a:	bcec12e3          	bne	s8,a4,12ace <_vfprintf_r+0x280>
   12f0e:	4705                	li	a4,1
   12f10:	36e78363          	beq	a5,a4,13276 <_vfprintf_r+0xa28>
   12f14:	4709                	li	a4,2
   12f16:	7ce78163          	beq	a5,a4,136d8 <_vfprintf_r+0xe8a>
   12f1a:	18c10b93          	addi	s7,sp,396
   12f1e:	86de                	mv	a3,s7
   12f20:	a011                	j	12f24 <_vfprintf_r+0x6d6>
   12f22:	86ea                	mv	a3,s10
   12f24:	00797793          	andi	a5,s2,7
   12f28:	03078793          	addi	a5,a5,48
   12f2c:	fef68fa3          	sb	a5,-1(a3)
   12f30:	00395913          	srli	s2,s2,0x3
   12f34:	fff68d13          	addi	s10,a3,-1
   12f38:	fe0915e3          	bnez	s2,12f22 <_vfprintf_r+0x6d4>
   12f3c:	001df613          	andi	a2,s11,1
   12f40:	38060e63          	beqz	a2,132dc <_vfprintf_r+0xa8e>
   12f44:	03000613          	li	a2,48
   12f48:	38c78a63          	beq	a5,a2,132dc <_vfprintf_r+0xa8e>
   12f4c:	16f9                	addi	a3,a3,-2
   12f4e:	fecd0fa3          	sb	a2,-1(s10)
   12f52:	40db8bbb          	subw	s7,s7,a3
   12f56:	846e                	mv	s0,s11
   12f58:	8d36                	mv	s10,a3
   12f5a:	be49                	j	12aec <_vfprintf_r+0x29e>
   12f5c:	6742                	ld	a4,16(sp)
   12f5e:	0c010fa3          	sb	zero,223(sp)
   12f62:	4905                	li	s2,1
   12f64:	431c                	lw	a5,0(a4)
   12f66:	0721                	addi	a4,a4,8
   12f68:	e83a                	sd	a4,16(sp)
   12f6a:	12f10423          	sb	a5,296(sp)
   12f6e:	4b85                	li	s7,1
   12f70:	12810d13          	addi	s10,sp,296
   12f74:	ec02                	sd	zero,24(sp)
   12f76:	4c01                	li	s8,0
   12f78:	e482                	sd	zero,72(sp)
   12f7a:	ec82                	sd	zero,88(sp)
   12f7c:	e882                	sd	zero,80(sp)
   12f7e:	00247f13          	andi	t5,s0,2
   12f82:	2f01                	sext.w	t5,t5
   12f84:	000f0363          	beqz	t5,12f8a <_vfprintf_r+0x73c>
   12f88:	2909                	addiw	s2,s2,2
   12f8a:	08447293          	andi	t0,s0,132
   12f8e:	7792                	ld	a5,288(sp)
   12f90:	00029663          	bnez	t0,12f9c <_vfprintf_r+0x74e>
   12f94:	412b083b          	subw	a6,s6,s2
   12f98:	61004363          	bgtz	a6,1359e <_vfprintf_r+0xd50>
   12f9c:	0df14683          	lbu	a3,223(sp)
   12fa0:	c68d                	beqz	a3,12fca <_vfprintf_r+0x77c>
   12fa2:	11812683          	lw	a3,280(sp)
   12fa6:	0df10613          	addi	a2,sp,223
   12faa:	00c33023          	sd	a2,0(t1)
   12fae:	2685                	addiw	a3,a3,1
   12fb0:	4605                	li	a2,1
   12fb2:	0785                	addi	a5,a5,1
   12fb4:	00c33423          	sd	a2,8(t1)
   12fb8:	10d12c23          	sw	a3,280(sp)
   12fbc:	0006861b          	sext.w	a2,a3
   12fc0:	f23e                	sd	a5,288(sp)
   12fc2:	469d                	li	a3,7
   12fc4:	0341                	addi	t1,t1,16
   12fc6:	0ac6ca63          	blt	a3,a2,1307a <_vfprintf_r+0x82c>
   12fca:	020f0563          	beqz	t5,12ff4 <_vfprintf_r+0x7a6>
   12fce:	11812683          	lw	a3,280(sp)
   12fd2:	1190                	addi	a2,sp,224
   12fd4:	00c33023          	sd	a2,0(t1)
   12fd8:	2685                	addiw	a3,a3,1
   12fda:	4609                	li	a2,2
   12fdc:	0789                	addi	a5,a5,2
   12fde:	00c33423          	sd	a2,8(t1)
   12fe2:	10d12c23          	sw	a3,280(sp)
   12fe6:	0006861b          	sext.w	a2,a3
   12fea:	f23e                	sd	a5,288(sp)
   12fec:	469d                	li	a3,7
   12fee:	0341                	addi	t1,t1,16
   12ff0:	64c6c363          	blt	a3,a2,13636 <_vfprintf_r+0xde8>
   12ff4:	08000693          	li	a3,128
   12ff8:	3cd28563          	beq	t0,a3,133c2 <_vfprintf_r+0xb74>
   12ffc:	417c0c3b          	subw	s8,s8,s7
   13000:	45804963          	bgtz	s8,13452 <_vfprintf_r+0xc04>
   13004:	10047693          	andi	a3,s0,256
   13008:	2c069f63          	bnez	a3,132e6 <_vfprintf_r+0xa98>
   1300c:	11812703          	lw	a4,280(sp)
   13010:	97de                	add	a5,a5,s7
   13012:	01a33023          	sd	s10,0(t1)
   13016:	0017069b          	addiw	a3,a4,1
   1301a:	8736                	mv	a4,a3
   1301c:	01733423          	sd	s7,8(t1)
   13020:	10e12c23          	sw	a4,280(sp)
   13024:	f23e                	sd	a5,288(sp)
   13026:	471d                	li	a4,7
   13028:	0cd74763          	blt	a4,a3,130f6 <_vfprintf_r+0x8a8>
   1302c:	0341                	addi	t1,t1,16
   1302e:	8811                	andi	s0,s0,4
   13030:	c409                	beqz	s0,1303a <_vfprintf_r+0x7ec>
   13032:	412b043b          	subw	s0,s6,s2
   13036:	60804c63          	bgtz	s0,1364e <_vfprintf_r+0xe00>
   1303a:	875a                	mv	a4,s6
   1303c:	012b5363          	bge	s6,s2,13042 <_vfprintf_r+0x7f4>
   13040:	874a                	mv	a4,s2
   13042:	66a2                	ld	a3,8(sp)
   13044:	9f35                	addw	a4,a4,a3
   13046:	e43a                	sd	a4,8(sp)
   13048:	9c079be3          	bnez	a5,12a1e <_vfprintf_r+0x1d0>
   1304c:	67e2                	ld	a5,24(sp)
   1304e:	10012c23          	sw	zero,280(sp)
   13052:	c789                	beqz	a5,1305c <_vfprintf_r+0x80e>
   13054:	65e2                	ld	a1,24(sp)
   13056:	8552                	mv	a0,s4
   13058:	a39fd0ef          	jal	ra,10a90 <_free_r>
   1305c:	8356                	mv	t1,s5
   1305e:	8d26                	mv	s10,s1
   13060:	000d4783          	lbu	a5,0(s10)
   13064:	8c0796e3          	bnez	a5,12930 <_vfprintf_r+0xe2>
   13068:	7792                	ld	a5,288(sp)
   1306a:	9c0787e3          	beqz	a5,12a38 <_vfprintf_r+0x1ea>
   1306e:	0a10                	addi	a2,sp,272
   13070:	85ce                	mv	a1,s3
   13072:	8552                	mv	a0,s4
   13074:	46c060ef          	jal	ra,194e0 <__sprint_r>
   13078:	b2c1                	j	12a38 <_vfprintf_r+0x1ea>
   1307a:	0a10                	addi	a2,sp,272
   1307c:	85ce                	mv	a1,s3
   1307e:	8552                	mv	a0,s4
   13080:	fc16                	sd	t0,56(sp)
   13082:	f87a                	sd	t5,48(sp)
   13084:	45c060ef          	jal	ra,194e0 <__sprint_r>
   13088:	9a0512e3          	bnez	a0,12a2c <_vfprintf_r+0x1de>
   1308c:	7792                	ld	a5,288(sp)
   1308e:	8356                	mv	t1,s5
   13090:	72e2                	ld	t0,56(sp)
   13092:	7f42                	ld	t5,48(sp)
   13094:	bf1d                	j	12fca <_vfprintf_r+0x77c>
   13096:	11812603          	lw	a2,280(sp)
   1309a:	7726                	ld	a4,104(sp)
   1309c:	76c6                	ld	a3,112(sp)
   1309e:	0341                	addi	t1,t1,16
   130a0:	97ba                	add	a5,a5,a4
   130a2:	fed33823          	sd	a3,-16(t1)
   130a6:	0016069b          	addiw	a3,a2,1
   130aa:	fee33c23          	sd	a4,-8(t1)
   130ae:	f23e                	sd	a5,288(sp)
   130b0:	10d12c23          	sw	a3,280(sp)
   130b4:	461d                	li	a2,7
   130b6:	00d65e63          	bge	a2,a3,130d2 <_vfprintf_r+0x884>
   130ba:	0a10                	addi	a2,sp,272
   130bc:	85ce                	mv	a1,s3
   130be:	8552                	mv	a0,s4
   130c0:	420060ef          	jal	ra,194e0 <__sprint_r>
   130c4:	960514e3          	bnez	a0,12a2c <_vfprintf_r+0x1de>
   130c8:	55ae                	lw	a1,232(sp)
   130ca:	7792                	ld	a5,288(sp)
   130cc:	11812683          	lw	a3,280(sp)
   130d0:	8356                	mv	t1,s5
   130d2:	0005d463          	bgez	a1,130da <_vfprintf_r+0x88c>
   130d6:	0800106f          	j	14156 <_vfprintf_r+0x1908>
   130da:	7702                	ld	a4,32(sp)
   130dc:	0016861b          	addiw	a2,a3,1
   130e0:	01a33023          	sd	s10,0(t1)
   130e4:	97ba                	add	a5,a5,a4
   130e6:	00e33423          	sd	a4,8(t1)
   130ea:	f23e                	sd	a5,288(sp)
   130ec:	10c12c23          	sw	a2,280(sp)
   130f0:	471d                	li	a4,7
   130f2:	f2c75de3          	bge	a4,a2,1302c <_vfprintf_r+0x7de>
   130f6:	0a10                	addi	a2,sp,272
   130f8:	85ce                	mv	a1,s3
   130fa:	8552                	mv	a0,s4
   130fc:	3e4060ef          	jal	ra,194e0 <__sprint_r>
   13100:	920516e3          	bnez	a0,12a2c <_vfprintf_r+0x1de>
   13104:	7792                	ld	a5,288(sp)
   13106:	8356                	mv	t1,s5
   13108:	b71d                	j	1302e <_vfprintf_r+0x7e0>
   1310a:	67c2                	ld	a5,16(sp)
   1310c:	0004ce83          	lbu	t4,0(s1)
   13110:	0007ab03          	lw	s6,0(a5)
   13114:	07a1                	addi	a5,a5,8
   13116:	e83e                	sd	a5,16(sp)
   13118:	880b58e3          	bgez	s6,129a8 <_vfprintf_r+0x15a>
   1311c:	41600b3b          	negw	s6,s6
   13120:	bc85                	j	12b90 <_vfprintf_r+0x342>
   13122:	8552                	mv	a0,s4
   13124:	ec1a                	sd	t1,24(sp)
   13126:	7ba030ef          	jal	ra,168e0 <_localeconv_r>
   1312a:	651c                	ld	a5,8(a0)
   1312c:	853e                	mv	a0,a5
   1312e:	e53e                	sd	a5,136(sp)
   13130:	e88ff0ef          	jal	ra,127b8 <strlen>
   13134:	fcaa                	sd	a0,120(sp)
   13136:	8caa                	mv	s9,a0
   13138:	8552                	mv	a0,s4
   1313a:	7a6030ef          	jal	ra,168e0 <_localeconv_r>
   1313e:	6918                	ld	a4,16(a0)
   13140:	6362                	ld	t1,24(sp)
   13142:	0004ce83          	lbu	t4,0(s1)
   13146:	f0ba                	sd	a4,96(sp)
   13148:	860c80e3          	beqz	s9,129a8 <_vfprintf_r+0x15a>
   1314c:	84070ee3          	beqz	a4,129a8 <_vfprintf_r+0x15a>
   13150:	00074783          	lbu	a5,0(a4)
   13154:	84078ae3          	beqz	a5,129a8 <_vfprintf_r+0x15a>
   13158:	40046413          	ori	s0,s0,1024
   1315c:	2401                	sext.w	s0,s0
   1315e:	b0a9                	j	129a8 <_vfprintf_r+0x15a>
   13160:	00146413          	ori	s0,s0,1
   13164:	2401                	sext.w	s0,s0
   13166:	0004ce83          	lbu	t4,0(s1)
   1316a:	83fff06f          	j	129a8 <_vfprintf_r+0x15a>
   1316e:	0df14783          	lbu	a5,223(sp)
   13172:	0004ce83          	lbu	t4,0(s1)
   13176:	820799e3          	bnez	a5,129a8 <_vfprintf_r+0x15a>
   1317a:	02000793          	li	a5,32
   1317e:	0cf10fa3          	sb	a5,223(sp)
   13182:	827ff06f          	j	129a8 <_vfprintf_r+0x15a>
   13186:	6742                	ld	a4,16(sp)
   13188:	02047793          	andi	a5,s0,32
   1318c:	0721                	addi	a4,a4,8
   1318e:	74079863          	bnez	a5,138de <_vfprintf_r+0x1090>
   13192:	01047793          	andi	a5,s0,16
   13196:	74079463          	bnez	a5,138de <_vfprintf_r+0x1090>
   1319a:	66c2                	ld	a3,16(sp)
   1319c:	04047793          	andi	a5,s0,64
   131a0:	0006a903          	lw	s2,0(a3)
   131a4:	16078be3          	beqz	a5,13b1a <_vfprintf_r+0x12cc>
   131a8:	1942                	slli	s2,s2,0x30
   131aa:	03095913          	srli	s2,s2,0x30
   131ae:	e83a                	sd	a4,16(sp)
   131b0:	8da2                	mv	s11,s0
   131b2:	4785                	li	a5,1
   131b4:	ba01                	j	12ac4 <_vfprintf_r+0x276>
   131b6:	02046413          	ori	s0,s0,32
   131ba:	2401                	sext.w	s0,s0
   131bc:	0004ce83          	lbu	t4,0(s1)
   131c0:	fe8ff06f          	j	129a8 <_vfprintf_r+0x15a>
   131c4:	6742                	ld	a4,16(sp)
   131c6:	77e1                	lui	a5,0xffff8
   131c8:	8307c793          	xori	a5,a5,-2000
   131cc:	0ef11023          	sh	a5,224(sp)
   131d0:	00870793          	addi	a5,a4,8
   131d4:	e83e                	sd	a5,16(sp)
   131d6:	0001d7b7          	lui	a5,0x1d
   131da:	a7078793          	addi	a5,a5,-1424 # 1ca70 <zeroes.4550+0x68>
   131de:	00246413          	ori	s0,s0,2
   131e2:	f43e                	sd	a5,40(sp)
   131e4:	00073903          	ld	s2,0(a4)
   131e8:	00040d9b          	sext.w	s11,s0
   131ec:	4789                	li	a5,2
   131ee:	07800c93          	li	s9,120
   131f2:	b8c9                	j	12ac4 <_vfprintf_r+0x276>
   131f4:	6742                	ld	a4,16(sp)
   131f6:	02047793          	andi	a5,s0,32
   131fa:	0721                	addi	a4,a4,8
   131fc:	c20792e3          	bnez	a5,12e20 <_vfprintf_r+0x5d2>
   13200:	01047793          	andi	a5,s0,16
   13204:	c0079ee3          	bnez	a5,12e20 <_vfprintf_r+0x5d2>
   13208:	66c2                	ld	a3,16(sp)
   1320a:	04047793          	andi	a5,s0,64
   1320e:	0006a903          	lw	s2,0(a3)
   13212:	10078fe3          	beqz	a5,13b30 <_vfprintf_r+0x12e2>
   13216:	1942                	slli	s2,s2,0x30
   13218:	03095913          	srli	s2,s2,0x30
   1321c:	e83a                	sd	a4,16(sp)
   1321e:	b129                	j	12e28 <_vfprintf_r+0x5da>
   13220:	66c2                	ld	a3,16(sp)
   13222:	02047793          	andi	a5,s0,32
   13226:	6298                	ld	a4,0(a3)
   13228:	06a1                	addi	a3,a3,8
   1322a:	e836                	sd	a3,16(sp)
   1322c:	68079163          	bnez	a5,138ae <_vfprintf_r+0x1060>
   13230:	01047793          	andi	a5,s0,16
   13234:	66079d63          	bnez	a5,138ae <_vfprintf_r+0x1060>
   13238:	04047793          	andi	a5,s0,64
   1323c:	360790e3          	bnez	a5,13d9c <_vfprintf_r+0x154e>
   13240:	20047413          	andi	s0,s0,512
   13244:	67a2                	ld	a5,8(sp)
   13246:	e019                	bnez	s0,1324c <_vfprintf_r+0x9fe>
   13248:	03c0106f          	j	14284 <_vfprintf_r+0x1a36>
   1324c:	00f70023          	sb	a5,0(a4)
   13250:	8d26                	mv	s10,s1
   13252:	b539                	j	13060 <_vfprintf_r+0x812>
   13254:	0004ce83          	lbu	t4,0(s1)
   13258:	06c00793          	li	a5,108
   1325c:	6efe8a63          	beq	t4,a5,13950 <_vfprintf_r+0x1102>
   13260:	01046413          	ori	s0,s0,16
   13264:	2401                	sext.w	s0,s0
   13266:	f42ff06f          	j	129a8 <_vfprintf_r+0x15a>
   1326a:	8552                	mv	a0,s4
   1326c:	db6fd0ef          	jal	ra,10822 <__sinit>
   13270:	e3eff06f          	j	128ae <_vfprintf_r+0x60>
   13274:	8da2                	mv	s11,s0
   13276:	47a5                	li	a5,9
   13278:	0127eb63          	bltu	a5,s2,1328e <_vfprintf_r+0xa40>
   1327c:	0309091b          	addiw	s2,s2,48
   13280:	192105a3          	sb	s2,395(sp)
   13284:	846e                	mv	s0,s11
   13286:	4b85                	li	s7,1
   13288:	18b10d13          	addi	s10,sp,395
   1328c:	b085                	j	12aec <_vfprintf_r+0x29e>
   1328e:	400df693          	andi	a3,s11,1024
   13292:	18c10b93          	addi	s7,sp,396
   13296:	2681                	sext.w	a3,a3
   13298:	f002                	sd	zero,32(sp)
   1329a:	865e                	mv	a2,s7
   1329c:	4429                	li	s0,10
   1329e:	4825                	li	a6,9
   132a0:	0ff00893          	li	a7,255
   132a4:	a039                	j	132b2 <_vfprintf_r+0xa64>
   132a6:	028957b3          	divu	a5,s2,s0
   132aa:	03287963          	bgeu	a6,s2,132dc <_vfprintf_r+0xa8e>
   132ae:	893e                	mv	s2,a5
   132b0:	866a                	mv	a2,s10
   132b2:	7702                	ld	a4,32(sp)
   132b4:	fff60d13          	addi	s10,a2,-1
   132b8:	2705                	addiw	a4,a4,1
   132ba:	f03a                	sd	a4,32(sp)
   132bc:	028977b3          	remu	a5,s2,s0
   132c0:	0307879b          	addiw	a5,a5,48
   132c4:	fef60fa3          	sb	a5,-1(a2)
   132c8:	def9                	beqz	a3,132a6 <_vfprintf_r+0xa58>
   132ca:	7786                	ld	a5,96(sp)
   132cc:	0007c783          	lbu	a5,0(a5)
   132d0:	fcf71be3          	bne	a4,a5,132a6 <_vfprintf_r+0xa58>
   132d4:	fd1789e3          	beq	a5,a7,132a6 <_vfprintf_r+0xa58>
   132d8:	272869e3          	bltu	a6,s2,13d4a <_vfprintf_r+0x14fc>
   132dc:	41ab8bbb          	subw	s7,s7,s10
   132e0:	846e                	mv	s0,s11
   132e2:	80bff06f          	j	12aec <_vfprintf_r+0x29e>
   132e6:	06500693          	li	a3,101
   132ea:	1f96d663          	bge	a3,s9,134d6 <_vfprintf_r+0xc88>
   132ee:	6512                	ld	a0,256(sp)
   132f0:	65b2                	ld	a1,264(sp)
   132f2:	4601                	li	a2,0
   132f4:	4681                	li	a3,0
   132f6:	fc3e                	sd	a5,56(sp)
   132f8:	f81a                	sd	t1,48(sp)
   132fa:	146080ef          	jal	ra,1b440 <__eqtf2>
   132fe:	7342                	ld	t1,48(sp)
   13300:	77e2                	ld	a5,56(sp)
   13302:	40051063          	bnez	a0,13702 <_vfprintf_r+0xeb4>
   13306:	11812703          	lw	a4,280(sp)
   1330a:	0001d6b7          	lui	a3,0x1d
   1330e:	aa868693          	addi	a3,a3,-1368 # 1caa8 <zeroes.4550+0xa0>
   13312:	2705                	addiw	a4,a4,1
   13314:	0785                	addi	a5,a5,1
   13316:	00d33023          	sd	a3,0(t1)
   1331a:	4685                	li	a3,1
   1331c:	00d33423          	sd	a3,8(t1)
   13320:	f23e                	sd	a5,288(sp)
   13322:	0007069b          	sext.w	a3,a4
   13326:	10e12c23          	sw	a4,280(sp)
   1332a:	479d                	li	a5,7
   1332c:	0341                	addi	t1,t1,16
   1332e:	72d7cf63          	blt	a5,a3,13a6c <_vfprintf_r+0x121e>
   13332:	57ae                	lw	a5,232(sp)
   13334:	7702                	ld	a4,32(sp)
   13336:	00e7c763          	blt	a5,a4,13344 <_vfprintf_r+0xaf6>
   1333a:	00147793          	andi	a5,s0,1
   1333e:	e399                	bnez	a5,13344 <_vfprintf_r+0xaf6>
   13340:	7792                	ld	a5,288(sp)
   13342:	b1f5                	j	1302e <_vfprintf_r+0x7e0>
   13344:	77c6                	ld	a5,112(sp)
   13346:	76a6                	ld	a3,104(sp)
   13348:	11812703          	lw	a4,280(sp)
   1334c:	00f33023          	sd	a5,0(t1)
   13350:	7792                	ld	a5,288(sp)
   13352:	2705                	addiw	a4,a4,1
   13354:	00d33423          	sd	a3,8(t1)
   13358:	97b6                	add	a5,a5,a3
   1335a:	10e12c23          	sw	a4,280(sp)
   1335e:	0007069b          	sext.w	a3,a4
   13362:	f23e                	sd	a5,288(sp)
   13364:	471d                	li	a4,7
   13366:	0341                	addi	t1,t1,16
   13368:	5cd74a63          	blt	a4,a3,1393c <_vfprintf_r+0x10ee>
   1336c:	7702                	ld	a4,32(sp)
   1336e:	fff70b9b          	addiw	s7,a4,-1
   13372:	cb705ee3          	blez	s7,1302e <_vfprintf_r+0x7e0>
   13376:	6875                	lui	a6,0x1d
   13378:	46c1                	li	a3,16
   1337a:	11812703          	lw	a4,280(sp)
   1337e:	a0880d93          	addi	s11,a6,-1528 # 1ca08 <zeroes.4550>
   13382:	4cc1                	li	s9,16
   13384:	4c1d                	li	s8,7
   13386:	0176c663          	blt	a3,s7,13392 <_vfprintf_r+0xb44>
   1338a:	addd                	j	13a80 <_vfprintf_r+0x1232>
   1338c:	3bc1                	addiw	s7,s7,-16
   1338e:	6f7cd963          	bge	s9,s7,13a80 <_vfprintf_r+0x1232>
   13392:	2705                	addiw	a4,a4,1
   13394:	07c1                	addi	a5,a5,16
   13396:	01b33023          	sd	s11,0(t1)
   1339a:	01933423          	sd	s9,8(t1)
   1339e:	f23e                	sd	a5,288(sp)
   133a0:	10e12c23          	sw	a4,280(sp)
   133a4:	0341                	addi	t1,t1,16
   133a6:	feec53e3          	bge	s8,a4,1338c <_vfprintf_r+0xb3e>
   133aa:	0a10                	addi	a2,sp,272
   133ac:	85ce                	mv	a1,s3
   133ae:	8552                	mv	a0,s4
   133b0:	130060ef          	jal	ra,194e0 <__sprint_r>
   133b4:	e6051c63          	bnez	a0,12a2c <_vfprintf_r+0x1de>
   133b8:	7792                	ld	a5,288(sp)
   133ba:	11812703          	lw	a4,280(sp)
   133be:	8356                	mv	t1,s5
   133c0:	b7f1                	j	1338c <_vfprintf_r+0xb3e>
   133c2:	412b08bb          	subw	a7,s6,s2
   133c6:	c3105be3          	blez	a7,12ffc <_vfprintf_r+0x7ae>
   133ca:	6875                	lui	a6,0x1d
   133cc:	4641                	li	a2,16
   133ce:	11812683          	lw	a3,280(sp)
   133d2:	a0880d93          	addi	s11,a6,-1528 # 1ca08 <zeroes.4550>
   133d6:	4f41                	li	t5,16
   133d8:	4f9d                	li	t6,7
   133da:	01164663          	blt	a2,a7,133e6 <_vfprintf_r+0xb98>
   133de:	a091                	j	13422 <_vfprintf_r+0xbd4>
   133e0:	38c1                	addiw	a7,a7,-16
   133e2:	051f5063          	bge	t5,a7,13422 <_vfprintf_r+0xbd4>
   133e6:	2685                	addiw	a3,a3,1
   133e8:	07c1                	addi	a5,a5,16
   133ea:	01b33023          	sd	s11,0(t1)
   133ee:	01e33423          	sd	t5,8(t1)
   133f2:	f23e                	sd	a5,288(sp)
   133f4:	10d12c23          	sw	a3,280(sp)
   133f8:	0341                	addi	t1,t1,16
   133fa:	fedfd3e3          	bge	t6,a3,133e0 <_vfprintf_r+0xb92>
   133fe:	0a10                	addi	a2,sp,272
   13400:	85ce                	mv	a1,s3
   13402:	8552                	mv	a0,s4
   13404:	f846                	sd	a7,48(sp)
   13406:	0da060ef          	jal	ra,194e0 <__sprint_r>
   1340a:	e2051163          	bnez	a0,12a2c <_vfprintf_r+0x1de>
   1340e:	78c2                	ld	a7,48(sp)
   13410:	4f41                	li	t5,16
   13412:	7792                	ld	a5,288(sp)
   13414:	38c1                	addiw	a7,a7,-16
   13416:	11812683          	lw	a3,280(sp)
   1341a:	8356                	mv	t1,s5
   1341c:	4f9d                	li	t6,7
   1341e:	fd1f44e3          	blt	t5,a7,133e6 <_vfprintf_r+0xb98>
   13422:	0016861b          	addiw	a2,a3,1
   13426:	97c6                	add	a5,a5,a7
   13428:	01b33023          	sd	s11,0(t1)
   1342c:	01133423          	sd	a7,8(t1)
   13430:	f23e                	sd	a5,288(sp)
   13432:	10c12c23          	sw	a2,280(sp)
   13436:	469d                	li	a3,7
   13438:	0341                	addi	t1,t1,16
   1343a:	bcc6d1e3          	bge	a3,a2,12ffc <_vfprintf_r+0x7ae>
   1343e:	0a10                	addi	a2,sp,272
   13440:	85ce                	mv	a1,s3
   13442:	8552                	mv	a0,s4
   13444:	09c060ef          	jal	ra,194e0 <__sprint_r>
   13448:	de051263          	bnez	a0,12a2c <_vfprintf_r+0x1de>
   1344c:	7792                	ld	a5,288(sp)
   1344e:	8356                	mv	t1,s5
   13450:	b675                	j	12ffc <_vfprintf_r+0x7ae>
   13452:	6875                	lui	a6,0x1d
   13454:	4641                	li	a2,16
   13456:	11812683          	lw	a3,280(sp)
   1345a:	a0880d93          	addi	s11,a6,-1528 # 1ca08 <zeroes.4550>
   1345e:	48c1                	li	a7,16
   13460:	4f1d                	li	t5,7
   13462:	01864663          	blt	a2,s8,1346e <_vfprintf_r+0xc20>
   13466:	a081                	j	134a6 <_vfprintf_r+0xc58>
   13468:	3c41                	addiw	s8,s8,-16
   1346a:	0388de63          	bge	a7,s8,134a6 <_vfprintf_r+0xc58>
   1346e:	2685                	addiw	a3,a3,1
   13470:	07c1                	addi	a5,a5,16
   13472:	01b33023          	sd	s11,0(t1)
   13476:	01133423          	sd	a7,8(t1)
   1347a:	f23e                	sd	a5,288(sp)
   1347c:	10d12c23          	sw	a3,280(sp)
   13480:	0341                	addi	t1,t1,16
   13482:	fedf53e3          	bge	t5,a3,13468 <_vfprintf_r+0xc1a>
   13486:	0a10                	addi	a2,sp,272
   13488:	85ce                	mv	a1,s3
   1348a:	8552                	mv	a0,s4
   1348c:	054060ef          	jal	ra,194e0 <__sprint_r>
   13490:	d8051e63          	bnez	a0,12a2c <_vfprintf_r+0x1de>
   13494:	48c1                	li	a7,16
   13496:	3c41                	addiw	s8,s8,-16
   13498:	7792                	ld	a5,288(sp)
   1349a:	11812683          	lw	a3,280(sp)
   1349e:	8356                	mv	t1,s5
   134a0:	4f1d                	li	t5,7
   134a2:	fd88c6e3          	blt	a7,s8,1346e <_vfprintf_r+0xc20>
   134a6:	0016861b          	addiw	a2,a3,1
   134aa:	97e2                	add	a5,a5,s8
   134ac:	01b33023          	sd	s11,0(t1)
   134b0:	01833423          	sd	s8,8(t1)
   134b4:	f23e                	sd	a5,288(sp)
   134b6:	10c12c23          	sw	a2,280(sp)
   134ba:	469d                	li	a3,7
   134bc:	0341                	addi	t1,t1,16
   134be:	b4c6d3e3          	bge	a3,a2,13004 <_vfprintf_r+0x7b6>
   134c2:	0a10                	addi	a2,sp,272
   134c4:	85ce                	mv	a1,s3
   134c6:	8552                	mv	a0,s4
   134c8:	018060ef          	jal	ra,194e0 <__sprint_r>
   134cc:	d6051063          	bnez	a0,12a2c <_vfprintf_r+0x1de>
   134d0:	7792                	ld	a5,288(sp)
   134d2:	8356                	mv	t1,s5
   134d4:	be05                	j	13004 <_vfprintf_r+0x7b6>
   134d6:	11812f03          	lw	t5,280(sp)
   134da:	00178c93          	addi	s9,a5,1
   134de:	7782                	ld	a5,32(sp)
   134e0:	001f069b          	addiw	a3,t5,1
   134e4:	4585                	li	a1,1
   134e6:	01a33023          	sd	s10,0(t1)
   134ea:	8636                	mv	a2,a3
   134ec:	01030b93          	addi	s7,t1,16
   134f0:	32f5db63          	bge	a1,a5,13826 <_vfprintf_r+0xfd8>
   134f4:	4585                	li	a1,1
   134f6:	10c12c23          	sw	a2,280(sp)
   134fa:	00b33423          	sd	a1,8(t1)
   134fe:	f266                	sd	s9,288(sp)
   13500:	461d                	li	a2,7
   13502:	4cd64963          	blt	a2,a3,139d4 <_vfprintf_r+0x1186>
   13506:	77a6                	ld	a5,104(sp)
   13508:	7746                	ld	a4,112(sp)
   1350a:	0016889b          	addiw	a7,a3,1
   1350e:	9cbe                	add	s9,s9,a5
   13510:	00ebb023          	sd	a4,0(s7)
   13514:	00fbb423          	sd	a5,8(s7)
   13518:	f266                	sd	s9,288(sp)
   1351a:	11112c23          	sw	a7,280(sp)
   1351e:	469d                	li	a3,7
   13520:	0bc1                	addi	s7,s7,16
   13522:	4d16c663          	blt	a3,a7,139ee <_vfprintf_r+0x11a0>
   13526:	7782                	ld	a5,32(sp)
   13528:	6512                	ld	a0,256(sp)
   1352a:	65b2                	ld	a1,264(sp)
   1352c:	00188e9b          	addiw	t4,a7,1
   13530:	010b8313          	addi	t1,s7,16
   13534:	37fd                	addiw	a5,a5,-1
   13536:	4601                	li	a2,0
   13538:	4681                	li	a3,0
   1353a:	000e8c1b          	sext.w	s8,t4
   1353e:	e0f6                	sd	t4,64(sp)
   13540:	fc1a                	sd	t1,56(sp)
   13542:	f83e                	sd	a5,48(sp)
   13544:	e4c6                	sd	a7,72(sp)
   13546:	6fb070ef          	jal	ra,1b440 <__eqtf2>
   1354a:	77c2                	ld	a5,48(sp)
   1354c:	7362                	ld	t1,56(sp)
   1354e:	6e86                	ld	t4,64(sp)
   13550:	2e050c63          	beqz	a0,13848 <_vfprintf_r+0xffa>
   13554:	001d0713          	addi	a4,s10,1
   13558:	9cbe                	add	s9,s9,a5
   1355a:	00ebb023          	sd	a4,0(s7)
   1355e:	00fbb423          	sd	a5,8(s7)
   13562:	f266                	sd	s9,288(sp)
   13564:	11d12c23          	sw	t4,280(sp)
   13568:	471d                	li	a4,7
   1356a:	3b874163          	blt	a4,s8,1390c <_vfprintf_r+0x10be>
   1356e:	68a6                	ld	a7,72(sp)
   13570:	020b8713          	addi	a4,s7,32
   13574:	8b9a                	mv	s7,t1
   13576:	00288c1b          	addiw	s8,a7,2
   1357a:	833a                	mv	t1,a4
   1357c:	668a                	ld	a3,128(sp)
   1357e:	1998                	addi	a4,sp,240
   13580:	00ebb023          	sd	a4,0(s7)
   13584:	00dc87b3          	add	a5,s9,a3
   13588:	00dbb423          	sd	a3,8(s7)
   1358c:	f23e                	sd	a5,288(sp)
   1358e:	11812c23          	sw	s8,280(sp)
   13592:	471d                	li	a4,7
   13594:	a9875de3          	bge	a4,s8,1302e <_vfprintf_r+0x7e0>
   13598:	beb9                	j	130f6 <_vfprintf_r+0x8a8>
   1359a:	8da2                	mv	s11,s0
   1359c:	ba8d                	j	12f0e <_vfprintf_r+0x6c0>
   1359e:	68f5                	lui	a7,0x1d
   135a0:	4641                	li	a2,16
   135a2:	11812683          	lw	a3,280(sp)
   135a6:	9f888d93          	addi	s11,a7,-1544 # 1c9f8 <blanks.4549>
   135aa:	4fc1                	li	t6,16
   135ac:	439d                	li	t2,7
   135ae:	01064663          	blt	a2,a6,135ba <_vfprintf_r+0xd6c>
   135b2:	a0b1                	j	135fe <_vfprintf_r+0xdb0>
   135b4:	3841                	addiw	a6,a6,-16
   135b6:	050fd463          	bge	t6,a6,135fe <_vfprintf_r+0xdb0>
   135ba:	2685                	addiw	a3,a3,1
   135bc:	07c1                	addi	a5,a5,16
   135be:	01b33023          	sd	s11,0(t1)
   135c2:	01f33423          	sd	t6,8(t1)
   135c6:	f23e                	sd	a5,288(sp)
   135c8:	10d12c23          	sw	a3,280(sp)
   135cc:	0341                	addi	t1,t1,16
   135ce:	fed3d3e3          	bge	t2,a3,135b4 <_vfprintf_r+0xd66>
   135d2:	0a10                	addi	a2,sp,272
   135d4:	85ce                	mv	a1,s3
   135d6:	8552                	mv	a0,s4
   135d8:	e0c2                	sd	a6,64(sp)
   135da:	fc16                	sd	t0,56(sp)
   135dc:	f87a                	sd	t5,48(sp)
   135de:	703050ef          	jal	ra,194e0 <__sprint_r>
   135e2:	c4051563          	bnez	a0,12a2c <_vfprintf_r+0x1de>
   135e6:	6806                	ld	a6,64(sp)
   135e8:	4fc1                	li	t6,16
   135ea:	7792                	ld	a5,288(sp)
   135ec:	3841                	addiw	a6,a6,-16
   135ee:	11812683          	lw	a3,280(sp)
   135f2:	8356                	mv	t1,s5
   135f4:	439d                	li	t2,7
   135f6:	72e2                	ld	t0,56(sp)
   135f8:	7f42                	ld	t5,48(sp)
   135fa:	fd0fc0e3          	blt	t6,a6,135ba <_vfprintf_r+0xd6c>
   135fe:	0016861b          	addiw	a2,a3,1
   13602:	97c2                	add	a5,a5,a6
   13604:	01b33023          	sd	s11,0(t1)
   13608:	01033423          	sd	a6,8(t1)
   1360c:	f23e                	sd	a5,288(sp)
   1360e:	10c12c23          	sw	a2,280(sp)
   13612:	469d                	li	a3,7
   13614:	0341                	addi	t1,t1,16
   13616:	98c6d3e3          	bge	a3,a2,12f9c <_vfprintf_r+0x74e>
   1361a:	0a10                	addi	a2,sp,272
   1361c:	85ce                	mv	a1,s3
   1361e:	8552                	mv	a0,s4
   13620:	fc16                	sd	t0,56(sp)
   13622:	f87a                	sd	t5,48(sp)
   13624:	6bd050ef          	jal	ra,194e0 <__sprint_r>
   13628:	c0051263          	bnez	a0,12a2c <_vfprintf_r+0x1de>
   1362c:	7792                	ld	a5,288(sp)
   1362e:	8356                	mv	t1,s5
   13630:	72e2                	ld	t0,56(sp)
   13632:	7f42                	ld	t5,48(sp)
   13634:	b2a5                	j	12f9c <_vfprintf_r+0x74e>
   13636:	0a10                	addi	a2,sp,272
   13638:	85ce                	mv	a1,s3
   1363a:	8552                	mv	a0,s4
   1363c:	f816                	sd	t0,48(sp)
   1363e:	6a3050ef          	jal	ra,194e0 <__sprint_r>
   13642:	be051563          	bnez	a0,12a2c <_vfprintf_r+0x1de>
   13646:	7792                	ld	a5,288(sp)
   13648:	8356                	mv	t1,s5
   1364a:	72c2                	ld	t0,48(sp)
   1364c:	b265                	j	12ff4 <_vfprintf_r+0x7a6>
   1364e:	68f5                	lui	a7,0x1d
   13650:	46c1                	li	a3,16
   13652:	11812703          	lw	a4,280(sp)
   13656:	9f888d93          	addi	s11,a7,-1544 # 1c9f8 <blanks.4549>
   1365a:	4bc1                	li	s7,16
   1365c:	4c1d                	li	s8,7
   1365e:	0086c663          	blt	a3,s0,1366a <_vfprintf_r+0xe1c>
   13662:	a835                	j	1369e <_vfprintf_r+0xe50>
   13664:	3441                	addiw	s0,s0,-16
   13666:	028bdc63          	bge	s7,s0,1369e <_vfprintf_r+0xe50>
   1366a:	2705                	addiw	a4,a4,1
   1366c:	07c1                	addi	a5,a5,16
   1366e:	01b33023          	sd	s11,0(t1)
   13672:	01733423          	sd	s7,8(t1)
   13676:	f23e                	sd	a5,288(sp)
   13678:	10e12c23          	sw	a4,280(sp)
   1367c:	0341                	addi	t1,t1,16
   1367e:	feec53e3          	bge	s8,a4,13664 <_vfprintf_r+0xe16>
   13682:	0a10                	addi	a2,sp,272
   13684:	85ce                	mv	a1,s3
   13686:	8552                	mv	a0,s4
   13688:	659050ef          	jal	ra,194e0 <__sprint_r>
   1368c:	ba051063          	bnez	a0,12a2c <_vfprintf_r+0x1de>
   13690:	3441                	addiw	s0,s0,-16
   13692:	7792                	ld	a5,288(sp)
   13694:	11812703          	lw	a4,280(sp)
   13698:	8356                	mv	t1,s5
   1369a:	fc8bc8e3          	blt	s7,s0,1366a <_vfprintf_r+0xe1c>
   1369e:	0017069b          	addiw	a3,a4,1
   136a2:	97a2                	add	a5,a5,s0
   136a4:	01b33023          	sd	s11,0(t1)
   136a8:	00833423          	sd	s0,8(t1)
   136ac:	f23e                	sd	a5,288(sp)
   136ae:	10d12c23          	sw	a3,280(sp)
   136b2:	471d                	li	a4,7
   136b4:	98d753e3          	bge	a4,a3,1303a <_vfprintf_r+0x7ec>
   136b8:	0a10                	addi	a2,sp,272
   136ba:	85ce                	mv	a1,s3
   136bc:	8552                	mv	a0,s4
   136be:	623050ef          	jal	ra,194e0 <__sprint_r>
   136c2:	b6051563          	bnez	a0,12a2c <_vfprintf_r+0x1de>
   136c6:	7792                	ld	a5,288(sp)
   136c8:	ba8d                	j	1303a <_vfprintf_r+0x7ec>
   136ca:	4705                	li	a4,1
   136cc:	08e78be3          	beq	a5,a4,13f62 <_vfprintf_r+0x1714>
   136d0:	4709                	li	a4,2
   136d2:	8da2                	mv	s11,s0
   136d4:	84e793e3          	bne	a5,a4,12f1a <_vfprintf_r+0x6cc>
   136d8:	18c10b93          	addi	s7,sp,396
   136dc:	8d5e                	mv	s10,s7
   136de:	7722                	ld	a4,40(sp)
   136e0:	00f97793          	andi	a5,s2,15
   136e4:	1d7d                	addi	s10,s10,-1
   136e6:	97ba                	add	a5,a5,a4
   136e8:	0007c783          	lbu	a5,0(a5)
   136ec:	00495913          	srli	s2,s2,0x4
   136f0:	00fd0023          	sb	a5,0(s10)
   136f4:	fe0915e3          	bnez	s2,136de <_vfprintf_r+0xe90>
   136f8:	41ab8bbb          	subw	s7,s7,s10
   136fc:	846e                	mv	s0,s11
   136fe:	beeff06f          	j	12aec <_vfprintf_r+0x29e>
   13702:	55ae                	lw	a1,232(sp)
   13704:	30b05263          	blez	a1,13a08 <_vfprintf_r+0x11ba>
   13708:	7702                	ld	a4,32(sp)
   1370a:	66c6                	ld	a3,80(sp)
   1370c:	00070b9b          	sext.w	s7,a4
   13710:	1ce6ca63          	blt	a3,a4,138e4 <_vfprintf_r+0x1096>
   13714:	03705263          	blez	s7,13738 <_vfprintf_r+0xeea>
   13718:	11812683          	lw	a3,280(sp)
   1371c:	97de                	add	a5,a5,s7
   1371e:	01a33023          	sd	s10,0(t1)
   13722:	0016861b          	addiw	a2,a3,1
   13726:	01733423          	sd	s7,8(t1)
   1372a:	f23e                	sd	a5,288(sp)
   1372c:	10c12c23          	sw	a2,280(sp)
   13730:	469d                	li	a3,7
   13732:	0341                	addi	t1,t1,16
   13734:	5ec6ce63          	blt	a3,a2,13d30 <_vfprintf_r+0x14e2>
   13738:	fffbc693          	not	a3,s7
   1373c:	6746                	ld	a4,80(sp)
   1373e:	96fd                	srai	a3,a3,0x3f
   13740:	00dbfbb3          	and	s7,s7,a3
   13744:	41770bbb          	subw	s7,a4,s7
   13748:	23704c63          	bgtz	s7,13980 <_vfprintf_r+0x1132>
   1374c:	6746                	ld	a4,80(sp)
   1374e:	40047693          	andi	a3,s0,1024
   13752:	00ed0c33          	add	s8,s10,a4
   13756:	44069963          	bnez	a3,13ba8 <_vfprintf_r+0x135a>
   1375a:	5bae                	lw	s7,232(sp)
   1375c:	7702                	ld	a4,32(sp)
   1375e:	00ebc663          	blt	s7,a4,1376a <_vfprintf_r+0xf1c>
   13762:	00147693          	andi	a3,s0,1
   13766:	60068d63          	beqz	a3,13d80 <_vfprintf_r+0x1532>
   1376a:	76c6                	ld	a3,112(sp)
   1376c:	7726                	ld	a4,104(sp)
   1376e:	0341                	addi	t1,t1,16
   13770:	fed33823          	sd	a3,-16(t1)
   13774:	11812683          	lw	a3,280(sp)
   13778:	97ba                	add	a5,a5,a4
   1377a:	fee33c23          	sd	a4,-8(t1)
   1377e:	0016861b          	addiw	a2,a3,1
   13782:	f23e                	sd	a5,288(sp)
   13784:	10c12c23          	sw	a2,280(sp)
   13788:	469d                	li	a3,7
   1378a:	0ec6c9e3          	blt	a3,a2,1407c <_vfprintf_r+0x182e>
   1378e:	7702                	ld	a4,32(sp)
   13790:	4177063b          	subw	a2,a4,s7
   13794:	976a                	add	a4,a4,s10
   13796:	4187073b          	subw	a4,a4,s8
   1379a:	8bb2                	mv	s7,a2
   1379c:	00c75463          	bge	a4,a2,137a4 <_vfprintf_r+0xf56>
   137a0:	00070b9b          	sext.w	s7,a4
   137a4:	03705263          	blez	s7,137c8 <_vfprintf_r+0xf7a>
   137a8:	11812703          	lw	a4,280(sp)
   137ac:	97de                	add	a5,a5,s7
   137ae:	01833023          	sd	s8,0(t1)
   137b2:	0017069b          	addiw	a3,a4,1
   137b6:	01733423          	sd	s7,8(t1)
   137ba:	f23e                	sd	a5,288(sp)
   137bc:	10d12c23          	sw	a3,280(sp)
   137c0:	471d                	li	a4,7
   137c2:	0341                	addi	t1,t1,16
   137c4:	16d745e3          	blt	a4,a3,1412e <_vfprintf_r+0x18e0>
   137c8:	fffbc713          	not	a4,s7
   137cc:	977d                	srai	a4,a4,0x3f
   137ce:	00ebfbb3          	and	s7,s7,a4
   137d2:	41760bbb          	subw	s7,a2,s7
   137d6:	85705ce3          	blez	s7,1302e <_vfprintf_r+0x7e0>
   137da:	6875                	lui	a6,0x1d
   137dc:	46c1                	li	a3,16
   137de:	11812703          	lw	a4,280(sp)
   137e2:	a0880d93          	addi	s11,a6,-1528 # 1ca08 <zeroes.4550>
   137e6:	4cc1                	li	s9,16
   137e8:	4c1d                	li	s8,7
   137ea:	0176c663          	blt	a3,s7,137f6 <_vfprintf_r+0xfa8>
   137ee:	ac49                	j	13a80 <_vfprintf_r+0x1232>
   137f0:	3bc1                	addiw	s7,s7,-16
   137f2:	297cd763          	bge	s9,s7,13a80 <_vfprintf_r+0x1232>
   137f6:	2705                	addiw	a4,a4,1
   137f8:	07c1                	addi	a5,a5,16
   137fa:	01b33023          	sd	s11,0(t1)
   137fe:	01933423          	sd	s9,8(t1)
   13802:	f23e                	sd	a5,288(sp)
   13804:	10e12c23          	sw	a4,280(sp)
   13808:	0341                	addi	t1,t1,16
   1380a:	feec53e3          	bge	s8,a4,137f0 <_vfprintf_r+0xfa2>
   1380e:	0a10                	addi	a2,sp,272
   13810:	85ce                	mv	a1,s3
   13812:	8552                	mv	a0,s4
   13814:	4cd050ef          	jal	ra,194e0 <__sprint_r>
   13818:	a0051a63          	bnez	a0,12a2c <_vfprintf_r+0x1de>
   1381c:	7792                	ld	a5,288(sp)
   1381e:	11812703          	lw	a4,280(sp)
   13822:	8356                	mv	t1,s5
   13824:	b7f1                	j	137f0 <_vfprintf_r+0xfa2>
   13826:	00147513          	andi	a0,s0,1
   1382a:	cc0515e3          	bnez	a0,134f4 <_vfprintf_r+0xca6>
   1382e:	00b33423          	sd	a1,8(t1)
   13832:	f266                	sd	s9,288(sp)
   13834:	10d12c23          	sw	a3,280(sp)
   13838:	471d                	li	a4,7
   1383a:	0cd74963          	blt	a4,a3,1390c <_vfprintf_r+0x10be>
   1383e:	002f0c1b          	addiw	s8,t5,2
   13842:	02030313          	addi	t1,t1,32
   13846:	bb1d                	j	1357c <_vfprintf_r+0xd2e>
   13848:	d2f05ae3          	blez	a5,1357c <_vfprintf_r+0xd2e>
   1384c:	4741                	li	a4,16
   1384e:	38f756e3          	bge	a4,a5,143da <_vfprintf_r+0x1b8c>
   13852:	6875                	lui	a6,0x1d
   13854:	a0880d93          	addi	s11,a6,-1528 # 1ca08 <zeroes.4550>
   13858:	4d41                	li	s10,16
   1385a:	4c1d                	li	s8,7
   1385c:	a031                	j	13868 <_vfprintf_r+0x101a>
   1385e:	37c1                	addiw	a5,a5,-16
   13860:	08fd5763          	bge	s10,a5,138ee <_vfprintf_r+0x10a0>
   13864:	00188e9b          	addiw	t4,a7,1
   13868:	0cc1                	addi	s9,s9,16
   1386a:	01bbb023          	sd	s11,0(s7)
   1386e:	01abb423          	sd	s10,8(s7)
   13872:	f266                	sd	s9,288(sp)
   13874:	000e889b          	sext.w	a7,t4
   13878:	11d12c23          	sw	t4,280(sp)
   1387c:	0bc1                	addi	s7,s7,16
   1387e:	ff1c50e3          	bge	s8,a7,1385e <_vfprintf_r+0x1010>
   13882:	0a10                	addi	a2,sp,272
   13884:	85ce                	mv	a1,s3
   13886:	8552                	mv	a0,s4
   13888:	f83e                	sd	a5,48(sp)
   1388a:	457050ef          	jal	ra,194e0 <__sprint_r>
   1388e:	98051f63          	bnez	a0,12a2c <_vfprintf_r+0x1de>
   13892:	7c92                	ld	s9,288(sp)
   13894:	11812883          	lw	a7,280(sp)
   13898:	8bd6                	mv	s7,s5
   1389a:	77c2                	ld	a5,48(sp)
   1389c:	b7c9                	j	1385e <_vfprintf_r+0x1010>
   1389e:	03000793          	li	a5,48
   138a2:	18f105a3          	sb	a5,395(sp)
   138a6:	18b10d13          	addi	s10,sp,395
   138aa:	a42ff06f          	j	12aec <_vfprintf_r+0x29e>
   138ae:	67a2                	ld	a5,8(sp)
   138b0:	8d26                	mv	s10,s1
   138b2:	e31c                	sd	a5,0(a4)
   138b4:	facff06f          	j	13060 <_vfprintf_r+0x812>
   138b8:	67c2                	ld	a5,16(sp)
   138ba:	07bd                	addi	a5,a5,15
   138bc:	9bc1                	andi	a5,a5,-16
   138be:	6394                	ld	a3,0(a5)
   138c0:	6798                	ld	a4,8(a5)
   138c2:	07c1                	addi	a5,a5,16
   138c4:	e83e                	sd	a5,16(sp)
   138c6:	e236                	sd	a3,256(sp)
   138c8:	e63a                	sd	a4,264(sp)
   138ca:	afeff06f          	j	12bc8 <_vfprintf_r+0x37a>
   138ce:	8da2                	mv	s11,s0
   138d0:	e1eff06f          	j	12eee <_vfprintf_r+0x6a0>
   138d4:	67c2                	ld	a5,16(sp)
   138d6:	0007b903          	ld	s2,0(a5)
   138da:	9c2ff06f          	j	12a9c <_vfprintf_r+0x24e>
   138de:	8da2                	mv	s11,s0
   138e0:	cd0ff06f          	j	12db0 <_vfprintf_r+0x562>
   138e4:	00068b9b          	sext.w	s7,a3
   138e8:	e37048e3          	bgtz	s7,13718 <_vfprintf_r+0xeca>
   138ec:	b5b1                	j	13738 <_vfprintf_r+0xeea>
   138ee:	00188c1b          	addiw	s8,a7,1
   138f2:	010b8713          	addi	a4,s7,16
   138f6:	9cbe                	add	s9,s9,a5
   138f8:	01bbb023          	sd	s11,0(s7)
   138fc:	00fbb423          	sd	a5,8(s7)
   13900:	f266                	sd	s9,288(sp)
   13902:	11812c23          	sw	s8,280(sp)
   13906:	469d                	li	a3,7
   13908:	3f86de63          	bge	a3,s8,13d04 <_vfprintf_r+0x14b6>
   1390c:	0a10                	addi	a2,sp,272
   1390e:	85ce                	mv	a1,s3
   13910:	8552                	mv	a0,s4
   13912:	3cf050ef          	jal	ra,194e0 <__sprint_r>
   13916:	90051b63          	bnez	a0,12a2c <_vfprintf_r+0x1de>
   1391a:	11812f03          	lw	t5,280(sp)
   1391e:	7c92                	ld	s9,288(sp)
   13920:	1a010313          	addi	t1,sp,416
   13924:	001f0c1b          	addiw	s8,t5,1
   13928:	8bd6                	mv	s7,s5
   1392a:	b989                	j	1357c <_vfprintf_r+0xd2e>
   1392c:	20046413          	ori	s0,s0,512
   13930:	0014ce83          	lbu	t4,1(s1)
   13934:	2401                	sext.w	s0,s0
   13936:	0485                	addi	s1,s1,1
   13938:	870ff06f          	j	129a8 <_vfprintf_r+0x15a>
   1393c:	0a10                	addi	a2,sp,272
   1393e:	85ce                	mv	a1,s3
   13940:	8552                	mv	a0,s4
   13942:	39f050ef          	jal	ra,194e0 <__sprint_r>
   13946:	8e051363          	bnez	a0,12a2c <_vfprintf_r+0x1de>
   1394a:	7792                	ld	a5,288(sp)
   1394c:	8356                	mv	t1,s5
   1394e:	bc39                	j	1336c <_vfprintf_r+0xb1e>
   13950:	02046413          	ori	s0,s0,32
   13954:	0014ce83          	lbu	t4,1(s1)
   13958:	2401                	sext.w	s0,s0
   1395a:	0485                	addi	s1,s1,1
   1395c:	84cff06f          	j	129a8 <_vfprintf_r+0x15a>
   13960:	000c071b          	sext.w	a4,s8
   13964:	4799                	li	a5,6
   13966:	8e62                	mv	t3,s8
   13968:	3ce7ef63          	bltu	a5,a4,13d46 <_vfprintf_r+0x14f8>
   1396c:	000e0b9b          	sext.w	s7,t3
   13970:	0001d737          	lui	a4,0x1d
   13974:	895e                	mv	s2,s7
   13976:	e86e                	sd	s11,16(sp)
   13978:	aa070d13          	addi	s10,a4,-1376 # 1caa0 <zeroes.4550+0x98>
   1397c:	df8ff06f          	j	12f74 <_vfprintf_r+0x726>
   13980:	6875                	lui	a6,0x1d
   13982:	4641                	li	a2,16
   13984:	11812683          	lw	a3,280(sp)
   13988:	a0880d93          	addi	s11,a6,-1528 # 1ca08 <zeroes.4550>
   1398c:	4cc1                	li	s9,16
   1398e:	4c1d                	li	s8,7
   13990:	01764663          	blt	a2,s7,1399c <_vfprintf_r+0x114e>
   13994:	a2cd                	j	13b76 <_vfprintf_r+0x1328>
   13996:	3bc1                	addiw	s7,s7,-16
   13998:	1d7cdf63          	bge	s9,s7,13b76 <_vfprintf_r+0x1328>
   1399c:	2685                	addiw	a3,a3,1
   1399e:	07c1                	addi	a5,a5,16
   139a0:	01b33023          	sd	s11,0(t1)
   139a4:	01933423          	sd	s9,8(t1)
   139a8:	f23e                	sd	a5,288(sp)
   139aa:	10d12c23          	sw	a3,280(sp)
   139ae:	0341                	addi	t1,t1,16
   139b0:	fedc53e3          	bge	s8,a3,13996 <_vfprintf_r+0x1148>
   139b4:	0a10                	addi	a2,sp,272
   139b6:	85ce                	mv	a1,s3
   139b8:	8552                	mv	a0,s4
   139ba:	327050ef          	jal	ra,194e0 <__sprint_r>
   139be:	c119                	beqz	a0,139c4 <_vfprintf_r+0x1176>
   139c0:	86cff06f          	j	12a2c <_vfprintf_r+0x1de>
   139c4:	7792                	ld	a5,288(sp)
   139c6:	11812683          	lw	a3,280(sp)
   139ca:	8356                	mv	t1,s5
   139cc:	b7e9                	j	13996 <_vfprintf_r+0x1148>
   139ce:	896a                	mv	s2,s10
   139d0:	fbbfe06f          	j	1298a <_vfprintf_r+0x13c>
   139d4:	0a10                	addi	a2,sp,272
   139d6:	85ce                	mv	a1,s3
   139d8:	8552                	mv	a0,s4
   139da:	307050ef          	jal	ra,194e0 <__sprint_r>
   139de:	c119                	beqz	a0,139e4 <_vfprintf_r+0x1196>
   139e0:	84cff06f          	j	12a2c <_vfprintf_r+0x1de>
   139e4:	7c92                	ld	s9,288(sp)
   139e6:	11812683          	lw	a3,280(sp)
   139ea:	8bd6                	mv	s7,s5
   139ec:	be29                	j	13506 <_vfprintf_r+0xcb8>
   139ee:	0a10                	addi	a2,sp,272
   139f0:	85ce                	mv	a1,s3
   139f2:	8552                	mv	a0,s4
   139f4:	2ed050ef          	jal	ra,194e0 <__sprint_r>
   139f8:	c119                	beqz	a0,139fe <_vfprintf_r+0x11b0>
   139fa:	832ff06f          	j	12a2c <_vfprintf_r+0x1de>
   139fe:	7c92                	ld	s9,288(sp)
   13a00:	11812883          	lw	a7,280(sp)
   13a04:	8bd6                	mv	s7,s5
   13a06:	b605                	j	13526 <_vfprintf_r+0xcd8>
   13a08:	11812683          	lw	a3,280(sp)
   13a0c:	0001d637          	lui	a2,0x1d
   13a10:	aa860613          	addi	a2,a2,-1368 # 1caa8 <zeroes.4550+0xa0>
   13a14:	2685                	addiw	a3,a3,1
   13a16:	00c33023          	sd	a2,0(t1)
   13a1a:	0785                	addi	a5,a5,1
   13a1c:	4605                	li	a2,1
   13a1e:	00c33423          	sd	a2,8(t1)
   13a22:	10d12c23          	sw	a3,280(sp)
   13a26:	0006861b          	sext.w	a2,a3
   13a2a:	f23e                	sd	a5,288(sp)
   13a2c:	469d                	li	a3,7
   13a2e:	0341                	addi	t1,t1,16
   13a30:	2cc6cf63          	blt	a3,a2,13d0e <_vfprintf_r+0x14c0>
   13a34:	e6059163          	bnez	a1,13096 <_vfprintf_r+0x848>
   13a38:	7702                	ld	a4,32(sp)
   13a3a:	00147693          	andi	a3,s0,1
   13a3e:	8ed9                	or	a3,a3,a4
   13a40:	de068763          	beqz	a3,1302e <_vfprintf_r+0x7e0>
   13a44:	11812603          	lw	a2,280(sp)
   13a48:	7726                	ld	a4,104(sp)
   13a4a:	76c6                	ld	a3,112(sp)
   13a4c:	97ba                	add	a5,a5,a4
   13a4e:	00d33023          	sd	a3,0(t1)
   13a52:	0016069b          	addiw	a3,a2,1
   13a56:	00e33423          	sd	a4,8(t1)
   13a5a:	f23e                	sd	a5,288(sp)
   13a5c:	10d12c23          	sw	a3,280(sp)
   13a60:	461d                	li	a2,7
   13a62:	e4d64c63          	blt	a2,a3,130ba <_vfprintf_r+0x86c>
   13a66:	0341                	addi	t1,t1,16
   13a68:	e72ff06f          	j	130da <_vfprintf_r+0x88c>
   13a6c:	0a10                	addi	a2,sp,272
   13a6e:	85ce                	mv	a1,s3
   13a70:	8552                	mv	a0,s4
   13a72:	26f050ef          	jal	ra,194e0 <__sprint_r>
   13a76:	c119                	beqz	a0,13a7c <_vfprintf_r+0x122e>
   13a78:	fb5fe06f          	j	12a2c <_vfprintf_r+0x1de>
   13a7c:	8356                	mv	t1,s5
   13a7e:	b855                	j	13332 <_vfprintf_r+0xae4>
   13a80:	0017069b          	addiw	a3,a4,1
   13a84:	8736                	mv	a4,a3
   13a86:	97de                	add	a5,a5,s7
   13a88:	01b33023          	sd	s11,0(t1)
   13a8c:	d90ff06f          	j	1301c <_vfprintf_r+0x7ce>
   13a90:	6512                	ld	a0,256(sp)
   13a92:	65b2                	ld	a1,264(sp)
   13a94:	4601                	li	a2,0
   13a96:	4681                	li	a3,0
   13a98:	2f3070ef          	jal	ra,1b58a <__letf2>
   13a9c:	6362                	ld	t1,24(sp)
   13a9e:	60054a63          	bltz	a0,140b2 <_vfprintf_r+0x1864>
   13aa2:	0df14783          	lbu	a5,223(sp)
   13aa6:	04700713          	li	a4,71
   13aaa:	27974e63          	blt	a4,s9,13d26 <_vfprintf_r+0x14d8>
   13aae:	0001d737          	lui	a4,0x1d
   13ab2:	a5070d13          	addi	s10,a4,-1456 # 1ca50 <zeroes.4550+0x48>
   13ab6:	f7f47413          	andi	s0,s0,-129
   13aba:	ec02                	sd	zero,24(sp)
   13abc:	e482                	sd	zero,72(sp)
   13abe:	ec82                	sd	zero,88(sp)
   13ac0:	e882                	sd	zero,80(sp)
   13ac2:	2401                	sext.w	s0,s0
   13ac4:	490d                	li	s2,3
   13ac6:	4b8d                	li	s7,3
   13ac8:	4c01                	li	s8,0
   13aca:	c399                	beqz	a5,13ad0 <_vfprintf_r+0x1282>
   13acc:	83cff06f          	j	12b08 <_vfprintf_r+0x2ba>
   13ad0:	caeff06f          	j	12f7e <_vfprintf_r+0x730>
   13ad4:	856a                	mv	a0,s10
   13ad6:	f81a                	sd	t1,48(sp)
   13ad8:	ce1fe0ef          	jal	ra,127b8 <strlen>
   13adc:	00050b9b          	sext.w	s7,a0
   13ae0:	fffbc913          	not	s2,s7
   13ae4:	0df14783          	lbu	a5,223(sp)
   13ae8:	43f95913          	srai	s2,s2,0x3f
   13aec:	012bf933          	and	s2,s7,s2
   13af0:	e86e                	sd	s11,16(sp)
   13af2:	ec02                	sd	zero,24(sp)
   13af4:	e482                	sd	zero,72(sp)
   13af6:	ec82                	sd	zero,88(sp)
   13af8:	e882                	sd	zero,80(sp)
   13afa:	2901                	sext.w	s2,s2
   13afc:	4c01                	li	s8,0
   13afe:	7342                	ld	t1,48(sp)
   13b00:	c399                	beqz	a5,13b06 <_vfprintf_r+0x12b8>
   13b02:	806ff06f          	j	12b08 <_vfprintf_r+0x2ba>
   13b06:	c78ff06f          	j	12f7e <_vfprintf_r+0x730>
   13b0a:	20047793          	andi	a5,s0,512
   13b0e:	2c078363          	beqz	a5,13dd4 <_vfprintf_r+0x1586>
   13b12:	0ff97913          	andi	s2,s2,255
   13b16:	f87fe06f          	j	12a9c <_vfprintf_r+0x24e>
   13b1a:	20047793          	andi	a5,s0,512
   13b1e:	2a078363          	beqz	a5,13dc4 <_vfprintf_r+0x1576>
   13b22:	0ff97913          	andi	s2,s2,255
   13b26:	e83a                	sd	a4,16(sp)
   13b28:	8da2                	mv	s11,s0
   13b2a:	4785                	li	a5,1
   13b2c:	f99fe06f          	j	12ac4 <_vfprintf_r+0x276>
   13b30:	20047793          	andi	a5,s0,512
   13b34:	28078263          	beqz	a5,13db8 <_vfprintf_r+0x156a>
   13b38:	0ff97913          	andi	s2,s2,255
   13b3c:	e83a                	sd	a4,16(sp)
   13b3e:	aeaff06f          	j	12e28 <_vfprintf_r+0x5da>
   13b42:	20047793          	andi	a5,s0,512
   13b46:	26078163          	beqz	a5,13da8 <_vfprintf_r+0x155a>
   13b4a:	67c2                	ld	a5,16(sp)
   13b4c:	8da2                	mv	s11,s0
   13b4e:	e83a                	sd	a4,16(sp)
   13b50:	00078903          	lb	s2,0(a5)
   13b54:	87ca                	mv	a5,s2
   13b56:	b10ff06f          	j	12e66 <_vfprintf_r+0x618>
   13b5a:	67b2                	ld	a5,264(sp)
   13b5c:	2807c163          	bltz	a5,13dde <_vfprintf_r+0x1590>
   13b60:	0df14783          	lbu	a5,223(sp)
   13b64:	04700713          	li	a4,71
   13b68:	5b975063          	bge	a4,s9,14108 <_vfprintf_r+0x18ba>
   13b6c:	0001d737          	lui	a4,0x1d
   13b70:	a6870d13          	addi	s10,a4,-1432 # 1ca68 <zeroes.4550+0x60>
   13b74:	b789                	j	13ab6 <_vfprintf_r+0x1268>
   13b76:	0016861b          	addiw	a2,a3,1
   13b7a:	97de                	add	a5,a5,s7
   13b7c:	01b33023          	sd	s11,0(t1)
   13b80:	01733423          	sd	s7,8(t1)
   13b84:	f23e                	sd	a5,288(sp)
   13b86:	10c12c23          	sw	a2,280(sp)
   13b8a:	469d                	li	a3,7
   13b8c:	0341                	addi	t1,t1,16
   13b8e:	bac6dfe3          	bge	a3,a2,1374c <_vfprintf_r+0xefe>
   13b92:	0a10                	addi	a2,sp,272
   13b94:	85ce                	mv	a1,s3
   13b96:	8552                	mv	a0,s4
   13b98:	149050ef          	jal	ra,194e0 <__sprint_r>
   13b9c:	c119                	beqz	a0,13ba2 <_vfprintf_r+0x1354>
   13b9e:	e8ffe06f          	j	12a2c <_vfprintf_r+0x1de>
   13ba2:	7792                	ld	a5,288(sp)
   13ba4:	8356                	mv	t1,s5
   13ba6:	b65d                	j	1374c <_vfprintf_r+0xefe>
   13ba8:	7702                	ld	a4,32(sp)
   13baa:	6ef5                	lui	t4,0x1d
   13bac:	4b9d                	li	s7,7
   13bae:	976a                	add	a4,a4,s10
   13bb0:	fc3a                	sd	a4,56(sp)
   13bb2:	6766                	ld	a4,88(sp)
   13bb4:	4dc1                	li	s11,16
   13bb6:	a08e8c93          	addi	s9,t4,-1528 # 1ca08 <zeroes.4550>
   13bba:	cb49                	beqz	a4,13c4c <_vfprintf_r+0x13fe>
   13bbc:	6726                	ld	a4,72(sp)
   13bbe:	eb51                	bnez	a4,13c52 <_vfprintf_r+0x1404>
   13bc0:	7706                	ld	a4,96(sp)
   13bc2:	177d                	addi	a4,a4,-1
   13bc4:	f0ba                	sd	a4,96(sp)
   13bc6:	6766                	ld	a4,88(sp)
   13bc8:	377d                	addiw	a4,a4,-1
   13bca:	ecba                	sd	a4,88(sp)
   13bcc:	66aa                	ld	a3,136(sp)
   13bce:	7766                	ld	a4,120(sp)
   13bd0:	0341                	addi	t1,t1,16
   13bd2:	fed33823          	sd	a3,-16(t1)
   13bd6:	11812683          	lw	a3,280(sp)
   13bda:	97ba                	add	a5,a5,a4
   13bdc:	fee33c23          	sd	a4,-8(t1)
   13be0:	0016861b          	addiw	a2,a3,1
   13be4:	f23e                	sd	a5,288(sp)
   13be6:	10c12c23          	sw	a2,280(sp)
   13bea:	0ecbc063          	blt	s7,a2,13cca <_vfprintf_r+0x147c>
   13bee:	7706                	ld	a4,96(sp)
   13bf0:	00074583          	lbu	a1,0(a4)
   13bf4:	7762                	ld	a4,56(sp)
   13bf6:	0005869b          	sext.w	a3,a1
   13bfa:	4187053b          	subw	a0,a4,s8
   13bfe:	8636                	mv	a2,a3
   13c00:	00d55363          	bge	a0,a3,13c06 <_vfprintf_r+0x13b8>
   13c04:	862a                	mv	a2,a0
   13c06:	00060f1b          	sext.w	t5,a2
   13c0a:	03e05663          	blez	t5,13c36 <_vfprintf_r+0x13e8>
   13c0e:	11812683          	lw	a3,280(sp)
   13c12:	97fa                	add	a5,a5,t5
   13c14:	01833023          	sd	s8,0(t1)
   13c18:	0016861b          	addiw	a2,a3,1
   13c1c:	01e33423          	sd	t5,8(t1)
   13c20:	f23e                	sd	a5,288(sp)
   13c22:	10c12c23          	sw	a2,280(sp)
   13c26:	0acbcd63          	blt	s7,a2,13ce0 <_vfprintf_r+0x1492>
   13c2a:	7706                	ld	a4,96(sp)
   13c2c:	0341                	addi	t1,t1,16
   13c2e:	00074583          	lbu	a1,0(a4)
   13c32:	0005869b          	sext.w	a3,a1
   13c36:	ffff4613          	not	a2,t5
   13c3a:	967d                	srai	a2,a2,0x3f
   13c3c:	00cf7633          	and	a2,t5,a2
   13c40:	9e91                	subw	a3,a3,a2
   13c42:	00d04c63          	bgtz	a3,13c5a <_vfprintf_r+0x140c>
   13c46:	9c2e                	add	s8,s8,a1
   13c48:	6766                	ld	a4,88(sp)
   13c4a:	fb2d                	bnez	a4,13bbc <_vfprintf_r+0x136e>
   13c4c:	6726                	ld	a4,72(sp)
   13c4e:	30070d63          	beqz	a4,13f68 <_vfprintf_r+0x171a>
   13c52:	6726                	ld	a4,72(sp)
   13c54:	377d                	addiw	a4,a4,-1
   13c56:	e4ba                	sd	a4,72(sp)
   13c58:	bf95                	j	13bcc <_vfprintf_r+0x137e>
   13c5a:	11812603          	lw	a2,280(sp)
   13c5e:	00ddc663          	blt	s11,a3,13c6a <_vfprintf_r+0x141c>
   13c62:	a089                	j	13ca4 <_vfprintf_r+0x1456>
   13c64:	36c1                	addiw	a3,a3,-16
   13c66:	02dddf63          	bge	s11,a3,13ca4 <_vfprintf_r+0x1456>
   13c6a:	2605                	addiw	a2,a2,1
   13c6c:	07c1                	addi	a5,a5,16
   13c6e:	01933023          	sd	s9,0(t1)
   13c72:	01b33423          	sd	s11,8(t1)
   13c76:	f23e                	sd	a5,288(sp)
   13c78:	10c12c23          	sw	a2,280(sp)
   13c7c:	0341                	addi	t1,t1,16
   13c7e:	fecbd3e3          	bge	s7,a2,13c64 <_vfprintf_r+0x1416>
   13c82:	0a10                	addi	a2,sp,272
   13c84:	85ce                	mv	a1,s3
   13c86:	8552                	mv	a0,s4
   13c88:	f836                	sd	a3,48(sp)
   13c8a:	057050ef          	jal	ra,194e0 <__sprint_r>
   13c8e:	c119                	beqz	a0,13c94 <_vfprintf_r+0x1446>
   13c90:	d9dfe06f          	j	12a2c <_vfprintf_r+0x1de>
   13c94:	76c2                	ld	a3,48(sp)
   13c96:	7792                	ld	a5,288(sp)
   13c98:	11812603          	lw	a2,280(sp)
   13c9c:	36c1                	addiw	a3,a3,-16
   13c9e:	8356                	mv	t1,s5
   13ca0:	fcddc5e3          	blt	s11,a3,13c6a <_vfprintf_r+0x141c>
   13ca4:	2605                	addiw	a2,a2,1
   13ca6:	97b6                	add	a5,a5,a3
   13ca8:	00d33423          	sd	a3,8(t1)
   13cac:	01933023          	sd	s9,0(t1)
   13cb0:	f23e                	sd	a5,288(sp)
   13cb2:	0006069b          	sext.w	a3,a2
   13cb6:	10c12c23          	sw	a2,280(sp)
   13cba:	3adbc263          	blt	s7,a3,1405e <_vfprintf_r+0x1810>
   13cbe:	7706                	ld	a4,96(sp)
   13cc0:	0341                	addi	t1,t1,16
   13cc2:	00074583          	lbu	a1,0(a4)
   13cc6:	9c2e                	add	s8,s8,a1
   13cc8:	b741                	j	13c48 <_vfprintf_r+0x13fa>
   13cca:	0a10                	addi	a2,sp,272
   13ccc:	85ce                	mv	a1,s3
   13cce:	8552                	mv	a0,s4
   13cd0:	011050ef          	jal	ra,194e0 <__sprint_r>
   13cd4:	c119                	beqz	a0,13cda <_vfprintf_r+0x148c>
   13cd6:	d57fe06f          	j	12a2c <_vfprintf_r+0x1de>
   13cda:	7792                	ld	a5,288(sp)
   13cdc:	8356                	mv	t1,s5
   13cde:	bf01                	j	13bee <_vfprintf_r+0x13a0>
   13ce0:	0a10                	addi	a2,sp,272
   13ce2:	85ce                	mv	a1,s3
   13ce4:	8552                	mv	a0,s4
   13ce6:	f87a                	sd	t5,48(sp)
   13ce8:	7f8050ef          	jal	ra,194e0 <__sprint_r>
   13cec:	c119                	beqz	a0,13cf2 <_vfprintf_r+0x14a4>
   13cee:	d3ffe06f          	j	12a2c <_vfprintf_r+0x1de>
   13cf2:	7786                	ld	a5,96(sp)
   13cf4:	8356                	mv	t1,s5
   13cf6:	7f42                	ld	t5,48(sp)
   13cf8:	0007c583          	lbu	a1,0(a5)
   13cfc:	7792                	ld	a5,288(sp)
   13cfe:	0005869b          	sext.w	a3,a1
   13d02:	bf15                	j	13c36 <_vfprintf_r+0x13e8>
   13d04:	2c05                	addiw	s8,s8,1
   13d06:	01070313          	addi	t1,a4,16
   13d0a:	8bba                	mv	s7,a4
   13d0c:	b885                	j	1357c <_vfprintf_r+0xd2e>
   13d0e:	0a10                	addi	a2,sp,272
   13d10:	85ce                	mv	a1,s3
   13d12:	8552                	mv	a0,s4
   13d14:	7cc050ef          	jal	ra,194e0 <__sprint_r>
   13d18:	c119                	beqz	a0,13d1e <_vfprintf_r+0x14d0>
   13d1a:	d13fe06f          	j	12a2c <_vfprintf_r+0x1de>
   13d1e:	55ae                	lw	a1,232(sp)
   13d20:	7792                	ld	a5,288(sp)
   13d22:	8356                	mv	t1,s5
   13d24:	bb01                	j	13a34 <_vfprintf_r+0x11e6>
   13d26:	0001d737          	lui	a4,0x1d
   13d2a:	a5870d13          	addi	s10,a4,-1448 # 1ca58 <zeroes.4550+0x50>
   13d2e:	b361                	j	13ab6 <_vfprintf_r+0x1268>
   13d30:	0a10                	addi	a2,sp,272
   13d32:	85ce                	mv	a1,s3
   13d34:	8552                	mv	a0,s4
   13d36:	7aa050ef          	jal	ra,194e0 <__sprint_r>
   13d3a:	c119                	beqz	a0,13d40 <_vfprintf_r+0x14f2>
   13d3c:	cf1fe06f          	j	12a2c <_vfprintf_r+0x1de>
   13d40:	7792                	ld	a5,288(sp)
   13d42:	8356                	mv	t1,s5
   13d44:	bad5                	j	13738 <_vfprintf_r+0xeea>
   13d46:	4e19                	li	t3,6
   13d48:	b115                	j	1396c <_vfprintf_r+0x111e>
   13d4a:	77e6                	ld	a5,120(sp)
   13d4c:	65aa                	ld	a1,136(sp)
   13d4e:	f836                	sd	a3,48(sp)
   13d50:	40fd0d33          	sub	s10,s10,a5
   13d54:	863e                	mv	a2,a5
   13d56:	856a                	mv	a0,s10
   13d58:	ec1a                	sd	t1,24(sp)
   13d5a:	2d3030ef          	jal	ra,1782c <strncpy>
   13d5e:	7706                	ld	a4,96(sp)
   13d60:	028957b3          	divu	a5,s2,s0
   13d64:	f002                	sd	zero,32(sp)
   13d66:	00174603          	lbu	a2,1(a4)
   13d6a:	6362                	ld	t1,24(sp)
   13d6c:	76c2                	ld	a3,48(sp)
   13d6e:	00c03633          	snez	a2,a2
   13d72:	9732                	add	a4,a4,a2
   13d74:	f0ba                	sd	a4,96(sp)
   13d76:	4825                	li	a6,9
   13d78:	0ff00893          	li	a7,255
   13d7c:	d32ff06f          	j	132ae <_vfprintf_r+0xa60>
   13d80:	7682                	ld	a3,32(sp)
   13d82:	00dd0733          	add	a4,s10,a3
   13d86:	4176863b          	subw	a2,a3,s7
   13d8a:	418708bb          	subw	a7,a4,s8
   13d8e:	00088b9b          	sext.w	s7,a7
   13d92:	a3165be3          	bge	a2,a7,137c8 <_vfprintf_r+0xf7a>
   13d96:	00060b9b          	sext.w	s7,a2
   13d9a:	b43d                	j	137c8 <_vfprintf_r+0xf7a>
   13d9c:	67a2                	ld	a5,8(sp)
   13d9e:	8d26                	mv	s10,s1
   13da0:	00f71023          	sh	a5,0(a4)
   13da4:	abcff06f          	j	13060 <_vfprintf_r+0x812>
   13da8:	67c2                	ld	a5,16(sp)
   13daa:	8da2                	mv	s11,s0
   13dac:	e83a                	sd	a4,16(sp)
   13dae:	0007a903          	lw	s2,0(a5)
   13db2:	87ca                	mv	a5,s2
   13db4:	8b2ff06f          	j	12e66 <_vfprintf_r+0x618>
   13db8:	1902                	slli	s2,s2,0x20
   13dba:	02095913          	srli	s2,s2,0x20
   13dbe:	e83a                	sd	a4,16(sp)
   13dc0:	868ff06f          	j	12e28 <_vfprintf_r+0x5da>
   13dc4:	1902                	slli	s2,s2,0x20
   13dc6:	02095913          	srli	s2,s2,0x20
   13dca:	e83a                	sd	a4,16(sp)
   13dcc:	8da2                	mv	s11,s0
   13dce:	4785                	li	a5,1
   13dd0:	cf5fe06f          	j	12ac4 <_vfprintf_r+0x276>
   13dd4:	1902                	slli	s2,s2,0x20
   13dd6:	02095913          	srli	s2,s2,0x20
   13dda:	cc3fe06f          	j	12a9c <_vfprintf_r+0x24e>
   13dde:	02d00793          	li	a5,45
   13de2:	0cf10fa3          	sb	a5,223(sp)
   13de6:	02d00793          	li	a5,45
   13dea:	bbad                	j	13b64 <_vfprintf_r+0x1316>
   13dec:	03000793          	li	a5,48
   13df0:	0ef10023          	sb	a5,224(sp)
   13df4:	05800713          	li	a4,88
   13df8:	00246793          	ori	a5,s0,2
   13dfc:	2781                	sext.w	a5,a5
   13dfe:	0ee100a3          	sb	a4,225(sp)
   13e02:	06300693          	li	a3,99
   13e06:	f93e                	sd	a5,176(sp)
   13e08:	ec02                	sd	zero,24(sp)
   13e0a:	12810d13          	addi	s10,sp,296
   13e0e:	3d86c563          	blt	a3,s8,141d8 <_vfprintf_r+0x198a>
   13e12:	6bb2                	ld	s7,264(sp)
   13e14:	fdfcf793          	andi	a5,s9,-33
   13e18:	10246413          	ori	s0,s0,258
   13e1c:	f53e                	sd	a5,168(sp)
   13e1e:	e582                	sd	zero,200(sp)
   13e20:	2401                	sext.w	s0,s0
   13e22:	6d92                	ld	s11,256(sp)
   13e24:	220bc563          	bltz	s7,1404e <_vfprintf_r+0x1800>
   13e28:	06100793          	li	a5,97
   13e2c:	4cfc8e63          	beq	s9,a5,14308 <_vfprintf_r+0x1aba>
   13e30:	04100793          	li	a5,65
   13e34:	00fc8463          	beq	s9,a5,13e3c <_vfprintf_r+0x15ee>
   13e38:	dfbfe06f          	j	12c32 <_vfprintf_r+0x3e4>
   13e3c:	85de                	mv	a1,s7
   13e3e:	856e                	mv	a0,s11
   13e40:	f01a                	sd	t1,32(sp)
   13e42:	7c4080ef          	jal	ra,1c606 <__trunctfdf2>
   13e46:	11a8                	addi	a0,sp,232
   13e48:	74a030ef          	jal	ra,17592 <frexp>
   13e4c:	6f6080ef          	jal	ra,1c542 <__extenddftf2>
   13e50:	00fff7b7          	lui	a5,0xfff
   13e54:	02679693          	slli	a3,a5,0x26
   13e58:	4601                	li	a2,0
   13e5a:	7de070ef          	jal	ra,1b638 <__multf3>
   13e5e:	4601                	li	a2,0
   13e60:	4681                	li	a3,0
   13e62:	8baa                	mv	s7,a0
   13e64:	892e                	mv	s2,a1
   13e66:	5da070ef          	jal	ra,1b440 <__eqtf2>
   13e6a:	7302                	ld	t1,32(sp)
   13e6c:	e119                	bnez	a0,13e72 <_vfprintf_r+0x1624>
   13e6e:	4785                	li	a5,1
   13e70:	d5be                	sw	a5,232(sp)
   13e72:	0001d7b7          	lui	a5,0x1d
   13e76:	a8878793          	addi	a5,a5,-1400 # 1ca88 <zeroes.4550+0x80>
   13e7a:	e4be                	sd	a5,72(sp)
   13e7c:	000c069b          	sext.w	a3,s8
   13e80:	02069793          	slli	a5,a3,0x20
   13e84:	9381                	srli	a5,a5,0x20
   13e86:	0785                	addi	a5,a5,1
   13e88:	97ea                	add	a5,a5,s10
   13e8a:	ecbe                	sd	a5,88(sp)
   13e8c:	00dd07bb          	addw	a5,s10,a3
   13e90:	f06a                	sd	s10,32(sp)
   13e92:	c3be                	sw	a5,196(sp)
   13e94:	a821                	j	13eac <_vfprintf_r+0x165e>
   13e96:	4601                	li	a2,0
   13e98:	4681                	li	a3,0
   13e9a:	e0ae                	sd	a1,64(sp)
   13e9c:	fc2a                	sd	a0,56(sp)
   13e9e:	5a2070ef          	jal	ra,1b440 <__eqtf2>
   13ea2:	7342                	ld	t1,48(sp)
   13ea4:	78e2                	ld	a7,56(sp)
   13ea6:	6806                	ld	a6,64(sp)
   13ea8:	c125                	beqz	a0,13f08 <_vfprintf_r+0x16ba>
   13eaa:	f06e                	sd	s11,32(sp)
   13eac:	66ca                	ld	a3,144(sp)
   13eae:	4601                	li	a2,0
   13eb0:	855e                	mv	a0,s7
   13eb2:	85ca                	mv	a1,s2
   13eb4:	f81a                	sd	t1,48(sp)
   13eb6:	782070ef          	jal	ra,1b638 <__multf3>
   13eba:	892e                	mv	s2,a1
   13ebc:	8baa                	mv	s7,a0
   13ebe:	596080ef          	jal	ra,1c454 <__fixtfsi>
   13ec2:	00050d9b          	sext.w	s11,a0
   13ec6:	fd6e                	sd	s11,184(sp)
   13ec8:	61c080ef          	jal	ra,1c4e4 <__floatsitf>
   13ecc:	86ae                	mv	a3,a1
   13ece:	862a                	mv	a2,a0
   13ed0:	85ca                	mv	a1,s2
   13ed2:	855e                	mv	a0,s7
   13ed4:	567070ef          	jal	ra,1bc3a <__subtf3>
   13ed8:	67a6                	ld	a5,72(sp)
   13eda:	88aa                	mv	a7,a0
   13edc:	882e                	mv	a6,a1
   13ede:	97ee                	add	a5,a5,s11
   13ee0:	0007c683          	lbu	a3,0(a5)
   13ee4:	7782                	ld	a5,32(sp)
   13ee6:	8baa                	mv	s7,a0
   13ee8:	892e                	mv	s2,a1
   13eea:	00178d93          	addi	s11,a5,1
   13eee:	479e                	lw	a5,196(sp)
   13ef0:	fedd8fa3          	sb	a3,-1(s11)
   13ef4:	7342                	ld	t1,48(sp)
   13ef6:	41b787bb          	subw	a5,a5,s11
   13efa:	e8be                	sd	a5,80(sp)
   13efc:	67e6                	ld	a5,88(sp)
   13efe:	f8fd9ce3          	bne	s11,a5,13e96 <_vfprintf_r+0x1648>
   13f02:	6de6                	ld	s11,88(sp)
   13f04:	57fd                	li	a5,-1
   13f06:	e8be                	sd	a5,80(sp)
   13f08:	66ea                	ld	a3,152(sp)
   13f0a:	4601                	li	a2,0
   13f0c:	8546                	mv	a0,a7
   13f0e:	85c2                	mv	a1,a6
   13f10:	f81a                	sd	t1,48(sp)
   13f12:	e0c6                	sd	a7,64(sp)
   13f14:	fc42                	sd	a6,56(sp)
   13f16:	5c6070ef          	jal	ra,1b4dc <__getf2>
   13f1a:	7342                	ld	t1,48(sp)
   13f1c:	2ea04163          	bgtz	a0,141fe <_vfprintf_r+0x19b0>
   13f20:	6886                	ld	a7,64(sp)
   13f22:	7862                	ld	a6,56(sp)
   13f24:	66ea                	ld	a3,152(sp)
   13f26:	4601                	li	a2,0
   13f28:	8546                	mv	a0,a7
   13f2a:	85c2                	mv	a1,a6
   13f2c:	514070ef          	jal	ra,1b440 <__eqtf2>
   13f30:	7342                	ld	t1,48(sp)
   13f32:	e511                	bnez	a0,13f3e <_vfprintf_r+0x16f0>
   13f34:	77ea                	ld	a5,184(sp)
   13f36:	0017f913          	andi	s2,a5,1
   13f3a:	2c091263          	bnez	s2,141fe <_vfprintf_r+0x19b0>
   13f3e:	67c6                	ld	a5,80(sp)
   13f40:	03000613          	li	a2,48
   13f44:	00178693          	addi	a3,a5,1
   13f48:	96ee                	add	a3,a3,s11
   13f4a:	0007c763          	bltz	a5,13f58 <_vfprintf_r+0x170a>
   13f4e:	0d85                	addi	s11,s11,1
   13f50:	fecd8fa3          	sb	a2,-1(s11)
   13f54:	ffb69de3          	bne	a3,s11,13f4e <_vfprintf_r+0x1700>
   13f58:	41ad87bb          	subw	a5,s11,s10
   13f5c:	f03e                	sd	a5,32(sp)
   13f5e:	d31fe06f          	j	12c8e <_vfprintf_r+0x440>
   13f62:	8da2                	mv	s11,s0
   13f64:	b18ff06f          	j	1327c <_vfprintf_r+0xa2e>
   13f68:	7702                	ld	a4,32(sp)
   13f6a:	00ed06b3          	add	a3,s10,a4
   13f6e:	ff86f663          	bgeu	a3,s8,1375a <_vfprintf_r+0xf0c>
   13f72:	8c36                	mv	s8,a3
   13f74:	fe6ff06f          	j	1375a <_vfprintf_r+0xf0c>
   13f78:	6746                	ld	a4,80(sp)
   13f7a:	57f5                	li	a5,-3
   13f7c:	00f74463          	blt	a4,a5,13f84 <_vfprintf_r+0x1736>
   13f80:	06ec5e63          	bge	s8,a4,13ffc <_vfprintf_r+0x17ae>
   13f84:	3cf9                	addiw	s9,s9,-2
   13f86:	fdfcf793          	andi	a5,s9,-33
   13f8a:	f53e                	sd	a5,168(sp)
   13f8c:	d23fe06f          	j	12cae <_vfprintf_r+0x460>
   13f90:	11bc                	addi	a5,sp,232
   13f92:	468d                	li	a3,3
   13f94:	0f810893          	addi	a7,sp,248
   13f98:	0ec10813          	addi	a6,sp,236
   13f9c:	8762                	mv	a4,s8
   13f9e:	85ee                	mv	a1,s11
   13fa0:	865e                	mv	a2,s7
   13fa2:	8552                	mv	a0,s4
   13fa4:	f01a                	sd	t1,32(sp)
   13fa6:	251010ef          	jal	ra,159f6 <_ldtoa_r>
   13faa:	00054683          	lbu	a3,0(a0)
   13fae:	03000793          	li	a5,48
   13fb2:	8d2a                	mv	s10,a0
   13fb4:	7302                	ld	t1,32(sp)
   13fb6:	0ef68063          	beq	a3,a5,14096 <_vfprintf_r+0x1848>
   13fba:	57ae                	lw	a5,232(sp)
   13fbc:	97e2                	add	a5,a5,s8
   13fbe:	00fd0933          	add	s2,s10,a5
   13fc2:	4601                	li	a2,0
   13fc4:	4681                	li	a3,0
   13fc6:	856e                	mv	a0,s11
   13fc8:	85de                	mv	a1,s7
   13fca:	f01a                	sd	t1,32(sp)
   13fcc:	474070ef          	jal	ra,1b440 <__eqtf2>
   13fd0:	874a                	mv	a4,s2
   13fd2:	7302                	ld	t1,32(sp)
   13fd4:	e119                	bnez	a0,13fda <_vfprintf_r+0x178c>
   13fd6:	cb3fe06f          	j	12c88 <_vfprintf_r+0x43a>
   13fda:	776e                	ld	a4,248(sp)
   13fdc:	03000693          	li	a3,48
   13fe0:	01276463          	bltu	a4,s2,13fe8 <_vfprintf_r+0x179a>
   13fe4:	ca5fe06f          	j	12c88 <_vfprintf_r+0x43a>
   13fe8:	00170793          	addi	a5,a4,1
   13fec:	fdbe                	sd	a5,248(sp)
   13fee:	00d70023          	sb	a3,0(a4)
   13ff2:	776e                	ld	a4,248(sp)
   13ff4:	ff276ae3          	bltu	a4,s2,13fe8 <_vfprintf_r+0x179a>
   13ff8:	c91fe06f          	j	12c88 <_vfprintf_r+0x43a>
   13ffc:	7782                	ld	a5,32(sp)
   13ffe:	6746                	ld	a4,80(sp)
   14000:	0cf74e63          	blt	a4,a5,140dc <_vfprintf_r+0x188e>
   14004:	77ca                	ld	a5,176(sp)
   14006:	8bba                	mv	s7,a4
   14008:	8b85                	andi	a5,a5,1
   1400a:	c781                	beqz	a5,14012 <_vfprintf_r+0x17c4>
   1400c:	77a6                	ld	a5,104(sp)
   1400e:	00e78bbb          	addw	s7,a5,a4
   14012:	77ca                	ld	a5,176(sp)
   14014:	4007f793          	andi	a5,a5,1024
   14018:	c781                	beqz	a5,14020 <_vfprintf_r+0x17d2>
   1401a:	67c6                	ld	a5,80(sp)
   1401c:	28f04063          	bgtz	a5,1429c <_vfprintf_r+0x1a4e>
   14020:	fffbc913          	not	s2,s7
   14024:	43f95913          	srai	s2,s2,0x3f
   14028:	012bf933          	and	s2,s7,s2
   1402c:	2901                	sext.w	s2,s2
   1402e:	06700c93          	li	s9,103
   14032:	e482                	sd	zero,72(sp)
   14034:	ec82                	sd	zero,88(sp)
   14036:	d59fe06f          	j	12d8e <_vfprintf_r+0x540>
   1403a:	0df14783          	lbu	a5,223(sp)
   1403e:	4c01                	li	s8,0
   14040:	c399                	beqz	a5,14046 <_vfprintf_r+0x17f8>
   14042:	ac7fe06f          	j	12b08 <_vfprintf_r+0x2ba>
   14046:	f39fe06f          	j	12f7e <_vfprintf_r+0x730>
   1404a:	ec02                	sd	zero,24(sp)
   1404c:	843e                	mv	s0,a5
   1404e:	57fd                	li	a5,-1
   14050:	17fe                	slli	a5,a5,0x3f
   14052:	00fbcbb3          	xor	s7,s7,a5
   14056:	02d00793          	li	a5,45
   1405a:	e5be                	sd	a5,200(sp)
   1405c:	b3f1                	j	13e28 <_vfprintf_r+0x15da>
   1405e:	0a10                	addi	a2,sp,272
   14060:	85ce                	mv	a1,s3
   14062:	8552                	mv	a0,s4
   14064:	47c050ef          	jal	ra,194e0 <__sprint_r>
   14068:	c119                	beqz	a0,1406e <_vfprintf_r+0x1820>
   1406a:	9c3fe06f          	j	12a2c <_vfprintf_r+0x1de>
   1406e:	7786                	ld	a5,96(sp)
   14070:	8356                	mv	t1,s5
   14072:	0007c583          	lbu	a1,0(a5)
   14076:	7792                	ld	a5,288(sp)
   14078:	9c2e                	add	s8,s8,a1
   1407a:	b6f9                	j	13c48 <_vfprintf_r+0x13fa>
   1407c:	0a10                	addi	a2,sp,272
   1407e:	85ce                	mv	a1,s3
   14080:	8552                	mv	a0,s4
   14082:	45e050ef          	jal	ra,194e0 <__sprint_r>
   14086:	c119                	beqz	a0,1408c <_vfprintf_r+0x183e>
   14088:	9a5fe06f          	j	12a2c <_vfprintf_r+0x1de>
   1408c:	5bae                	lw	s7,232(sp)
   1408e:	7792                	ld	a5,288(sp)
   14090:	8356                	mv	t1,s5
   14092:	efcff06f          	j	1378e <_vfprintf_r+0xf40>
   14096:	4601                	li	a2,0
   14098:	4681                	li	a3,0
   1409a:	856e                	mv	a0,s11
   1409c:	85de                	mv	a1,s7
   1409e:	f01a                	sd	t1,32(sp)
   140a0:	3a0070ef          	jal	ra,1b440 <__eqtf2>
   140a4:	7302                	ld	t1,32(sp)
   140a6:	d911                	beqz	a0,13fba <_vfprintf_r+0x176c>
   140a8:	4685                	li	a3,1
   140aa:	418687bb          	subw	a5,a3,s8
   140ae:	d5be                	sw	a5,232(sp)
   140b0:	b731                	j	13fbc <_vfprintf_r+0x176e>
   140b2:	02d00793          	li	a5,45
   140b6:	0cf10fa3          	sb	a5,223(sp)
   140ba:	02d00793          	li	a5,45
   140be:	b2e5                	j	13aa6 <_vfprintf_r+0x1258>
   140c0:	0df14783          	lbu	a5,223(sp)
   140c4:	e86e                	sd	s11,16(sp)
   140c6:	e482                	sd	zero,72(sp)
   140c8:	ec82                	sd	zero,88(sp)
   140ca:	e882                	sd	zero,80(sp)
   140cc:	8962                	mv	s2,s8
   140ce:	8be2                	mv	s7,s8
   140d0:	4c01                	li	s8,0
   140d2:	c399                	beqz	a5,140d8 <_vfprintf_r+0x188a>
   140d4:	a35fe06f          	j	12b08 <_vfprintf_r+0x2ba>
   140d8:	ea7fe06f          	j	12f7e <_vfprintf_r+0x730>
   140dc:	7702                	ld	a4,32(sp)
   140de:	77a6                	ld	a5,104(sp)
   140e0:	06700c93          	li	s9,103
   140e4:	00e78bbb          	addw	s7,a5,a4
   140e8:	6746                	ld	a4,80(sp)
   140ea:	2ae05363          	blez	a4,14390 <_vfprintf_r+0x1b42>
   140ee:	77ca                	ld	a5,176(sp)
   140f0:	4007f793          	andi	a5,a5,1024
   140f4:	1a079663          	bnez	a5,142a0 <_vfprintf_r+0x1a52>
   140f8:	fffbc913          	not	s2,s7
   140fc:	43f95913          	srai	s2,s2,0x3f
   14100:	012bf933          	and	s2,s7,s2
   14104:	2901                	sext.w	s2,s2
   14106:	b735                	j	14032 <_vfprintf_r+0x17e4>
   14108:	0001d737          	lui	a4,0x1d
   1410c:	a6070d13          	addi	s10,a4,-1440 # 1ca60 <zeroes.4550+0x58>
   14110:	b25d                	j	13ab6 <_vfprintf_r+0x1268>
   14112:	77ca                	ld	a5,176(sp)
   14114:	6746                	ld	a4,80(sp)
   14116:	8b85                	andi	a5,a5,1
   14118:	00fc67b3          	or	a5,s8,a5
   1411c:	2781                	sext.w	a5,a5
   1411e:	28e05763          	blez	a4,143ac <_vfprintf_r+0x1b5e>
   14122:	16079563          	bnez	a5,1428c <_vfprintf_r+0x1a3e>
   14126:	6bc6                	ld	s7,80(sp)
   14128:	06600c93          	li	s9,102
   1412c:	b7c9                	j	140ee <_vfprintf_r+0x18a0>
   1412e:	0a10                	addi	a2,sp,272
   14130:	85ce                	mv	a1,s3
   14132:	8552                	mv	a0,s4
   14134:	3ac050ef          	jal	ra,194e0 <__sprint_r>
   14138:	c119                	beqz	a0,1413e <_vfprintf_r+0x18f0>
   1413a:	8f3fe06f          	j	12a2c <_vfprintf_r+0x1de>
   1413e:	562e                	lw	a2,232(sp)
   14140:	7702                	ld	a4,32(sp)
   14142:	7792                	ld	a5,288(sp)
   14144:	8356                	mv	t1,s5
   14146:	40c7063b          	subw	a2,a4,a2
   1414a:	e7eff06f          	j	137c8 <_vfprintf_r+0xf7a>
   1414e:	57fd                	li	a5,-1
   14150:	e43e                	sd	a5,8(sp)
   14152:	8f5fe06f          	j	12a46 <_vfprintf_r+0x1f8>
   14156:	6875                	lui	a6,0x1d
   14158:	5641                	li	a2,-16
   1415a:	40b00bbb          	negw	s7,a1
   1415e:	a0880d93          	addi	s11,a6,-1528 # 1ca08 <zeroes.4550>
   14162:	4cc1                	li	s9,16
   14164:	4c1d                	li	s8,7
   14166:	00c5c663          	blt	a1,a2,14172 <_vfprintf_r+0x1924>
   1416a:	a82d                	j	141a4 <_vfprintf_r+0x1956>
   1416c:	3bc1                	addiw	s7,s7,-16
   1416e:	037cdb63          	bge	s9,s7,141a4 <_vfprintf_r+0x1956>
   14172:	2685                	addiw	a3,a3,1
   14174:	07c1                	addi	a5,a5,16
   14176:	01b33023          	sd	s11,0(t1)
   1417a:	01933423          	sd	s9,8(t1)
   1417e:	f23e                	sd	a5,288(sp)
   14180:	10d12c23          	sw	a3,280(sp)
   14184:	0341                	addi	t1,t1,16
   14186:	fedc53e3          	bge	s8,a3,1416c <_vfprintf_r+0x191e>
   1418a:	0a10                	addi	a2,sp,272
   1418c:	85ce                	mv	a1,s3
   1418e:	8552                	mv	a0,s4
   14190:	350050ef          	jal	ra,194e0 <__sprint_r>
   14194:	c119                	beqz	a0,1419a <_vfprintf_r+0x194c>
   14196:	897fe06f          	j	12a2c <_vfprintf_r+0x1de>
   1419a:	7792                	ld	a5,288(sp)
   1419c:	11812683          	lw	a3,280(sp)
   141a0:	8356                	mv	t1,s5
   141a2:	b7e9                	j	1416c <_vfprintf_r+0x191e>
   141a4:	2685                	addiw	a3,a3,1
   141a6:	97de                	add	a5,a5,s7
   141a8:	01b33023          	sd	s11,0(t1)
   141ac:	01733423          	sd	s7,8(t1)
   141b0:	f23e                	sd	a5,288(sp)
   141b2:	10d12c23          	sw	a3,280(sp)
   141b6:	461d                	li	a2,7
   141b8:	8ad657e3          	bge	a2,a3,13a66 <_vfprintf_r+0x1218>
   141bc:	0a10                	addi	a2,sp,272
   141be:	85ce                	mv	a1,s3
   141c0:	8552                	mv	a0,s4
   141c2:	31e050ef          	jal	ra,194e0 <__sprint_r>
   141c6:	c119                	beqz	a0,141cc <_vfprintf_r+0x197e>
   141c8:	865fe06f          	j	12a2c <_vfprintf_r+0x1de>
   141cc:	7792                	ld	a5,288(sp)
   141ce:	11812683          	lw	a3,280(sp)
   141d2:	8356                	mv	t1,s5
   141d4:	f07fe06f          	j	130da <_vfprintf_r+0x88c>
   141d8:	001c059b          	addiw	a1,s8,1
   141dc:	8552                	mv	a0,s4
   141de:	ec1a                	sd	t1,24(sp)
   141e0:	c6afd0ef          	jal	ra,1164a <_malloc_r>
   141e4:	8d2a                	mv	s10,a0
   141e6:	6362                	ld	t1,24(sp)
   141e8:	20050d63          	beqz	a0,14402 <_vfprintf_r+0x1bb4>
   141ec:	ec2a                	sd	a0,24(sp)
   141ee:	b115                	j	13e12 <_vfprintf_r+0x15c4>
   141f0:	03000793          	li	a5,48
   141f4:	0ef10023          	sb	a5,224(sp)
   141f8:	07800713          	li	a4,120
   141fc:	bef5                	j	13df8 <_vfprintf_r+0x15aa>
   141fe:	7782                	ld	a5,32(sp)
   14200:	86ee                	mv	a3,s11
   14202:	fdbe                	sd	a5,248(sp)
   14204:	67a6                	ld	a5,72(sp)
   14206:	fffdc603          	lbu	a2,-1(s11)
   1420a:	00f7c583          	lbu	a1,15(a5)
   1420e:	00b61e63          	bne	a2,a1,1422a <_vfprintf_r+0x19dc>
   14212:	03000513          	li	a0,48
   14216:	fea68fa3          	sb	a0,-1(a3)
   1421a:	76ee                	ld	a3,248(sp)
   1421c:	fff68613          	addi	a2,a3,-1
   14220:	fdb2                	sd	a2,248(sp)
   14222:	fff6c603          	lbu	a2,-1(a3)
   14226:	feb608e3          	beq	a2,a1,14216 <_vfprintf_r+0x19c8>
   1422a:	0016059b          	addiw	a1,a2,1
   1422e:	03900513          	li	a0,57
   14232:	0ff5f593          	andi	a1,a1,255
   14236:	00a60563          	beq	a2,a0,14240 <_vfprintf_r+0x19f2>
   1423a:	feb68fa3          	sb	a1,-1(a3)
   1423e:	bb29                	j	13f58 <_vfprintf_r+0x170a>
   14240:	67a6                	ld	a5,72(sp)
   14242:	00a7c583          	lbu	a1,10(a5)
   14246:	feb68fa3          	sb	a1,-1(a3)
   1424a:	b339                	j	13f58 <_vfprintf_r+0x170a>
   1424c:	001c091b          	addiw	s2,s8,1
   14250:	874a                	mv	a4,s2
   14252:	0f810893          	addi	a7,sp,248
   14256:	0ec10813          	addi	a6,sp,236
   1425a:	11bc                	addi	a5,sp,232
   1425c:	4689                	li	a3,2
   1425e:	85ee                	mv	a1,s11
   14260:	865e                	mv	a2,s7
   14262:	8552                	mv	a0,s4
   14264:	792010ef          	jal	ra,159f6 <_ldtoa_r>
   14268:	8d2a                	mv	s10,a0
   1426a:	7302                	ld	t1,32(sp)
   1426c:	996a                	add	s2,s2,s10
   1426e:	bb91                	j	13fc2 <_vfprintf_r+0x1774>
   14270:	000c0463          	beqz	s8,14278 <_vfprintf_r+0x1a2a>
   14274:	9a5fe06f          	j	12c18 <_vfprintf_r+0x3ca>
   14278:	4c05                	li	s8,1
   1427a:	99ffe06f          	j	12c18 <_vfprintf_r+0x3ca>
   1427e:	4c19                	li	s8,6
   14280:	999fe06f          	j	12c18 <_vfprintf_r+0x3ca>
   14284:	c31c                	sw	a5,0(a4)
   14286:	8d26                	mv	s10,s1
   14288:	dd9fe06f          	j	13060 <_vfprintf_r+0x812>
   1428c:	77a6                	ld	a5,104(sp)
   1428e:	06600c93          	li	s9,102
   14292:	00e78bbb          	addw	s7,a5,a4
   14296:	018b8bbb          	addw	s7,s7,s8
   1429a:	bd91                	j	140ee <_vfprintf_r+0x18a0>
   1429c:	06700c93          	li	s9,103
   142a0:	7786                	ld	a5,96(sp)
   142a2:	e482                	sd	zero,72(sp)
   142a4:	ec82                	sd	zero,88(sp)
   142a6:	0007c783          	lbu	a5,0(a5)
   142aa:	0ff00593          	li	a1,255
   142ae:	02b78963          	beq	a5,a1,142e0 <_vfprintf_r+0x1a92>
   142b2:	6746                	ld	a4,80(sp)
   142b4:	0007869b          	sext.w	a3,a5
   142b8:	02e6d463          	bge	a3,a4,142e0 <_vfprintf_r+0x1a92>
   142bc:	7506                	ld	a0,96(sp)
   142be:	9f15                	subw	a4,a4,a3
   142c0:	e8ba                	sd	a4,80(sp)
   142c2:	00154603          	lbu	a2,1(a0)
   142c6:	ca09                	beqz	a2,142d8 <_vfprintf_r+0x1a8a>
   142c8:	67e6                	ld	a5,88(sp)
   142ca:	2785                	addiw	a5,a5,1
   142cc:	ecbe                	sd	a5,88(sp)
   142ce:	00150793          	addi	a5,a0,1
   142d2:	f0be                	sd	a5,96(sp)
   142d4:	87b2                	mv	a5,a2
   142d6:	bfe1                	j	142ae <_vfprintf_r+0x1a60>
   142d8:	6726                	ld	a4,72(sp)
   142da:	2705                	addiw	a4,a4,1
   142dc:	e4ba                	sd	a4,72(sp)
   142de:	bfc1                	j	142ae <_vfprintf_r+0x1a60>
   142e0:	6726                	ld	a4,72(sp)
   142e2:	67e6                	ld	a5,88(sp)
   142e4:	9fb9                	addw	a5,a5,a4
   142e6:	7766                	ld	a4,120(sp)
   142e8:	02e787bb          	mulw	a5,a5,a4
   142ec:	017787bb          	addw	a5,a5,s7
   142f0:	00078b9b          	sext.w	s7,a5
   142f4:	fffbc913          	not	s2,s7
   142f8:	43f95913          	srai	s2,s2,0x3f
   142fc:	0127f7b3          	and	a5,a5,s2
   14300:	0007891b          	sext.w	s2,a5
   14304:	a8bfe06f          	j	12d8e <_vfprintf_r+0x540>
   14308:	85de                	mv	a1,s7
   1430a:	856e                	mv	a0,s11
   1430c:	f01a                	sd	t1,32(sp)
   1430e:	2f8080ef          	jal	ra,1c606 <__trunctfdf2>
   14312:	11a8                	addi	a0,sp,232
   14314:	27e030ef          	jal	ra,17592 <frexp>
   14318:	22a080ef          	jal	ra,1c542 <__extenddftf2>
   1431c:	768a                	ld	a3,160(sp)
   1431e:	4601                	li	a2,0
   14320:	318070ef          	jal	ra,1b638 <__multf3>
   14324:	4601                	li	a2,0
   14326:	4681                	li	a3,0
   14328:	8baa                	mv	s7,a0
   1432a:	892e                	mv	s2,a1
   1432c:	114070ef          	jal	ra,1b440 <__eqtf2>
   14330:	7302                	ld	t1,32(sp)
   14332:	e119                	bnez	a0,14338 <_vfprintf_r+0x1aea>
   14334:	4785                	li	a5,1
   14336:	d5be                	sw	a5,232(sp)
   14338:	0001d7b7          	lui	a5,0x1d
   1433c:	a7078793          	addi	a5,a5,-1424 # 1ca70 <zeroes.4550+0x68>
   14340:	e4be                	sd	a5,72(sp)
   14342:	be2d                	j	13e7c <_vfprintf_r+0x162e>
   14344:	0f210693          	addi	a3,sp,242
   14348:	e619                	bnez	a2,14356 <_vfprintf_r+0x1b08>
   1434a:	03000693          	li	a3,48
   1434e:	0ed10923          	sb	a3,242(sp)
   14352:	0f310693          	addi	a3,sp,243
   14356:	0c18                	addi	a4,sp,528
   14358:	0307879b          	addiw	a5,a5,48
   1435c:	40e68633          	sub	a2,a3,a4
   14360:	00f68023          	sb	a5,0(a3)
   14364:	1216079b          	addiw	a5,a2,289
   14368:	e13e                	sd	a5,128(sp)
   1436a:	9ebfe06f          	j	12d54 <_vfprintf_r+0x506>
   1436e:	774a                	ld	a4,176(sp)
   14370:	00177693          	andi	a3,a4,1
   14374:	e299                	bnez	a3,1437a <_vfprintf_r+0x1b2c>
   14376:	9f9fe06f          	j	12d6e <_vfprintf_r+0x520>
   1437a:	9effe06f          	j	12d68 <_vfprintf_r+0x51a>
   1437e:	6746                	ld	a4,80(sp)
   14380:	4785                	li	a5,1
   14382:	02d00693          	li	a3,45
   14386:	9f99                	subw	a5,a5,a4
   14388:	0ed108a3          	sb	a3,241(sp)
   1438c:	955fe06f          	j	12ce0 <_vfprintf_r+0x492>
   14390:	40eb87bb          	subw	a5,s7,a4
   14394:	2785                	addiw	a5,a5,1
   14396:	00078b9b          	sext.w	s7,a5
   1439a:	fffbc913          	not	s2,s7
   1439e:	43f95913          	srai	s2,s2,0x3f
   143a2:	0127f7b3          	and	a5,a5,s2
   143a6:	0007891b          	sext.w	s2,a5
   143aa:	b161                	j	14032 <_vfprintf_r+0x17e4>
   143ac:	e791                	bnez	a5,143b8 <_vfprintf_r+0x1b6a>
   143ae:	4905                	li	s2,1
   143b0:	06600c93          	li	s9,102
   143b4:	4b85                	li	s7,1
   143b6:	b9b5                	j	14032 <_vfprintf_r+0x17e4>
   143b8:	77a6                	ld	a5,104(sp)
   143ba:	06600c93          	li	s9,102
   143be:	2785                	addiw	a5,a5,1
   143c0:	01878e3b          	addw	t3,a5,s8
   143c4:	000e0b9b          	sext.w	s7,t3
   143c8:	fffbc913          	not	s2,s7
   143cc:	43f95913          	srai	s2,s2,0x3f
   143d0:	012e7e33          	and	t3,t3,s2
   143d4:	000e091b          	sext.w	s2,t3
   143d8:	b9a9                	j	14032 <_vfprintf_r+0x17e4>
   143da:	6875                	lui	a6,0x1d
   143dc:	871a                	mv	a4,t1
   143de:	a0880d93          	addi	s11,a6,-1528 # 1ca08 <zeroes.4550>
   143e2:	d14ff06f          	j	138f6 <_vfprintf_r+0x10a8>
   143e6:	6742                	ld	a4,16(sp)
   143e8:	00072e03          	lw	t3,0(a4)
   143ec:	0721                	addi	a4,a4,8
   143ee:	000e5363          	bgez	t3,143f4 <_vfprintf_r+0x1ba6>
   143f2:	5e7d                	li	t3,-1
   143f4:	0014ce83          	lbu	t4,1(s1)
   143f8:	8c72                	mv	s8,t3
   143fa:	e83a                	sd	a4,16(sp)
   143fc:	84be                	mv	s1,a5
   143fe:	daafe06f          	j	129a8 <_vfprintf_r+0x15a>
   14402:	0109d783          	lhu	a5,16(s3)
   14406:	0407e793          	ori	a5,a5,64
   1440a:	00f99823          	sh	a5,16(s3)
   1440e:	e2afe06f          	j	12a38 <_vfprintf_r+0x1ea>
   14412:	4789                	li	a5,2
   14414:	e13e                	sd	a5,128(sp)
   14416:	93ffe06f          	j	12d54 <_vfprintf_r+0x506>
   1441a:	8962                	mv	s2,s8
   1441c:	996a                	add	s2,s2,s10
   1441e:	b655                	j	13fc2 <_vfprintf_r+0x1774>

0000000000014420 <vfprintf>:
   14420:	86b2                	mv	a3,a2
   14422:	862e                	mv	a2,a1
   14424:	85aa                	mv	a1,a0
   14426:	7581b503          	ld	a0,1880(gp) # 1f6e8 <_impure_ptr>
   1442a:	c24fe06f          	j	1284e <_vfprintf_r>

000000000001442e <__sbprintf>:
   1442e:	0105d783          	lhu	a5,16(a1)
   14432:	0ac5ae03          	lw	t3,172(a1)
   14436:	0125d303          	lhu	t1,18(a1)
   1443a:	0305b883          	ld	a7,48(a1)
   1443e:	0405b803          	ld	a6,64(a1)
   14442:	b3010113          	addi	sp,sp,-1232
   14446:	9bf5                	andi	a5,a5,-3
   14448:	40000713          	li	a4,1024
   1444c:	4c813023          	sd	s0,1216(sp)
   14450:	00f11823          	sh	a5,16(sp)
   14454:	842e                	mv	s0,a1
   14456:	191c                	addi	a5,sp,176
   14458:	858a                	mv	a1,sp
   1445a:	4a913c23          	sd	s1,1208(sp)
   1445e:	4b213823          	sd	s2,1200(sp)
   14462:	4c113423          	sd	ra,1224(sp)
   14466:	892a                	mv	s2,a0
   14468:	d772                	sw	t3,172(sp)
   1446a:	00611923          	sh	t1,18(sp)
   1446e:	f846                	sd	a7,48(sp)
   14470:	e0c2                	sd	a6,64(sp)
   14472:	e03e                	sd	a5,0(sp)
   14474:	ec3e                	sd	a5,24(sp)
   14476:	c63a                	sw	a4,12(sp)
   14478:	d03a                	sw	a4,32(sp)
   1447a:	d402                	sw	zero,40(sp)
   1447c:	bd2fe0ef          	jal	ra,1284e <_vfprintf_r>
   14480:	84aa                	mv	s1,a0
   14482:	02055963          	bgez	a0,144b4 <__sbprintf+0x86>
   14486:	01015783          	lhu	a5,16(sp)
   1448a:	0407f793          	andi	a5,a5,64
   1448e:	c799                	beqz	a5,1449c <__sbprintf+0x6e>
   14490:	01045783          	lhu	a5,16(s0)
   14494:	0407e793          	ori	a5,a5,64
   14498:	00f41823          	sh	a5,16(s0)
   1449c:	4c813083          	ld	ra,1224(sp)
   144a0:	4c013403          	ld	s0,1216(sp)
   144a4:	8526                	mv	a0,s1
   144a6:	4b013903          	ld	s2,1200(sp)
   144aa:	4b813483          	ld	s1,1208(sp)
   144ae:	4d010113          	addi	sp,sp,1232
   144b2:	8082                	ret
   144b4:	858a                	mv	a1,sp
   144b6:	854a                	mv	a0,s2
   144b8:	ff1fb0ef          	jal	ra,104a8 <_fflush_r>
   144bc:	d569                	beqz	a0,14486 <__sbprintf+0x58>
   144be:	54fd                	li	s1,-1
   144c0:	b7d9                	j	14486 <__sbprintf+0x58>

00000000000144c2 <_write_r>:
   144c2:	1101                	addi	sp,sp,-32
   144c4:	87ae                	mv	a5,a1
   144c6:	e822                	sd	s0,16(sp)
   144c8:	e426                	sd	s1,8(sp)
   144ca:	85b2                	mv	a1,a2
   144cc:	84aa                	mv	s1,a0
   144ce:	0001f437          	lui	s0,0x1f
   144d2:	853e                	mv	a0,a5
   144d4:	8636                	mv	a2,a3
   144d6:	ec06                	sd	ra,24(sp)
   144d8:	78042423          	sw	zero,1928(s0) # 1f788 <errno>
   144dc:	6d3060ef          	jal	ra,1b3ae <_write>
   144e0:	57fd                	li	a5,-1
   144e2:	00f50763          	beq	a0,a5,144f0 <_write_r+0x2e>
   144e6:	60e2                	ld	ra,24(sp)
   144e8:	6442                	ld	s0,16(sp)
   144ea:	64a2                	ld	s1,8(sp)
   144ec:	6105                	addi	sp,sp,32
   144ee:	8082                	ret
   144f0:	78842783          	lw	a5,1928(s0)
   144f4:	dbed                	beqz	a5,144e6 <_write_r+0x24>
   144f6:	60e2                	ld	ra,24(sp)
   144f8:	6442                	ld	s0,16(sp)
   144fa:	c09c                	sw	a5,0(s1)
   144fc:	64a2                	ld	s1,8(sp)
   144fe:	6105                	addi	sp,sp,32
   14500:	8082                	ret

0000000000014502 <__swsetup_r>:
   14502:	7581b783          	ld	a5,1880(gp) # 1f6e8 <_impure_ptr>
   14506:	1101                	addi	sp,sp,-32
   14508:	e822                	sd	s0,16(sp)
   1450a:	e426                	sd	s1,8(sp)
   1450c:	ec06                	sd	ra,24(sp)
   1450e:	84aa                	mv	s1,a0
   14510:	842e                	mv	s0,a1
   14512:	c399                	beqz	a5,14518 <__swsetup_r+0x16>
   14514:	4bb8                	lw	a4,80(a5)
   14516:	cf29                	beqz	a4,14570 <__swsetup_r+0x6e>
   14518:	01041703          	lh	a4,16(s0)
   1451c:	03071793          	slli	a5,a4,0x30
   14520:	93c1                	srli	a5,a5,0x30
   14522:	0087f693          	andi	a3,a5,8
   14526:	c2a5                	beqz	a3,14586 <__swsetup_r+0x84>
   14528:	6c14                	ld	a3,24(s0)
   1452a:	cabd                	beqz	a3,145a0 <__swsetup_r+0x9e>
   1452c:	0017f713          	andi	a4,a5,1
   14530:	cf11                	beqz	a4,1454c <__swsetup_r+0x4a>
   14532:	501c                	lw	a5,32(s0)
   14534:	00042623          	sw	zero,12(s0)
   14538:	4501                	li	a0,0
   1453a:	40f007bb          	negw	a5,a5
   1453e:	d41c                	sw	a5,40(s0)
   14540:	ce89                	beqz	a3,1455a <__swsetup_r+0x58>
   14542:	60e2                	ld	ra,24(sp)
   14544:	6442                	ld	s0,16(sp)
   14546:	64a2                	ld	s1,8(sp)
   14548:	6105                	addi	sp,sp,32
   1454a:	8082                	ret
   1454c:	8b89                	andi	a5,a5,2
   1454e:	4701                	li	a4,0
   14550:	e391                	bnez	a5,14554 <__swsetup_r+0x52>
   14552:	5018                	lw	a4,32(s0)
   14554:	c458                	sw	a4,12(s0)
   14556:	4501                	li	a0,0
   14558:	f6ed                	bnez	a3,14542 <__swsetup_r+0x40>
   1455a:	01041783          	lh	a5,16(s0)
   1455e:	0807f713          	andi	a4,a5,128
   14562:	d365                	beqz	a4,14542 <__swsetup_r+0x40>
   14564:	0407e793          	ori	a5,a5,64
   14568:	00f41823          	sh	a5,16(s0)
   1456c:	557d                	li	a0,-1
   1456e:	bfd1                	j	14542 <__swsetup_r+0x40>
   14570:	853e                	mv	a0,a5
   14572:	ab0fc0ef          	jal	ra,10822 <__sinit>
   14576:	01041703          	lh	a4,16(s0)
   1457a:	03071793          	slli	a5,a4,0x30
   1457e:	93c1                	srli	a5,a5,0x30
   14580:	0087f693          	andi	a3,a5,8
   14584:	f2d5                	bnez	a3,14528 <__swsetup_r+0x26>
   14586:	0107f693          	andi	a3,a5,16
   1458a:	cea9                	beqz	a3,145e4 <__swsetup_r+0xe2>
   1458c:	8b91                	andi	a5,a5,4
   1458e:	e79d                	bnez	a5,145bc <__swsetup_r+0xba>
   14590:	6c14                	ld	a3,24(s0)
   14592:	00876793          	ori	a5,a4,8
   14596:	00f41823          	sh	a5,16(s0)
   1459a:	17c2                	slli	a5,a5,0x30
   1459c:	93c1                	srli	a5,a5,0x30
   1459e:	f6d9                	bnez	a3,1452c <__swsetup_r+0x2a>
   145a0:	2807f713          	andi	a4,a5,640
   145a4:	20000613          	li	a2,512
   145a8:	f8c702e3          	beq	a4,a2,1452c <__swsetup_r+0x2a>
   145ac:	85a2                	mv	a1,s0
   145ae:	8526                	mv	a0,s1
   145b0:	fdffc0ef          	jal	ra,1158e <__smakebuf_r>
   145b4:	01045783          	lhu	a5,16(s0)
   145b8:	6c14                	ld	a3,24(s0)
   145ba:	bf8d                	j	1452c <__swsetup_r+0x2a>
   145bc:	6c2c                	ld	a1,88(s0)
   145be:	cd81                	beqz	a1,145d6 <__swsetup_r+0xd4>
   145c0:	07440793          	addi	a5,s0,116
   145c4:	00f58763          	beq	a1,a5,145d2 <__swsetup_r+0xd0>
   145c8:	8526                	mv	a0,s1
   145ca:	cc6fc0ef          	jal	ra,10a90 <_free_r>
   145ce:	01041703          	lh	a4,16(s0)
   145d2:	04043c23          	sd	zero,88(s0)
   145d6:	6c14                	ld	a3,24(s0)
   145d8:	fdb77713          	andi	a4,a4,-37
   145dc:	00042423          	sw	zero,8(s0)
   145e0:	e014                	sd	a3,0(s0)
   145e2:	bf45                	j	14592 <__swsetup_r+0x90>
   145e4:	47a5                	li	a5,9
   145e6:	c09c                	sw	a5,0(s1)
   145e8:	04076713          	ori	a4,a4,64
   145ec:	00e41823          	sh	a4,16(s0)
   145f0:	557d                	li	a0,-1
   145f2:	bf81                	j	14542 <__swsetup_r+0x40>

00000000000145f4 <__register_exitproc>:
   145f4:	7481b703          	ld	a4,1864(gp) # 1f6d8 <_global_impure_ptr>
   145f8:	1f873783          	ld	a5,504(a4)
   145fc:	c3b1                	beqz	a5,14640 <__register_exitproc+0x4c>
   145fe:	4798                	lw	a4,8(a5)
   14600:	487d                	li	a6,31
   14602:	06e84263          	blt	a6,a4,14666 <__register_exitproc+0x72>
   14606:	c505                	beqz	a0,1462e <__register_exitproc+0x3a>
   14608:	00371813          	slli	a6,a4,0x3
   1460c:	983e                	add	a6,a6,a5
   1460e:	10c83823          	sd	a2,272(a6)
   14612:	3107a883          	lw	a7,784(a5)
   14616:	4605                	li	a2,1
   14618:	00e6163b          	sllw	a2,a2,a4
   1461c:	00c8e8b3          	or	a7,a7,a2
   14620:	3117a823          	sw	a7,784(a5)
   14624:	20d83823          	sd	a3,528(a6)
   14628:	4689                	li	a3,2
   1462a:	02d50063          	beq	a0,a3,1464a <__register_exitproc+0x56>
   1462e:	00270693          	addi	a3,a4,2
   14632:	068e                	slli	a3,a3,0x3
   14634:	2705                	addiw	a4,a4,1
   14636:	c798                	sw	a4,8(a5)
   14638:	97b6                	add	a5,a5,a3
   1463a:	e38c                	sd	a1,0(a5)
   1463c:	4501                	li	a0,0
   1463e:	8082                	ret
   14640:	20070793          	addi	a5,a4,512
   14644:	1ef73c23          	sd	a5,504(a4)
   14648:	bf5d                	j	145fe <__register_exitproc+0xa>
   1464a:	3147a683          	lw	a3,788(a5)
   1464e:	4501                	li	a0,0
   14650:	8e55                	or	a2,a2,a3
   14652:	00270693          	addi	a3,a4,2
   14656:	068e                	slli	a3,a3,0x3
   14658:	2705                	addiw	a4,a4,1
   1465a:	30c7aa23          	sw	a2,788(a5)
   1465e:	c798                	sw	a4,8(a5)
   14660:	97b6                	add	a5,a5,a3
   14662:	e38c                	sd	a1,0(a5)
   14664:	8082                	ret
   14666:	557d                	li	a0,-1
   14668:	8082                	ret

000000000001466a <__call_exitprocs>:
   1466a:	715d                	addi	sp,sp,-80
   1466c:	e062                	sd	s8,0(sp)
   1466e:	7481bc03          	ld	s8,1864(gp) # 1f6d8 <_global_impure_ptr>
   14672:	f44e                	sd	s3,40(sp)
   14674:	f052                	sd	s4,32(sp)
   14676:	ec56                	sd	s5,24(sp)
   14678:	e85a                	sd	s6,16(sp)
   1467a:	e486                	sd	ra,72(sp)
   1467c:	e0a2                	sd	s0,64(sp)
   1467e:	fc26                	sd	s1,56(sp)
   14680:	f84a                	sd	s2,48(sp)
   14682:	e45e                	sd	s7,8(sp)
   14684:	8aaa                	mv	s5,a0
   14686:	8b2e                	mv	s6,a1
   14688:	4a05                	li	s4,1
   1468a:	59fd                	li	s3,-1
   1468c:	1f8c3903          	ld	s2,504(s8)
   14690:	02090463          	beqz	s2,146b8 <__call_exitprocs+0x4e>
   14694:	00892483          	lw	s1,8(s2)
   14698:	fff4841b          	addiw	s0,s1,-1
   1469c:	00044e63          	bltz	s0,146b8 <__call_exitprocs+0x4e>
   146a0:	048e                	slli	s1,s1,0x3
   146a2:	94ca                	add	s1,s1,s2
   146a4:	020b0663          	beqz	s6,146d0 <__call_exitprocs+0x66>
   146a8:	2084b783          	ld	a5,520(s1)
   146ac:	03678263          	beq	a5,s6,146d0 <__call_exitprocs+0x66>
   146b0:	347d                	addiw	s0,s0,-1
   146b2:	14e1                	addi	s1,s1,-8
   146b4:	ff3418e3          	bne	s0,s3,146a4 <__call_exitprocs+0x3a>
   146b8:	60a6                	ld	ra,72(sp)
   146ba:	6406                	ld	s0,64(sp)
   146bc:	74e2                	ld	s1,56(sp)
   146be:	7942                	ld	s2,48(sp)
   146c0:	79a2                	ld	s3,40(sp)
   146c2:	7a02                	ld	s4,32(sp)
   146c4:	6ae2                	ld	s5,24(sp)
   146c6:	6b42                	ld	s6,16(sp)
   146c8:	6ba2                	ld	s7,8(sp)
   146ca:	6c02                	ld	s8,0(sp)
   146cc:	6161                	addi	sp,sp,80
   146ce:	8082                	ret
   146d0:	00892783          	lw	a5,8(s2)
   146d4:	6498                	ld	a4,8(s1)
   146d6:	37fd                	addiw	a5,a5,-1
   146d8:	04878263          	beq	a5,s0,1471c <__call_exitprocs+0xb2>
   146dc:	0004b423          	sd	zero,8(s1)
   146e0:	db61                	beqz	a4,146b0 <__call_exitprocs+0x46>
   146e2:	31092783          	lw	a5,784(s2)
   146e6:	008a16bb          	sllw	a3,s4,s0
   146ea:	00892b83          	lw	s7,8(s2)
   146ee:	8ff5                	and	a5,a5,a3
   146f0:	2781                	sext.w	a5,a5
   146f2:	eb99                	bnez	a5,14708 <__call_exitprocs+0x9e>
   146f4:	9702                	jalr	a4
   146f6:	00892783          	lw	a5,8(s2)
   146fa:	f97799e3          	bne	a5,s7,1468c <__call_exitprocs+0x22>
   146fe:	1f8c3783          	ld	a5,504(s8)
   14702:	fb2787e3          	beq	a5,s2,146b0 <__call_exitprocs+0x46>
   14706:	b759                	j	1468c <__call_exitprocs+0x22>
   14708:	31492783          	lw	a5,788(s2)
   1470c:	1084b583          	ld	a1,264(s1)
   14710:	8ff5                	and	a5,a5,a3
   14712:	2781                	sext.w	a5,a5
   14714:	e799                	bnez	a5,14722 <__call_exitprocs+0xb8>
   14716:	8556                	mv	a0,s5
   14718:	9702                	jalr	a4
   1471a:	bff1                	j	146f6 <__call_exitprocs+0x8c>
   1471c:	00892423          	sw	s0,8(s2)
   14720:	b7c1                	j	146e0 <__call_exitprocs+0x76>
   14722:	852e                	mv	a0,a1
   14724:	9702                	jalr	a4
   14726:	bfc1                	j	146f6 <__call_exitprocs+0x8c>

0000000000014728 <_close_r>:
   14728:	1101                	addi	sp,sp,-32
   1472a:	e822                	sd	s0,16(sp)
   1472c:	e426                	sd	s1,8(sp)
   1472e:	0001f437          	lui	s0,0x1f
   14732:	84aa                	mv	s1,a0
   14734:	852e                	mv	a0,a1
   14736:	ec06                	sd	ra,24(sp)
   14738:	78042423          	sw	zero,1928(s0) # 1f788 <errno>
   1473c:	279060ef          	jal	ra,1b1b4 <_close>
   14740:	57fd                	li	a5,-1
   14742:	00f50763          	beq	a0,a5,14750 <_close_r+0x28>
   14746:	60e2                	ld	ra,24(sp)
   14748:	6442                	ld	s0,16(sp)
   1474a:	64a2                	ld	s1,8(sp)
   1474c:	6105                	addi	sp,sp,32
   1474e:	8082                	ret
   14750:	78842783          	lw	a5,1928(s0)
   14754:	dbed                	beqz	a5,14746 <_close_r+0x1e>
   14756:	60e2                	ld	ra,24(sp)
   14758:	6442                	ld	s0,16(sp)
   1475a:	c09c                	sw	a5,0(s1)
   1475c:	64a2                	ld	s1,8(sp)
   1475e:	6105                	addi	sp,sp,32
   14760:	8082                	ret

0000000000014762 <__sflags>:
   14762:	0005c783          	lbu	a5,0(a1)
   14766:	07200713          	li	a4,114
   1476a:	06e78863          	beq	a5,a4,147da <__sflags+0x78>
   1476e:	07700713          	li	a4,119
   14772:	00e78a63          	beq	a5,a4,14786 <__sflags+0x24>
   14776:	06100713          	li	a4,97
   1477a:	04e78a63          	beq	a5,a4,147ce <__sflags+0x6c>
   1477e:	47d9                	li	a5,22
   14780:	c11c                	sw	a5,0(a0)
   14782:	4501                	li	a0,0
   14784:	8082                	ret
   14786:	60000313          	li	t1,1536
   1478a:	4705                	li	a4,1
   1478c:	4521                	li	a0,8
   1478e:	6885                	lui	a7,0x1
   14790:	02b00813          	li	a6,43
   14794:	07800693          	li	a3,120
   14798:	80088893          	addi	a7,a7,-2048 # 800 <register_fini-0xf8b0>
   1479c:	0585                	addi	a1,a1,1
   1479e:	0005c783          	lbu	a5,0(a1)
   147a2:	cb99                	beqz	a5,147b8 <__sflags+0x56>
   147a4:	01078e63          	beq	a5,a6,147c0 <__sflags+0x5e>
   147a8:	fed79ae3          	bne	a5,a3,1479c <__sflags+0x3a>
   147ac:	0585                	addi	a1,a1,1
   147ae:	0005c783          	lbu	a5,0(a1)
   147b2:	01176733          	or	a4,a4,a7
   147b6:	f7fd                	bnez	a5,147a4 <__sflags+0x42>
   147b8:	00676733          	or	a4,a4,t1
   147bc:	c218                	sw	a4,0(a2)
   147be:	8082                	ret
   147c0:	990d                	andi	a0,a0,-29
   147c2:	9b71                	andi	a4,a4,-4
   147c4:	01056513          	ori	a0,a0,16
   147c8:	00276713          	ori	a4,a4,2
   147cc:	bfc1                	j	1479c <__sflags+0x3a>
   147ce:	20800313          	li	t1,520
   147d2:	4705                	li	a4,1
   147d4:	10800513          	li	a0,264
   147d8:	bf5d                	j	1478e <__sflags+0x2c>
   147da:	4301                	li	t1,0
   147dc:	4701                	li	a4,0
   147de:	4511                	li	a0,4
   147e0:	b77d                	j	1478e <__sflags+0x2c>

00000000000147e2 <_isatty_r>:
   147e2:	1101                	addi	sp,sp,-32
   147e4:	e822                	sd	s0,16(sp)
   147e6:	e426                	sd	s1,8(sp)
   147e8:	0001f437          	lui	s0,0x1f
   147ec:	84aa                	mv	s1,a0
   147ee:	852e                	mv	a0,a1
   147f0:	ec06                	sd	ra,24(sp)
   147f2:	78042423          	sw	zero,1928(s0) # 1f788 <errno>
   147f6:	269060ef          	jal	ra,1b25e <_isatty>
   147fa:	57fd                	li	a5,-1
   147fc:	00f50763          	beq	a0,a5,1480a <_isatty_r+0x28>
   14800:	60e2                	ld	ra,24(sp)
   14802:	6442                	ld	s0,16(sp)
   14804:	64a2                	ld	s1,8(sp)
   14806:	6105                	addi	sp,sp,32
   14808:	8082                	ret
   1480a:	78842783          	lw	a5,1928(s0)
   1480e:	dbed                	beqz	a5,14800 <_isatty_r+0x1e>
   14810:	60e2                	ld	ra,24(sp)
   14812:	6442                	ld	s0,16(sp)
   14814:	c09c                	sw	a5,0(s1)
   14816:	64a2                	ld	s1,8(sp)
   14818:	6105                	addi	sp,sp,32
   1481a:	8082                	ret

000000000001481c <eshdn1>:
   1481c:	00450693          	addi	a3,a0,4
   14820:	4781                	li	a5,0
   14822:	0569                	addi	a0,a0,26
   14824:	7861                	lui	a6,0xffff8
   14826:	a811                	j	1483a <eshdn1+0x1e>
   14828:	0017979b          	slliw	a5,a5,0x1
   1482c:	00e69023          	sh	a4,0(a3)
   14830:	17c2                	slli	a5,a5,0x30
   14832:	0689                	addi	a3,a3,2
   14834:	93c1                	srli	a5,a5,0x30
   14836:	02d50863          	beq	a0,a3,14866 <eshdn1+0x4a>
   1483a:	0006d703          	lhu	a4,0(a3)
   1483e:	00177613          	andi	a2,a4,1
   14842:	c219                	beqz	a2,14848 <eshdn1+0x2c>
   14844:	0017e793          	ori	a5,a5,1
   14848:	8305                	srli	a4,a4,0x1
   1484a:	0027f613          	andi	a2,a5,2
   1484e:	010765b3          	or	a1,a4,a6
   14852:	da79                	beqz	a2,14828 <eshdn1+0xc>
   14854:	0017979b          	slliw	a5,a5,0x1
   14858:	00b69023          	sh	a1,0(a3)
   1485c:	17c2                	slli	a5,a5,0x30
   1485e:	0689                	addi	a3,a3,2
   14860:	93c1                	srli	a5,a5,0x30
   14862:	fcd51ce3          	bne	a0,a3,1483a <eshdn1+0x1e>
   14866:	8082                	ret

0000000000014868 <eshup1>:
   14868:	01850693          	addi	a3,a0,24
   1486c:	4701                	li	a4,0
   1486e:	0509                	addi	a0,a0,2
   14870:	a811                	j	14884 <eshup1+0x1c>
   14872:	0017171b          	slliw	a4,a4,0x1
   14876:	00f69023          	sh	a5,0(a3)
   1487a:	1742                	slli	a4,a4,0x30
   1487c:	16f9                	addi	a3,a3,-2
   1487e:	9341                	srli	a4,a4,0x30
   14880:	04d50063          	beq	a0,a3,148c0 <eshup1+0x58>
   14884:	0006d783          	lhu	a5,0(a3)
   14888:	0107961b          	slliw	a2,a5,0x10
   1488c:	4106561b          	sraiw	a2,a2,0x10
   14890:	02061593          	slli	a1,a2,0x20
   14894:	0017979b          	slliw	a5,a5,0x1
   14898:	0005d463          	bgez	a1,148a0 <eshup1+0x38>
   1489c:	00176713          	ori	a4,a4,1
   148a0:	17c2                	slli	a5,a5,0x30
   148a2:	93c1                	srli	a5,a5,0x30
   148a4:	00277613          	andi	a2,a4,2
   148a8:	0017e593          	ori	a1,a5,1
   148ac:	d279                	beqz	a2,14872 <eshup1+0xa>
   148ae:	0017171b          	slliw	a4,a4,0x1
   148b2:	00b69023          	sh	a1,0(a3)
   148b6:	1742                	slli	a4,a4,0x30
   148b8:	16f9                	addi	a3,a3,-2
   148ba:	9341                	srli	a4,a4,0x30
   148bc:	fcd514e3          	bne	a0,a3,14884 <eshup1+0x1c>
   148c0:	8082                	ret

00000000000148c2 <m16m>:
   148c2:	1101                	addi	sp,sp,-32
   148c4:	6e41                	lui	t3,0x10
   148c6:	00011b23          	sh	zero,22(sp)
   148ca:	00011c23          	sh	zero,24(sp)
   148ce:	05e1                	addi	a1,a1,24
   148d0:	083c                	addi	a5,sp,24
   148d2:	00410813          	addi	a6,sp,4
   148d6:	1e7d                	addi	t3,t3,-1
   148d8:	0005d703          	lhu	a4,0(a1)
   148dc:	17f9                	addi	a5,a5,-2
   148de:	15f9                	addi	a1,a1,-2
   148e0:	e315                	bnez	a4,14904 <m16m+0x42>
   148e2:	fe079f23          	sh	zero,-2(a5)
   148e6:	ff0799e3          	bne	a5,a6,148d8 <m16m+0x16>
   148ea:	0611                	addi	a2,a2,4
   148ec:	01a10693          	addi	a3,sp,26
   148f0:	0007d703          	lhu	a4,0(a5)
   148f4:	0609                	addi	a2,a2,2
   148f6:	0789                	addi	a5,a5,2
   148f8:	fee61f23          	sh	a4,-2(a2)
   148fc:	fed79ae3          	bne	a5,a3,148f0 <m16m+0x2e>
   14900:	6105                	addi	sp,sp,32
   14902:	8082                	ret
   14904:	02a70733          	mul	a4,a4,a0
   14908:	0027d883          	lhu	a7,2(a5)
   1490c:	0007d303          	lhu	t1,0(a5)
   14910:	01c776b3          	and	a3,a4,t3
   14914:	96c6                	add	a3,a3,a7
   14916:	8341                	srli	a4,a4,0x10
   14918:	0106d893          	srli	a7,a3,0x10
   1491c:	971a                	add	a4,a4,t1
   1491e:	9746                	add	a4,a4,a7
   14920:	01075893          	srli	a7,a4,0x10
   14924:	00d79123          	sh	a3,2(a5)
   14928:	00e79023          	sh	a4,0(a5)
   1492c:	ff179f23          	sh	a7,-2(a5)
   14930:	fb0794e3          	bne	a5,a6,148d8 <m16m+0x16>
   14934:	bf5d                	j	148ea <m16m+0x28>

0000000000014936 <eisnan.part.0>:
   14936:	01250713          	addi	a4,a0,18
   1493a:	0509                	addi	a0,a0,2
   1493c:	ffe55783          	lhu	a5,-2(a0)
   14940:	e789                	bnez	a5,1494a <eisnan.part.0+0x14>
   14942:	fea71ce3          	bne	a4,a0,1493a <eisnan.part.0+0x4>
   14946:	4501                	li	a0,0
   14948:	8082                	ret
   1494a:	4505                	li	a0,1
   1494c:	8082                	ret

000000000001494e <eneg>:
   1494e:	1101                	addi	sp,sp,-32
   14950:	e822                	sd	s0,16(sp)
   14952:	01255403          	lhu	s0,18(a0)
   14956:	e426                	sd	s1,8(sp)
   14958:	ec06                	sd	ra,24(sp)
   1495a:	fff44793          	not	a5,s0
   1495e:	03179713          	slli	a4,a5,0x31
   14962:	84aa                	mv	s1,a0
   14964:	e701                	bnez	a4,1496c <eneg+0x1e>
   14966:	fd1ff0ef          	jal	ra,14936 <eisnan.part.0>
   1496a:	e509                	bnez	a0,14974 <eneg+0x26>
   1496c:	77e1                	lui	a5,0xffff8
   1496e:	8c3d                	xor	s0,s0,a5
   14970:	00849923          	sh	s0,18(s1)
   14974:	60e2                	ld	ra,24(sp)
   14976:	6442                	ld	s0,16(sp)
   14978:	64a2                	ld	s1,8(sp)
   1497a:	6105                	addi	sp,sp,32
   1497c:	8082                	ret

000000000001497e <eisneg>:
   1497e:	1141                	addi	sp,sp,-16
   14980:	e022                	sd	s0,0(sp)
   14982:	01255403          	lhu	s0,18(a0)
   14986:	e406                	sd	ra,8(sp)
   14988:	fff44793          	not	a5,s0
   1498c:	03179713          	slli	a4,a5,0x31
   14990:	e709                	bnez	a4,1499a <eisneg+0x1c>
   14992:	fa5ff0ef          	jal	ra,14936 <eisnan.part.0>
   14996:	4781                	li	a5,0
   14998:	e119                	bnez	a0,1499e <eisneg+0x20>
   1499a:	00f45793          	srli	a5,s0,0xf
   1499e:	60a2                	ld	ra,8(sp)
   149a0:	6402                	ld	s0,0(sp)
   149a2:	853e                	mv	a0,a5
   149a4:	0141                	addi	sp,sp,16
   149a6:	8082                	ret

00000000000149a8 <emovi>:
   149a8:	01251783          	lh	a5,18(a0)
   149ac:	1101                	addi	sp,sp,-32
   149ae:	ec06                	sd	ra,24(sp)
   149b0:	e822                	sd	s0,16(sp)
   149b2:	e426                	sd	s1,8(sp)
   149b4:	e04a                	sd	s2,0(sp)
   149b6:	0407c563          	bltz	a5,14a00 <emovi+0x58>
   149ba:	00059023          	sh	zero,0(a1)
   149be:	01255783          	lhu	a5,18(a0)
   149c2:	6721                	lui	a4,0x8
   149c4:	177d                	addi	a4,a4,-1
   149c6:	8ff9                	and	a5,a5,a4
   149c8:	00f59123          	sh	a5,2(a1)
   149cc:	2781                	sext.w	a5,a5
   149ce:	01050413          	addi	s0,a0,16
   149d2:	04e78663          	beq	a5,a4,14a1e <emovi+0x76>
   149d6:	00658793          	addi	a5,a1,6
   149da:	00059223          	sh	zero,4(a1)
   149de:	1579                	addi	a0,a0,-2
   149e0:	1479                	addi	s0,s0,-2
   149e2:	00245703          	lhu	a4,2(s0)
   149e6:	0789                	addi	a5,a5,2
   149e8:	fee79f23          	sh	a4,-2(a5) # ffffffffffff7ffe <__BSS_END__+0xfffffffffffd886e>
   149ec:	fe851ae3          	bne	a0,s0,149e0 <emovi+0x38>
   149f0:	00059c23          	sh	zero,24(a1)
   149f4:	60e2                	ld	ra,24(sp)
   149f6:	6442                	ld	s0,16(sp)
   149f8:	64a2                	ld	s1,8(sp)
   149fa:	6902                	ld	s2,0(sp)
   149fc:	6105                	addi	sp,sp,32
   149fe:	8082                	ret
   14a00:	57fd                	li	a5,-1
   14a02:	00f59023          	sh	a5,0(a1)
   14a06:	01255783          	lhu	a5,18(a0)
   14a0a:	6721                	lui	a4,0x8
   14a0c:	177d                	addi	a4,a4,-1
   14a0e:	8ff9                	and	a5,a5,a4
   14a10:	00f59123          	sh	a5,2(a1)
   14a14:	2781                	sext.w	a5,a5
   14a16:	01050413          	addi	s0,a0,16
   14a1a:	fae79ee3          	bne	a5,a4,149d6 <emovi+0x2e>
   14a1e:	01255703          	lhu	a4,18(a0)
   14a22:	892e                	mv	s2,a1
   14a24:	84aa                	mv	s1,a0
   14a26:	8f7d                	and	a4,a4,a5
   14a28:	02f71463          	bne	a4,a5,14a50 <emovi+0xa8>
   14a2c:	f0bff0ef          	jal	ra,14936 <eisnan.part.0>
   14a30:	c105                	beqz	a0,14a50 <emovi+0xa8>
   14a32:	00690713          	addi	a4,s2,6
   14a36:	00091223          	sh	zero,4(s2)
   14a3a:	ffc48793          	addi	a5,s1,-4
   14a3e:	1479                	addi	s0,s0,-2
   14a40:	00245683          	lhu	a3,2(s0)
   14a44:	0709                	addi	a4,a4,2
   14a46:	fed71f23          	sh	a3,-2(a4) # 7ffe <register_fini-0x80b2>
   14a4a:	fe879ae3          	bne	a5,s0,14a3e <emovi+0x96>
   14a4e:	b75d                	j	149f4 <emovi+0x4c>
   14a50:	00490793          	addi	a5,s2,4
   14a54:	01a90593          	addi	a1,s2,26
   14a58:	0789                	addi	a5,a5,2
   14a5a:	fe079f23          	sh	zero,-2(a5)
   14a5e:	fef59de3          	bne	a1,a5,14a58 <emovi+0xb0>
   14a62:	60e2                	ld	ra,24(sp)
   14a64:	6442                	ld	s0,16(sp)
   14a66:	64a2                	ld	s1,8(sp)
   14a68:	6902                	ld	s2,0(sp)
   14a6a:	6105                	addi	sp,sp,32
   14a6c:	8082                	ret

0000000000014a6e <ecmp>:
   14a6e:	01255783          	lhu	a5,18(a0)
   14a72:	711d                	addi	sp,sp,-96
   14a74:	e8a2                	sd	s0,80(sp)
   14a76:	fff7c793          	not	a5,a5
   14a7a:	e4a6                	sd	s1,72(sp)
   14a7c:	ec86                	sd	ra,88(sp)
   14a7e:	03179713          	slli	a4,a5,0x31
   14a82:	84aa                	mv	s1,a0
   14a84:	842e                	mv	s0,a1
   14a86:	e701                	bnez	a4,14a8e <ecmp+0x20>
   14a88:	eafff0ef          	jal	ra,14936 <eisnan.part.0>
   14a8c:	ed39                	bnez	a0,14aea <ecmp+0x7c>
   14a8e:	01245783          	lhu	a5,18(s0)
   14a92:	fff7c793          	not	a5,a5
   14a96:	03179713          	slli	a4,a5,0x31
   14a9a:	c721                	beqz	a4,14ae2 <ecmp+0x74>
   14a9c:	858a                	mv	a1,sp
   14a9e:	8526                	mv	a0,s1
   14aa0:	f09ff0ef          	jal	ra,149a8 <emovi>
   14aa4:	100c                	addi	a1,sp,32
   14aa6:	8522                	mv	a0,s0
   14aa8:	f01ff0ef          	jal	ra,149a8 <emovi>
   14aac:	00015583          	lhu	a1,0(sp)
   14ab0:	02015783          	lhu	a5,32(sp)
   14ab4:	02b78d63          	beq	a5,a1,14aee <ecmp+0x80>
   14ab8:	00210793          	addi	a5,sp,2
   14abc:	02210713          	addi	a4,sp,34
   14ac0:	0830                	addi	a2,sp,24
   14ac2:	0007d683          	lhu	a3,0(a5)
   14ac6:	0789                	addi	a5,a5,2
   14ac8:	e2ad                	bnez	a3,14b2a <ecmp+0xbc>
   14aca:	00075683          	lhu	a3,0(a4)
   14ace:	0709                	addi	a4,a4,2
   14ad0:	eea9                	bnez	a3,14b2a <ecmp+0xbc>
   14ad2:	fec798e3          	bne	a5,a2,14ac2 <ecmp+0x54>
   14ad6:	4501                	li	a0,0
   14ad8:	60e6                	ld	ra,88(sp)
   14ada:	6446                	ld	s0,80(sp)
   14adc:	64a6                	ld	s1,72(sp)
   14ade:	6125                	addi	sp,sp,96
   14ae0:	8082                	ret
   14ae2:	8522                	mv	a0,s0
   14ae4:	e53ff0ef          	jal	ra,14936 <eisnan.part.0>
   14ae8:	d955                	beqz	a0,14a9c <ecmp+0x2e>
   14aea:	5579                	li	a0,-2
   14aec:	b7f5                	j	14ad8 <ecmp+0x6a>
   14aee:	4505                	li	a0,1
   14af0:	e1a9                	bnez	a1,14b32 <ecmp+0xc4>
   14af2:	00210713          	addi	a4,sp,2
   14af6:	02210793          	addi	a5,sp,34
   14afa:	0789                	addi	a5,a5,2
   14afc:	0709                	addi	a4,a4,2
   14afe:	ffe75603          	lhu	a2,-2(a4)
   14b02:	ffe7d683          	lhu	a3,-2(a5)
   14b06:	182c                	addi	a1,sp,56
   14b08:	00d61c63          	bne	a2,a3,14b20 <ecmp+0xb2>
   14b0c:	fcb785e3          	beq	a5,a1,14ad6 <ecmp+0x68>
   14b10:	0789                	addi	a5,a5,2
   14b12:	0709                	addi	a4,a4,2
   14b14:	ffe75603          	lhu	a2,-2(a4)
   14b18:	ffe7d683          	lhu	a3,-2(a5)
   14b1c:	fed608e3          	beq	a2,a3,14b0c <ecmp+0x9e>
   14b20:	fac6ece3          	bltu	a3,a2,14ad8 <ecmp+0x6a>
   14b24:	40a0053b          	negw	a0,a0
   14b28:	bf45                	j	14ad8 <ecmp+0x6a>
   14b2a:	4505                	li	a0,1
   14b2c:	d5d5                	beqz	a1,14ad8 <ecmp+0x6a>
   14b2e:	557d                	li	a0,-1
   14b30:	b765                	j	14ad8 <ecmp+0x6a>
   14b32:	557d                	li	a0,-1
   14b34:	bf7d                	j	14af2 <ecmp+0x84>

0000000000014b36 <eisinf.part.1>:
   14b36:	1141                	addi	sp,sp,-16
   14b38:	e406                	sd	ra,8(sp)
   14b3a:	dfdff0ef          	jal	ra,14936 <eisnan.part.0>
   14b3e:	60a2                	ld	ra,8(sp)
   14b40:	00153513          	seqz	a0,a0
   14b44:	0141                	addi	sp,sp,16
   14b46:	8082                	ret

0000000000014b48 <eshift.part.3>:
   14b48:	1101                	addi	sp,sp,-32
   14b4a:	e822                	sd	s0,16(sp)
   14b4c:	e04a                	sd	s2,0(sp)
   14b4e:	ec06                	sd	ra,24(sp)
   14b50:	e426                	sd	s1,8(sp)
   14b52:	892e                	mv	s2,a1
   14b54:	842a                	mv	s0,a0
   14b56:	0605cd63          	bltz	a1,14bd0 <eshift.part.3+0x88>
   14b5a:	47bd                	li	a5,15
   14b5c:	862e                	mv	a2,a1
   14b5e:	0511                	addi	a0,a0,4
   14b60:	01840693          	addi	a3,s0,24
   14b64:	45bd                	li	a1,15
   14b66:	0327d163          	bge	a5,s2,14b88 <eshift.part.3+0x40>
   14b6a:	87aa                	mv	a5,a0
   14b6c:	0789                	addi	a5,a5,2
   14b6e:	0007d703          	lhu	a4,0(a5)
   14b72:	fee79f23          	sh	a4,-2(a5)
   14b76:	fed79be3          	bne	a5,a3,14b6c <eshift.part.3+0x24>
   14b7a:	00041c23          	sh	zero,24(s0)
   14b7e:	3641                	addiw	a2,a2,-16
   14b80:	fec5c5e3          	blt	a1,a2,14b6a <eshift.part.3+0x22>
   14b84:	00f97913          	andi	s2,s2,15
   14b88:	479d                	li	a5,7
   14b8a:	0327d463          	bge	a5,s2,14bb2 <eshift.part.3+0x6a>
   14b8e:	01840793          	addi	a5,s0,24
   14b92:	00240593          	addi	a1,s0,2
   14b96:	4701                	li	a4,0
   14b98:	0007d683          	lhu	a3,0(a5)
   14b9c:	17f9                	addi	a5,a5,-2
   14b9e:	00869613          	slli	a2,a3,0x8
   14ba2:	8f51                	or	a4,a4,a2
   14ba4:	00e79123          	sh	a4,2(a5)
   14ba8:	0086d713          	srli	a4,a3,0x8
   14bac:	feb796e3          	bne	a5,a1,14b98 <eshift.part.3+0x50>
   14bb0:	3961                	addiw	s2,s2,-8
   14bb2:	00090863          	beqz	s2,14bc2 <eshift.part.3+0x7a>
   14bb6:	397d                	addiw	s2,s2,-1
   14bb8:	8522                	mv	a0,s0
   14bba:	cafff0ef          	jal	ra,14868 <eshup1>
   14bbe:	fe091ce3          	bnez	s2,14bb6 <eshift.part.3+0x6e>
   14bc2:	60e2                	ld	ra,24(sp)
   14bc4:	6442                	ld	s0,16(sp)
   14bc6:	64a2                	ld	s1,8(sp)
   14bc8:	6902                	ld	s2,0(sp)
   14bca:	4501                	li	a0,0
   14bcc:	6105                	addi	sp,sp,32
   14bce:	8082                	ret
   14bd0:	57c5                	li	a5,-15
   14bd2:	40b004bb          	negw	s1,a1
   14bd6:	08f5dd63          	bge	a1,a5,14c70 <eshift.part.3+0x128>
   14bda:	01850593          	addi	a1,a0,24
   14bde:	4901                	li	s2,0
   14be0:	00450693          	addi	a3,a0,4
   14be4:	463d                	li	a2,15
   14be6:	01845703          	lhu	a4,24(s0)
   14bea:	87ae                	mv	a5,a1
   14bec:	00e96933          	or	s2,s2,a4
   14bf0:	17f9                	addi	a5,a5,-2
   14bf2:	0007d703          	lhu	a4,0(a5)
   14bf6:	00e79123          	sh	a4,2(a5)
   14bfa:	fed79be3          	bne	a5,a3,14bf0 <eshift.part.3+0xa8>
   14bfe:	00041223          	sh	zero,4(s0)
   14c02:	34c1                	addiw	s1,s1,-16
   14c04:	fe9641e3          	blt	a2,s1,14be6 <eshift.part.3+0x9e>
   14c08:	479d                	li	a5,7
   14c0a:	0497d063          	bge	a5,s1,14c4a <eshift.part.3+0x102>
   14c0e:	0109191b          	slliw	s2,s2,0x10
   14c12:	4109591b          	sraiw	s2,s2,0x10
   14c16:	01844783          	lbu	a5,24(s0)
   14c1a:	01a40593          	addi	a1,s0,26
   14c1e:	4701                	li	a4,0
   14c20:	00f96933          	or	s2,s2,a5
   14c24:	1942                	slli	s2,s2,0x30
   14c26:	03095913          	srli	s2,s2,0x30
   14c2a:	0006d783          	lhu	a5,0(a3)
   14c2e:	0689                	addi	a3,a3,2
   14c30:	0087d61b          	srliw	a2,a5,0x8
   14c34:	8f51                	or	a4,a4,a2
   14c36:	0087979b          	slliw	a5,a5,0x8
   14c3a:	fee69f23          	sh	a4,-2(a3)
   14c3e:	03079713          	slli	a4,a5,0x30
   14c42:	9341                	srli	a4,a4,0x30
   14c44:	feb693e3          	bne	a3,a1,14c2a <eshift.part.3+0xe2>
   14c48:	34e1                	addiw	s1,s1,-8
   14c4a:	c899                	beqz	s1,14c60 <eshift.part.3+0x118>
   14c4c:	01845783          	lhu	a5,24(s0)
   14c50:	34fd                	addiw	s1,s1,-1
   14c52:	8522                	mv	a0,s0
   14c54:	8b85                	andi	a5,a5,1
   14c56:	0127e933          	or	s2,a5,s2
   14c5a:	bc3ff0ef          	jal	ra,1481c <eshdn1>
   14c5e:	f4fd                	bnez	s1,14c4c <eshift.part.3+0x104>
   14c60:	60e2                	ld	ra,24(sp)
   14c62:	6442                	ld	s0,16(sp)
   14c64:	01203533          	snez	a0,s2
   14c68:	64a2                	ld	s1,8(sp)
   14c6a:	6902                	ld	s2,0(sp)
   14c6c:	6105                	addi	sp,sp,32
   14c6e:	8082                	ret
   14c70:	57e5                	li	a5,-7
   14c72:	00f5c463          	blt	a1,a5,14c7a <eshift.part.3+0x132>
   14c76:	4901                	li	s2,0
   14c78:	bfd1                	j	14c4c <eshift.part.3+0x104>
   14c7a:	4901                	li	s2,0
   14c7c:	00440693          	addi	a3,s0,4
   14c80:	bf59                	j	14c16 <eshift.part.3+0xce>

0000000000014c82 <enormlz>:
   14c82:	00455783          	lhu	a5,4(a0)
   14c86:	1101                	addi	sp,sp,-32
   14c88:	e426                	sd	s1,8(sp)
   14c8a:	ec06                	sd	ra,24(sp)
   14c8c:	e822                	sd	s0,16(sp)
   14c8e:	e04a                	sd	s2,0(sp)
   14c90:	84aa                	mv	s1,a0
   14c92:	ebc5                	bnez	a5,14d42 <enormlz+0xc0>
   14c94:	00655703          	lhu	a4,6(a0)
   14c98:	4401                	li	s0,0
   14c9a:	0107179b          	slliw	a5,a4,0x10
   14c9e:	4107d79b          	sraiw	a5,a5,0x10
   14ca2:	02079693          	slli	a3,a5,0x20
   14ca6:	0806c763          	bltz	a3,14d34 <enormlz+0xb2>
   14caa:	01a50693          	addi	a3,a0,26
   14cae:	0a000613          	li	a2,160
   14cb2:	e31d                	bnez	a4,14cd8 <enormlz+0x56>
   14cb4:	00648793          	addi	a5,s1,6
   14cb8:	a019                	j	14cbe <enormlz+0x3c>
   14cba:	0007d703          	lhu	a4,0(a5)
   14cbe:	0789                	addi	a5,a5,2
   14cc0:	fee79e23          	sh	a4,-4(a5)
   14cc4:	fef69be3          	bne	a3,a5,14cba <enormlz+0x38>
   14cc8:	00049c23          	sh	zero,24(s1)
   14ccc:	2441                	addiw	s0,s0,16
   14cce:	06c40363          	beq	s0,a2,14d34 <enormlz+0xb2>
   14cd2:	0064d703          	lhu	a4,6(s1)
   14cd6:	df79                	beqz	a4,14cb4 <enormlz+0x32>
   14cd8:	f0077793          	andi	a5,a4,-256
   14cdc:	eb8d                	bnez	a5,14d0e <enormlz+0x8c>
   14cde:	01848513          	addi	a0,s1,24
   14ce2:	00248593          	addi	a1,s1,2
   14ce6:	4701                	li	a4,0
   14ce8:	87aa                	mv	a5,a0
   14cea:	0007d683          	lhu	a3,0(a5)
   14cee:	17f9                	addi	a5,a5,-2
   14cf0:	00869613          	slli	a2,a3,0x8
   14cf4:	8f51                	or	a4,a4,a2
   14cf6:	00e79123          	sh	a4,2(a5)
   14cfa:	0086d713          	srli	a4,a3,0x8
   14cfe:	fef596e3          	bne	a1,a5,14cea <enormlz+0x68>
   14d02:	0064d703          	lhu	a4,6(s1)
   14d06:	2421                	addiw	s0,s0,8
   14d08:	f0077793          	andi	a5,a4,-256
   14d0c:	dfe9                	beqz	a5,14ce6 <enormlz+0x64>
   14d0e:	0a000913          	li	s2,160
   14d12:	a801                	j	14d22 <enormlz+0xa0>
   14d14:	2405                	addiw	s0,s0,1
   14d16:	b53ff0ef          	jal	ra,14868 <eshup1>
   14d1a:	00894d63          	blt	s2,s0,14d34 <enormlz+0xb2>
   14d1e:	0064d703          	lhu	a4,6(s1)
   14d22:	0107171b          	slliw	a4,a4,0x10
   14d26:	4107571b          	sraiw	a4,a4,0x10
   14d2a:	02071793          	slli	a5,a4,0x20
   14d2e:	8526                	mv	a0,s1
   14d30:	fe07d2e3          	bgez	a5,14d14 <enormlz+0x92>
   14d34:	8522                	mv	a0,s0
   14d36:	60e2                	ld	ra,24(sp)
   14d38:	6442                	ld	s0,16(sp)
   14d3a:	64a2                	ld	s1,8(sp)
   14d3c:	6902                	ld	s2,0(sp)
   14d3e:	6105                	addi	sp,sp,32
   14d40:	8082                	ret
   14d42:	f007f713          	andi	a4,a5,-256
   14d46:	4401                	li	s0,0
   14d48:	e705                	bnez	a4,14d70 <enormlz+0xee>
   14d4a:	f6f00913          	li	s2,-145
   14d4e:	a801                	j	14d5e <enormlz+0xdc>
   14d50:	347d                	addiw	s0,s0,-1
   14d52:	acbff0ef          	jal	ra,1481c <eshdn1>
   14d56:	fd240fe3          	beq	s0,s2,14d34 <enormlz+0xb2>
   14d5a:	0044d783          	lhu	a5,4(s1)
   14d5e:	8526                	mv	a0,s1
   14d60:	fbe5                	bnez	a5,14d50 <enormlz+0xce>
   14d62:	8522                	mv	a0,s0
   14d64:	60e2                	ld	ra,24(sp)
   14d66:	6442                	ld	s0,16(sp)
   14d68:	64a2                	ld	s1,8(sp)
   14d6a:	6902                	ld	s2,0(sp)
   14d6c:	6105                	addi	sp,sp,32
   14d6e:	8082                	ret
   14d70:	00450693          	addi	a3,a0,4
   14d74:	01a50593          	addi	a1,a0,26
   14d78:	4701                	li	a4,0
   14d7a:	a019                	j	14d80 <enormlz+0xfe>
   14d7c:	0006d783          	lhu	a5,0(a3)
   14d80:	0087d61b          	srliw	a2,a5,0x8
   14d84:	8f51                	or	a4,a4,a2
   14d86:	0087979b          	slliw	a5,a5,0x8
   14d8a:	00e69023          	sh	a4,0(a3)
   14d8e:	03079713          	slli	a4,a5,0x30
   14d92:	0689                	addi	a3,a3,2
   14d94:	9341                	srli	a4,a4,0x30
   14d96:	feb693e3          	bne	a3,a1,14d7c <enormlz+0xfa>
   14d9a:	0044d783          	lhu	a5,4(s1)
   14d9e:	5461                	li	s0,-8
   14da0:	b76d                	j	14d4a <enormlz+0xc8>

0000000000014da2 <emdnorm>:
   14da2:	7139                	addi	sp,sp,-64
   14da4:	f822                	sd	s0,48(sp)
   14da6:	f426                	sd	s1,40(sp)
   14da8:	f04a                	sd	s2,32(sp)
   14daa:	ec4e                	sd	s3,24(sp)
   14dac:	e852                	sd	s4,16(sp)
   14dae:	e456                	sd	s5,8(sp)
   14db0:	8936                	mv	s2,a3
   14db2:	84be                	mv	s1,a5
   14db4:	fc06                	sd	ra,56(sp)
   14db6:	842a                	mv	s0,a0
   14db8:	89ae                	mv	s3,a1
   14dba:	8a32                	mv	s4,a2
   14dbc:	8aba                	mv	s5,a4
   14dbe:	ec5ff0ef          	jal	ra,14c82 <enormlz>
   14dc2:	09000793          	li	a5,144
   14dc6:	40a90933          	sub	s2,s2,a0
   14dca:	06a7d163          	bge	a5,a0,14e2c <emdnorm+0x8a>
   14dce:	67a1                	lui	a5,0x8
   14dd0:	17f9                	addi	a5,a5,-2
   14dd2:	1b27dd63          	bge	a5,s2,14f8c <emdnorm+0x1ea>
   14dd6:	180a8b63          	beqz	s5,14f6c <emdnorm+0x1ca>
   14dda:	40c8                	lw	a0,4(s1)
   14ddc:	409c                	lw	a5,0(s1)
   14dde:	0ca78463          	beq	a5,a0,14ea6 <emdnorm+0x104>
   14de2:	01a48713          	addi	a4,s1,26
   14de6:	03448793          	addi	a5,s1,52
   14dea:	0709                	addi	a4,a4,2
   14dec:	fe071f23          	sh	zero,-2(a4)
   14df0:	fef71de3          	bne	a4,a5,14dea <emdnorm+0x48>
   14df4:	03800793          	li	a5,56
   14df8:	2af50363          	beq	a0,a5,1509e <emdnorm+0x2fc>
   14dfc:	04a7d763          	bge	a5,a0,14e4a <emdnorm+0xa8>
   14e00:	04000793          	li	a5,64
   14e04:	24f50e63          	beq	a0,a5,15060 <emdnorm+0x2be>
   14e08:	07100793          	li	a5,113
   14e0c:	26f51863          	bne	a0,a5,1507c <emdnorm+0x2da>
   14e10:	47a9                	li	a5,10
   14e12:	40008737          	lui	a4,0x40008
   14e16:	377d                	addiw	a4,a4,-1
   14e18:	1782                	slli	a5,a5,0x20
   14e1a:	07a9                	addi	a5,a5,10
   14e1c:	c8d8                	sw	a4,20(s1)
   14e1e:	7761                	lui	a4,0xffff8
   14e20:	00e49c23          	sh	a4,24(s1)
   14e24:	e49c                	sd	a5,8(s1)
   14e26:	6721                	lui	a4,0x8
   14e28:	47a9                	li	a5,10
   14e2a:	a889                	j	14e7c <emdnorm+0xda>
   14e2c:	18095763          	bgez	s2,14fba <emdnorm+0x218>
   14e30:	f7000793          	li	a5,-144
   14e34:	16f95563          	bge	s2,a5,14f9e <emdnorm+0x1fc>
   14e38:	00240793          	addi	a5,s0,2
   14e3c:	0469                	addi	s0,s0,26
   14e3e:	0789                	addi	a5,a5,2
   14e40:	fe079f23          	sh	zero,-2(a5) # 7ffe <register_fini-0x80b2>
   14e44:	fe879de3          	bne	a5,s0,14e3e <emdnorm+0x9c>
   14e48:	aa09                	j	14f5a <emdnorm+0x1b8>
   14e4a:	47e1                	li	a5,24
   14e4c:	1ef50963          	beq	a0,a5,1503e <emdnorm+0x29c>
   14e50:	03500793          	li	a5,53
   14e54:	22f51463          	bne	a0,a5,1507c <emdnorm+0x2da>
   14e58:	04000737          	lui	a4,0x4000
   14e5c:	7ff7071b          	addiw	a4,a4,2047
   14e60:	4799                	li	a5,6
   14e62:	c8d8                	sw	a4,20(s1)
   14e64:	6705                	lui	a4,0x1
   14e66:	8007071b          	addiw	a4,a4,-2048
   14e6a:	1782                	slli	a5,a5,0x20
   14e6c:	0799                	addi	a5,a5,6
   14e6e:	00e49c23          	sh	a4,24(s1)
   14e72:	6705                	lui	a4,0x1
   14e74:	e49c                	sd	a5,8(s1)
   14e76:	80070713          	addi	a4,a4,-2048 # 800 <register_fini-0xf8b0>
   14e7a:	4799                	li	a5,6
   14e7c:	07a1                	addi	a5,a5,8
   14e7e:	0786                	slli	a5,a5,0x1
   14e80:	97a6                	add	a5,a5,s1
   14e82:	00e79523          	sh	a4,10(a5)
   14e86:	c088                	sw	a0,0(s1)
   14e88:	01204f63          	bgtz	s2,14ea6 <emdnorm+0x104>
   14e8c:	09000793          	li	a5,144
   14e90:	18f50763          	beq	a0,a5,1501e <emdnorm+0x27c>
   14e94:	01845783          	lhu	a5,24(s0)
   14e98:	8522                	mv	a0,s0
   14e9a:	8b85                	andi	a5,a5,1
   14e9c:	00f9e9b3          	or	s3,s3,a5
   14ea0:	97dff0ef          	jal	ra,1481c <eshdn1>
   14ea4:	40c8                	lw	a0,4(s1)
   14ea6:	4494                	lw	a3,8(s1)
   14ea8:	0144d603          	lhu	a2,20(s1)
   14eac:	08f00793          	li	a5,143
   14eb0:	00169713          	slli	a4,a3,0x1
   14eb4:	00e40833          	add	a6,s0,a4
   14eb8:	00085883          	lhu	a7,0(a6) # ffffffffffff8000 <__BSS_END__+0xfffffffffffd8870>
   14ebc:	00c8f5b3          	and	a1,a7,a2
   14ec0:	02a7ce63          	blt	a5,a0,14efc <emdnorm+0x15a>
   14ec4:	47ad                	li	a5,11
   14ec6:	02d7cb63          	blt	a5,a3,14efc <emdnorm+0x15a>
   14eca:	9f95                	subw	a5,a5,a3
   14ecc:	1782                	slli	a5,a5,0x20
   14ece:	9381                	srli	a5,a5,0x20
   14ed0:	97b6                	add	a5,a5,a3
   14ed2:	00179693          	slli	a3,a5,0x1
   14ed6:	0709                	addi	a4,a4,2
   14ed8:	00440793          	addi	a5,s0,4
   14edc:	9722                	add	a4,a4,s0
   14ede:	97b6                	add	a5,a5,a3
   14ee0:	00075683          	lhu	a3,0(a4)
   14ee4:	c299                	beqz	a3,14eea <emdnorm+0x148>
   14ee6:	0015e593          	ori	a1,a1,1
   14eea:	00071023          	sh	zero,0(a4)
   14eee:	0709                	addi	a4,a4,2
   14ef0:	fee798e3          	bne	a5,a4,14ee0 <emdnorm+0x13e>
   14ef4:	00085883          	lhu	a7,0(a6)
   14ef8:	0144d603          	lhu	a2,20(s1)
   14efc:	fff64613          	not	a2,a2
   14f00:	01167633          	and	a2,a2,a7
   14f04:	00c81023          	sh	a2,0(a6)
   14f08:	0164d783          	lhu	a5,22(s1)
   14f0c:	00b7f733          	and	a4,a5,a1
   14f10:	cb05                	beqz	a4,14f40 <emdnorm+0x19e>
   14f12:	0cb78a63          	beq	a5,a1,14fe6 <emdnorm+0x244>
   14f16:	03248613          	addi	a2,s1,50
   14f1a:	01840713          	addi	a4,s0,24
   14f1e:	04f1                	addi	s1,s1,28
   14f20:	4681                	li	a3,0
   14f22:	00065783          	lhu	a5,0(a2)
   14f26:	00075583          	lhu	a1,0(a4)
   14f2a:	1779                	addi	a4,a4,-2
   14f2c:	1679                	addi	a2,a2,-2
   14f2e:	97ae                	add	a5,a5,a1
   14f30:	97b6                	add	a5,a5,a3
   14f32:	00f71123          	sh	a5,2(a4)
   14f36:	83c1                	srli	a5,a5,0x10
   14f38:	0017f693          	andi	a3,a5,1
   14f3c:	fe9613e3          	bne	a2,s1,14f22 <emdnorm+0x180>
   14f40:	0d205063          	blez	s2,15000 <emdnorm+0x25e>
   14f44:	00445783          	lhu	a5,4(s0)
   14f48:	e3c1                	bnez	a5,14fc8 <emdnorm+0x226>
   14f4a:	67a1                	lui	a5,0x8
   14f4c:	00041c23          	sh	zero,24(s0)
   14f50:	17f9                	addi	a5,a5,-2
   14f52:	0127cf63          	blt	a5,s2,14f70 <emdnorm+0x1ce>
   14f56:	01241123          	sh	s2,2(s0)
   14f5a:	70e2                	ld	ra,56(sp)
   14f5c:	7442                	ld	s0,48(sp)
   14f5e:	74a2                	ld	s1,40(sp)
   14f60:	7902                	ld	s2,32(sp)
   14f62:	69e2                	ld	s3,24(sp)
   14f64:	6a42                	ld	s4,16(sp)
   14f66:	6aa2                	ld	s5,8(sp)
   14f68:	6121                	addi	sp,sp,64
   14f6a:	8082                	ret
   14f6c:	00041c23          	sh	zero,24(s0)
   14f70:	77e1                	lui	a5,0xffff8
   14f72:	fff7c793          	not	a5,a5
   14f76:	00f41123          	sh	a5,2(s0)
   14f7a:	00440793          	addi	a5,s0,4
   14f7e:	0461                	addi	s0,s0,24
   14f80:	00079023          	sh	zero,0(a5) # ffffffffffff8000 <__BSS_END__+0xfffffffffffd8870>
   14f84:	0789                	addi	a5,a5,2
   14f86:	fef41de3          	bne	s0,a5,14f80 <emdnorm+0x1de>
   14f8a:	bfc1                	j	14f5a <emdnorm+0x1b8>
   14f8c:	00240793          	addi	a5,s0,2
   14f90:	0469                	addi	s0,s0,26
   14f92:	0789                	addi	a5,a5,2
   14f94:	fe079f23          	sh	zero,-2(a5)
   14f98:	fe879de3          	bne	a5,s0,14f92 <emdnorm+0x1f0>
   14f9c:	bf7d                	j	14f5a <emdnorm+0x1b8>
   14f9e:	0009059b          	sext.w	a1,s2
   14fa2:	8522                	mv	a0,s0
   14fa4:	ba5ff0ef          	jal	ra,14b48 <eshift.part.3>
   14fa8:	c111                	beqz	a0,14fac <emdnorm+0x20a>
   14faa:	4985                	li	s3,1
   14fac:	080a8463          	beqz	s5,15034 <emdnorm+0x292>
   14fb0:	40c8                	lw	a0,4(s1)
   14fb2:	409c                	lw	a5,0(s1)
   14fb4:	e2a797e3          	bne	a5,a0,14de2 <emdnorm+0x40>
   14fb8:	bdd1                	j	14e8c <emdnorm+0xea>
   14fba:	f80a88e3          	beqz	s5,14f4a <emdnorm+0x1a8>
   14fbe:	40c8                	lw	a0,4(s1)
   14fc0:	409c                	lw	a5,0(s1)
   14fc2:	e2a790e3          	bne	a5,a0,14de2 <emdnorm+0x40>
   14fc6:	b5c9                	j	14e88 <emdnorm+0xe6>
   14fc8:	8522                	mv	a0,s0
   14fca:	853ff0ef          	jal	ra,1481c <eshdn1>
   14fce:	67a1                	lui	a5,0x8
   14fd0:	0905                	addi	s2,s2,1
   14fd2:	00041c23          	sh	zero,24(s0)
   14fd6:	17f9                	addi	a5,a5,-2
   14fd8:	f927cce3          	blt	a5,s2,14f70 <emdnorm+0x1ce>
   14fdc:	f6095de3          	bgez	s2,14f56 <emdnorm+0x1b4>
   14fe0:	00041123          	sh	zero,2(s0)
   14fe4:	bf9d                	j	14f5a <emdnorm+0x1b8>
   14fe6:	0a099963          	bnez	s3,15098 <emdnorm+0x2f6>
   14fea:	44dc                	lw	a5,12(s1)
   14fec:	0184d703          	lhu	a4,24(s1)
   14ff0:	0786                	slli	a5,a5,0x1
   14ff2:	97a2                	add	a5,a5,s0
   14ff4:	0007d783          	lhu	a5,0(a5) # 8000 <register_fini-0x80b0>
   14ff8:	8ff9                	and	a5,a5,a4
   14ffa:	ff91                	bnez	a5,14f16 <emdnorm+0x174>
   14ffc:	f52044e3          	bgtz	s2,14f44 <emdnorm+0x1a2>
   15000:	09000793          	li	a5,144
   15004:	00f50563          	beq	a0,a5,1500e <emdnorm+0x26c>
   15008:	8522                	mv	a0,s0
   1500a:	85fff0ef          	jal	ra,14868 <eshup1>
   1500e:	00445783          	lhu	a5,4(s0)
   15012:	fbdd                	bnez	a5,14fc8 <emdnorm+0x226>
   15014:	00041c23          	sh	zero,24(s0)
   15018:	fc0944e3          	bltz	s2,14fe0 <emdnorm+0x23e>
   1501c:	bf2d                	j	14f56 <emdnorm+0x1b4>
   1501e:	0084a803          	lw	a6,8(s1)
   15022:	0144d603          	lhu	a2,20(s1)
   15026:	0806                	slli	a6,a6,0x1
   15028:	9822                	add	a6,a6,s0
   1502a:	00085883          	lhu	a7,0(a6)
   1502e:	011675b3          	and	a1,a2,a7
   15032:	b5e9                	j	14efc <emdnorm+0x15a>
   15034:	00041c23          	sh	zero,24(s0)
   15038:	00041123          	sh	zero,2(s0)
   1503c:	bf39                	j	14f5a <emdnorm+0x1b8>
   1503e:	4791                	li	a5,4
   15040:	00800737          	lui	a4,0x800
   15044:	0ff7071b          	addiw	a4,a4,255
   15048:	1782                	slli	a5,a5,0x20
   1504a:	0791                	addi	a5,a5,4
   1504c:	c8d8                	sw	a4,20(s1)
   1504e:	10000713          	li	a4,256
   15052:	00e49c23          	sh	a4,24(s1)
   15056:	e49c                	sd	a5,8(s1)
   15058:	10000713          	li	a4,256
   1505c:	4791                	li	a5,4
   1505e:	bd39                	j	14e7c <emdnorm+0xda>
   15060:	478d                	li	a5,3
   15062:	80010737          	lui	a4,0x80010
   15066:	377d                	addiw	a4,a4,-1
   15068:	1786                	slli	a5,a5,0x21
   1506a:	079d                	addi	a5,a5,7
   1506c:	c8d8                	sw	a4,20(s1)
   1506e:	4705                	li	a4,1
   15070:	00e49c23          	sh	a4,24(s1)
   15074:	e49c                	sd	a5,8(s1)
   15076:	4705                	li	a4,1
   15078:	4799                	li	a5,6
   1507a:	b509                	j	14e7c <emdnorm+0xda>
   1507c:	47ad                	li	a5,11
   1507e:	80010737          	lui	a4,0x80010
   15082:	377d                	addiw	a4,a4,-1
   15084:	1782                	slli	a5,a5,0x20
   15086:	07b1                	addi	a5,a5,12
   15088:	c8d8                	sw	a4,20(s1)
   1508a:	4705                	li	a4,1
   1508c:	00e49c23          	sh	a4,24(s1)
   15090:	e49c                	sd	a5,8(s1)
   15092:	4705                	li	a4,1
   15094:	47ad                	li	a5,11
   15096:	b3dd                	j	14e7c <emdnorm+0xda>
   15098:	e60a0fe3          	beqz	s4,14f16 <emdnorm+0x174>
   1509c:	b555                	j	14f40 <emdnorm+0x19e>
   1509e:	4799                	li	a5,6
   150a0:	00800737          	lui	a4,0x800
   150a4:	0ff7071b          	addiw	a4,a4,255
   150a8:	1782                	slli	a5,a5,0x20
   150aa:	0799                	addi	a5,a5,6
   150ac:	c8d8                	sw	a4,20(s1)
   150ae:	10000713          	li	a4,256
   150b2:	00e49c23          	sh	a4,24(s1)
   150b6:	e49c                	sd	a5,8(s1)
   150b8:	10000713          	li	a4,256
   150bc:	4799                	li	a5,6
   150be:	bb7d                	j	14e7c <emdnorm+0xda>

00000000000150c0 <eiremain>:
   150c0:	711d                	addi	sp,sp,-96
   150c2:	fc4e                	sd	s3,56(sp)
   150c4:	00255983          	lhu	s3,2(a0)
   150c8:	e4a6                	sd	s1,72(sp)
   150ca:	84ae                	mv	s1,a1
   150cc:	ec86                	sd	ra,88(sp)
   150ce:	e8a2                	sd	s0,80(sp)
   150d0:	e0ca                	sd	s2,64(sp)
   150d2:	f852                	sd	s4,48(sp)
   150d4:	8932                	mv	s2,a2
   150d6:	f456                	sd	s5,40(sp)
   150d8:	f05a                	sd	s6,32(sp)
   150da:	ec5e                	sd	s7,24(sp)
   150dc:	e862                	sd	s8,16(sp)
   150de:	e466                	sd	s9,8(sp)
   150e0:	e06a                	sd	s10,0(sp)
   150e2:	8a2a                	mv	s4,a0
   150e4:	b9fff0ef          	jal	ra,14c82 <enormlz>
   150e8:	0024d403          	lhu	s0,2(s1)
   150ec:	40a989b3          	sub	s3,s3,a0
   150f0:	8526                	mv	a0,s1
   150f2:	b91ff0ef          	jal	ra,14c82 <enormlz>
   150f6:	03490a93          	addi	s5,s2,52
   150fa:	8c09                	sub	s0,s0,a0
   150fc:	04e90713          	addi	a4,s2,78
   15100:	87d6                	mv	a5,s5
   15102:	0789                	addi	a5,a5,2
   15104:	fe079f23          	sh	zero,-2(a5)
   15108:	fee79de3          	bne	a5,a4,15102 <eiremain+0x42>
   1510c:	07344b63          	blt	s0,s3,15182 <eiremain+0xc2>
   15110:	004a0b93          	addi	s7,s4,4
   15114:	00448b13          	addi	s6,s1,4
   15118:	19fd                	addi	s3,s3,-1
   1511a:	01aa0c93          	addi	s9,s4,26
   1511e:	00248c13          	addi	s8,s1,2
   15122:	875a                	mv	a4,s6
   15124:	87de                	mv	a5,s7
   15126:	0789                	addi	a5,a5,2
   15128:	0709                	addi	a4,a4,2
   1512a:	ffe7d603          	lhu	a2,-2(a5)
   1512e:	ffe75683          	lhu	a3,-2(a4) # 7ffffe <__BSS_END__+0x7e086e>
   15132:	06d61d63          	bne	a2,a3,151ac <eiremain+0xec>
   15136:	fefc98e3          	bne	s9,a5,15126 <eiremain+0x66>
   1513a:	018a0693          	addi	a3,s4,24
   1513e:	01848713          	addi	a4,s1,24
   15142:	4601                	li	a2,0
   15144:	00075783          	lhu	a5,0(a4)
   15148:	0006d583          	lhu	a1,0(a3)
   1514c:	1779                	addi	a4,a4,-2
   1514e:	8f91                	sub	a5,a5,a2
   15150:	8f8d                	sub	a5,a5,a1
   15152:	00f71123          	sh	a5,2(a4)
   15156:	83c1                	srli	a5,a5,0x10
   15158:	16f9                	addi	a3,a3,-2
   1515a:	0017f613          	andi	a2,a5,1
   1515e:	feec13e3          	bne	s8,a4,15144 <eiremain+0x84>
   15162:	4d05                	li	s10,1
   15164:	8556                	mv	a0,s5
   15166:	f02ff0ef          	jal	ra,14868 <eshup1>
   1516a:	04c95783          	lhu	a5,76(s2)
   1516e:	147d                	addi	s0,s0,-1
   15170:	8526                	mv	a0,s1
   15172:	00fd6d33          	or	s10,s10,a5
   15176:	05a91623          	sh	s10,76(s2)
   1517a:	eeeff0ef          	jal	ra,14868 <eshup1>
   1517e:	fb3412e3          	bne	s0,s3,15122 <eiremain+0x62>
   15182:	86a2                	mv	a3,s0
   15184:	6446                	ld	s0,80(sp)
   15186:	60e6                	ld	ra,88(sp)
   15188:	79e2                	ld	s3,56(sp)
   1518a:	7a42                	ld	s4,48(sp)
   1518c:	7aa2                	ld	s5,40(sp)
   1518e:	7b02                	ld	s6,32(sp)
   15190:	6be2                	ld	s7,24(sp)
   15192:	6c42                	ld	s8,16(sp)
   15194:	6ca2                	ld	s9,8(sp)
   15196:	6d02                	ld	s10,0(sp)
   15198:	87ca                	mv	a5,s2
   1519a:	8526                	mv	a0,s1
   1519c:	6906                	ld	s2,64(sp)
   1519e:	64a6                	ld	s1,72(sp)
   151a0:	4701                	li	a4,0
   151a2:	4601                	li	a2,0
   151a4:	4581                	li	a1,0
   151a6:	6125                	addi	sp,sp,96
   151a8:	bfbff06f          	j	14da2 <emdnorm>
   151ac:	4d01                	li	s10,0
   151ae:	fac6ebe3          	bltu	a3,a2,15164 <eiremain+0xa4>
   151b2:	b761                	j	1513a <eiremain+0x7a>

00000000000151b4 <emovo.isra.6>:
   151b4:	00055703          	lhu	a4,0(a0)
   151b8:	00255783          	lhu	a5,2(a0)
   151bc:	cb05                	beqz	a4,151ec <emovo.isra.6+0x38>
   151be:	7761                	lui	a4,0xffff8
   151c0:	8fd9                	or	a5,a5,a4
   151c2:	00f59923          	sh	a5,18(a1)
   151c6:	00255703          	lhu	a4,2(a0)
   151ca:	67a1                	lui	a5,0x8
   151cc:	17fd                	addi	a5,a5,-1
   151ce:	02f70763          	beq	a4,a5,151fc <emovo.isra.6+0x48>
   151d2:	00650793          	addi	a5,a0,6
   151d6:	05c1                	addi	a1,a1,16
   151d8:	0561                	addi	a0,a0,24
   151da:	0789                	addi	a5,a5,2
   151dc:	ffe7d703          	lhu	a4,-2(a5) # 7ffe <register_fini-0x80b2>
   151e0:	15f9                	addi	a1,a1,-2
   151e2:	00e59123          	sh	a4,2(a1)
   151e6:	fea79ae3          	bne	a5,a0,151da <emovo.isra.6+0x26>
   151ea:	8082                	ret
   151ec:	00f59923          	sh	a5,18(a1)
   151f0:	00255703          	lhu	a4,2(a0)
   151f4:	67a1                	lui	a5,0x8
   151f6:	17fd                	addi	a5,a5,-1
   151f8:	fcf71de3          	bne	a4,a5,151d2 <emovo.isra.6+0x1e>
   151fc:	00650793          	addi	a5,a0,6
   15200:	0569                	addi	a0,a0,26
   15202:	0007d703          	lhu	a4,0(a5) # 8000 <register_fini-0x80b0>
   15206:	0789                	addi	a5,a5,2
   15208:	e31d                	bnez	a4,1522e <emovo.isra.6+0x7a>
   1520a:	fea79ce3          	bne	a5,a0,15202 <emovo.isra.6+0x4e>
   1520e:	01258713          	addi	a4,a1,18
   15212:	87ae                	mv	a5,a1
   15214:	0789                	addi	a5,a5,2
   15216:	fe079f23          	sh	zero,-2(a5)
   1521a:	fef71de3          	bne	a4,a5,15214 <emovo.isra.6+0x60>
   1521e:	0125d783          	lhu	a5,18(a1)
   15222:	6721                	lui	a4,0x8
   15224:	177d                	addi	a4,a4,-1
   15226:	8fd9                	or	a5,a5,a4
   15228:	00f59923          	sh	a5,18(a1)
   1522c:	8082                	ret
   1522e:	01058713          	addi	a4,a1,16
   15232:	87ae                	mv	a5,a1
   15234:	0789                	addi	a5,a5,2
   15236:	fe079f23          	sh	zero,-2(a5)
   1523a:	fee79de3          	bne	a5,a4,15234 <emovo.isra.6+0x80>
   1523e:	7fffc7b7          	lui	a5,0x7fffc
   15242:	c99c                	sw	a5,16(a1)
   15244:	8082                	ret

0000000000015246 <emul>:
   15246:	7131                	addi	sp,sp,-192
   15248:	e556                	sd	s5,136(sp)
   1524a:	01255a83          	lhu	s5,18(a0)
   1524e:	67a1                	lui	a5,0x8
   15250:	17fd                	addi	a5,a5,-1
   15252:	f922                	sd	s0,176(sp)
   15254:	f526                	sd	s1,168(sp)
   15256:	f14a                	sd	s2,160(sp)
   15258:	ed4e                	sd	s3,152(sp)
   1525a:	e15a                	sd	s6,128(sp)
   1525c:	fd06                	sd	ra,184(sp)
   1525e:	e952                	sd	s4,144(sp)
   15260:	fcde                	sd	s7,120(sp)
   15262:	f8e2                	sd	s8,112(sp)
   15264:	f4e6                	sd	s9,104(sp)
   15266:	0157fb33          	and	s6,a5,s5
   1526a:	84aa                	mv	s1,a0
   1526c:	892e                	mv	s2,a1
   1526e:	8432                	mv	s0,a2
   15270:	89b6                	mv	s3,a3
   15272:	08fb1663          	bne	s6,a5,152fe <emul+0xb8>
   15276:	ec0ff0ef          	jal	ra,14936 <eisnan.part.0>
   1527a:	18051a63          	bnez	a0,1540e <emul+0x1c8>
   1527e:	01295a03          	lhu	s4,18(s2)
   15282:	014b77b3          	and	a5,s6,s4
   15286:	19679f63          	bne	a5,s6,15424 <emul+0x1de>
   1528a:	854a                	mv	a0,s2
   1528c:	eaaff0ef          	jal	ra,14936 <eisnan.part.0>
   15290:	e149                	bnez	a0,15312 <emul+0xcc>
   15292:	8526                	mv	a0,s1
   15294:	8a3ff0ef          	jal	ra,14b36 <eisinf.part.1>
   15298:	18051a63          	bnez	a0,1542c <emul+0x1e6>
   1529c:	67a1                	lui	a5,0x8
   1529e:	17fd                	addi	a5,a5,-1
   152a0:	0147fa33          	and	s4,a5,s4
   152a4:	1a42                	slli	s4,s4,0x30
   152a6:	030a5a13          	srli	s4,s4,0x30
   152aa:	20fa1863          	bne	s4,a5,154ba <emul+0x274>
   152ae:	854a                	mv	a0,s2
   152b0:	887ff0ef          	jal	ra,14b36 <eisinf.part.1>
   152b4:	24051b63          	bnez	a0,1550a <emul+0x2c4>
   152b8:	0124d783          	lhu	a5,18(s1)
   152bc:	00fa77b3          	and	a5,s4,a5
   152c0:	19478163          	beq	a5,s4,15442 <emul+0x1fc>
   152c4:	8526                	mv	a0,s1
   152c6:	858a                	mv	a1,sp
   152c8:	ee0ff0ef          	jal	ra,149a8 <emovi>
   152cc:	854a                	mv	a0,s2
   152ce:	100c                	addi	a1,sp,32
   152d0:	ed8ff0ef          	jal	ra,149a8 <emovi>
   152d4:	00215483          	lhu	s1,2(sp)
   152d8:	02215903          	lhu	s2,34(sp)
   152dc:	e0b5                	bnez	s1,15340 <emul+0xfa>
   152de:	005c                	addi	a5,sp,4
   152e0:	0834                	addi	a3,sp,24
   152e2:	20d78463          	beq	a5,a3,154ea <emul+0x2a4>
   152e6:	0789                	addi	a5,a5,2
   152e8:	ffe7d703          	lhu	a4,-2(a5) # 7ffe <register_fini-0x80b2>
   152ec:	db7d                	beqz	a4,152e2 <emul+0x9c>
   152ee:	850a                	mv	a0,sp
   152f0:	993ff0ef          	jal	ra,14c82 <enormlz>
   152f4:	40a004b3          	neg	s1,a0
   152f8:	02215703          	lhu	a4,34(sp)
   152fc:	a099                	j	15342 <emul+0xfc>
   152fe:	0125da03          	lhu	s4,18(a1)
   15302:	0147f733          	and	a4,a5,s4
   15306:	faf71fe3          	bne	a4,a5,152c4 <emul+0x7e>
   1530a:	852e                	mv	a0,a1
   1530c:	e2aff0ef          	jal	ra,14936 <eisnan.part.0>
   15310:	d551                	beqz	a0,1529c <emul+0x56>
   15312:	01490713          	addi	a4,s2,20
   15316:	0909                	addi	s2,s2,2
   15318:	ffe95783          	lhu	a5,-2(s2)
   1531c:	0409                	addi	s0,s0,2
   1531e:	fef41f23          	sh	a5,-2(s0)
   15322:	ff271ae3          	bne	a4,s2,15316 <emul+0xd0>
   15326:	70ea                	ld	ra,184(sp)
   15328:	744a                	ld	s0,176(sp)
   1532a:	74aa                	ld	s1,168(sp)
   1532c:	790a                	ld	s2,160(sp)
   1532e:	69ea                	ld	s3,152(sp)
   15330:	6a4a                	ld	s4,144(sp)
   15332:	6aaa                	ld	s5,136(sp)
   15334:	6b0a                	ld	s6,128(sp)
   15336:	7be6                	ld	s7,120(sp)
   15338:	7c46                	ld	s8,112(sp)
   1533a:	7ca6                	ld	s9,104(sp)
   1533c:	6129                	addi	sp,sp,192
   1533e:	8082                	ret
   15340:	874a                	mv	a4,s2
   15342:	8b4a                	mv	s6,s2
   15344:	105c                	addi	a5,sp,36
   15346:	1834                	addi	a3,sp,56
   15348:	ef11                	bnez	a4,15364 <emul+0x11e>
   1534a:	1af68863          	beq	a3,a5,154fa <emul+0x2b4>
   1534e:	0789                	addi	a5,a5,2
   15350:	ffe7d703          	lhu	a4,-2(a5)
   15354:	db7d                	beqz	a4,1534a <emul+0x104>
   15356:	1008                	addi	a0,sp,32
   15358:	92bff0ef          	jal	ra,14c82 <enormlz>
   1535c:	02215703          	lhu	a4,34(sp)
   15360:	40a90b33          	sub	s6,s2,a0
   15364:	02015783          	lhu	a5,32(sp)
   15368:	03898a93          	addi	s5,s3,56
   1536c:	02e99b23          	sh	a4,54(s3)
   15370:	02f99a23          	sh	a5,52(s3)
   15374:	04e98713          	addi	a4,s3,78
   15378:	87d6                	mv	a5,s5
   1537a:	00079023          	sh	zero,0(a5)
   1537e:	0789                	addi	a5,a5,2
   15380:	fef71de3          	bne	a4,a5,1537a <emul+0x134>
   15384:	04c98b93          	addi	s7,s3,76
   15388:	4a01                	li	s4,0
   1538a:	01810913          	addi	s2,sp,24
   1538e:	00410c93          	addi	s9,sp,4
   15392:	04210c13          	addi	s8,sp,66
   15396:	00095503          	lhu	a0,0(s2)
   1539a:	1979                	addi	s2,s2,-2
   1539c:	0e051863          	bnez	a0,1548c <emul+0x246>
   153a0:	04c9d703          	lhu	a4,76(s3)
   153a4:	87de                	mv	a5,s7
   153a6:	00ea6a33          	or	s4,s4,a4
   153aa:	17f9                	addi	a5,a5,-2
   153ac:	0007d703          	lhu	a4,0(a5)
   153b0:	00e79123          	sh	a4,2(a5)
   153b4:	ff579be3          	bne	a5,s5,153aa <emul+0x164>
   153b8:	02099c23          	sh	zero,56(s3)
   153bc:	fd991de3          	bne	s2,s9,15396 <emul+0x150>
   153c0:	03498713          	addi	a4,s3,52
   153c4:	101c                	addi	a5,sp,32
   153c6:	03a10693          	addi	a3,sp,58
   153ca:	00075603          	lhu	a2,0(a4) # 8000 <register_fini-0x80b0>
   153ce:	0789                	addi	a5,a5,2
   153d0:	0709                	addi	a4,a4,2
   153d2:	fec79f23          	sh	a2,-2(a5)
   153d6:	fef69ae3          	bne	a3,a5,153ca <emul+0x184>
   153da:	76f1                	lui	a3,0xffffc
   153dc:	94da                	add	s1,s1,s6
   153de:	0689                	addi	a3,a3,2
   153e0:	87ce                	mv	a5,s3
   153e2:	04000713          	li	a4,64
   153e6:	96a6                	add	a3,a3,s1
   153e8:	4601                	li	a2,0
   153ea:	85d2                	mv	a1,s4
   153ec:	1008                	addi	a0,sp,32
   153ee:	9b5ff0ef          	jal	ra,14da2 <emdnorm>
   153f2:	00015703          	lhu	a4,0(sp)
   153f6:	02015783          	lhu	a5,32(sp)
   153fa:	14f70563          	beq	a4,a5,15544 <emul+0x2fe>
   153fe:	57fd                	li	a5,-1
   15400:	02f11023          	sh	a5,32(sp)
   15404:	85a2                	mv	a1,s0
   15406:	1008                	addi	a0,sp,32
   15408:	dadff0ef          	jal	ra,151b4 <emovo.isra.6>
   1540c:	bf29                	j	15326 <emul+0xe0>
   1540e:	01448713          	addi	a4,s1,20
   15412:	0489                	addi	s1,s1,2
   15414:	ffe4d783          	lhu	a5,-2(s1)
   15418:	0409                	addi	s0,s0,2
   1541a:	fef41f23          	sh	a5,-2(s0)
   1541e:	fee49ae3          	bne	s1,a4,15412 <emul+0x1cc>
   15422:	b711                	j	15326 <emul+0xe0>
   15424:	8526                	mv	a0,s1
   15426:	f10ff0ef          	jal	ra,14b36 <eisinf.part.1>
   1542a:	c951                	beqz	a0,154be <emul+0x278>
   1542c:	65f5                	lui	a1,0x1d
   1542e:	ab058593          	addi	a1,a1,-1360 # 1cab0 <ezero>
   15432:	854a                	mv	a0,s2
   15434:	e3aff0ef          	jal	ra,14a6e <ecmp>
   15438:	0e050763          	beqz	a0,15526 <emul+0x2e0>
   1543c:	01295a03          	lhu	s4,18(s2)
   15440:	bdb1                	j	1529c <emul+0x56>
   15442:	8526                	mv	a0,s1
   15444:	ef2ff0ef          	jal	ra,14b36 <eisinf.part.1>
   15448:	e511                	bnez	a0,15454 <emul+0x20e>
   1544a:	854a                	mv	a0,s2
   1544c:	eeaff0ef          	jal	ra,14b36 <eisinf.part.1>
   15450:	e6050ae3          	beqz	a0,152c4 <emul+0x7e>
   15454:	8526                	mv	a0,s1
   15456:	d28ff0ef          	jal	ra,1497e <eisneg>
   1545a:	84aa                	mv	s1,a0
   1545c:	854a                	mv	a0,s2
   1545e:	d20ff0ef          	jal	ra,1497e <eisneg>
   15462:	0ca48e63          	beq	s1,a0,1553e <emul+0x2f8>
   15466:	77e1                	lui	a5,0xffff8
   15468:	00f41923          	sh	a5,18(s0)
   1546c:	01240713          	addi	a4,s0,18
   15470:	87a2                	mv	a5,s0
   15472:	0789                	addi	a5,a5,2
   15474:	fe079f23          	sh	zero,-2(a5) # ffffffffffff7ffe <__BSS_END__+0xfffffffffffd886e>
   15478:	fee79de3          	bne	a5,a4,15472 <emul+0x22c>
   1547c:	01245783          	lhu	a5,18(s0)
   15480:	6721                	lui	a4,0x8
   15482:	177d                	addi	a4,a4,-1
   15484:	8fd9                	or	a5,a5,a4
   15486:	00f41923          	sh	a5,18(s0)
   1548a:	bd71                	j	15326 <emul+0xe0>
   1548c:	0090                	addi	a2,sp,64
   1548e:	100c                	addi	a1,sp,32
   15490:	c32ff0ef          	jal	ra,148c2 <m16m>
   15494:	865e                	mv	a2,s7
   15496:	4581                	li	a1,0
   15498:	08b8                	addi	a4,sp,88
   1549a:	00065503          	lhu	a0,0(a2)
   1549e:	00075783          	lhu	a5,0(a4) # 8000 <register_fini-0x80b0>
   154a2:	1679                	addi	a2,a2,-2
   154a4:	1779                	addi	a4,a4,-2
   154a6:	97aa                	add	a5,a5,a0
   154a8:	97ae                	add	a5,a5,a1
   154aa:	00f61123          	sh	a5,2(a2)
   154ae:	83c1                	srli	a5,a5,0x10
   154b0:	0017f593          	andi	a1,a5,1
   154b4:	ff8713e3          	bne	a4,s8,1549a <emul+0x254>
   154b8:	b5e5                	j	153a0 <emul+0x15a>
   154ba:	0124da83          	lhu	s5,18(s1)
   154be:	67a1                	lui	a5,0x8
   154c0:	17fd                	addi	a5,a5,-1
   154c2:	0157fab3          	and	s5,a5,s5
   154c6:	1ac2                	slli	s5,s5,0x30
   154c8:	030ada93          	srli	s5,s5,0x30
   154cc:	defa9ce3          	bne	s5,a5,152c4 <emul+0x7e>
   154d0:	8526                	mv	a0,s1
   154d2:	e64ff0ef          	jal	ra,14b36 <eisinf.part.1>
   154d6:	fd3d                	bnez	a0,15454 <emul+0x20e>
   154d8:	01295783          	lhu	a5,18(s2)
   154dc:	fff7c793          	not	a5,a5
   154e0:	03179713          	slli	a4,a5,0x31
   154e4:	de0710e3          	bnez	a4,152c4 <emul+0x7e>
   154e8:	b78d                	j	1544a <emul+0x204>
   154ea:	01440793          	addi	a5,s0,20
   154ee:	0409                	addi	s0,s0,2
   154f0:	fe041f23          	sh	zero,-2(s0)
   154f4:	fe879de3          	bne	a5,s0,154ee <emul+0x2a8>
   154f8:	b53d                	j	15326 <emul+0xe0>
   154fa:	01440793          	addi	a5,s0,20
   154fe:	0409                	addi	s0,s0,2
   15500:	fe041f23          	sh	zero,-2(s0)
   15504:	fef41de3          	bne	s0,a5,154fe <emul+0x2b8>
   15508:	bd39                	j	15326 <emul+0xe0>
   1550a:	65f5                	lui	a1,0x1d
   1550c:	ab058593          	addi	a1,a1,-1360 # 1cab0 <ezero>
   15510:	8526                	mv	a0,s1
   15512:	d5cff0ef          	jal	ra,14a6e <ecmp>
   15516:	c901                	beqz	a0,15526 <emul+0x2e0>
   15518:	0124d783          	lhu	a5,18(s1)
   1551c:	00fa77b3          	and	a5,s4,a5
   15520:	fb4788e3          	beq	a5,s4,154d0 <emul+0x28a>
   15524:	bf55                	j	154d8 <emul+0x292>
   15526:	01040713          	addi	a4,s0,16
   1552a:	87a2                	mv	a5,s0
   1552c:	0789                	addi	a5,a5,2
   1552e:	fe079f23          	sh	zero,-2(a5) # 7ffe <register_fini-0x80b2>
   15532:	fee79de3          	bne	a5,a4,1552c <emul+0x2e6>
   15536:	7fffc7b7          	lui	a5,0x7fffc
   1553a:	c81c                	sw	a5,16(s0)
   1553c:	b3ed                	j	15326 <emul+0xe0>
   1553e:	00041923          	sh	zero,18(s0)
   15542:	b72d                	j	1546c <emul+0x226>
   15544:	02011023          	sh	zero,32(sp)
   15548:	bd75                	j	15404 <emul+0x1be>

000000000001554a <ediv>:
   1554a:	01255783          	lhu	a5,18(a0)
   1554e:	7115                	addi	sp,sp,-224
   15550:	e9a2                	sd	s0,208(sp)
   15552:	fff7c793          	not	a5,a5
   15556:	e5a6                	sd	s1,200(sp)
   15558:	e1ca                	sd	s2,192(sp)
   1555a:	f15a                	sd	s6,160(sp)
   1555c:	ed86                	sd	ra,216(sp)
   1555e:	fd4e                	sd	s3,184(sp)
   15560:	f952                	sd	s4,176(sp)
   15562:	f556                	sd	s5,168(sp)
   15564:	ed5e                	sd	s7,152(sp)
   15566:	e962                	sd	s8,144(sp)
   15568:	e566                	sd	s9,136(sp)
   1556a:	e16a                	sd	s10,128(sp)
   1556c:	fcee                	sd	s11,120(sp)
   1556e:	03179713          	slli	a4,a5,0x31
   15572:	84aa                	mv	s1,a0
   15574:	892e                	mv	s2,a1
   15576:	8432                	mv	s0,a2
   15578:	8b36                	mv	s6,a3
   1557a:	e709                	bnez	a4,15584 <ediv+0x3a>
   1557c:	bbaff0ef          	jal	ra,14936 <eisnan.part.0>
   15580:	28051963          	bnez	a0,15812 <ediv+0x2c8>
   15584:	01295783          	lhu	a5,18(s2)
   15588:	fff7c793          	not	a5,a5
   1558c:	03179713          	slli	a4,a5,0x31
   15590:	c725                	beqz	a4,155f8 <ediv+0xae>
   15592:	69f5                	lui	s3,0x1d
   15594:	ab098593          	addi	a1,s3,-1360 # 1cab0 <ezero>
   15598:	8526                	mv	a0,s1
   1559a:	cd4ff0ef          	jal	ra,14a6e <ecmp>
   1559e:	cd55                	beqz	a0,1565a <ediv+0x110>
   155a0:	0124d983          	lhu	s3,18(s1)
   155a4:	01295703          	lhu	a4,18(s2)
   155a8:	67a1                	lui	a5,0x8
   155aa:	17fd                	addi	a5,a5,-1
   155ac:	0137f9b3          	and	s3,a5,s3
   155b0:	00e7fa33          	and	s4,a5,a4
   155b4:	06f99163          	bne	s3,a5,15616 <ediv+0xcc>
   155b8:	8526                	mv	a0,s1
   155ba:	d7cff0ef          	jal	ra,14b36 <eisinf.part.1>
   155be:	c161                	beqz	a0,1567e <ediv+0x134>
   155c0:	013a1663          	bne	s4,s3,155cc <ediv+0x82>
   155c4:	854a                	mv	a0,s2
   155c6:	d70ff0ef          	jal	ra,14b36 <eisinf.part.1>
   155ca:	ed51                	bnez	a0,15666 <ediv+0x11c>
   155cc:	01440793          	addi	a5,s0,20
   155d0:	0409                	addi	s0,s0,2
   155d2:	fe041f23          	sh	zero,-2(s0)
   155d6:	fef41de3          	bne	s0,a5,155d0 <ediv+0x86>
   155da:	60ee                	ld	ra,216(sp)
   155dc:	644e                	ld	s0,208(sp)
   155de:	64ae                	ld	s1,200(sp)
   155e0:	690e                	ld	s2,192(sp)
   155e2:	79ea                	ld	s3,184(sp)
   155e4:	7a4a                	ld	s4,176(sp)
   155e6:	7aaa                	ld	s5,168(sp)
   155e8:	7b0a                	ld	s6,160(sp)
   155ea:	6bea                	ld	s7,152(sp)
   155ec:	6c4a                	ld	s8,144(sp)
   155ee:	6caa                	ld	s9,136(sp)
   155f0:	6d0a                	ld	s10,128(sp)
   155f2:	7de6                	ld	s11,120(sp)
   155f4:	612d                	addi	sp,sp,224
   155f6:	8082                	ret
   155f8:	854a                	mv	a0,s2
   155fa:	b3cff0ef          	jal	ra,14936 <eisnan.part.0>
   155fe:	d951                	beqz	a0,15592 <ediv+0x48>
   15600:	01490713          	addi	a4,s2,20
   15604:	0909                	addi	s2,s2,2
   15606:	ffe95783          	lhu	a5,-2(s2)
   1560a:	0409                	addi	s0,s0,2
   1560c:	fef41f23          	sh	a5,-2(s0)
   15610:	ff271ae3          	bne	a4,s2,15604 <ediv+0xba>
   15614:	b7d9                	j	155da <ediv+0x90>
   15616:	06fa0663          	beq	s4,a5,15682 <ediv+0x138>
   1561a:	8526                	mv	a0,s1
   1561c:	080c                	addi	a1,sp,16
   1561e:	b8aff0ef          	jal	ra,149a8 <emovi>
   15622:	180c                	addi	a1,sp,48
   15624:	854a                	mv	a0,s2
   15626:	b82ff0ef          	jal	ra,149a8 <emovi>
   1562a:	03215b83          	lhu	s7,50(sp)
   1562e:	01215483          	lhu	s1,18(sp)
   15632:	080b9863          	bnez	s7,156c2 <ediv+0x178>
   15636:	185c                	addi	a5,sp,52
   15638:	04810b93          	addi	s7,sp,72
   1563c:	26fb8963          	beq	s7,a5,158ae <ediv+0x364>
   15640:	0789                	addi	a5,a5,2
   15642:	ffe7d683          	lhu	a3,-2(a5) # 7ffe <register_fini-0x80b2>
   15646:	dafd                	beqz	a3,1563c <ediv+0xf2>
   15648:	1808                	addi	a0,sp,48
   1564a:	e38ff0ef          	jal	ra,14c82 <enormlz>
   1564e:	40a007b3          	neg	a5,a0
   15652:	e43e                	sd	a5,8(sp)
   15654:	01215703          	lhu	a4,18(sp)
   15658:	a0bd                	j	156c6 <ediv+0x17c>
   1565a:	ab098593          	addi	a1,s3,-1360
   1565e:	854a                	mv	a0,s2
   15660:	c0eff0ef          	jal	ra,14a6e <ecmp>
   15664:	fd15                	bnez	a0,155a0 <ediv+0x56>
   15666:	01040713          	addi	a4,s0,16
   1566a:	87a2                	mv	a5,s0
   1566c:	0789                	addi	a5,a5,2
   1566e:	fe079f23          	sh	zero,-2(a5)
   15672:	fee79de3          	bne	a5,a4,1566c <ediv+0x122>
   15676:	7fffc7b7          	lui	a5,0x7fffc
   1567a:	c81c                	sw	a5,16(s0)
   1567c:	bfb9                	j	155da <ediv+0x90>
   1567e:	f93a1ee3          	bne	s4,s3,1561a <ediv+0xd0>
   15682:	854a                	mv	a0,s2
   15684:	cb2ff0ef          	jal	ra,14b36 <eisinf.part.1>
   15688:	d949                	beqz	a0,1561a <ediv+0xd0>
   1568a:	8526                	mv	a0,s1
   1568c:	af2ff0ef          	jal	ra,1497e <eisneg>
   15690:	84aa                	mv	s1,a0
   15692:	854a                	mv	a0,s2
   15694:	aeaff0ef          	jal	ra,1497e <eisneg>
   15698:	26a48263          	beq	s1,a0,158fc <ediv+0x3b2>
   1569c:	77e1                	lui	a5,0xffff8
   1569e:	00f41923          	sh	a5,18(s0)
   156a2:	01240713          	addi	a4,s0,18
   156a6:	87a2                	mv	a5,s0
   156a8:	0789                	addi	a5,a5,2
   156aa:	fe079f23          	sh	zero,-2(a5) # ffffffffffff7ffe <__BSS_END__+0xfffffffffffd886e>
   156ae:	fee79de3          	bne	a5,a4,156a8 <ediv+0x15e>
   156b2:	01245783          	lhu	a5,18(s0)
   156b6:	6721                	lui	a4,0x8
   156b8:	177d                	addi	a4,a4,-1
   156ba:	8fd9                	or	a5,a5,a4
   156bc:	00f41923          	sh	a5,18(s0)
   156c0:	bf29                	j	155da <ediv+0x90>
   156c2:	e45e                	sd	s7,8(sp)
   156c4:	8726                	mv	a4,s1
   156c6:	e026                	sd	s1,0(sp)
   156c8:	085c                	addi	a5,sp,20
   156ca:	1034                	addi	a3,sp,40
   156cc:	ef09                	bnez	a4,156e6 <ediv+0x19c>
   156ce:	1ef68863          	beq	a3,a5,158be <ediv+0x374>
   156d2:	0789                	addi	a5,a5,2
   156d4:	ffe7d703          	lhu	a4,-2(a5)
   156d8:	db7d                	beqz	a4,156ce <ediv+0x184>
   156da:	0808                	addi	a0,sp,16
   156dc:	da6ff0ef          	jal	ra,14c82 <enormlz>
   156e0:	40a487b3          	sub	a5,s1,a0
   156e4:	e03e                	sd	a5,0(sp)
   156e6:	5742                	lw	a4,48(sp)
   156e8:	038b0d13          	addi	s10,s6,56
   156ec:	87ea                	mv	a5,s10
   156ee:	02eb2a23          	sw	a4,52(s6)
   156f2:	04eb0493          	addi	s1,s6,78
   156f6:	0789                	addi	a5,a5,2
   156f8:	fe079f23          	sh	zero,-2(a5)
   156fc:	fe979de3          	bne	a5,s1,156f6 <ediv+0x1ac>
   15700:	1808                	addi	a0,sp,48
   15702:	91aff0ef          	jal	ra,1481c <eshdn1>
   15706:	01615c03          	lhu	s8,22(sp)
   1570a:	69c1                	lui	s3,0x10
   1570c:	04810b93          	addi	s7,sp,72
   15710:	010c1a13          	slli	s4,s8,0x10
   15714:	418a0a33          	sub	s4,s4,s8
   15718:	03210a93          	addi	s5,sp,50
   1571c:	19fd                	addi	s3,s3,-1
   1571e:	06a10c93          	addi	s9,sp,106
   15722:	05210913          	addi	s2,sp,82
   15726:	03415503          	lhu	a0,52(sp)
   1572a:	03615783          	lhu	a5,54(sp)
   1572e:	8dce                	mv	s11,s3
   15730:	0542                	slli	a0,a0,0x10
   15732:	953e                	add	a0,a0,a5
   15734:	00aa6863          	bltu	s4,a0,15744 <ediv+0x1fa>
   15738:	03855533          	divu	a0,a0,s8
   1573c:	03051d93          	slli	s11,a0,0x30
   15740:	030ddd93          	srli	s11,s11,0x30
   15744:	0890                	addi	a2,sp,80
   15746:	080c                	addi	a1,sp,16
   15748:	856e                	mv	a0,s11
   1574a:	978ff0ef          	jal	ra,148c2 <m16m>
   1574e:	1850                	addi	a2,sp,52
   15750:	08dc                	addi	a5,sp,84
   15752:	0789                	addi	a5,a5,2
   15754:	0609                	addi	a2,a2,2
   15756:	ffe7d503          	lhu	a0,-2(a5)
   1575a:	ffe65583          	lhu	a1,-2(a2)
   1575e:	0cb51563          	bne	a0,a1,15828 <ediv+0x2de>
   15762:	ff9798e3          	bne	a5,s9,15752 <ediv+0x208>
   15766:	4501                	li	a0,0
   15768:	10ac                	addi	a1,sp,104
   1576a:	865e                	mv	a2,s7
   1576c:	00065783          	lhu	a5,0(a2)
   15770:	0005d803          	lhu	a6,0(a1)
   15774:	1679                	addi	a2,a2,-2
   15776:	8f89                	sub	a5,a5,a0
   15778:	410787b3          	sub	a5,a5,a6
   1577c:	00f61123          	sh	a5,2(a2)
   15780:	83c1                	srli	a5,a5,0x10
   15782:	15f9                	addi	a1,a1,-2
   15784:	0017f513          	andi	a0,a5,1
   15788:	ff5612e3          	bne	a2,s5,1576c <ediv+0x222>
   1578c:	01bd1023          	sh	s11,0(s10)
   15790:	185c                	addi	a5,sp,52
   15792:	0789                	addi	a5,a5,2
   15794:	0007d603          	lhu	a2,0(a5)
   15798:	fec79f23          	sh	a2,-2(a5)
   1579c:	ff779be3          	bne	a5,s7,15792 <ediv+0x248>
   157a0:	04011423          	sh	zero,72(sp)
   157a4:	0d09                	addi	s10,s10,2
   157a6:	f9a490e3          	bne	s1,s10,15726 <ediv+0x1dc>
   157aa:	4581                	li	a1,0
   157ac:	185c                	addi	a5,sp,52
   157ae:	04a10693          	addi	a3,sp,74
   157b2:	0789                	addi	a5,a5,2
   157b4:	ffe7d703          	lhu	a4,-2(a5)
   157b8:	8dd9                	or	a1,a1,a4
   157ba:	fed79ce3          	bne	a5,a3,157b2 <ediv+0x268>
   157be:	2581                	sext.w	a1,a1
   157c0:	00b035b3          	snez	a1,a1
   157c4:	034b0713          	addi	a4,s6,52
   157c8:	181c                	addi	a5,sp,48
   157ca:	00075603          	lhu	a2,0(a4) # 8000 <register_fini-0x80b0>
   157ce:	0789                	addi	a5,a5,2
   157d0:	0709                	addi	a4,a4,2
   157d2:	fec79f23          	sh	a2,-2(a5)
   157d6:	fef69ae3          	bne	a3,a5,157ca <ediv+0x280>
   157da:	67a2                	ld	a5,8(sp)
   157dc:	6702                	ld	a4,0(sp)
   157de:	6691                	lui	a3,0x4
   157e0:	16fd                	addi	a3,a3,-1
   157e2:	40e78bb3          	sub	s7,a5,a4
   157e6:	96de                	add	a3,a3,s7
   157e8:	87da                	mv	a5,s6
   157ea:	04000713          	li	a4,64
   157ee:	4601                	li	a2,0
   157f0:	1808                	addi	a0,sp,48
   157f2:	db0ff0ef          	jal	ra,14da2 <emdnorm>
   157f6:	01015703          	lhu	a4,16(sp)
   157fa:	03015783          	lhu	a5,48(sp)
   157fe:	0ef70963          	beq	a4,a5,158f0 <ediv+0x3a6>
   15802:	57fd                	li	a5,-1
   15804:	02f11823          	sh	a5,48(sp)
   15808:	85a2                	mv	a1,s0
   1580a:	1808                	addi	a0,sp,48
   1580c:	9a9ff0ef          	jal	ra,151b4 <emovo.isra.6>
   15810:	b3e9                	j	155da <ediv+0x90>
   15812:	01448713          	addi	a4,s1,20
   15816:	0489                	addi	s1,s1,2
   15818:	ffe4d783          	lhu	a5,-2(s1)
   1581c:	0409                	addi	s0,s0,2
   1581e:	fef41f23          	sh	a5,-2(s0)
   15822:	fe971ae3          	bne	a4,s1,15816 <ediv+0x2cc>
   15826:	bb55                	j	155da <ediv+0x90>
   15828:	f2a5ffe3          	bgeu	a1,a0,15766 <ediv+0x21c>
   1582c:	fffd879b          	addiw	a5,s11,-1
   15830:	03079893          	slli	a7,a5,0x30
   15834:	0308d893          	srli	a7,a7,0x30
   15838:	4501                	li	a0,0
   1583a:	102c                	addi	a1,sp,40
   1583c:	10b0                	addi	a2,sp,104
   1583e:	00065783          	lhu	a5,0(a2)
   15842:	0005d803          	lhu	a6,0(a1)
   15846:	1679                	addi	a2,a2,-2
   15848:	8f89                	sub	a5,a5,a0
   1584a:	410787b3          	sub	a5,a5,a6
   1584e:	00f61123          	sh	a5,2(a2)
   15852:	83c1                	srli	a5,a5,0x10
   15854:	15f9                	addi	a1,a1,-2
   15856:	0017f513          	andi	a0,a5,1
   1585a:	ff2612e3          	bne	a2,s2,1583e <ediv+0x2f4>
   1585e:	1850                	addi	a2,sp,52
   15860:	08dc                	addi	a5,sp,84
   15862:	0789                	addi	a5,a5,2
   15864:	0609                	addi	a2,a2,2
   15866:	ffe7d503          	lhu	a0,-2(a5)
   1586a:	ffe65583          	lhu	a1,-2(a2)
   1586e:	00b51663          	bne	a0,a1,1587a <ediv+0x330>
   15872:	ff9798e3          	bne	a5,s9,15862 <ediv+0x318>
   15876:	8dc6                	mv	s11,a7
   15878:	b5fd                	j	15766 <ediv+0x21c>
   1587a:	fea5fee3          	bgeu	a1,a0,15876 <ediv+0x32c>
   1587e:	3df9                	addiw	s11,s11,-2
   15880:	1dc2                	slli	s11,s11,0x30
   15882:	030ddd93          	srli	s11,s11,0x30
   15886:	4501                	li	a0,0
   15888:	102c                	addi	a1,sp,40
   1588a:	10b0                	addi	a2,sp,104
   1588c:	00065783          	lhu	a5,0(a2)
   15890:	0005d803          	lhu	a6,0(a1)
   15894:	1679                	addi	a2,a2,-2
   15896:	8f89                	sub	a5,a5,a0
   15898:	410787b3          	sub	a5,a5,a6
   1589c:	00f61123          	sh	a5,2(a2)
   158a0:	83c1                	srli	a5,a5,0x10
   158a2:	15f9                	addi	a1,a1,-2
   158a4:	0017f513          	andi	a0,a5,1
   158a8:	ff2612e3          	bne	a2,s2,1588c <ediv+0x342>
   158ac:	bd6d                	j	15766 <ediv+0x21c>
   158ae:	01440793          	addi	a5,s0,20
   158b2:	0409                	addi	s0,s0,2
   158b4:	fe041f23          	sh	zero,-2(s0)
   158b8:	fe879de3          	bne	a5,s0,158b2 <ediv+0x368>
   158bc:	bb39                	j	155da <ediv+0x90>
   158be:	01015703          	lhu	a4,16(sp)
   158c2:	03015783          	lhu	a5,48(sp)
   158c6:	02f70863          	beq	a4,a5,158f6 <ediv+0x3ac>
   158ca:	77e1                	lui	a5,0xffff8
   158cc:	00f41923          	sh	a5,18(s0)
   158d0:	01240713          	addi	a4,s0,18
   158d4:	87a2                	mv	a5,s0
   158d6:	0789                	addi	a5,a5,2
   158d8:	fe079f23          	sh	zero,-2(a5) # ffffffffffff7ffe <__BSS_END__+0xfffffffffffd886e>
   158dc:	fee79de3          	bne	a5,a4,158d6 <ediv+0x38c>
   158e0:	01245783          	lhu	a5,18(s0)
   158e4:	6721                	lui	a4,0x8
   158e6:	177d                	addi	a4,a4,-1
   158e8:	8fd9                	or	a5,a5,a4
   158ea:	00f41923          	sh	a5,18(s0)
   158ee:	b1f5                	j	155da <ediv+0x90>
   158f0:	02011823          	sh	zero,48(sp)
   158f4:	bf11                	j	15808 <ediv+0x2be>
   158f6:	00041923          	sh	zero,18(s0)
   158fa:	bfd9                	j	158d0 <ediv+0x386>
   158fc:	00041923          	sh	zero,18(s0)
   15900:	b34d                	j	156a2 <ediv+0x158>

0000000000015902 <e113toe.isra.8>:
   15902:	7179                	addi	sp,sp,-48
   15904:	f022                	sd	s0,32(sp)
   15906:	f406                	sd	ra,40(sp)
   15908:	842e                	mv	s0,a1
   1590a:	878a                	mv	a5,sp
   1590c:	01a10713          	addi	a4,sp,26
   15910:	0789                	addi	a5,a5,2
   15912:	fe079f23          	sh	zero,-2(a5)
   15916:	fee79de3          	bne	a5,a4,15910 <e113toe.isra.8+0xe>
   1591a:	00e55603          	lhu	a2,14(a0)
   1591e:	0106179b          	slliw	a5,a2,0x10
   15922:	4107d79b          	sraiw	a5,a5,0x10
   15926:	02079713          	slli	a4,a5,0x20
   1592a:	04074a63          	bltz	a4,1597e <e113toe.isra.8+0x7c>
   1592e:	67a1                	lui	a5,0x8
   15930:	17fd                	addi	a5,a5,-1
   15932:	00011023          	sh	zero,0(sp)
   15936:	8e7d                	and	a2,a2,a5
   15938:	04f60b63          	beq	a2,a5,1598e <e113toe.isra.8+0x8c>
   1593c:	00e50793          	addi	a5,a0,14
   15940:	00c11123          	sh	a2,2(sp)
   15944:	00610713          	addi	a4,sp,6
   15948:	17f9                	addi	a5,a5,-2
   1594a:	0007d683          	lhu	a3,0(a5) # 8000 <register_fini-0x80b0>
   1594e:	0709                	addi	a4,a4,2
   15950:	fed71f23          	sh	a3,-2(a4) # 7ffe <register_fini-0x80b2>
   15954:	fef51ae3          	bne	a0,a5,15948 <e113toe.isra.8+0x46>
   15958:	ea19                	bnez	a2,1596e <e113toe.isra.8+0x6c>
   1595a:	00011223          	sh	zero,4(sp)
   1595e:	85a2                	mv	a1,s0
   15960:	850a                	mv	a0,sp
   15962:	853ff0ef          	jal	ra,151b4 <emovo.isra.6>
   15966:	70a2                	ld	ra,40(sp)
   15968:	7402                	ld	s0,32(sp)
   1596a:	6145                	addi	sp,sp,48
   1596c:	8082                	ret
   1596e:	4785                	li	a5,1
   15970:	55fd                	li	a1,-1
   15972:	850a                	mv	a0,sp
   15974:	00f11223          	sh	a5,4(sp)
   15978:	9d0ff0ef          	jal	ra,14b48 <eshift.part.3>
   1597c:	b7cd                	j	1595e <e113toe.isra.8+0x5c>
   1597e:	57fd                	li	a5,-1
   15980:	00f11023          	sh	a5,0(sp)
   15984:	67a1                	lui	a5,0x8
   15986:	17fd                	addi	a5,a5,-1
   15988:	8e7d                	and	a2,a2,a5
   1598a:	faf619e3          	bne	a2,a5,1593c <e113toe.isra.8+0x3a>
   1598e:	87aa                	mv	a5,a0
   15990:	00e50693          	addi	a3,a0,14
   15994:	0007d703          	lhu	a4,0(a5) # 8000 <register_fini-0x80b0>
   15998:	0789                	addi	a5,a5,2
   1599a:	e331                	bnez	a4,159de <e113toe.isra.8+0xdc>
   1599c:	fef69ce3          	bne	a3,a5,15994 <e113toe.isra.8+0x92>
   159a0:	01440713          	addi	a4,s0,20
   159a4:	87a2                	mv	a5,s0
   159a6:	0789                	addi	a5,a5,2
   159a8:	fe079f23          	sh	zero,-2(a5)
   159ac:	fee79de3          	bne	a5,a4,159a6 <e113toe.isra.8+0xa4>
   159b0:	01240713          	addi	a4,s0,18
   159b4:	87a2                	mv	a5,s0
   159b6:	0789                	addi	a5,a5,2
   159b8:	fe079f23          	sh	zero,-2(a5)
   159bc:	fee79de3          	bne	a5,a4,159b6 <e113toe.isra.8+0xb4>
   159c0:	01245783          	lhu	a5,18(s0)
   159c4:	6721                	lui	a4,0x8
   159c6:	177d                	addi	a4,a4,-1
   159c8:	8fd9                	or	a5,a5,a4
   159ca:	00f41923          	sh	a5,18(s0)
   159ce:	00e51783          	lh	a5,14(a0)
   159d2:	f807dae3          	bgez	a5,15966 <e113toe.isra.8+0x64>
   159d6:	8522                	mv	a0,s0
   159d8:	f77fe0ef          	jal	ra,1494e <eneg>
   159dc:	b769                	j	15966 <e113toe.isra.8+0x64>
   159de:	01040713          	addi	a4,s0,16
   159e2:	87a2                	mv	a5,s0
   159e4:	0789                	addi	a5,a5,2
   159e6:	fe079f23          	sh	zero,-2(a5)
   159ea:	fee79de3          	bne	a5,a4,159e4 <e113toe.isra.8+0xe2>
   159ee:	7fffc7b7          	lui	a5,0x7fffc
   159f2:	c81c                	sw	a5,16(s0)
   159f4:	bf8d                	j	15966 <e113toe.isra.8+0x64>

00000000000159f6 <_ldtoa_r>:
   159f6:	09100313          	li	t1,145
   159fa:	1302                	slli	t1,t1,0x20
   159fc:	06053e03          	ld	t3,96(a0)
   15a00:	d9010113          	addi	sp,sp,-624
   15a04:	137d                	addi	t1,t1,-1
   15a06:	26813023          	sd	s0,608(sp)
   15a0a:	23613823          	sd	s6,560(sp)
   15a0e:	26113423          	sd	ra,616(sp)
   15a12:	24913c23          	sd	s1,600(sp)
   15a16:	25213823          	sd	s2,592(sp)
   15a1a:	25313423          	sd	s3,584(sp)
   15a1e:	25413023          	sd	s4,576(sp)
   15a22:	23513c23          	sd	s5,568(sp)
   15a26:	23713423          	sd	s7,552(sp)
   15a2a:	23813023          	sd	s8,544(sp)
   15a2e:	21913c23          	sd	s9,536(sp)
   15a32:	21a13823          	sd	s10,528(sp)
   15a36:	21b13423          	sd	s11,520(sp)
   15a3a:	f0ae                	sd	a1,96(sp)
   15a3c:	f4b2                	sd	a2,104(sp)
   15a3e:	fb1a                	sd	t1,432(sp)
   15a40:	e436                	sd	a3,8(sp)
   15a42:	ec3a                	sd	a4,24(sp)
   15a44:	f03e                	sd	a5,32(sp)
   15a46:	fc46                	sd	a7,56(sp)
   15a48:	8b2a                	mv	s6,a0
   15a4a:	8442                	mv	s0,a6
   15a4c:	000e0f63          	beqz	t3,15a6a <_ldtoa_r+0x74>
   15a50:	5538                	lw	a4,104(a0)
   15a52:	4785                	li	a5,1
   15a54:	85f2                	mv	a1,t3
   15a56:	00e797bb          	sllw	a5,a5,a4
   15a5a:	00ee2423          	sw	a4,8(t3) # 10008 <register_fini-0xa8>
   15a5e:	00fe2623          	sw	a5,12(t3)
   15a62:	03a010ef          	jal	ra,16a9c <_Bfree>
   15a66:	060b3023          	sd	zero,96(s6)
   15a6a:	1088                	addi	a0,sp,96
   15a6c:	090c                	addi	a1,sp,144
   15a6e:	e95ff0ef          	jal	ra,15902 <e113toe.isra.8>
   15a72:	0908                	addi	a0,sp,144
   15a74:	f0bfe0ef          	jal	ra,1497e <eisneg>
   15a78:	18050863          	beqz	a0,15c08 <_ldtoa_r+0x212>
   15a7c:	6722                	ld	a4,8(sp)
   15a7e:	4785                	li	a5,1
   15a80:	c01c                	sw	a5,0(s0)
   15a82:	478d                	li	a5,3
   15a84:	18f70863          	beq	a4,a5,15c14 <_ldtoa_r+0x21e>
   15a88:	47d1                	li	a5,20
   15a8a:	e83e                	sd	a5,16(sp)
   15a8c:	2e071be3          	bnez	a4,16582 <_ldtoa_r+0xb8c>
   15a90:	0a215783          	lhu	a5,162(sp)
   15a94:	1b412703          	lw	a4,436(sp)
   15a98:	fff7c793          	not	a5,a5
   15a9c:	f83a                	sd	a4,48(sp)
   15a9e:	03179713          	slli	a4,a5,0x31
   15aa2:	e711                	bnez	a4,15aae <_ldtoa_r+0xb8>
   15aa4:	0908                	addi	a0,sp,144
   15aa6:	e91fe0ef          	jal	ra,14936 <eisnan.part.0>
   15aaa:	16051ce3          	bnez	a0,16422 <_ldtoa_r+0xa2c>
   15aae:	09000793          	li	a5,144
   15ab2:	1af12a23          	sw	a5,436(sp)
   15ab6:	1918                	addi	a4,sp,176
   15ab8:	091c                	addi	a5,sp,144
   15aba:	1150                	addi	a2,sp,164
   15abc:	0789                	addi	a5,a5,2
   15abe:	ffe7d683          	lhu	a3,-2(a5) # 7fffbffe <__BSS_END__+0x7ffdc86e>
   15ac2:	0709                	addi	a4,a4,2
   15ac4:	fed71f23          	sh	a3,-2(a4) # 7ffe <register_fini-0x80b2>
   15ac8:	fec79ae3          	bne	a5,a2,15abc <_ldtoa_r+0xc6>
   15acc:	0c215603          	lhu	a2,194(sp)
   15ad0:	f402                	sd	zero,40(sp)
   15ad2:	0106179b          	slliw	a5,a2,0x10
   15ad6:	4107d79b          	sraiw	a5,a5,0x10
   15ada:	02079713          	slli	a4,a5,0x20
   15ade:	00075963          	bgez	a4,15af0 <_ldtoa_r+0xfa>
   15ae2:	1646                	slli	a2,a2,0x31
   15ae4:	67c1                	lui	a5,0x10
   15ae6:	9245                	srli	a2,a2,0x31
   15ae8:	17fd                	addi	a5,a5,-1
   15aea:	0cc11123          	sh	a2,194(sp)
   15aee:	f43e                	sd	a5,40(sp)
   15af0:	6a75                	lui	s4,0x1d
   15af2:	ab0a0b93          	addi	s7,s4,-1360 # 1cab0 <ezero>
   15af6:	018b8a93          	addi	s5,s7,24
   15afa:	4681                	li	a3,0
   15afc:	099c                	addi	a5,sp,208
   15afe:	8756                	mv	a4,s5
   15b00:	0e410993          	addi	s3,sp,228
   15b04:	a019                	j	15b0a <_ldtoa_r+0x114>
   15b06:	00075683          	lhu	a3,0(a4)
   15b0a:	0789                	addi	a5,a5,2
   15b0c:	fed79f23          	sh	a3,-2(a5) # fffe <register_fini-0xb2>
   15b10:	0709                	addi	a4,a4,2
   15b12:	ff379ae3          	bne	a5,s3,15b06 <_ldtoa_r+0x110>
   15b16:	10060b63          	beqz	a2,15c2c <_ldtoa_r+0x236>
   15b1a:	67a1                	lui	a5,0x8
   15b1c:	17fd                	addi	a5,a5,-1
   15b1e:	28f605e3          	beq	a2,a5,165a8 <_ldtoa_r+0xbb2>
   15b22:	0c011783          	lh	a5,192(sp)
   15b26:	2e07dce3          	bgez	a5,1661e <_ldtoa_r+0xc28>
   15b2a:	190c                	addi	a1,sp,176
   15b2c:	8556                	mv	a0,s5
   15b2e:	f41fe0ef          	jal	ra,14a6e <ecmp>
   15b32:	10050763          	beqz	a0,15c40 <_ldtoa_r+0x24a>
   15b36:	70054c63          	bltz	a0,1624e <_ldtoa_r+0x858>
   15b3a:	0c215783          	lhu	a5,194(sp)
   15b3e:	34079ee3          	bnez	a5,1669a <_ldtoa_r+0xca4>
   15b42:	0c011783          	lh	a5,192(sp)
   15b46:	4481                	li	s1,0
   15b48:	1b010913          	addi	s2,sp,432
   15b4c:	0007cf63          	bltz	a5,15b6a <_ldtoa_r+0x174>
   15b50:	120b8413          	addi	s0,s7,288
   15b54:	1910                	addi	a2,sp,176
   15b56:	86ca                	mv	a3,s2
   15b58:	85b2                	mv	a1,a2
   15b5a:	8522                	mv	a0,s0
   15b5c:	eeaff0ef          	jal	ra,15246 <emul>
   15b60:	0c011783          	lh	a5,192(sp)
   15b64:	34fd                	addiw	s1,s1,-1
   15b66:	fe07d7e3          	bgez	a5,15b54 <_ldtoa_r+0x15e>
   15b6a:	0a00                	addi	s0,sp,272
   15b6c:	12810c13          	addi	s8,sp,296
   15b70:	8722                	mv	a4,s0
   15b72:	191c                	addi	a5,sp,176
   15b74:	01d0                	addi	a2,sp,196
   15b76:	0789                	addi	a5,a5,2
   15b78:	ffe7d683          	lhu	a3,-2(a5) # 7ffe <register_fini-0x80b2>
   15b7c:	0709                	addi	a4,a4,2
   15b7e:	fed71f23          	sh	a3,-2(a4)
   15b82:	fec79ae3          	bne	a5,a2,15b76 <_ldtoa_r+0x180>
   15b86:	4681                	li	a3,0
   15b88:	099c                	addi	a5,sp,208
   15b8a:	8756                	mv	a4,s5
   15b8c:	a019                	j	15b92 <_ldtoa_r+0x19c>
   15b8e:	00075683          	lhu	a3,0(a4)
   15b92:	0789                	addi	a5,a5,2
   15b94:	fed79f23          	sh	a3,-2(a5)
   15b98:	0709                	addi	a4,a4,2
   15b9a:	ff379ae3          	bne	a5,s3,15b8e <_ldtoa_r+0x198>
   15b9e:	030b8d13          	addi	s10,s7,48
   15ba2:	138b8993          	addi	s3,s7,312
   15ba6:	7dfd                	lui	s11,0xfffff
   15ba8:	120b8b93          	addi	s7,s7,288
   15bac:	a019                	j	15bb2 <_ldtoa_r+0x1bc>
   15bae:	09d1                	addi	s3,s3,20
   15bb0:	0d51                	addi	s10,s10,20
   15bb2:	85a2                	mv	a1,s0
   15bb4:	8556                	mv	a0,s5
   15bb6:	eb9fe0ef          	jal	ra,14a6e <ecmp>
   15bba:	85a2                	mv	a1,s0
   15bbc:	02a05d63          	blez	a0,15bf6 <_ldtoa_r+0x200>
   15bc0:	854e                	mv	a0,s3
   15bc2:	eadfe0ef          	jal	ra,14a6e <ecmp>
   15bc6:	86ca                	mv	a3,s2
   15bc8:	8622                	mv	a2,s0
   15bca:	85a2                	mv	a1,s0
   15bcc:	00054d63          	bltz	a0,15be6 <_ldtoa_r+0x1f0>
   15bd0:	856a                	mv	a0,s10
   15bd2:	e74ff0ef          	jal	ra,15246 <emul>
   15bd6:	0990                	addi	a2,sp,208
   15bd8:	86ca                	mv	a3,s2
   15bda:	85b2                	mv	a1,a2
   15bdc:	856a                	mv	a0,s10
   15bde:	e68ff0ef          	jal	ra,15246 <emul>
   15be2:	009d84bb          	addw	s1,s11,s1
   15be6:	01fdd79b          	srliw	a5,s11,0x1f
   15bea:	01b78dbb          	addw	s11,a5,s11
   15bee:	401ddd9b          	sraiw	s11,s11,0x1
   15bf2:	fb7d1ee3          	bne	s10,s7,15bae <_ldtoa_r+0x1b8>
   15bf6:	0990                	addi	a2,sp,208
   15bf8:	86ca                	mv	a3,s2
   15bfa:	85d6                	mv	a1,s5
   15bfc:	8532                	mv	a0,a2
   15bfe:	94dff0ef          	jal	ra,1554a <ediv>
   15c02:	17010d13          	addi	s10,sp,368
   15c06:	a0a9                	j	15c50 <_ldtoa_r+0x25a>
   15c08:	6722                	ld	a4,8(sp)
   15c0a:	00042023          	sw	zero,0(s0)
   15c0e:	478d                	li	a5,3
   15c10:	e6f71ce3          	bne	a4,a5,15a88 <_ldtoa_r+0x92>
   15c14:	67e2                	ld	a5,24(sp)
   15c16:	02a00713          	li	a4,42
   15c1a:	8cbe                	mv	s9,a5
   15c1c:	00f75463          	bge	a4,a5,15c24 <_ldtoa_r+0x22e>
   15c20:	02a00c93          	li	s9,42
   15c24:	000c879b          	sext.w	a5,s9
   15c28:	e83e                	sd	a5,16(sp)
   15c2a:	b59d                	j	15a90 <_ldtoa_r+0x9a>
   15c2c:	191c                	addi	a5,sp,176
   15c2e:	0c210693          	addi	a3,sp,194
   15c32:	0007d703          	lhu	a4,0(a5)
   15c36:	0789                	addi	a5,a5,2
   15c38:	ee0719e3          	bnez	a4,15b2a <_ldtoa_r+0x134>
   15c3c:	fef69be3          	bne	a3,a5,15c32 <_ldtoa_r+0x23c>
   15c40:	4481                	li	s1,0
   15c42:	17010d13          	addi	s10,sp,368
   15c46:	1b010913          	addi	s2,sp,432
   15c4a:	0a00                	addi	s0,sp,272
   15c4c:	12810c13          	addi	s8,sp,296
   15c50:	85a2                	mv	a1,s0
   15c52:	0988                	addi	a0,sp,208
   15c54:	d55fe0ef          	jal	ra,149a8 <emovi>
   15c58:	0998                	addi	a4,sp,208
   15c5a:	87a2                	mv	a5,s0
   15c5c:	0789                	addi	a5,a5,2
   15c5e:	ffe7d683          	lhu	a3,-2(a5)
   15c62:	0709                	addi	a4,a4,2
   15c64:	fed71f23          	sh	a3,-2(a4)
   15c68:	ff879ae3          	bne	a5,s8,15c5c <_ldtoa_r+0x266>
   15c6c:	85a2                	mv	a1,s0
   15c6e:	1908                	addi	a0,sp,176
   15c70:	0e011423          	sh	zero,232(sp)
   15c74:	d35fe0ef          	jal	ra,149a8 <emovi>
   15c78:	191c                	addi	a5,sp,176
   15c7a:	0409                	addi	s0,s0,2
   15c7c:	ffe45703          	lhu	a4,-2(s0)
   15c80:	0789                	addi	a5,a5,2
   15c82:	fee79f23          	sh	a4,-2(a5)
   15c86:	ff841ae3          	bne	s0,s8,15c7a <_ldtoa_r+0x284>
   15c8a:	864a                	mv	a2,s2
   15c8c:	190c                	addi	a1,sp,176
   15c8e:	0988                	addi	a0,sp,208
   15c90:	0c011423          	sh	zero,200(sp)
   15c94:	c2cff0ef          	jal	ra,150c0 <eiremain>
   15c98:	1fc15a83          	lhu	s5,508(sp)
   15c9c:	160a9663          	bnez	s5,15e08 <_ldtoa_r+0x412>
   15ca0:	0c810d93          	addi	s11,sp,200
   15ca4:	0b210413          	addi	s0,sp,178
   15ca8:	0f210b93          	addi	s7,sp,242
   15cac:	ab0a0593          	addi	a1,s4,-1360
   15cb0:	1908                	addi	a0,sp,176
   15cb2:	dbdfe0ef          	jal	ra,14a6e <ecmp>
   15cb6:	14050963          	beqz	a0,15e08 <_ldtoa_r+0x412>
   15cba:	4701                	li	a4,0
   15cbc:	86ee                	mv	a3,s11
   15cbe:	a811                	j	15cd2 <_ldtoa_r+0x2dc>
   15cc0:	0017171b          	slliw	a4,a4,0x1
   15cc4:	00f69023          	sh	a5,0(a3) # 4000 <register_fini-0xc0b0>
   15cc8:	1742                	slli	a4,a4,0x30
   15cca:	16f9                	addi	a3,a3,-2
   15ccc:	9341                	srli	a4,a4,0x30
   15cce:	04868063          	beq	a3,s0,15d0e <_ldtoa_r+0x318>
   15cd2:	0006d783          	lhu	a5,0(a3)
   15cd6:	0107961b          	slliw	a2,a5,0x10
   15cda:	4106561b          	sraiw	a2,a2,0x10
   15cde:	02061593          	slli	a1,a2,0x20
   15ce2:	0017979b          	slliw	a5,a5,0x1
   15ce6:	0005d463          	bgez	a1,15cee <_ldtoa_r+0x2f8>
   15cea:	00176713          	ori	a4,a4,1
   15cee:	17c2                	slli	a5,a5,0x30
   15cf0:	93c1                	srli	a5,a5,0x30
   15cf2:	00277613          	andi	a2,a4,2
   15cf6:	0017e593          	ori	a1,a5,1
   15cfa:	d279                	beqz	a2,15cc0 <_ldtoa_r+0x2ca>
   15cfc:	0017171b          	slliw	a4,a4,0x1
   15d00:	00b69023          	sh	a1,0(a3)
   15d04:	1742                	slli	a4,a4,0x30
   15d06:	16f9                	addi	a3,a3,-2
   15d08:	9341                	srli	a4,a4,0x30
   15d0a:	fc8694e3          	bne	a3,s0,15cd2 <_ldtoa_r+0x2dc>
   15d0e:	1998                	addi	a4,sp,240
   15d10:	191c                	addi	a5,sp,176
   15d12:	0789                	addi	a5,a5,2
   15d14:	ffe7d683          	lhu	a3,-2(a5)
   15d18:	0709                	addi	a4,a4,2
   15d1a:	fed71f23          	sh	a3,-2(a4)
   15d1e:	ffb79ae3          	bne	a5,s11,15d12 <_ldtoa_r+0x31c>
   15d22:	10011423          	sh	zero,264(sp)
   15d26:	4701                	li	a4,0
   15d28:	0234                	addi	a3,sp,264
   15d2a:	a811                	j	15d3e <_ldtoa_r+0x348>
   15d2c:	0017171b          	slliw	a4,a4,0x1
   15d30:	00f69023          	sh	a5,0(a3)
   15d34:	1742                	slli	a4,a4,0x30
   15d36:	16f9                	addi	a3,a3,-2
   15d38:	9341                	srli	a4,a4,0x30
   15d3a:	05768063          	beq	a3,s7,15d7a <_ldtoa_r+0x384>
   15d3e:	0006d783          	lhu	a5,0(a3)
   15d42:	0107961b          	slliw	a2,a5,0x10
   15d46:	4106561b          	sraiw	a2,a2,0x10
   15d4a:	02061593          	slli	a1,a2,0x20
   15d4e:	0017979b          	slliw	a5,a5,0x1
   15d52:	0005d463          	bgez	a1,15d5a <_ldtoa_r+0x364>
   15d56:	00176713          	ori	a4,a4,1
   15d5a:	17c2                	slli	a5,a5,0x30
   15d5c:	93c1                	srli	a5,a5,0x30
   15d5e:	00277613          	andi	a2,a4,2
   15d62:	0017e593          	ori	a1,a5,1
   15d66:	d279                	beqz	a2,15d2c <_ldtoa_r+0x336>
   15d68:	0017171b          	slliw	a4,a4,0x1
   15d6c:	00b69023          	sh	a1,0(a3)
   15d70:	1742                	slli	a4,a4,0x30
   15d72:	16f9                	addi	a3,a3,-2
   15d74:	9341                	srli	a4,a4,0x30
   15d76:	fd7694e3          	bne	a3,s7,15d3e <_ldtoa_r+0x348>
   15d7a:	4701                	li	a4,0
   15d7c:	0234                	addi	a3,sp,264
   15d7e:	a811                	j	15d92 <_ldtoa_r+0x39c>
   15d80:	0017171b          	slliw	a4,a4,0x1
   15d84:	00f69023          	sh	a5,0(a3)
   15d88:	1742                	slli	a4,a4,0x30
   15d8a:	16f9                	addi	a3,a3,-2
   15d8c:	9341                	srli	a4,a4,0x30
   15d8e:	05768063          	beq	a3,s7,15dce <_ldtoa_r+0x3d8>
   15d92:	0006d783          	lhu	a5,0(a3)
   15d96:	0107961b          	slliw	a2,a5,0x10
   15d9a:	4106561b          	sraiw	a2,a2,0x10
   15d9e:	02061593          	slli	a1,a2,0x20
   15da2:	0017979b          	slliw	a5,a5,0x1
   15da6:	0005d463          	bgez	a1,15dae <_ldtoa_r+0x3b8>
   15daa:	00176713          	ori	a4,a4,1
   15dae:	17c2                	slli	a5,a5,0x30
   15db0:	93c1                	srli	a5,a5,0x30
   15db2:	00277613          	andi	a2,a4,2
   15db6:	0017e593          	ori	a1,a5,1
   15dba:	d279                	beqz	a2,15d80 <_ldtoa_r+0x38a>
   15dbc:	0017171b          	slliw	a4,a4,0x1
   15dc0:	00b69023          	sh	a1,0(a3)
   15dc4:	1742                	slli	a4,a4,0x30
   15dc6:	16f9                	addi	a3,a3,-2
   15dc8:	9341                	srli	a4,a4,0x30
   15dca:	fd7694e3          	bne	a3,s7,15d92 <_ldtoa_r+0x39c>
   15dce:	4601                	li	a2,0
   15dd0:	86ee                	mv	a3,s11
   15dd2:	0238                	addi	a4,sp,264
   15dd4:	0006d583          	lhu	a1,0(a3)
   15dd8:	00075783          	lhu	a5,0(a4)
   15ddc:	16f9                	addi	a3,a3,-2
   15dde:	1779                	addi	a4,a4,-2
   15de0:	97ae                	add	a5,a5,a1
   15de2:	97b2                	add	a5,a5,a2
   15de4:	00f69123          	sh	a5,2(a3)
   15de8:	83c1                	srli	a5,a5,0x10
   15dea:	0017f613          	andi	a2,a5,1
   15dee:	ff7713e3          	bne	a4,s7,15dd4 <_ldtoa_r+0x3de>
   15df2:	864a                	mv	a2,s2
   15df4:	190c                	addi	a1,sp,176
   15df6:	0988                	addi	a0,sp,208
   15df8:	ac8ff0ef          	jal	ra,150c0 <eiremain>
   15dfc:	1fc15783          	lhu	a5,508(sp)
   15e00:	34fd                	addiw	s1,s1,-1
   15e02:	ea0785e3          	beqz	a5,15cac <_ldtoa_r+0x2b6>
   15e06:	8abe                	mv	s5,a5
   15e08:	77a2                	ld	a5,40(sp)
   15e0a:	cb95                	beqz	a5,15e3e <_ldtoa_r+0x448>
   15e0c:	6722                	ld	a4,8(sp)
   15e0e:	02d00793          	li	a5,45
   15e12:	16f10823          	sb	a5,368(sp)
   15e16:	478d                	li	a5,3
   15e18:	6442                	ld	s0,16(sp)
   15e1a:	02f70b63          	beq	a4,a5,15e50 <_ldtoa_r+0x45a>
   15e1e:	47a9                	li	a5,10
   15e20:	7cfa8563          	beq	s5,a5,165ea <_ldtoa_r+0xbf4>
   15e24:	030a8a9b          	addiw	s5,s5,48
   15e28:	02e00793          	li	a5,46
   15e2c:	175108a3          	sb	s5,369(sp)
   15e30:	16f10923          	sb	a5,370(sp)
   15e34:	5e044063          	bltz	s0,16414 <_ldtoa_r+0xa1e>
   15e38:	17310a93          	addi	s5,sp,371
   15e3c:	a835                	j	15e78 <_ldtoa_r+0x482>
   15e3e:	6722                	ld	a4,8(sp)
   15e40:	02000793          	li	a5,32
   15e44:	16f10823          	sb	a5,368(sp)
   15e48:	478d                	li	a5,3
   15e4a:	6442                	ld	s0,16(sp)
   15e4c:	fcf719e3          	bne	a4,a5,15e1e <_ldtoa_r+0x428>
   15e50:	9c25                	addw	s0,s0,s1
   15e52:	02a00793          	li	a5,42
   15e56:	fc87d4e3          	bge	a5,s0,15e1e <_ldtoa_r+0x428>
   15e5a:	47a9                	li	a5,10
   15e5c:	76fa8563          	beq	s5,a5,165c6 <_ldtoa_r+0xbd0>
   15e60:	030a8a9b          	addiw	s5,s5,48
   15e64:	02e00793          	li	a5,46
   15e68:	175108a3          	sb	s5,369(sp)
   15e6c:	16f10923          	sb	a5,370(sp)
   15e70:	02a00413          	li	s0,42
   15e74:	17310a93          	addi	s5,sp,371
   15e78:	4c01                	li	s8,0
   15e7a:	0f010d93          	addi	s11,sp,240
   15e7e:	0c810c93          	addi	s9,sp,200
   15e82:	0b210993          	addi	s3,sp,178
   15e86:	0f210b93          	addi	s7,sp,242
   15e8a:	4601                	li	a2,0
   15e8c:	85e6                	mv	a1,s9
   15e8e:	a811                	j	15ea2 <_ldtoa_r+0x4ac>
   15e90:	0016161b          	slliw	a2,a2,0x1
   15e94:	00f59023          	sh	a5,0(a1)
   15e98:	1642                	slli	a2,a2,0x30
   15e9a:	15f9                	addi	a1,a1,-2
   15e9c:	9241                	srli	a2,a2,0x30
   15e9e:	05358063          	beq	a1,s3,15ede <_ldtoa_r+0x4e8>
   15ea2:	0005d783          	lhu	a5,0(a1)
   15ea6:	0107951b          	slliw	a0,a5,0x10
   15eaa:	4105551b          	sraiw	a0,a0,0x10
   15eae:	02051713          	slli	a4,a0,0x20
   15eb2:	0017979b          	slliw	a5,a5,0x1
   15eb6:	00075463          	bgez	a4,15ebe <_ldtoa_r+0x4c8>
   15eba:	00166613          	ori	a2,a2,1
   15ebe:	17c2                	slli	a5,a5,0x30
   15ec0:	93c1                	srli	a5,a5,0x30
   15ec2:	00267513          	andi	a0,a2,2
   15ec6:	0017e893          	ori	a7,a5,1
   15eca:	d179                	beqz	a0,15e90 <_ldtoa_r+0x49a>
   15ecc:	0016161b          	slliw	a2,a2,0x1
   15ed0:	01159023          	sh	a7,0(a1)
   15ed4:	1642                	slli	a2,a2,0x30
   15ed6:	15f9                	addi	a1,a1,-2
   15ed8:	9241                	srli	a2,a2,0x30
   15eda:	fd3594e3          	bne	a1,s3,15ea2 <_ldtoa_r+0x4ac>
   15ede:	866e                	mv	a2,s11
   15ee0:	191c                	addi	a5,sp,176
   15ee2:	0789                	addi	a5,a5,2
   15ee4:	ffe7d583          	lhu	a1,-2(a5)
   15ee8:	0609                	addi	a2,a2,2
   15eea:	feb61f23          	sh	a1,-2(a2)
   15eee:	ff979ae3          	bne	a5,s9,15ee2 <_ldtoa_r+0x4ec>
   15ef2:	10011423          	sh	zero,264(sp)
   15ef6:	4601                	li	a2,0
   15ef8:	022c                	addi	a1,sp,264
   15efa:	a811                	j	15f0e <_ldtoa_r+0x518>
   15efc:	0016161b          	slliw	a2,a2,0x1
   15f00:	00f59023          	sh	a5,0(a1)
   15f04:	1642                	slli	a2,a2,0x30
   15f06:	15f9                	addi	a1,a1,-2
   15f08:	9241                	srli	a2,a2,0x30
   15f0a:	05758063          	beq	a1,s7,15f4a <_ldtoa_r+0x554>
   15f0e:	0005d783          	lhu	a5,0(a1)
   15f12:	0107951b          	slliw	a0,a5,0x10
   15f16:	4105551b          	sraiw	a0,a0,0x10
   15f1a:	02051713          	slli	a4,a0,0x20
   15f1e:	0017979b          	slliw	a5,a5,0x1
   15f22:	00075463          	bgez	a4,15f2a <_ldtoa_r+0x534>
   15f26:	00166613          	ori	a2,a2,1
   15f2a:	17c2                	slli	a5,a5,0x30
   15f2c:	93c1                	srli	a5,a5,0x30
   15f2e:	00267513          	andi	a0,a2,2
   15f32:	0017e893          	ori	a7,a5,1
   15f36:	d179                	beqz	a0,15efc <_ldtoa_r+0x506>
   15f38:	0016161b          	slliw	a2,a2,0x1
   15f3c:	01159023          	sh	a7,0(a1)
   15f40:	1642                	slli	a2,a2,0x30
   15f42:	15f9                	addi	a1,a1,-2
   15f44:	9241                	srli	a2,a2,0x30
   15f46:	fd7594e3          	bne	a1,s7,15f0e <_ldtoa_r+0x518>
   15f4a:	4601                	li	a2,0
   15f4c:	022c                	addi	a1,sp,264
   15f4e:	a811                	j	15f62 <_ldtoa_r+0x56c>
   15f50:	0016161b          	slliw	a2,a2,0x1
   15f54:	00f59023          	sh	a5,0(a1)
   15f58:	1642                	slli	a2,a2,0x30
   15f5a:	15f9                	addi	a1,a1,-2
   15f5c:	9241                	srli	a2,a2,0x30
   15f5e:	05758063          	beq	a1,s7,15f9e <_ldtoa_r+0x5a8>
   15f62:	0005d783          	lhu	a5,0(a1)
   15f66:	0107951b          	slliw	a0,a5,0x10
   15f6a:	4105551b          	sraiw	a0,a0,0x10
   15f6e:	02051713          	slli	a4,a0,0x20
   15f72:	0017979b          	slliw	a5,a5,0x1
   15f76:	00075463          	bgez	a4,15f7e <_ldtoa_r+0x588>
   15f7a:	00166613          	ori	a2,a2,1
   15f7e:	17c2                	slli	a5,a5,0x30
   15f80:	93c1                	srli	a5,a5,0x30
   15f82:	00267513          	andi	a0,a2,2
   15f86:	0017e893          	ori	a7,a5,1
   15f8a:	d179                	beqz	a0,15f50 <_ldtoa_r+0x55a>
   15f8c:	0016161b          	slliw	a2,a2,0x1
   15f90:	01159023          	sh	a7,0(a1)
   15f94:	1642                	slli	a2,a2,0x30
   15f96:	15f9                	addi	a1,a1,-2
   15f98:	9241                	srli	a2,a2,0x30
   15f9a:	fd7594e3          	bne	a1,s7,15f62 <_ldtoa_r+0x56c>
   15f9e:	4501                	li	a0,0
   15fa0:	85e6                	mv	a1,s9
   15fa2:	0230                	addi	a2,sp,264
   15fa4:	0005d883          	lhu	a7,0(a1)
   15fa8:	00065783          	lhu	a5,0(a2)
   15fac:	15f9                	addi	a1,a1,-2
   15fae:	1679                	addi	a2,a2,-2
   15fb0:	97c6                	add	a5,a5,a7
   15fb2:	97aa                	add	a5,a5,a0
   15fb4:	00f59123          	sh	a5,2(a1)
   15fb8:	83c1                	srli	a5,a5,0x10
   15fba:	0017f513          	andi	a0,a5,1
   15fbe:	ff7613e3          	bne	a2,s7,15fa4 <_ldtoa_r+0x5ae>
   15fc2:	864a                	mv	a2,s2
   15fc4:	190c                	addi	a1,sp,176
   15fc6:	0988                	addi	a0,sp,208
   15fc8:	8f8ff0ef          	jal	ra,150c0 <eiremain>
   15fcc:	1fc15783          	lhu	a5,508(sp)
   15fd0:	018a8633          	add	a2,s5,s8
   15fd4:	0c05                	addi	s8,s8,1
   15fd6:	0307859b          	addiw	a1,a5,48
   15fda:	00b60023          	sb	a1,0(a2)
   15fde:	000c061b          	sext.w	a2,s8
   15fe2:	eac454e3          	bge	s0,a2,15e8a <_ldtoa_r+0x494>
   15fe6:	00140913          	addi	s2,s0,1
   15fea:	9956                	add	s2,s2,s5
   15fec:	9aa2                	add	s5,s5,s0
   15fee:	4711                	li	a4,4
   15ff0:	06f75b63          	bge	a4,a5,16066 <_ldtoa_r+0x670>
   15ff4:	4715                	li	a4,5
   15ff6:	64e78163          	beq	a5,a4,16638 <_ldtoa_r+0xc42>
   15ffa:	ffe94783          	lbu	a5,-2(s2)
   15ffe:	ffe90713          	addi	a4,s2,-2
   16002:	07f7f793          	andi	a5,a5,127
   16006:	0007881b          	sext.w	a6,a5
   1600a:	60044463          	bltz	s0,16612 <_ldtoa_r+0xc1c>
   1600e:	02e00693          	li	a3,46
   16012:	02d78f63          	beq	a5,a3,16050 <_ldtoa_r+0x65a>
   16016:	2785                	addiw	a5,a5,1
   16018:	00f70023          	sb	a5,0(a4)
   1601c:	03800793          	li	a5,56
   16020:	03000593          	li	a1,48
   16024:	02e00613          	li	a2,46
   16028:	03800513          	li	a0,56
   1602c:	0107c763          	blt	a5,a6,1603a <_ldtoa_r+0x644>
   16030:	a81d                	j	16066 <_ldtoa_r+0x670>
   16032:	00d70023          	sb	a3,0(a4)
   16036:	02f57863          	bgeu	a0,a5,16066 <_ldtoa_r+0x670>
   1603a:	00b70023          	sb	a1,0(a4)
   1603e:	177d                	addi	a4,a4,-1
   16040:	00074783          	lbu	a5,0(a4)
   16044:	07f7f793          	andi	a5,a5,127
   16048:	0017869b          	addiw	a3,a5,1
   1604c:	fec793e3          	bne	a5,a2,16032 <_ldtoa_r+0x63c>
   16050:	fff74783          	lbu	a5,-1(a4)
   16054:	03800693          	li	a3,56
   16058:	62f6fd63          	bgeu	a3,a5,16692 <_ldtoa_r+0xc9c>
   1605c:	03100793          	li	a5,49
   16060:	2485                	addiw	s1,s1,1
   16062:	fef70fa3          	sb	a5,-1(a4)
   16066:	0001d5b7          	lui	a1,0x1d
   1606a:	8626                	mv	a2,s1
   1606c:	d4858593          	addi	a1,a1,-696 # 1cd48 <bmask+0x58>
   16070:	8556                	mv	a0,s5
   16072:	5e4010ef          	jal	ra,17656 <sprintf>
   16076:	0a215783          	lhu	a5,162(sp)
   1607a:	7742                	ld	a4,48(sp)
   1607c:	1c912023          	sw	s1,448(sp)
   16080:	fff7c793          	not	a5,a5
   16084:	1ae12a23          	sw	a4,436(sp)
   16088:	03179713          	slli	a4,a5,0x31
   1608c:	eb19                	bnez	a4,160a2 <_ldtoa_r+0x6ac>
   1608e:	0908                	addi	a0,sp,144
   16090:	aa7fe0ef          	jal	ra,14b36 <eisinf.part.1>
   16094:	1a051763          	bnez	a0,16242 <_ldtoa_r+0x84c>
   16098:	0908                	addi	a0,sp,144
   1609a:	89dfe0ef          	jal	ra,14936 <eisnan.part.0>
   1609e:	1a051263          	bnez	a0,16242 <_ldtoa_r+0x84c>
   160a2:	7682                	ld	a3,32(sp)
   160a4:	17014783          	lbu	a5,368(sp)
   160a8:	0014871b          	addiw	a4,s1,1
   160ac:	c298                	sw	a4,0(a3)
   160ae:	6a078f63          	beqz	a5,1676c <_ldtoa_r+0xd76>
   160b2:	02e00713          	li	a4,46
   160b6:	04e78763          	beq	a5,a4,16104 <_ldtoa_r+0x70e>
   160ba:	87ea                	mv	a5,s10
   160bc:	02e00693          	li	a3,46
   160c0:	a019                	j	160c6 <_ldtoa_r+0x6d0>
   160c2:	04d70263          	beq	a4,a3,16106 <_ldtoa_r+0x710>
   160c6:	0785                	addi	a5,a5,1
   160c8:	0007c703          	lbu	a4,0(a5)
   160cc:	fb7d                	bnez	a4,160c2 <_ldtoa_r+0x6cc>
   160ce:	04500693          	li	a3,69
   160d2:	00fd6563          	bltu	s10,a5,160dc <_ldtoa_r+0x6e6>
   160d6:	a801                	j	160e6 <_ldtoa_r+0x6f0>
   160d8:	01a78763          	beq	a5,s10,160e6 <_ldtoa_r+0x6f0>
   160dc:	17fd                	addi	a5,a5,-1
   160de:	0007c703          	lbu	a4,0(a5)
   160e2:	fed71be3          	bne	a4,a3,160d8 <_ldtoa_r+0x6e2>
   160e6:	00078023          	sb	zero,0(a5)
   160ea:	87ea                	mv	a5,s10
   160ec:	02000693          	li	a3,32
   160f0:	02d00613          	li	a2,45
   160f4:	0007c703          	lbu	a4,0(a5)
   160f8:	00d70463          	beq	a4,a3,16100 <_ldtoa_r+0x70a>
   160fc:	02c71263          	bne	a4,a2,16120 <_ldtoa_r+0x72a>
   16100:	0785                	addi	a5,a5,1
   16102:	bfcd                	j	160f4 <_ldtoa_r+0x6fe>
   16104:	87ea                	mv	a5,s10
   16106:	0017c703          	lbu	a4,1(a5)
   1610a:	0785                	addi	a5,a5,1
   1610c:	fee78fa3          	sb	a4,-1(a5)
   16110:	df5d                	beqz	a4,160ce <_ldtoa_r+0x6d8>
   16112:	0017c703          	lbu	a4,1(a5)
   16116:	0785                	addi	a5,a5,1
   16118:	fee78fa3          	sb	a4,-1(a5)
   1611c:	f76d                	bnez	a4,16106 <_ldtoa_r+0x710>
   1611e:	bf45                	j	160ce <_ldtoa_r+0x6d8>
   16120:	846a                	mv	s0,s10
   16122:	a021                	j	1612a <_ldtoa_r+0x734>
   16124:	0007c703          	lbu	a4,0(a5)
   16128:	8436                	mv	s0,a3
   1612a:	00e40023          	sb	a4,0(s0)
   1612e:	00140693          	addi	a3,s0,1
   16132:	0785                	addi	a5,a5,1
   16134:	fb65                	bnez	a4,16124 <_ldtoa_r+0x72e>
   16136:	66a2                	ld	a3,8(sp)
   16138:	4789                	li	a5,2
   1613a:	fff44703          	lbu	a4,-1(s0)
   1613e:	0ef68863          	beq	a3,a5,1622e <_ldtoa_r+0x838>
   16142:	67c2                	ld	a5,16(sp)
   16144:	0007869b          	sext.w	a3,a5
   16148:	0097d463          	bge	a5,s1,16150 <_ldtoa_r+0x75a>
   1614c:	0004869b          	sext.w	a3,s1
   16150:	03000793          	li	a5,48
   16154:	02f71463          	bne	a4,a5,1617c <_ldtoa_r+0x786>
   16158:	41a407b3          	sub	a5,s0,s10
   1615c:	02f6d063          	bge	a3,a5,1617c <_ldtoa_r+0x786>
   16160:	03000613          	li	a2,48
   16164:	a019                	j	1616a <_ldtoa_r+0x774>
   16166:	00e6db63          	bge	a3,a4,1617c <_ldtoa_r+0x786>
   1616a:	147d                	addi	s0,s0,-1
   1616c:	fff44783          	lbu	a5,-1(s0)
   16170:	00040023          	sb	zero,0(s0)
   16174:	41a40733          	sub	a4,s0,s10
   16178:	fec787e3          	beq	a5,a2,16166 <_ldtoa_r+0x770>
   1617c:	6722                	ld	a4,8(sp)
   1617e:	478d                	li	a5,3
   16180:	08f70463          	beq	a4,a5,16208 <_ldtoa_r+0x812>
   16184:	67e2                	ld	a5,24(sp)
   16186:	060b2423          	sw	zero,104(s6)
   1618a:	0097899b          	addiw	s3,a5,9
   1618e:	47fd                	li	a5,31
   16190:	0937fd63          	bgeu	a5,s3,1622a <_ldtoa_r+0x834>
   16194:	4705                	li	a4,1
   16196:	4791                	li	a5,4
   16198:	0017979b          	slliw	a5,a5,0x1
   1619c:	01c78693          	addi	a3,a5,28
   161a0:	0007059b          	sext.w	a1,a4
   161a4:	2705                	addiw	a4,a4,1
   161a6:	fed9f9e3          	bgeu	s3,a3,16198 <_ldtoa_r+0x7a2>
   161aa:	06bb2423          	sw	a1,104(s6)
   161ae:	855a                	mv	a0,s6
   161b0:	089000ef          	jal	ra,16a38 <_Balloc>
   161b4:	06ab3023          	sd	a0,96(s6)
   161b8:	85ea                	mv	a1,s10
   161ba:	84aa                	mv	s1,a0
   161bc:	5ce010ef          	jal	ra,1778a <strcpy>
   161c0:	77e2                	ld	a5,56(sp)
   161c2:	c789                	beqz	a5,161cc <_ldtoa_r+0x7d6>
   161c4:	41a40433          	sub	s0,s0,s10
   161c8:	9426                	add	s0,s0,s1
   161ca:	e380                	sd	s0,0(a5)
   161cc:	26813083          	ld	ra,616(sp)
   161d0:	26013403          	ld	s0,608(sp)
   161d4:	8526                	mv	a0,s1
   161d6:	25013903          	ld	s2,592(sp)
   161da:	25813483          	ld	s1,600(sp)
   161de:	24813983          	ld	s3,584(sp)
   161e2:	24013a03          	ld	s4,576(sp)
   161e6:	23813a83          	ld	s5,568(sp)
   161ea:	23013b03          	ld	s6,560(sp)
   161ee:	22813b83          	ld	s7,552(sp)
   161f2:	22013c03          	ld	s8,544(sp)
   161f6:	21813c83          	ld	s9,536(sp)
   161fa:	21013d03          	ld	s10,528(sp)
   161fe:	20813d83          	ld	s11,520(sp)
   16202:	27010113          	addi	sp,sp,624
   16206:	8082                	ret
   16208:	67c2                	ld	a5,16(sp)
   1620a:	9cbd                	addw	s1,s1,a5
   1620c:	3604cf63          	bltz	s1,1658a <_ldtoa_r+0xb94>
   16210:	7782                	ld	a5,32(sp)
   16212:	6762                	ld	a4,24(sp)
   16214:	439c                	lw	a5,0(a5)
   16216:	9fb9                	addw	a5,a5,a4
   16218:	ec3e                	sd	a5,24(sp)
   1621a:	67e2                	ld	a5,24(sp)
   1621c:	060b2423          	sw	zero,104(s6)
   16220:	0037899b          	addiw	s3,a5,3
   16224:	47fd                	li	a5,31
   16226:	f737e7e3          	bltu	a5,s3,16194 <_ldtoa_r+0x79e>
   1622a:	4581                	li	a1,0
   1622c:	b749                	j	161ae <_ldtoa_r+0x7b8>
   1622e:	03000793          	li	a5,48
   16232:	f4f719e3          	bne	a4,a5,16184 <_ldtoa_r+0x78e>
   16236:	41a407b3          	sub	a5,s0,s10
   1623a:	4685                	li	a3,1
   1623c:	f2f6c2e3          	blt	a3,a5,16160 <_ldtoa_r+0x76a>
   16240:	b791                	j	16184 <_ldtoa_r+0x78e>
   16242:	7702                	ld	a4,32(sp)
   16244:	6789                	lui	a5,0x2
   16246:	70f7879b          	addiw	a5,a5,1807
   1624a:	c31c                	sw	a5,0(a4)
   1624c:	bd79                	j	160ea <_ldtoa_r+0x6f4>
   1624e:	0f010d93          	addi	s11,sp,240
   16252:	876e                	mv	a4,s11
   16254:	191c                	addi	a5,sp,176
   16256:	01d0                	addi	a2,sp,196
   16258:	0789                	addi	a5,a5,2
   1625a:	ffe7d683          	lhu	a3,-2(a5) # 1ffe <register_fini-0xe0b2>
   1625e:	0709                	addi	a4,a4,2
   16260:	fed71f23          	sh	a3,-2(a4)
   16264:	fec79ae3          	bne	a5,a2,16258 <_ldtoa_r+0x862>
   16268:	6791                	lui	a5,0x4
   1626a:	08e7879b          	addiw	a5,a5,142
   1626e:	10f11123          	sh	a5,258(sp)
   16272:	67a1                	lui	a5,0x8
   16274:	17fd                	addi	a5,a5,-1
   16276:	e4be                	sd	a5,72(sp)
   16278:	77f1                	lui	a5,0xffffc
   1627a:	2789                	addiw	a5,a5,2
   1627c:	4e41                	li	t3,16
   1627e:	4481                	li	s1,0
   16280:	0d0b8c13          	addi	s8,s7,208
   16284:	17010d13          	addi	s10,sp,368
   16288:	1b010913          	addi	s2,sp,432
   1628c:	0a00                	addi	s0,sp,272
   1628e:	0e210c93          	addi	s9,sp,226
   16292:	cabe                	sw	a5,84(sp)
   16294:	86ca                	mv	a3,s2
   16296:	0990                	addi	a2,sp,208
   16298:	85ee                	mv	a1,s11
   1629a:	8562                	mv	a0,s8
   1629c:	e0f2                	sd	t3,64(sp)
   1629e:	aacff0ef          	jal	ra,1554a <ediv>
   162a2:	6e06                	ld	t3,64(sp)
   162a4:	18b8                	addi	a4,sp,120
   162a6:	099c                	addi	a5,sp,208
   162a8:	0789                	addi	a5,a5,2
   162aa:	ffe7d683          	lhu	a3,-2(a5) # ffffffffffffbffe <__BSS_END__+0xfffffffffffdc86e>
   162ae:	0709                	addi	a4,a4,2
   162b0:	fed71f23          	sh	a3,-2(a4)
   162b4:	ff379ae3          	bne	a5,s3,162a8 <_ldtoa_r+0x8b2>
   162b8:	67a6                	ld	a5,72(sp)
   162ba:	08a15503          	lhu	a0,138(sp)
   162be:	00f575b3          	and	a1,a0,a5
   162c2:	47d6                	lw	a5,84(sp)
   162c4:	9fad                	addw	a5,a5,a1
   162c6:	8f3e                	mv	t5,a5
   162c8:	2cf05863          	blez	a5,16598 <_ldtoa_r+0xba2>
   162cc:	09000e93          	li	t4,144
   162d0:	40fe85bb          	subw	a1,t4,a5
   162d4:	8eae                	mv	t4,a1
   162d6:	8722                	mv	a4,s0
   162d8:	18bc                	addi	a5,sp,120
   162da:	0170                	addi	a2,sp,140
   162dc:	0789                	addi	a5,a5,2
   162de:	ffe7d683          	lhu	a3,-2(a5)
   162e2:	0709                	addi	a4,a4,2
   162e4:	fed71f23          	sh	a3,-2(a4)
   162e8:	fec79ae3          	bne	a5,a2,162dc <_ldtoa_r+0x8e6>
   162ec:	04b05e63          	blez	a1,16348 <_ldtoa_r+0x952>
   162f0:	47bd                	li	a5,15
   162f2:	8722                	mv	a4,s0
   162f4:	02b7d963          	bge	a5,a1,16326 <_ldtoa_r+0x930>
   162f8:	3ec1                	addiw	t4,t4,-16
   162fa:	004ede9b          	srliw	t4,t4,0x4
   162fe:	020e9713          	slli	a4,t4,0x20
   16302:	9301                	srli	a4,a4,0x20
   16304:	0705                	addi	a4,a4,1
   16306:	0706                	slli	a4,a4,0x1
   16308:	9722                	add	a4,a4,s0
   1630a:	87a2                	mv	a5,s0
   1630c:	0789                	addi	a5,a5,2
   1630e:	fe079f23          	sh	zero,-2(a5)
   16312:	fee79de3          	bne	a5,a4,1630c <_ldtoa_r+0x916>
   16316:	08000593          	li	a1,128
   1631a:	41e585bb          	subw	a1,a1,t5
   1631e:	004e9e9b          	slliw	t4,t4,0x4
   16322:	41d585bb          	subw	a1,a1,t4
   16326:	0586                	slli	a1,a1,0x1
   16328:	95de                	add	a1,a1,s7
   1632a:	00075783          	lhu	a5,0(a4)
   1632e:	2405d683          	lhu	a3,576(a1)
   16332:	8ff5                	and	a5,a5,a3
   16334:	00f71023          	sh	a5,0(a4)
   16338:	0105151b          	slliw	a0,a0,0x10
   1633c:	4105551b          	sraiw	a0,a0,0x10
   16340:	02051793          	slli	a5,a0,0x20
   16344:	0e07cc63          	bltz	a5,1643c <_ldtoa_r+0xa46>
   16348:	099c                	addi	a5,sp,208
   1634a:	8722                	mv	a4,s0
   1634c:	0007d603          	lhu	a2,0(a5)
   16350:	00075683          	lhu	a3,0(a4)
   16354:	0789                	addi	a5,a5,2
   16356:	0709                	addi	a4,a4,2
   16358:	02d61063          	bne	a2,a3,16378 <_ldtoa_r+0x982>
   1635c:	fefc98e3          	bne	s9,a5,1634c <_ldtoa_r+0x956>
   16360:	876e                	mv	a4,s11
   16362:	099c                	addi	a5,sp,208
   16364:	0789                	addi	a5,a5,2
   16366:	ffe7d683          	lhu	a3,-2(a5)
   1636a:	0709                	addi	a4,a4,2
   1636c:	fed71f23          	sh	a3,-2(a4)
   16370:	ff379ae3          	bne	a5,s3,16364 <_ldtoa_r+0x96e>
   16374:	009e04bb          	addw	s1,t3,s1
   16378:	0c51                	addi	s8,s8,20
   1637a:	134b8793          	addi	a5,s7,308
   1637e:	001e5e13          	srli	t3,t3,0x1
   16382:	f0fc19e3          	bne	s8,a5,16294 <_ldtoa_r+0x89e>
   16386:	10215783          	lhu	a5,258(sp)
   1638a:	0c215703          	lhu	a4,194(sp)
   1638e:	0250                	addi	a2,sp,260
   16390:	9fb9                	addw	a5,a5,a4
   16392:	7771                	lui	a4,0xffffc
   16394:	f727071b          	addiw	a4,a4,-142
   16398:	9fb9                	addw	a5,a5,a4
   1639a:	10f11123          	sh	a5,258(sp)
   1639e:	1918                	addi	a4,sp,176
   163a0:	87ee                	mv	a5,s11
   163a2:	0789                	addi	a5,a5,2
   163a4:	ffe7d683          	lhu	a3,-2(a5)
   163a8:	0709                	addi	a4,a4,2
   163aa:	fed71f23          	sh	a3,-2(a4) # ffffffffffffbffe <__BSS_END__+0xfffffffffffdc86e>
   163ae:	fec79ae3          	bne	a5,a2,163a2 <_ldtoa_r+0x9ac>
   163b2:	4701                	li	a4,0
   163b4:	099c                	addi	a5,sp,208
   163b6:	a019                	j	163bc <_ldtoa_r+0x9c6>
   163b8:	000ad703          	lhu	a4,0(s5)
   163bc:	0789                	addi	a5,a5,2
   163be:	fee79f23          	sh	a4,-2(a5)
   163c2:	0a89                	addi	s5,s5,2
   163c4:	ff379ae3          	bne	a5,s3,163b8 <_ldtoa_r+0x9c2>
   163c8:	030b8a93          	addi	s5,s7,48
   163cc:	6985                	lui	s3,0x1
   163ce:	120b8b93          	addi	s7,s7,288
   163d2:	a031                	j	163de <_ldtoa_r+0x9e8>
   163d4:	0019d993          	srli	s3,s3,0x1
   163d8:	237a8963          	beq	s5,s7,1660a <_ldtoa_r+0xc14>
   163dc:	0ad1                	addi	s5,s5,20
   163de:	85ee                	mv	a1,s11
   163e0:	855e                	mv	a0,s7
   163e2:	e8cfe0ef          	jal	ra,14a6e <ecmp>
   163e6:	85ee                	mv	a1,s11
   163e8:	22a04163          	bgtz	a0,1660a <_ldtoa_r+0xc14>
   163ec:	8556                	mv	a0,s5
   163ee:	e80fe0ef          	jal	ra,14a6e <ecmp>
   163f2:	fea041e3          	bgtz	a0,163d4 <_ldtoa_r+0x9de>
   163f6:	86ca                	mv	a3,s2
   163f8:	866e                	mv	a2,s11
   163fa:	85ee                	mv	a1,s11
   163fc:	8556                	mv	a0,s5
   163fe:	94cff0ef          	jal	ra,1554a <ediv>
   16402:	0990                	addi	a2,sp,208
   16404:	86ca                	mv	a3,s2
   16406:	85b2                	mv	a1,a2
   16408:	8556                	mv	a0,s5
   1640a:	e3dfe0ef          	jal	ra,15246 <emul>
   1640e:	009984bb          	addw	s1,s3,s1
   16412:	b7c9                	j	163d4 <_ldtoa_r+0x9de>
   16414:	1fc15783          	lhu	a5,508(sp)
   16418:	17210a93          	addi	s5,sp,370
   1641c:	17310913          	addi	s2,sp,371
   16420:	b6f9                	j	15fee <_ldtoa_r+0x5f8>
   16422:	17010d13          	addi	s10,sp,368
   16426:	0001d5b7          	lui	a1,0x1d
   1642a:	d1858593          	addi	a1,a1,-744 # 1cd18 <bmask+0x28>
   1642e:	856a                	mv	a0,s10
   16430:	6489                	lui	s1,0x2
   16432:	224010ef          	jal	ra,17656 <sprintf>
   16436:	70f48493          	addi	s1,s1,1807 # 270f <register_fini-0xd9a1>
   1643a:	b935                	j	16076 <_ldtoa_r+0x680>
   1643c:	18bc                	addi	a5,sp,120
   1643e:	8722                	mv	a4,s0
   16440:	a029                	j	1644a <_ldtoa_r+0xa54>
   16442:	08a10693          	addi	a3,sp,138
   16446:	f0f681e3          	beq	a3,a5,16348 <_ldtoa_r+0x952>
   1644a:	0007d603          	lhu	a2,0(a5)
   1644e:	00075683          	lhu	a3,0(a4)
   16452:	0789                	addi	a5,a5,2
   16454:	0709                	addi	a4,a4,2
   16456:	fed606e3          	beq	a2,a3,16442 <_ldtoa_r+0xa4c>
   1645a:	12215783          	lhu	a5,290(sp)
   1645e:	6726                	ld	a4,72(sp)
   16460:	8ff9                	and	a5,a5,a4
   16462:	00e79f63          	bne	a5,a4,16480 <_ldtoa_r+0xa8a>
   16466:	8522                	mv	a0,s0
   16468:	e0f2                	sd	t3,64(sp)
   1646a:	cccfe0ef          	jal	ra,14936 <eisnan.part.0>
   1646e:	6e06                	ld	t3,64(sp)
   16470:	ec051ce3          	bnez	a0,16348 <_ldtoa_r+0x952>
   16474:	8522                	mv	a0,s0
   16476:	ec0fe0ef          	jal	ra,14b36 <eisinf.part.1>
   1647a:	6e06                	ld	t3,64(sp)
   1647c:	ec0516e3          	bnez	a0,16348 <_ldtoa_r+0x952>
   16480:	1a0c                	addi	a1,sp,304
   16482:	8556                	mv	a0,s5
   16484:	e0f2                	sd	t3,64(sp)
   16486:	d22fe0ef          	jal	ra,149a8 <emovi>
   1648a:	0a8c                	addi	a1,sp,336
   1648c:	8522                	mv	a0,s0
   1648e:	d1afe0ef          	jal	ra,149a8 <emovi>
   16492:	13015603          	lhu	a2,304(sp)
   16496:	15215503          	lhu	a0,338(sp)
   1649a:	13215e83          	lhu	t4,306(sp)
   1649e:	fff64613          	not	a2,a2
   164a2:	1642                	slli	a2,a2,0x30
   164a4:	9241                	srli	a2,a2,0x30
   164a6:	12c11823          	sh	a2,304(sp)
   164aa:	40ae85b3          	sub	a1,t4,a0
   164ae:	86aa                	mv	a3,a0
   164b0:	6e06                	ld	t3,64(sp)
   164b2:	04b05e63          	blez	a1,1650e <_ldtoa_r+0xb18>
   164b6:	86ea                	mv	a3,s10
   164b8:	0a98                	addi	a4,sp,336
   164ba:	12bc                	addi	a5,sp,360
   164bc:	0709                	addi	a4,a4,2
   164be:	ffe75583          	lhu	a1,-2(a4)
   164c2:	0689                	addi	a3,a3,2
   164c4:	feb69f23          	sh	a1,-2(a3)
   164c8:	fef71ae3          	bne	a4,a5,164bc <_ldtoa_r+0xac6>
   164cc:	18011423          	sh	zero,392(sp)
   164d0:	0a98                	addi	a4,sp,336
   164d2:	1a14                	addi	a3,sp,304
   164d4:	a019                	j	164da <_ldtoa_r+0xae4>
   164d6:	0006d603          	lhu	a2,0(a3)
   164da:	0709                	addi	a4,a4,2
   164dc:	fec71f23          	sh	a2,-2(a4)
   164e0:	0689                	addi	a3,a3,2
   164e2:	fef71ae3          	bne	a4,a5,164d6 <_ldtoa_r+0xae0>
   164e6:	16011423          	sh	zero,360(sp)
   164ea:	1a18                	addi	a4,sp,304
   164ec:	87ea                	mv	a5,s10
   164ee:	032c                	addi	a1,sp,392
   164f0:	0789                	addi	a5,a5,2
   164f2:	ffe7d683          	lhu	a3,-2(a5)
   164f6:	0709                	addi	a4,a4,2
   164f8:	fed71f23          	sh	a3,-2(a4)
   164fc:	feb79ae3          	bne	a5,a1,164f0 <_ldtoa_r+0xafa>
   16500:	15215683          	lhu	a3,338(sp)
   16504:	41d505b3          	sub	a1,a0,t4
   16508:	14011423          	sh	zero,328(sp)
   1650c:	8536                	mv	a0,a3
   1650e:	26058363          	beqz	a1,16774 <_ldtoa_r+0xd7e>
   16512:	ecb6                	sd	a3,88(sp)
   16514:	f6f00793          	li	a5,-145
   16518:	04f5ce63          	blt	a1,a5,16574 <_ldtoa_r+0xb7e>
   1651c:	2581                	sext.w	a1,a1
   1651e:	1a08                	addi	a0,sp,304
   16520:	e0f2                	sd	t3,64(sp)
   16522:	e26fe0ef          	jal	ra,14b48 <eshift.part.3>
   16526:	6e06                	ld	t3,64(sp)
   16528:	66e6                	ld	a3,88(sp)
   1652a:	85aa                	mv	a1,a0
   1652c:	12bc                	addi	a5,sp,360
   1652e:	02b0                	addi	a2,sp,328
   16530:	13015503          	lhu	a0,304(sp)
   16534:	15015703          	lhu	a4,336(sp)
   16538:	28e50063          	beq	a0,a4,167b8 <_ldtoa_r+0xdc2>
   1653c:	4501                	li	a0,0
   1653e:	0007d703          	lhu	a4,0(a5)
   16542:	00065e83          	lhu	t4,0(a2)
   16546:	17f9                	addi	a5,a5,-2
   16548:	8f09                	sub	a4,a4,a0
   1654a:	41d70733          	sub	a4,a4,t4
   1654e:	00e79123          	sh	a4,2(a5)
   16552:	8341                	srli	a4,a4,0x10
   16554:	00177513          	andi	a0,a4,1
   16558:	15210713          	addi	a4,sp,338
   1655c:	1679                	addi	a2,a2,-2
   1655e:	fee790e3          	bne	a5,a4,1653e <_ldtoa_r+0xb48>
   16562:	4605                	li	a2,1
   16564:	87ca                	mv	a5,s2
   16566:	04000713          	li	a4,64
   1656a:	0a88                	addi	a0,sp,336
   1656c:	e0f2                	sd	t3,64(sp)
   1656e:	835fe0ef          	jal	ra,14da2 <emdnorm>
   16572:	6e06                	ld	t3,64(sp)
   16574:	85a2                	mv	a1,s0
   16576:	0a88                	addi	a0,sp,336
   16578:	e0f2                	sd	t3,64(sp)
   1657a:	c3bfe0ef          	jal	ra,151b4 <emovo.isra.6>
   1657e:	6e06                	ld	t3,64(sp)
   16580:	b3e1                	j	16348 <_ldtoa_r+0x952>
   16582:	67e2                	ld	a5,24(sp)
   16584:	37fd                	addiw	a5,a5,-1
   16586:	e90ff06f          	j	15c16 <_ldtoa_r+0x220>
   1658a:	7782                	ld	a5,32(sp)
   1658c:	16010823          	sb	zero,368(sp)
   16590:	846a                	mv	s0,s10
   16592:	0007a023          	sw	zero,0(a5)
   16596:	b151                	j	1621a <_ldtoa_r+0x824>
   16598:	87a2                	mv	a5,s0
   1659a:	1258                	addi	a4,sp,292
   1659c:	0789                	addi	a5,a5,2
   1659e:	fe079f23          	sh	zero,-2(a5)
   165a2:	fee79de3          	bne	a5,a4,1659c <_ldtoa_r+0xba6>
   165a6:	bb49                	j	16338 <_ldtoa_r+0x942>
   165a8:	77a2                	ld	a5,40(sp)
   165aa:	17010d13          	addi	s10,sp,368
   165ae:	c7f9                	beqz	a5,1667c <_ldtoa_r+0xc86>
   165b0:	0001d5b7          	lui	a1,0x1d
   165b4:	d2058593          	addi	a1,a1,-736 # 1cd20 <bmask+0x30>
   165b8:	856a                	mv	a0,s10
   165ba:	6489                	lui	s1,0x2
   165bc:	09a010ef          	jal	ra,17656 <sprintf>
   165c0:	70f48493          	addi	s1,s1,1807 # 270f <register_fini-0xd9a1>
   165c4:	bc4d                	j	16076 <_ldtoa_r+0x680>
   165c6:	03100793          	li	a5,49
   165ca:	16f108a3          	sb	a5,369(sp)
   165ce:	02e00793          	li	a5,46
   165d2:	16f10923          	sb	a5,370(sp)
   165d6:	2485                	addiw	s1,s1,1
   165d8:	02900413          	li	s0,41
   165dc:	03000793          	li	a5,48
   165e0:	16f109a3          	sb	a5,371(sp)
   165e4:	17410a93          	addi	s5,sp,372
   165e8:	b841                	j	15e78 <_ldtoa_r+0x482>
   165ea:	03100793          	li	a5,49
   165ee:	16f108a3          	sb	a5,369(sp)
   165f2:	02e00793          	li	a5,46
   165f6:	16f10923          	sb	a5,370(sp)
   165fa:	2485                	addiw	s1,s1,1
   165fc:	16804a63          	bgtz	s0,16770 <_ldtoa_r+0xd7a>
   16600:	17310a93          	addi	s5,sp,371
   16604:	a60411e3          	bnez	s0,16066 <_ldtoa_r+0x670>
   16608:	b885                	j	15e78 <_ldtoa_r+0x482>
   1660a:	12810c13          	addi	s8,sp,296
   1660e:	e42ff06f          	j	15c50 <_ldtoa_r+0x25a>
   16612:	03100793          	li	a5,49
   16616:	fef90f23          	sb	a5,-2(s2)
   1661a:	2485                	addiw	s1,s1,1
   1661c:	b4a9                	j	16066 <_ldtoa_r+0x670>
   1661e:	17010d13          	addi	s10,sp,368
   16622:	0001d5b7          	lui	a1,0x1d
   16626:	d4058593          	addi	a1,a1,-704 # 1cd40 <bmask+0x50>
   1662a:	856a                	mv	a0,s10
   1662c:	6489                	lui	s1,0x2
   1662e:	028010ef          	jal	ra,17656 <sprintf>
   16632:	70f48493          	addi	s1,s1,1807 # 270f <register_fini-0xd9a1>
   16636:	b481                	j	16076 <_ldtoa_r+0x680>
   16638:	098c                	addi	a1,sp,208
   1663a:	1908                	addi	a0,sp,176
   1663c:	b79fe0ef          	jal	ra,151b4 <emovo.isra.6>
   16640:	ab0a0593          	addi	a1,s4,-1360
   16644:	0988                	addi	a0,sp,208
   16646:	c28fe0ef          	jal	ra,14a6e <ecmp>
   1664a:	9a0518e3          	bnez	a0,15ffa <_ldtoa_r+0x604>
   1664e:	a0044ce3          	bltz	s0,16066 <_ldtoa_r+0x670>
   16652:	ffe94783          	lbu	a5,-2(s2)
   16656:	fd278713          	addi	a4,a5,-46
   1665a:	00173713          	seqz	a4,a4
   1665e:	fff74713          	not	a4,a4
   16662:	9756                	add	a4,a4,s5
   16664:	00074703          	lbu	a4,0(a4)
   16668:	8b05                	andi	a4,a4,1
   1666a:	9e070ee3          	beqz	a4,16066 <_ldtoa_r+0x670>
   1666e:	07f7f793          	andi	a5,a5,127
   16672:	ffe90713          	addi	a4,s2,-2
   16676:	0007881b          	sext.w	a6,a5
   1667a:	ba51                	j	1600e <_ldtoa_r+0x618>
   1667c:	0001d5b7          	lui	a1,0x1d
   16680:	d3058593          	addi	a1,a1,-720 # 1cd30 <bmask+0x40>
   16684:	856a                	mv	a0,s10
   16686:	6489                	lui	s1,0x2
   16688:	7cf000ef          	jal	ra,17656 <sprintf>
   1668c:	70f48493          	addi	s1,s1,1807 # 270f <register_fini-0xd9a1>
   16690:	b2dd                	j	16076 <_ldtoa_r+0x680>
   16692:	2785                	addiw	a5,a5,1
   16694:	fef70fa3          	sb	a5,-1(a4)
   16698:	b2f9                	j	16066 <_ldtoa_r+0x670>
   1669a:	0a00                	addi	s0,sp,272
   1669c:	85a2                	mv	a1,s0
   1669e:	1908                	addi	a0,sp,176
   166a0:	6d91                	lui	s11,0x4
   166a2:	b06fe0ef          	jal	ra,149a8 <emovi>
   166a6:	4481                	li	s1,0
   166a8:	12810c13          	addi	s8,sp,296
   166ac:	10810913          	addi	s2,sp,264
   166b0:	11210d13          	addi	s10,sp,274
   166b4:	1df9                	addi	s11,s11,-2
   166b6:	fd500c93          	li	s9,-43
   166ba:	12815783          	lhu	a5,296(sp)
   166be:	8b9d                	andi	a5,a5,7
   166c0:	efd1                	bnez	a5,1675c <_ldtoa_r+0xd66>
   166c2:	1998                	addi	a4,sp,240
   166c4:	87a2                	mv	a5,s0
   166c6:	0789                	addi	a5,a5,2
   166c8:	ffe7d683          	lhu	a3,-2(a5)
   166cc:	0709                	addi	a4,a4,2
   166ce:	fed71f23          	sh	a3,-2(a4)
   166d2:	ff879ae3          	bne	a5,s8,166c6 <_ldtoa_r+0xcd0>
   166d6:	1988                	addi	a0,sp,240
   166d8:	10011423          	sh	zero,264(sp)
   166dc:	940fe0ef          	jal	ra,1481c <eshdn1>
   166e0:	1988                	addi	a0,sp,240
   166e2:	93afe0ef          	jal	ra,1481c <eshdn1>
   166e6:	4601                	li	a2,0
   166e8:	86ca                	mv	a3,s2
   166ea:	8762                	mv	a4,s8
   166ec:	0006d583          	lhu	a1,0(a3)
   166f0:	00075783          	lhu	a5,0(a4)
   166f4:	16f9                	addi	a3,a3,-2
   166f6:	1779                	addi	a4,a4,-2
   166f8:	97ae                	add	a5,a5,a1
   166fa:	97b2                	add	a5,a5,a2
   166fc:	00f69123          	sh	a5,2(a3)
   16700:	83c1                	srli	a5,a5,0x10
   16702:	0017f613          	andi	a2,a5,1
   16706:	ffa713e3          	bne	a4,s10,166ec <_ldtoa_r+0xcf6>
   1670a:	0f215783          	lhu	a5,242(sp)
   1670e:	0f415703          	lhu	a4,244(sp)
   16712:	278d                	addiw	a5,a5,3
   16714:	0ef11923          	sh	a5,242(sp)
   16718:	cf01                	beqz	a4,16730 <_ldtoa_r+0xd3a>
   1671a:	1988                	addi	a0,sp,240
   1671c:	900fe0ef          	jal	ra,1481c <eshdn1>
   16720:	0f215783          	lhu	a5,242(sp)
   16724:	0f415703          	lhu	a4,244(sp)
   16728:	2785                	addiw	a5,a5,1
   1672a:	0ef11923          	sh	a5,242(sp)
   1672e:	f775                	bnez	a4,1671a <_ldtoa_r+0xd24>
   16730:	10815783          	lhu	a5,264(sp)
   16734:	e785                	bnez	a5,1675c <_ldtoa_r+0xd66>
   16736:	0f215783          	lhu	a5,242(sp)
   1673a:	02fde163          	bltu	s11,a5,1675c <_ldtoa_r+0xd66>
   1673e:	8722                	mv	a4,s0
   16740:	199c                	addi	a5,sp,240
   16742:	0789                	addi	a5,a5,2
   16744:	ffe7d683          	lhu	a3,-2(a5)
   16748:	0709                	addi	a4,a4,2
   1674a:	fed71f23          	sh	a3,-2(a4)
   1674e:	ff279ae3          	bne	a5,s2,16742 <_ldtoa_r+0xd4c>
   16752:	12011423          	sh	zero,296(sp)
   16756:	34fd                	addiw	s1,s1,-1
   16758:	f79491e3          	bne	s1,s9,166ba <_ldtoa_r+0xcc4>
   1675c:	190c                	addi	a1,sp,176
   1675e:	8522                	mv	a0,s0
   16760:	a55fe0ef          	jal	ra,151b4 <emovo.isra.6>
   16764:	1b010913          	addi	s2,sp,432
   16768:	c08ff06f          	j	15b70 <_ldtoa_r+0x17a>
   1676c:	87ea                	mv	a5,s10
   1676e:	baa5                	j	160e6 <_ldtoa_r+0x6f0>
   16770:	347d                	addiw	s0,s0,-1
   16772:	b5ad                	j	165dc <_ldtoa_r+0xbe6>
   16774:	0ad8                	addi	a4,sp,340
   16776:	1a5c                	addi	a5,sp,308
   16778:	0789                	addi	a5,a5,2
   1677a:	0709                	addi	a4,a4,2
   1677c:	ffe7d583          	lhu	a1,-2(a5)
   16780:	ffe75603          	lhu	a2,-2(a4)
   16784:	02c59463          	bne	a1,a2,167ac <_ldtoa_r+0xdb6>
   16788:	14a10613          	addi	a2,sp,330
   1678c:	fec796e3          	bne	a5,a2,16778 <_ldtoa_r+0xd82>
   16790:	13015703          	lhu	a4,304(sp)
   16794:	15015783          	lhu	a5,336(sp)
   16798:	04f70463          	beq	a4,a5,167e0 <_ldtoa_r+0xdea>
   1679c:	87a2                	mv	a5,s0
   1679e:	1258                	addi	a4,sp,292
   167a0:	0789                	addi	a5,a5,2
   167a2:	fe079f23          	sh	zero,-2(a5)
   167a6:	fee79de3          	bne	a5,a4,167a0 <_ldtoa_r+0xdaa>
   167aa:	be79                	j	16348 <_ldtoa_r+0x952>
   167ac:	08b66e63          	bltu	a2,a1,16848 <_ldtoa_r+0xe52>
   167b0:	4581                	li	a1,0
   167b2:	12bc                	addi	a5,sp,360
   167b4:	02b0                	addi	a2,sp,328
   167b6:	bbad                	j	16530 <_ldtoa_r+0xb3a>
   167b8:	4501                	li	a0,0
   167ba:	13210f13          	addi	t5,sp,306
   167be:	0007de83          	lhu	t4,0(a5)
   167c2:	00065703          	lhu	a4,0(a2)
   167c6:	17f9                	addi	a5,a5,-2
   167c8:	1679                	addi	a2,a2,-2
   167ca:	9776                	add	a4,a4,t4
   167cc:	972a                	add	a4,a4,a0
   167ce:	00e79123          	sh	a4,2(a5)
   167d2:	8341                	srli	a4,a4,0x10
   167d4:	00177513          	andi	a0,a4,1
   167d8:	ffe613e3          	bne	a2,t5,167be <_ldtoa_r+0xdc8>
   167dc:	4601                	li	a2,0
   167de:	b359                	j	16564 <_ldtoa_r+0xb6e>
   167e0:	8736                	mv	a4,a3
   167e2:	eab1                	bnez	a3,16836 <_ldtoa_r+0xe40>
   167e4:	15611783          	lh	a5,342(sp)
   167e8:	0407c763          	bltz	a5,16836 <_ldtoa_r+0xe40>
   167ec:	12b4                	addi	a3,sp,360
   167ee:	a821                	j	16806 <_ldtoa_r+0xe10>
   167f0:	00f69023          	sh	a5,0(a3)
   167f4:	0017171b          	slliw	a4,a4,0x1
   167f8:	1742                	slli	a4,a4,0x30
   167fa:	16f9                	addi	a3,a3,-2
   167fc:	15210793          	addi	a5,sp,338
   16800:	9341                	srli	a4,a4,0x30
   16802:	d6f689e3          	beq	a3,a5,16574 <_ldtoa_r+0xb7e>
   16806:	0006d783          	lhu	a5,0(a3)
   1680a:	0107961b          	slliw	a2,a5,0x10
   1680e:	4106561b          	sraiw	a2,a2,0x10
   16812:	02061593          	slli	a1,a2,0x20
   16816:	0017979b          	slliw	a5,a5,0x1
   1681a:	0005d463          	bgez	a1,16822 <_ldtoa_r+0xe2c>
   1681e:	00176713          	ori	a4,a4,1
   16822:	17c2                	slli	a5,a5,0x30
   16824:	93c1                	srli	a5,a5,0x30
   16826:	00277613          	andi	a2,a4,2
   1682a:	0017e593          	ori	a1,a5,1
   1682e:	d269                	beqz	a2,167f0 <_ldtoa_r+0xdfa>
   16830:	00b69023          	sh	a1,0(a3)
   16834:	b7c1                	j	167f4 <_ldtoa_r+0xdfe>
   16836:	0ad0                	addi	a2,sp,340
   16838:	12bc                	addi	a5,sp,360
   1683a:	e325                	bnez	a4,1689a <_ldtoa_r+0xea4>
   1683c:	06c78163          	beq	a5,a2,1689e <_ldtoa_r+0xea8>
   16840:	00065703          	lhu	a4,0(a2)
   16844:	0609                	addi	a2,a2,2
   16846:	bfd5                	j	1683a <_ldtoa_r+0xe44>
   16848:	866a                	mv	a2,s10
   1684a:	0a98                	addi	a4,sp,336
   1684c:	12bc                	addi	a5,sp,360
   1684e:	0709                	addi	a4,a4,2
   16850:	ffe75583          	lhu	a1,-2(a4)
   16854:	0609                	addi	a2,a2,2
   16856:	feb61f23          	sh	a1,-2(a2)
   1685a:	fef71ae3          	bne	a4,a5,1684e <_ldtoa_r+0xe58>
   1685e:	18011423          	sh	zero,392(sp)
   16862:	0a8c                	addi	a1,sp,336
   16864:	1a18                	addi	a4,sp,304
   16866:	02b0                	addi	a2,sp,328
   16868:	0709                	addi	a4,a4,2
   1686a:	ffe75503          	lhu	a0,-2(a4)
   1686e:	0589                	addi	a1,a1,2
   16870:	fea59f23          	sh	a0,-2(a1)
   16874:	fec71ae3          	bne	a4,a2,16868 <_ldtoa_r+0xe72>
   16878:	16011423          	sh	zero,360(sp)
   1687c:	1a08                	addi	a0,sp,304
   1687e:	876a                	mv	a4,s10
   16880:	032c                	addi	a1,sp,392
   16882:	0709                	addi	a4,a4,2
   16884:	ffe75e83          	lhu	t4,-2(a4)
   16888:	0509                	addi	a0,a0,2
   1688a:	ffd51f23          	sh	t4,-2(a0)
   1688e:	feb71ae3          	bne	a4,a1,16882 <_ldtoa_r+0xe8c>
   16892:	14011423          	sh	zero,328(sp)
   16896:	4581                	li	a1,0
   16898:	b961                	j	16530 <_ldtoa_r+0xb3a>
   1689a:	00168513          	addi	a0,a3,1
   1689e:	14a11923          	sh	a0,338(sp)
   168a2:	b9c9                	j	16574 <_ldtoa_r+0xb7e>

00000000000168a4 <_ldcheck>:
   168a4:	6118                	ld	a4,0(a0)
   168a6:	651c                	ld	a5,8(a0)
   168a8:	7139                	addi	sp,sp,-64
   168aa:	850a                	mv	a0,sp
   168ac:	080c                	addi	a1,sp,16
   168ae:	e03a                	sd	a4,0(sp)
   168b0:	e43e                	sd	a5,8(sp)
   168b2:	fc06                	sd	ra,56(sp)
   168b4:	84eff0ef          	jal	ra,15902 <e113toe.isra.8>
   168b8:	02215783          	lhu	a5,34(sp)
   168bc:	4501                	li	a0,0
   168be:	fff7c793          	not	a5,a5
   168c2:	03179713          	slli	a4,a5,0x31
   168c6:	e719                	bnez	a4,168d4 <_ldcheck+0x30>
   168c8:	0808                	addi	a0,sp,16
   168ca:	86cfe0ef          	jal	ra,14936 <eisnan.part.0>
   168ce:	00153513          	seqz	a0,a0
   168d2:	0505                	addi	a0,a0,1
   168d4:	70e2                	ld	ra,56(sp)
   168d6:	6121                	addi	sp,sp,64
   168d8:	8082                	ret

00000000000168da <__localeconv_l>:
   168da:	10050513          	addi	a0,a0,256
   168de:	8082                	ret

00000000000168e0 <_localeconv_r>:
   168e0:	7581b783          	ld	a5,1880(gp) # 1f6e8 <_impure_ptr>
   168e4:	67a8                	ld	a0,72(a5)
   168e6:	c501                	beqz	a0,168ee <_localeconv_r+0xe>
   168e8:	10050513          	addi	a0,a0,256
   168ec:	8082                	ret
   168ee:	57018513          	addi	a0,gp,1392 # 1f500 <__global_locale>
   168f2:	10050513          	addi	a0,a0,256
   168f6:	8082                	ret

00000000000168f8 <localeconv>:
   168f8:	7581b783          	ld	a5,1880(gp) # 1f6e8 <_impure_ptr>
   168fc:	67a8                	ld	a0,72(a5)
   168fe:	c501                	beqz	a0,16906 <localeconv+0xe>
   16900:	10050513          	addi	a0,a0,256
   16904:	8082                	ret
   16906:	57018513          	addi	a0,gp,1392 # 1f500 <__global_locale>
   1690a:	10050513          	addi	a0,a0,256
   1690e:	8082                	ret

0000000000016910 <_setlocale_r>:
   16910:	1101                	addi	sp,sp,-32
   16912:	ec06                	sd	ra,24(sp)
   16914:	e822                	sd	s0,16(sp)
   16916:	e426                	sd	s1,8(sp)
   16918:	c21d                	beqz	a2,1693e <_setlocale_r+0x2e>
   1691a:	0001d5b7          	lui	a1,0x1d
   1691e:	d5858593          	addi	a1,a1,-680 # 1cd58 <bmask+0x68>
   16922:	8532                	mv	a0,a2
   16924:	84b2                	mv	s1,a2
   16926:	57b000ef          	jal	ra,176a0 <strcmp>
   1692a:	0001d437          	lui	s0,0x1d
   1692e:	e919                	bnez	a0,16944 <_setlocale_r+0x34>
   16930:	d5040513          	addi	a0,s0,-688 # 1cd50 <bmask+0x60>
   16934:	60e2                	ld	ra,24(sp)
   16936:	6442                	ld	s0,16(sp)
   16938:	64a2                	ld	s1,8(sp)
   1693a:	6105                	addi	sp,sp,32
   1693c:	8082                	ret
   1693e:	0001d437          	lui	s0,0x1d
   16942:	b7fd                	j	16930 <_setlocale_r+0x20>
   16944:	d5040593          	addi	a1,s0,-688 # 1cd50 <bmask+0x60>
   16948:	8526                	mv	a0,s1
   1694a:	557000ef          	jal	ra,176a0 <strcmp>
   1694e:	d16d                	beqz	a0,16930 <_setlocale_r+0x20>
   16950:	0001d5b7          	lui	a1,0x1d
   16954:	a9858593          	addi	a1,a1,-1384 # 1ca98 <zeroes.4550+0x90>
   16958:	8526                	mv	a0,s1
   1695a:	547000ef          	jal	ra,176a0 <strcmp>
   1695e:	d969                	beqz	a0,16930 <_setlocale_r+0x20>
   16960:	4501                	li	a0,0
   16962:	bfc9                	j	16934 <_setlocale_r+0x24>

0000000000016964 <__locale_mb_cur_max>:
   16964:	7581b783          	ld	a5,1880(gp) # 1f6e8 <_impure_ptr>
   16968:	67bc                	ld	a5,72(a5)
   1696a:	c781                	beqz	a5,16972 <__locale_mb_cur_max+0xe>
   1696c:	1607c503          	lbu	a0,352(a5)
   16970:	8082                	ret
   16972:	57018793          	addi	a5,gp,1392 # 1f500 <__global_locale>
   16976:	1607c503          	lbu	a0,352(a5)
   1697a:	8082                	ret

000000000001697c <__locale_ctype_ptr_l>:
   1697c:	7d68                	ld	a0,248(a0)
   1697e:	8082                	ret

0000000000016980 <__locale_ctype_ptr>:
   16980:	7581b783          	ld	a5,1880(gp) # 1f6e8 <_impure_ptr>
   16984:	67bc                	ld	a5,72(a5)
   16986:	c399                	beqz	a5,1698c <__locale_ctype_ptr+0xc>
   16988:	7fe8                	ld	a0,248(a5)
   1698a:	8082                	ret
   1698c:	57018793          	addi	a5,gp,1392 # 1f500 <__global_locale>
   16990:	7fe8                	ld	a0,248(a5)
   16992:	8082                	ret

0000000000016994 <setlocale>:
   16994:	862e                	mv	a2,a1
   16996:	85aa                	mv	a1,a0
   16998:	7581b503          	ld	a0,1880(gp) # 1f6e8 <_impure_ptr>
   1699c:	f75ff06f          	j	16910 <_setlocale_r>

00000000000169a0 <_lseek_r>:
   169a0:	1101                	addi	sp,sp,-32
   169a2:	87ae                	mv	a5,a1
   169a4:	e822                	sd	s0,16(sp)
   169a6:	e426                	sd	s1,8(sp)
   169a8:	85b2                	mv	a1,a2
   169aa:	84aa                	mv	s1,a0
   169ac:	0001f437          	lui	s0,0x1f
   169b0:	853e                	mv	a0,a5
   169b2:	8636                	mv	a2,a3
   169b4:	ec06                	sd	ra,24(sp)
   169b6:	78042423          	sw	zero,1928(s0) # 1f788 <errno>
   169ba:	0cb040ef          	jal	ra,1b284 <_lseek>
   169be:	57fd                	li	a5,-1
   169c0:	00f50763          	beq	a0,a5,169ce <_lseek_r+0x2e>
   169c4:	60e2                	ld	ra,24(sp)
   169c6:	6442                	ld	s0,16(sp)
   169c8:	64a2                	ld	s1,8(sp)
   169ca:	6105                	addi	sp,sp,32
   169cc:	8082                	ret
   169ce:	78842783          	lw	a5,1928(s0)
   169d2:	dbed                	beqz	a5,169c4 <_lseek_r+0x24>
   169d4:	60e2                	ld	ra,24(sp)
   169d6:	6442                	ld	s0,16(sp)
   169d8:	c09c                	sw	a5,0(s1)
   169da:	64a2                	ld	s1,8(sp)
   169dc:	6105                	addi	sp,sp,32
   169de:	8082                	ret

00000000000169e0 <_mbtowc_r>:
   169e0:	7581b783          	ld	a5,1880(gp) # 1f6e8 <_impure_ptr>
   169e4:	67bc                	ld	a5,72(a5)
   169e6:	c781                	beqz	a5,169ee <_mbtowc_r+0xe>
   169e8:	0e87b303          	ld	t1,232(a5)
   169ec:	8302                	jr	t1
   169ee:	57018793          	addi	a5,gp,1392 # 1f500 <__global_locale>
   169f2:	0e87b303          	ld	t1,232(a5)
   169f6:	8302                	jr	t1

00000000000169f8 <__ascii_mbtowc>:
   169f8:	c999                	beqz	a1,16a0e <__ascii_mbtowc+0x16>
   169fa:	c61d                	beqz	a2,16a28 <__ascii_mbtowc+0x30>
   169fc:	ca95                	beqz	a3,16a30 <__ascii_mbtowc+0x38>
   169fe:	00064783          	lbu	a5,0(a2)
   16a02:	c19c                	sw	a5,0(a1)
   16a04:	00064503          	lbu	a0,0(a2)
   16a08:	00a03533          	snez	a0,a0
   16a0c:	8082                	ret
   16a0e:	1141                	addi	sp,sp,-16
   16a10:	006c                	addi	a1,sp,12
   16a12:	ce09                	beqz	a2,16a2c <__ascii_mbtowc+0x34>
   16a14:	c285                	beqz	a3,16a34 <__ascii_mbtowc+0x3c>
   16a16:	00064783          	lbu	a5,0(a2)
   16a1a:	c19c                	sw	a5,0(a1)
   16a1c:	00064503          	lbu	a0,0(a2)
   16a20:	00a03533          	snez	a0,a0
   16a24:	0141                	addi	sp,sp,16
   16a26:	8082                	ret
   16a28:	4501                	li	a0,0
   16a2a:	8082                	ret
   16a2c:	4501                	li	a0,0
   16a2e:	bfdd                	j	16a24 <__ascii_mbtowc+0x2c>
   16a30:	5579                	li	a0,-2
   16a32:	8082                	ret
   16a34:	5579                	li	a0,-2
   16a36:	b7fd                	j	16a24 <__ascii_mbtowc+0x2c>

0000000000016a38 <_Balloc>:
   16a38:	7d3c                	ld	a5,120(a0)
   16a3a:	1101                	addi	sp,sp,-32
   16a3c:	e822                	sd	s0,16(sp)
   16a3e:	e426                	sd	s1,8(sp)
   16a40:	ec06                	sd	ra,24(sp)
   16a42:	e04a                	sd	s2,0(sp)
   16a44:	842a                	mv	s0,a0
   16a46:	84ae                	mv	s1,a1
   16a48:	c385                	beqz	a5,16a68 <_Balloc+0x30>
   16a4a:	00349713          	slli	a4,s1,0x3
   16a4e:	97ba                	add	a5,a5,a4
   16a50:	6388                	ld	a0,0(a5)
   16a52:	c50d                	beqz	a0,16a7c <_Balloc+0x44>
   16a54:	6118                	ld	a4,0(a0)
   16a56:	e398                	sd	a4,0(a5)
   16a58:	00053823          	sd	zero,16(a0)
   16a5c:	60e2                	ld	ra,24(sp)
   16a5e:	6442                	ld	s0,16(sp)
   16a60:	64a2                	ld	s1,8(sp)
   16a62:	6902                	ld	s2,0(sp)
   16a64:	6105                	addi	sp,sp,32
   16a66:	8082                	ret
   16a68:	04100613          	li	a2,65
   16a6c:	45a1                	li	a1,8
   16a6e:	774030ef          	jal	ra,1a1e2 <_calloc_r>
   16a72:	fc28                	sd	a0,120(s0)
   16a74:	87aa                	mv	a5,a0
   16a76:	f971                	bnez	a0,16a4a <_Balloc+0x12>
   16a78:	4501                	li	a0,0
   16a7a:	b7cd                	j	16a5c <_Balloc+0x24>
   16a7c:	4905                	li	s2,1
   16a7e:	0099193b          	sllw	s2,s2,s1
   16a82:	fff9061b          	addiw	a2,s2,-1
   16a86:	0621                	addi	a2,a2,8
   16a88:	060a                	slli	a2,a2,0x2
   16a8a:	4585                	li	a1,1
   16a8c:	8522                	mv	a0,s0
   16a8e:	754030ef          	jal	ra,1a1e2 <_calloc_r>
   16a92:	d17d                	beqz	a0,16a78 <_Balloc+0x40>
   16a94:	c504                	sw	s1,8(a0)
   16a96:	01252623          	sw	s2,12(a0)
   16a9a:	bf7d                	j	16a58 <_Balloc+0x20>

0000000000016a9c <_Bfree>:
   16a9c:	c981                	beqz	a1,16aac <_Bfree+0x10>
   16a9e:	4598                	lw	a4,8(a1)
   16aa0:	7d3c                	ld	a5,120(a0)
   16aa2:	070e                	slli	a4,a4,0x3
   16aa4:	97ba                	add	a5,a5,a4
   16aa6:	6398                	ld	a4,0(a5)
   16aa8:	e198                	sd	a4,0(a1)
   16aaa:	e38c                	sd	a1,0(a5)
   16aac:	8082                	ret

0000000000016aae <__multadd>:
   16aae:	7139                	addi	sp,sp,-64
   16ab0:	6841                	lui	a6,0x10
   16ab2:	f822                	sd	s0,48(sp)
   16ab4:	f426                	sd	s1,40(sp)
   16ab6:	f04a                	sd	s2,32(sp)
   16ab8:	84ae                	mv	s1,a1
   16aba:	49c0                	lw	s0,20(a1)
   16abc:	892a                	mv	s2,a0
   16abe:	fc06                	sd	ra,56(sp)
   16ac0:	ec4e                	sd	s3,24(sp)
   16ac2:	05e1                	addi	a1,a1,24
   16ac4:	4501                	li	a0,0
   16ac6:	187d                	addi	a6,a6,-1
   16ac8:	419c                	lw	a5,0(a1)
   16aca:	0591                	addi	a1,a1,4
   16acc:	2505                	addiw	a0,a0,1
   16ace:	0107f733          	and	a4,a5,a6
   16ad2:	02c7073b          	mulw	a4,a4,a2
   16ad6:	0107d79b          	srliw	a5,a5,0x10
   16ada:	02c787bb          	mulw	a5,a5,a2
   16ade:	9eb9                	addw	a3,a3,a4
   16ae0:	0106d89b          	srliw	a7,a3,0x10
   16ae4:	00d87733          	and	a4,a6,a3
   16ae8:	011786bb          	addw	a3,a5,a7
   16aec:	0106979b          	slliw	a5,a3,0x10
   16af0:	9f3d                	addw	a4,a4,a5
   16af2:	fee5ae23          	sw	a4,-4(a1)
   16af6:	0106d69b          	srliw	a3,a3,0x10
   16afa:	fc8547e3          	blt	a0,s0,16ac8 <__multadd+0x1a>
   16afe:	ca99                	beqz	a3,16b14 <__multadd+0x66>
   16b00:	44dc                	lw	a5,12(s1)
   16b02:	02f45163          	bge	s0,a5,16b24 <__multadd+0x76>
   16b06:	00440793          	addi	a5,s0,4
   16b0a:	078a                	slli	a5,a5,0x2
   16b0c:	97a6                	add	a5,a5,s1
   16b0e:	c794                	sw	a3,8(a5)
   16b10:	2405                	addiw	s0,s0,1
   16b12:	c8c0                	sw	s0,20(s1)
   16b14:	70e2                	ld	ra,56(sp)
   16b16:	7442                	ld	s0,48(sp)
   16b18:	8526                	mv	a0,s1
   16b1a:	7902                	ld	s2,32(sp)
   16b1c:	74a2                	ld	s1,40(sp)
   16b1e:	69e2                	ld	s3,24(sp)
   16b20:	6121                	addi	sp,sp,64
   16b22:	8082                	ret
   16b24:	448c                	lw	a1,8(s1)
   16b26:	854a                	mv	a0,s2
   16b28:	e436                	sd	a3,8(sp)
   16b2a:	2585                	addiw	a1,a1,1
   16b2c:	f0dff0ef          	jal	ra,16a38 <_Balloc>
   16b30:	48d0                	lw	a2,20(s1)
   16b32:	89aa                	mv	s3,a0
   16b34:	01048593          	addi	a1,s1,16
   16b38:	0609                	addi	a2,a2,2
   16b3a:	0541                	addi	a0,a0,16
   16b3c:	060a                	slli	a2,a2,0x2
   16b3e:	9defb0ef          	jal	ra,11d1c <memcpy>
   16b42:	4498                	lw	a4,8(s1)
   16b44:	07893783          	ld	a5,120(s2)
   16b48:	66a2                	ld	a3,8(sp)
   16b4a:	070e                	slli	a4,a4,0x3
   16b4c:	97ba                	add	a5,a5,a4
   16b4e:	6398                	ld	a4,0(a5)
   16b50:	e098                	sd	a4,0(s1)
   16b52:	e384                	sd	s1,0(a5)
   16b54:	00440793          	addi	a5,s0,4
   16b58:	84ce                	mv	s1,s3
   16b5a:	078a                	slli	a5,a5,0x2
   16b5c:	97a6                	add	a5,a5,s1
   16b5e:	c794                	sw	a3,8(a5)
   16b60:	2405                	addiw	s0,s0,1
   16b62:	c8c0                	sw	s0,20(s1)
   16b64:	bf45                	j	16b14 <__multadd+0x66>

0000000000016b66 <__s2b>:
   16b66:	7139                	addi	sp,sp,-64
   16b68:	f822                	sd	s0,48(sp)
   16b6a:	f426                	sd	s1,40(sp)
   16b6c:	f04a                	sd	s2,32(sp)
   16b6e:	ec4e                	sd	s3,24(sp)
   16b70:	e852                	sd	s4,16(sp)
   16b72:	84b6                	mv	s1,a3
   16b74:	89ba                	mv	s3,a4
   16b76:	26a1                	addiw	a3,a3,8
   16b78:	4725                	li	a4,9
   16b7a:	fc06                	sd	ra,56(sp)
   16b7c:	e456                	sd	s5,8(sp)
   16b7e:	e05a                	sd	s6,0(sp)
   16b80:	47a5                	li	a5,9
   16b82:	892a                	mv	s2,a0
   16b84:	842e                	mv	s0,a1
   16b86:	8a32                	mv	s4,a2
   16b88:	02e6c6bb          	divw	a3,a3,a4
   16b8c:	0897df63          	bge	a5,s1,16c2a <__s2b+0xc4>
   16b90:	4785                	li	a5,1
   16b92:	4581                	li	a1,0
   16b94:	0017979b          	slliw	a5,a5,0x1
   16b98:	2585                	addiw	a1,a1,1
   16b9a:	fed7cde3          	blt	a5,a3,16b94 <__s2b+0x2e>
   16b9e:	854a                	mv	a0,s2
   16ba0:	e99ff0ef          	jal	ra,16a38 <_Balloc>
   16ba4:	4785                	li	a5,1
   16ba6:	c95c                	sw	a5,20(a0)
   16ba8:	01352c23          	sw	s3,24(a0)
   16bac:	47a5                	li	a5,9
   16bae:	0747db63          	bge	a5,s4,16c24 <__s2b+0xbe>
   16bb2:	ff6a0a9b          	addiw	s5,s4,-10
   16bb6:	1a82                	slli	s5,s5,0x20
   16bb8:	020ada93          	srli	s5,s5,0x20
   16bbc:	00940b13          	addi	s6,s0,9
   16bc0:	00aa8793          	addi	a5,s5,10
   16bc4:	943e                	add	s0,s0,a5
   16bc6:	89da                	mv	s3,s6
   16bc8:	0985                	addi	s3,s3,1
   16bca:	fff9c683          	lbu	a3,-1(s3) # fff <register_fini-0xf0b1>
   16bce:	85aa                	mv	a1,a0
   16bd0:	4629                	li	a2,10
   16bd2:	fd06869b          	addiw	a3,a3,-48
   16bd6:	854a                	mv	a0,s2
   16bd8:	ed7ff0ef          	jal	ra,16aae <__multadd>
   16bdc:	fe8996e3          	bne	s3,s0,16bc8 <__s2b+0x62>
   16be0:	002a8413          	addi	s0,s5,2
   16be4:	945a                	add	s0,s0,s6
   16be6:	029a5563          	bge	s4,s1,16c10 <__s2b+0xaa>
   16bea:	34fd                	addiw	s1,s1,-1
   16bec:	414484bb          	subw	s1,s1,s4
   16bf0:	1482                	slli	s1,s1,0x20
   16bf2:	9081                	srli	s1,s1,0x20
   16bf4:	0485                	addi	s1,s1,1
   16bf6:	94a2                	add	s1,s1,s0
   16bf8:	0405                	addi	s0,s0,1
   16bfa:	fff44683          	lbu	a3,-1(s0)
   16bfe:	85aa                	mv	a1,a0
   16c00:	4629                	li	a2,10
   16c02:	fd06869b          	addiw	a3,a3,-48
   16c06:	854a                	mv	a0,s2
   16c08:	ea7ff0ef          	jal	ra,16aae <__multadd>
   16c0c:	fe9416e3          	bne	s0,s1,16bf8 <__s2b+0x92>
   16c10:	70e2                	ld	ra,56(sp)
   16c12:	7442                	ld	s0,48(sp)
   16c14:	74a2                	ld	s1,40(sp)
   16c16:	7902                	ld	s2,32(sp)
   16c18:	69e2                	ld	s3,24(sp)
   16c1a:	6a42                	ld	s4,16(sp)
   16c1c:	6aa2                	ld	s5,8(sp)
   16c1e:	6b02                	ld	s6,0(sp)
   16c20:	6121                	addi	sp,sp,64
   16c22:	8082                	ret
   16c24:	0429                	addi	s0,s0,10
   16c26:	4a25                	li	s4,9
   16c28:	bf7d                	j	16be6 <__s2b+0x80>
   16c2a:	4581                	li	a1,0
   16c2c:	bf8d                	j	16b9e <__s2b+0x38>

0000000000016c2e <__hi0bits>:
   16c2e:	7741                	lui	a4,0xffff0
   16c30:	8f69                	and	a4,a4,a0
   16c32:	87aa                	mv	a5,a0
   16c34:	4501                	li	a0,0
   16c36:	e701                	bnez	a4,16c3e <__hi0bits+0x10>
   16c38:	0107979b          	slliw	a5,a5,0x10
   16c3c:	4541                	li	a0,16
   16c3e:	ff000737          	lui	a4,0xff000
   16c42:	8f7d                	and	a4,a4,a5
   16c44:	e701                	bnez	a4,16c4c <__hi0bits+0x1e>
   16c46:	0087979b          	slliw	a5,a5,0x8
   16c4a:	2521                	addiw	a0,a0,8
   16c4c:	f0000737          	lui	a4,0xf0000
   16c50:	8f7d                	and	a4,a4,a5
   16c52:	e701                	bnez	a4,16c5a <__hi0bits+0x2c>
   16c54:	0047979b          	slliw	a5,a5,0x4
   16c58:	2511                	addiw	a0,a0,4
   16c5a:	c0000737          	lui	a4,0xc0000
   16c5e:	8f7d                	and	a4,a4,a5
   16c60:	e701                	bnez	a4,16c68 <__hi0bits+0x3a>
   16c62:	0027979b          	slliw	a5,a5,0x2
   16c66:	2509                	addiw	a0,a0,2
   16c68:	0007c763          	bltz	a5,16c76 <__hi0bits+0x48>
   16c6c:	02179713          	slli	a4,a5,0x21
   16c70:	2505                	addiw	a0,a0,1
   16c72:	00075363          	bgez	a4,16c78 <__hi0bits+0x4a>
   16c76:	8082                	ret
   16c78:	02000513          	li	a0,32
   16c7c:	8082                	ret

0000000000016c7e <__lo0bits>:
   16c7e:	411c                	lw	a5,0(a0)
   16c80:	0077f713          	andi	a4,a5,7
   16c84:	863e                	mv	a2,a5
   16c86:	cf09                	beqz	a4,16ca0 <__lo0bits+0x22>
   16c88:	0017f693          	andi	a3,a5,1
   16c8c:	4701                	li	a4,0
   16c8e:	e699                	bnez	a3,16c9c <__lo0bits+0x1e>
   16c90:	8a09                	andi	a2,a2,2
   16c92:	ce31                	beqz	a2,16cee <__lo0bits+0x70>
   16c94:	0017d79b          	srliw	a5,a5,0x1
   16c98:	c11c                	sw	a5,0(a0)
   16c9a:	4705                	li	a4,1
   16c9c:	853a                	mv	a0,a4
   16c9e:	8082                	ret
   16ca0:	03079693          	slli	a3,a5,0x30
   16ca4:	92c1                	srli	a3,a3,0x30
   16ca6:	4701                	li	a4,0
   16ca8:	e681                	bnez	a3,16cb0 <__lo0bits+0x32>
   16caa:	0107d79b          	srliw	a5,a5,0x10
   16cae:	4741                	li	a4,16
   16cb0:	0ff7f693          	andi	a3,a5,255
   16cb4:	e681                	bnez	a3,16cbc <__lo0bits+0x3e>
   16cb6:	2721                	addiw	a4,a4,8
   16cb8:	0087d79b          	srliw	a5,a5,0x8
   16cbc:	00f7f693          	andi	a3,a5,15
   16cc0:	e681                	bnez	a3,16cc8 <__lo0bits+0x4a>
   16cc2:	2711                	addiw	a4,a4,4
   16cc4:	0047d79b          	srliw	a5,a5,0x4
   16cc8:	0037f693          	andi	a3,a5,3
   16ccc:	e681                	bnez	a3,16cd4 <__lo0bits+0x56>
   16cce:	2709                	addiw	a4,a4,2
   16cd0:	0027d79b          	srliw	a5,a5,0x2
   16cd4:	0017f693          	andi	a3,a5,1
   16cd8:	e689                	bnez	a3,16ce2 <__lo0bits+0x64>
   16cda:	0017d79b          	srliw	a5,a5,0x1
   16cde:	2705                	addiw	a4,a4,1
   16ce0:	c781                	beqz	a5,16ce8 <__lo0bits+0x6a>
   16ce2:	c11c                	sw	a5,0(a0)
   16ce4:	853a                	mv	a0,a4
   16ce6:	8082                	ret
   16ce8:	02000713          	li	a4,32
   16cec:	bf45                	j	16c9c <__lo0bits+0x1e>
   16cee:	0027d79b          	srliw	a5,a5,0x2
   16cf2:	4709                	li	a4,2
   16cf4:	c11c                	sw	a5,0(a0)
   16cf6:	853a                	mv	a0,a4
   16cf8:	8082                	ret

0000000000016cfa <__i2b>:
   16cfa:	1141                	addi	sp,sp,-16
   16cfc:	e022                	sd	s0,0(sp)
   16cfe:	842e                	mv	s0,a1
   16d00:	4585                	li	a1,1
   16d02:	e406                	sd	ra,8(sp)
   16d04:	d35ff0ef          	jal	ra,16a38 <_Balloc>
   16d08:	cd00                	sw	s0,24(a0)
   16d0a:	60a2                	ld	ra,8(sp)
   16d0c:	6402                	ld	s0,0(sp)
   16d0e:	4705                	li	a4,1
   16d10:	c958                	sw	a4,20(a0)
   16d12:	0141                	addi	sp,sp,16
   16d14:	8082                	ret

0000000000016d16 <__multiply>:
   16d16:	7179                	addi	sp,sp,-48
   16d18:	e44e                	sd	s3,8(sp)
   16d1a:	e052                	sd	s4,0(sp)
   16d1c:	01462983          	lw	s3,20(a2)
   16d20:	0145aa03          	lw	s4,20(a1)
   16d24:	ec26                	sd	s1,24(sp)
   16d26:	e84a                	sd	s2,16(sp)
   16d28:	f406                	sd	ra,40(sp)
   16d2a:	f022                	sd	s0,32(sp)
   16d2c:	84ae                	mv	s1,a1
   16d2e:	8932                	mv	s2,a2
   16d30:	013a4763          	blt	s4,s3,16d3e <__multiply+0x28>
   16d34:	87ce                	mv	a5,s3
   16d36:	892e                	mv	s2,a1
   16d38:	89d2                	mv	s3,s4
   16d3a:	84b2                	mv	s1,a2
   16d3c:	8a3e                	mv	s4,a5
   16d3e:	00c92783          	lw	a5,12(s2)
   16d42:	0149843b          	addw	s0,s3,s4
   16d46:	00892583          	lw	a1,8(s2)
   16d4a:	0087d363          	bge	a5,s0,16d50 <__multiply+0x3a>
   16d4e:	2585                	addiw	a1,a1,1
   16d50:	ce9ff0ef          	jal	ra,16a38 <_Balloc>
   16d54:	01850e13          	addi	t3,a0,24
   16d58:	00241313          	slli	t1,s0,0x2
   16d5c:	9372                	add	t1,t1,t3
   16d5e:	87f2                	mv	a5,t3
   16d60:	006e7763          	bgeu	t3,t1,16d6e <__multiply+0x58>
   16d64:	0007a023          	sw	zero,0(a5)
   16d68:	0791                	addi	a5,a5,4
   16d6a:	fe67ede3          	bltu	a5,t1,16d64 <__multiply+0x4e>
   16d6e:	01848593          	addi	a1,s1,24
   16d72:	002a1e93          	slli	t4,s4,0x2
   16d76:	01890613          	addi	a2,s2,24
   16d7a:	00299893          	slli	a7,s3,0x2
   16d7e:	6841                	lui	a6,0x10
   16d80:	9eae                	add	t4,t4,a1
   16d82:	98b2                	add	a7,a7,a2
   16d84:	187d                	addi	a6,a6,-1
   16d86:	01d5eb63          	bltu	a1,t4,16d9c <__multiply+0x86>
   16d8a:	a0c5                	j	16e6a <__multiply+0x154>
   16d8c:	0102d29b          	srliw	t0,t0,0x10
   16d90:	06029b63          	bnez	t0,16e06 <__multiply+0xf0>
   16d94:	0591                	addi	a1,a1,4
   16d96:	0e11                	addi	t3,t3,4
   16d98:	0dd5f963          	bgeu	a1,t4,16e6a <__multiply+0x154>
   16d9c:	0005a283          	lw	t0,0(a1)
   16da0:	0102f3b3          	and	t2,t0,a6
   16da4:	fe0384e3          	beqz	t2,16d8c <__multiply+0x76>
   16da8:	8ff2                	mv	t6,t3
   16daa:	82b2                	mv	t0,a2
   16dac:	4481                	li	s1,0
   16dae:	0002a683          	lw	a3,0(t0) # 11f64 <memset+0x90>
   16db2:	000faf03          	lw	t5,0(t6)
   16db6:	0f91                	addi	t6,t6,4
   16db8:	0106f7b3          	and	a5,a3,a6
   16dbc:	027787bb          	mulw	a5,a5,t2
   16dc0:	0106d71b          	srliw	a4,a3,0x10
   16dc4:	010f76b3          	and	a3,t5,a6
   16dc8:	010f5f1b          	srliw	t5,t5,0x10
   16dcc:	0291                	addi	t0,t0,4
   16dce:	0277073b          	mulw	a4,a4,t2
   16dd2:	9fb5                	addw	a5,a5,a3
   16dd4:	9fa5                	addw	a5,a5,s1
   16dd6:	0107d69b          	srliw	a3,a5,0x10
   16dda:	00f877b3          	and	a5,a6,a5
   16dde:	01e7073b          	addw	a4,a4,t5
   16de2:	9f35                	addw	a4,a4,a3
   16de4:	0107169b          	slliw	a3,a4,0x10
   16de8:	8fd5                	or	a5,a5,a3
   16dea:	feffae23          	sw	a5,-4(t6)
   16dee:	0107549b          	srliw	s1,a4,0x10
   16df2:	fb12eee3          	bltu	t0,a7,16dae <__multiply+0x98>
   16df6:	009fa023          	sw	s1,0(t6)
   16dfa:	0005a283          	lw	t0,0(a1)
   16dfe:	0102d29b          	srliw	t0,t0,0x10
   16e02:	f80289e3          	beqz	t0,16d94 <__multiply+0x7e>
   16e06:	000e2683          	lw	a3,0(t3)
   16e0a:	8ff2                	mv	t6,t3
   16e0c:	8f32                	mv	t5,a2
   16e0e:	83b6                	mv	t2,a3
   16e10:	4701                	li	a4,0
   16e12:	000f2783          	lw	a5,0(t5)
   16e16:	0103d91b          	srliw	s2,t2,0x10
   16e1a:	0106f6b3          	and	a3,a3,a6
   16e1e:	0107f7b3          	and	a5,a5,a6
   16e22:	025787bb          	mulw	a5,a5,t0
   16e26:	0f91                	addi	t6,t6,4
   16e28:	0f11                	addi	t5,t5,4
   16e2a:	000fa383          	lw	t2,0(t6)
   16e2e:	0103f4b3          	and	s1,t2,a6
   16e32:	012787bb          	addw	a5,a5,s2
   16e36:	9fb9                	addw	a5,a5,a4
   16e38:	0107971b          	slliw	a4,a5,0x10
   16e3c:	8ed9                	or	a3,a3,a4
   16e3e:	fedfae23          	sw	a3,-4(t6)
   16e42:	ffef5703          	lhu	a4,-2(t5)
   16e46:	0107d79b          	srliw	a5,a5,0x10
   16e4a:	0257073b          	mulw	a4,a4,t0
   16e4e:	9f25                	addw	a4,a4,s1
   16e50:	9fb9                	addw	a5,a5,a4
   16e52:	0007869b          	sext.w	a3,a5
   16e56:	0107d71b          	srliw	a4,a5,0x10
   16e5a:	fb1f6ce3          	bltu	t5,a7,16e12 <__multiply+0xfc>
   16e5e:	00dfa023          	sw	a3,0(t6)
   16e62:	0591                	addi	a1,a1,4
   16e64:	0e11                	addi	t3,t3,4
   16e66:	f3d5ebe3          	bltu	a1,t4,16d9c <__multiply+0x86>
   16e6a:	00805d63          	blez	s0,16e84 <__multiply+0x16e>
   16e6e:	ffc32783          	lw	a5,-4(t1)
   16e72:	1371                	addi	t1,t1,-4
   16e74:	c789                	beqz	a5,16e7e <__multiply+0x168>
   16e76:	a039                	j	16e84 <__multiply+0x16e>
   16e78:	00032783          	lw	a5,0(t1)
   16e7c:	e781                	bnez	a5,16e84 <__multiply+0x16e>
   16e7e:	347d                	addiw	s0,s0,-1
   16e80:	1371                	addi	t1,t1,-4
   16e82:	f87d                	bnez	s0,16e78 <__multiply+0x162>
   16e84:	c940                	sw	s0,20(a0)
   16e86:	70a2                	ld	ra,40(sp)
   16e88:	7402                	ld	s0,32(sp)
   16e8a:	64e2                	ld	s1,24(sp)
   16e8c:	6942                	ld	s2,16(sp)
   16e8e:	69a2                	ld	s3,8(sp)
   16e90:	6a02                	ld	s4,0(sp)
   16e92:	6145                	addi	sp,sp,48
   16e94:	8082                	ret

0000000000016e96 <__pow5mult>:
   16e96:	7179                	addi	sp,sp,-48
   16e98:	f022                	sd	s0,32(sp)
   16e9a:	e44e                	sd	s3,8(sp)
   16e9c:	e052                	sd	s4,0(sp)
   16e9e:	f406                	sd	ra,40(sp)
   16ea0:	ec26                	sd	s1,24(sp)
   16ea2:	e84a                	sd	s2,16(sp)
   16ea4:	00367793          	andi	a5,a2,3
   16ea8:	8432                	mv	s0,a2
   16eaa:	89aa                	mv	s3,a0
   16eac:	8a2e                	mv	s4,a1
   16eae:	efad                	bnez	a5,16f28 <__pow5mult+0x92>
   16eb0:	8409                	srai	s0,s0,0x2
   16eb2:	8952                	mv	s2,s4
   16eb4:	c429                	beqz	s0,16efe <__pow5mult+0x68>
   16eb6:	0709b483          	ld	s1,112(s3)
   16eba:	c0d9                	beqz	s1,16f40 <__pow5mult+0xaa>
   16ebc:	00147793          	andi	a5,s0,1
   16ec0:	8952                	mv	s2,s4
   16ec2:	eb89                	bnez	a5,16ed4 <__pow5mult+0x3e>
   16ec4:	8405                	srai	s0,s0,0x1
   16ec6:	cc05                	beqz	s0,16efe <__pow5mult+0x68>
   16ec8:	6088                	ld	a0,0(s1)
   16eca:	c139                	beqz	a0,16f10 <__pow5mult+0x7a>
   16ecc:	84aa                	mv	s1,a0
   16ece:	00147793          	andi	a5,s0,1
   16ed2:	dbed                	beqz	a5,16ec4 <__pow5mult+0x2e>
   16ed4:	8626                	mv	a2,s1
   16ed6:	85ca                	mv	a1,s2
   16ed8:	854e                	mv	a0,s3
   16eda:	e3dff0ef          	jal	ra,16d16 <__multiply>
   16ede:	04090363          	beqz	s2,16f24 <__pow5mult+0x8e>
   16ee2:	00892703          	lw	a4,8(s2)
   16ee6:	0789b783          	ld	a5,120(s3)
   16eea:	8405                	srai	s0,s0,0x1
   16eec:	070e                	slli	a4,a4,0x3
   16eee:	97ba                	add	a5,a5,a4
   16ef0:	6398                	ld	a4,0(a5)
   16ef2:	00e93023          	sd	a4,0(s2)
   16ef6:	0127b023          	sd	s2,0(a5)
   16efa:	892a                	mv	s2,a0
   16efc:	f471                	bnez	s0,16ec8 <__pow5mult+0x32>
   16efe:	70a2                	ld	ra,40(sp)
   16f00:	7402                	ld	s0,32(sp)
   16f02:	854a                	mv	a0,s2
   16f04:	64e2                	ld	s1,24(sp)
   16f06:	6942                	ld	s2,16(sp)
   16f08:	69a2                	ld	s3,8(sp)
   16f0a:	6a02                	ld	s4,0(sp)
   16f0c:	6145                	addi	sp,sp,48
   16f0e:	8082                	ret
   16f10:	8626                	mv	a2,s1
   16f12:	85a6                	mv	a1,s1
   16f14:	854e                	mv	a0,s3
   16f16:	e01ff0ef          	jal	ra,16d16 <__multiply>
   16f1a:	e088                	sd	a0,0(s1)
   16f1c:	00053023          	sd	zero,0(a0)
   16f20:	84aa                	mv	s1,a0
   16f22:	b775                	j	16ece <__pow5mult+0x38>
   16f24:	892a                	mv	s2,a0
   16f26:	bf79                	j	16ec4 <__pow5mult+0x2e>
   16f28:	37fd                	addiw	a5,a5,-1
   16f2a:	6775                	lui	a4,0x1d
   16f2c:	d6870713          	addi	a4,a4,-664 # 1cd68 <p05.3343>
   16f30:	078a                	slli	a5,a5,0x2
   16f32:	97ba                	add	a5,a5,a4
   16f34:	4390                	lw	a2,0(a5)
   16f36:	4681                	li	a3,0
   16f38:	b77ff0ef          	jal	ra,16aae <__multadd>
   16f3c:	8a2a                	mv	s4,a0
   16f3e:	bf8d                	j	16eb0 <__pow5mult+0x1a>
   16f40:	4585                	li	a1,1
   16f42:	854e                	mv	a0,s3
   16f44:	af5ff0ef          	jal	ra,16a38 <_Balloc>
   16f48:	27100793          	li	a5,625
   16f4c:	cd1c                	sw	a5,24(a0)
   16f4e:	4785                	li	a5,1
   16f50:	c95c                	sw	a5,20(a0)
   16f52:	06a9b823          	sd	a0,112(s3)
   16f56:	84aa                	mv	s1,a0
   16f58:	00053023          	sd	zero,0(a0)
   16f5c:	b785                	j	16ebc <__pow5mult+0x26>

0000000000016f5e <__lshift>:
   16f5e:	7139                	addi	sp,sp,-64
   16f60:	ec4e                	sd	s3,24(sp)
   16f62:	0145a983          	lw	s3,20(a1)
   16f66:	e05a                	sd	s6,0(sp)
   16f68:	45dc                	lw	a5,12(a1)
   16f6a:	40565b1b          	sraiw	s6,a2,0x5
   16f6e:	016989bb          	addw	s3,s3,s6
   16f72:	f822                	sd	s0,48(sp)
   16f74:	f426                	sd	s1,40(sp)
   16f76:	f04a                	sd	s2,32(sp)
   16f78:	e852                	sd	s4,16(sp)
   16f7a:	e456                	sd	s5,8(sp)
   16f7c:	fc06                	sd	ra,56(sp)
   16f7e:	0019849b          	addiw	s1,s3,1
   16f82:	892e                	mv	s2,a1
   16f84:	8ab2                	mv	s5,a2
   16f86:	845a                	mv	s0,s6
   16f88:	8a2a                	mv	s4,a0
   16f8a:	458c                	lw	a1,8(a1)
   16f8c:	0097d763          	bge	a5,s1,16f9a <__lshift+0x3c>
   16f90:	0017979b          	slliw	a5,a5,0x1
   16f94:	2585                	addiw	a1,a1,1
   16f96:	fe97cde3          	blt	a5,s1,16f90 <__lshift+0x32>
   16f9a:	8552                	mv	a0,s4
   16f9c:	a9dff0ef          	jal	ra,16a38 <_Balloc>
   16fa0:	01850713          	addi	a4,a0,24
   16fa4:	03605263          	blez	s6,16fc8 <__lshift+0x6a>
   16fa8:	347d                	addiw	s0,s0,-1
   16faa:	1402                	slli	s0,s0,0x20
   16fac:	9001                	srli	s0,s0,0x20
   16fae:	00740693          	addi	a3,s0,7
   16fb2:	068a                	slli	a3,a3,0x2
   16fb4:	96aa                	add	a3,a3,a0
   16fb6:	87ba                	mv	a5,a4
   16fb8:	0791                	addi	a5,a5,4
   16fba:	fe07ae23          	sw	zero,-4(a5)
   16fbe:	fed79de3          	bne	a5,a3,16fb8 <__lshift+0x5a>
   16fc2:	0405                	addi	s0,s0,1
   16fc4:	040a                	slli	s0,s0,0x2
   16fc6:	9722                	add	a4,a4,s0
   16fc8:	01492803          	lw	a6,20(s2)
   16fcc:	01890793          	addi	a5,s2,24
   16fd0:	01faf613          	andi	a2,s5,31
   16fd4:	080a                	slli	a6,a6,0x2
   16fd6:	983e                	add	a6,a6,a5
   16fd8:	ce31                	beqz	a2,17034 <__lshift+0xd6>
   16fda:	02000893          	li	a7,32
   16fde:	40c888bb          	subw	a7,a7,a2
   16fe2:	4681                	li	a3,0
   16fe4:	438c                	lw	a1,0(a5)
   16fe6:	0711                	addi	a4,a4,4
   16fe8:	0791                	addi	a5,a5,4
   16fea:	00c595bb          	sllw	a1,a1,a2
   16fee:	8ecd                	or	a3,a3,a1
   16ff0:	fed72e23          	sw	a3,-4(a4)
   16ff4:	ffc7a683          	lw	a3,-4(a5)
   16ff8:	0116d6bb          	srlw	a3,a3,a7
   16ffc:	ff07e4e3          	bltu	a5,a6,16fe4 <__lshift+0x86>
   17000:	c314                	sw	a3,0(a4)
   17002:	c291                	beqz	a3,17006 <__lshift+0xa8>
   17004:	89a6                	mv	s3,s1
   17006:	00892703          	lw	a4,8(s2)
   1700a:	078a3783          	ld	a5,120(s4)
   1700e:	70e2                	ld	ra,56(sp)
   17010:	070e                	slli	a4,a4,0x3
   17012:	97ba                	add	a5,a5,a4
   17014:	6398                	ld	a4,0(a5)
   17016:	01352a23          	sw	s3,20(a0)
   1701a:	7442                	ld	s0,48(sp)
   1701c:	00e93023          	sd	a4,0(s2)
   17020:	0127b023          	sd	s2,0(a5)
   17024:	74a2                	ld	s1,40(sp)
   17026:	7902                	ld	s2,32(sp)
   17028:	69e2                	ld	s3,24(sp)
   1702a:	6a42                	ld	s4,16(sp)
   1702c:	6aa2                	ld	s5,8(sp)
   1702e:	6b02                	ld	s6,0(sp)
   17030:	6121                	addi	sp,sp,64
   17032:	8082                	ret
   17034:	0791                	addi	a5,a5,4
   17036:	ffc7a683          	lw	a3,-4(a5)
   1703a:	0711                	addi	a4,a4,4
   1703c:	fed72e23          	sw	a3,-4(a4)
   17040:	fd07f3e3          	bgeu	a5,a6,17006 <__lshift+0xa8>
   17044:	0791                	addi	a5,a5,4
   17046:	ffc7a683          	lw	a3,-4(a5)
   1704a:	0711                	addi	a4,a4,4
   1704c:	fed72e23          	sw	a3,-4(a4)
   17050:	ff07e2e3          	bltu	a5,a6,17034 <__lshift+0xd6>
   17054:	bf4d                	j	17006 <__lshift+0xa8>

0000000000017056 <__mcmp>:
   17056:	862a                	mv	a2,a0
   17058:	49dc                	lw	a5,20(a1)
   1705a:	4948                	lw	a0,20(a0)
   1705c:	9d1d                	subw	a0,a0,a5
   1705e:	e505                	bnez	a0,17086 <__mcmp+0x30>
   17060:	00279713          	slli	a4,a5,0x2
   17064:	0661                	addi	a2,a2,24
   17066:	05e1                	addi	a1,a1,24
   17068:	00e607b3          	add	a5,a2,a4
   1706c:	95ba                	add	a1,a1,a4
   1706e:	a019                	j	17074 <__mcmp+0x1e>
   17070:	00f67b63          	bgeu	a2,a5,17086 <__mcmp+0x30>
   17074:	17f1                	addi	a5,a5,-4
   17076:	15f1                	addi	a1,a1,-4
   17078:	4394                	lw	a3,0(a5)
   1707a:	4198                	lw	a4,0(a1)
   1707c:	fee68ae3          	beq	a3,a4,17070 <__mcmp+0x1a>
   17080:	557d                	li	a0,-1
   17082:	00e6f363          	bgeu	a3,a4,17088 <__mcmp+0x32>
   17086:	8082                	ret
   17088:	4505                	li	a0,1
   1708a:	8082                	ret

000000000001708c <__mdiff>:
   1708c:	7179                	addi	sp,sp,-48
   1708e:	e84a                	sd	s2,16(sp)
   17090:	4a58                	lw	a4,20(a2)
   17092:	0145a903          	lw	s2,20(a1)
   17096:	f022                	sd	s0,32(sp)
   17098:	ec26                	sd	s1,24(sp)
   1709a:	e44e                	sd	s3,8(sp)
   1709c:	e052                	sd	s4,0(sp)
   1709e:	f406                	sd	ra,40(sp)
   170a0:	40e9093b          	subw	s2,s2,a4
   170a4:	89ae                	mv	s3,a1
   170a6:	8a32                	mv	s4,a2
   170a8:	01858413          	addi	s0,a1,24
   170ac:	01860493          	addi	s1,a2,24
   170b0:	02091963          	bnez	s2,170e2 <__mdiff+0x56>
   170b4:	070a                	slli	a4,a4,0x2
   170b6:	00e407b3          	add	a5,s0,a4
   170ba:	9726                	add	a4,a4,s1
   170bc:	a019                	j	170c2 <__mdiff+0x36>
   170be:	0ef47c63          	bgeu	s0,a5,171b6 <__mdiff+0x12a>
   170c2:	17f1                	addi	a5,a5,-4
   170c4:	1771                	addi	a4,a4,-4
   170c6:	438c                	lw	a1,0(a5)
   170c8:	4314                	lw	a3,0(a4)
   170ca:	fed58ae3          	beq	a1,a3,170be <__mdiff+0x32>
   170ce:	00d5fd63          	bgeu	a1,a3,170e8 <__mdiff+0x5c>
   170d2:	8722                	mv	a4,s0
   170d4:	87ce                	mv	a5,s3
   170d6:	8426                	mv	s0,s1
   170d8:	89d2                	mv	s3,s4
   170da:	84ba                	mv	s1,a4
   170dc:	8a3e                	mv	s4,a5
   170de:	4905                	li	s2,1
   170e0:	a021                	j	170e8 <__mdiff+0x5c>
   170e2:	fe0948e3          	bltz	s2,170d2 <__mdiff+0x46>
   170e6:	4901                	li	s2,0
   170e8:	0089a583          	lw	a1,8(s3)
   170ec:	94dff0ef          	jal	ra,16a38 <_Balloc>
   170f0:	0149a883          	lw	a7,20(s3)
   170f4:	014a2e83          	lw	t4,20(s4)
   170f8:	6e41                	lui	t3,0x10
   170fa:	00289313          	slli	t1,a7,0x2
   170fe:	0e8a                	slli	t4,t4,0x2
   17100:	01252823          	sw	s2,16(a0)
   17104:	9322                	add	t1,t1,s0
   17106:	9ea6                	add	t4,t4,s1
   17108:	01850593          	addi	a1,a0,24
   1710c:	4701                	li	a4,0
   1710e:	1e7d                	addi	t3,t3,-1
   17110:	a011                	j	17114 <__mdiff+0x88>
   17112:	85c2                	mv	a1,a6
   17114:	4014                	lw	a3,0(s0)
   17116:	4090                	lw	a2,0(s1)
   17118:	00458813          	addi	a6,a1,4
   1711c:	01c6f7b3          	and	a5,a3,t3
   17120:	9fb9                	addw	a5,a5,a4
   17122:	01c67733          	and	a4,a2,t3
   17126:	9f99                	subw	a5,a5,a4
   17128:	0106561b          	srliw	a2,a2,0x10
   1712c:	0106d71b          	srliw	a4,a3,0x10
   17130:	9f11                	subw	a4,a4,a2
   17132:	4107d69b          	sraiw	a3,a5,0x10
   17136:	9f35                	addw	a4,a4,a3
   17138:	0107169b          	slliw	a3,a4,0x10
   1713c:	01c7f7b3          	and	a5,a5,t3
   17140:	8fd5                	or	a5,a5,a3
   17142:	2781                	sext.w	a5,a5
   17144:	0491                	addi	s1,s1,4
   17146:	fef82e23          	sw	a5,-4(a6) # fffc <register_fini-0xb4>
   1714a:	0411                	addi	s0,s0,4
   1714c:	4107571b          	sraiw	a4,a4,0x10
   17150:	fdd4e1e3          	bltu	s1,t4,17112 <__mdiff+0x86>
   17154:	04647263          	bgeu	s0,t1,17198 <__mdiff+0x10c>
   17158:	6e41                	lui	t3,0x10
   1715a:	85c2                	mv	a1,a6
   1715c:	8622                	mv	a2,s0
   1715e:	1e7d                	addi	t3,t3,-1
   17160:	4214                	lw	a3,0(a2)
   17162:	0591                	addi	a1,a1,4
   17164:	0611                	addi	a2,a2,4
   17166:	01c6f7b3          	and	a5,a3,t3
   1716a:	9fb9                	addw	a5,a5,a4
   1716c:	0106d71b          	srliw	a4,a3,0x10
   17170:	4107d69b          	sraiw	a3,a5,0x10
   17174:	9f35                	addw	a4,a4,a3
   17176:	0107169b          	slliw	a3,a4,0x10
   1717a:	01c7f7b3          	and	a5,a5,t3
   1717e:	8fd5                	or	a5,a5,a3
   17180:	2781                	sext.w	a5,a5
   17182:	fef5ae23          	sw	a5,-4(a1)
   17186:	4107571b          	sraiw	a4,a4,0x10
   1718a:	fc666be3          	bltu	a2,t1,17160 <__mdiff+0xd4>
   1718e:	fff30593          	addi	a1,t1,-1
   17192:	8d81                	sub	a1,a1,s0
   17194:	99f1                	andi	a1,a1,-4
   17196:	95c2                	add	a1,a1,a6
   17198:	e789                	bnez	a5,171a2 <__mdiff+0x116>
   1719a:	15f1                	addi	a1,a1,-4
   1719c:	419c                	lw	a5,0(a1)
   1719e:	38fd                	addiw	a7,a7,-1
   171a0:	dfed                	beqz	a5,1719a <__mdiff+0x10e>
   171a2:	70a2                	ld	ra,40(sp)
   171a4:	7402                	ld	s0,32(sp)
   171a6:	01152a23          	sw	a7,20(a0)
   171aa:	64e2                	ld	s1,24(sp)
   171ac:	6942                	ld	s2,16(sp)
   171ae:	69a2                	ld	s3,8(sp)
   171b0:	6a02                	ld	s4,0(sp)
   171b2:	6145                	addi	sp,sp,48
   171b4:	8082                	ret
   171b6:	4581                	li	a1,0
   171b8:	881ff0ef          	jal	ra,16a38 <_Balloc>
   171bc:	70a2                	ld	ra,40(sp)
   171be:	7402                	ld	s0,32(sp)
   171c0:	4785                	li	a5,1
   171c2:	c95c                	sw	a5,20(a0)
   171c4:	00052c23          	sw	zero,24(a0)
   171c8:	64e2                	ld	s1,24(sp)
   171ca:	6942                	ld	s2,16(sp)
   171cc:	69a2                	ld	s3,8(sp)
   171ce:	6a02                	ld	s4,0(sp)
   171d0:	6145                	addi	sp,sp,48
   171d2:	8082                	ret

00000000000171d4 <__ulp>:
   171d4:	e20507d3          	fmv.x.d	a5,fa0
   171d8:	7ff00737          	lui	a4,0x7ff00
   171dc:	9381                	srli	a5,a5,0x20
   171de:	8f7d                	and	a4,a4,a5
   171e0:	fcc007b7          	lui	a5,0xfcc00
   171e4:	9fb9                	addw	a5,a5,a4
   171e6:	0007871b          	sext.w	a4,a5
   171ea:	00e05663          	blez	a4,171f6 <__ulp+0x22>
   171ee:	1782                	slli	a5,a5,0x20
   171f0:	f2078553          	fmv.d.x	fa0,a5
   171f4:	8082                	ret
   171f6:	40f007bb          	negw	a5,a5
   171fa:	4147d71b          	sraiw	a4,a5,0x14
   171fe:	46cd                	li	a3,19
   17200:	00e6c763          	blt	a3,a4,1720e <__ulp+0x3a>
   17204:	000807b7          	lui	a5,0x80
   17208:	40e7d7bb          	sraw	a5,a5,a4
   1720c:	b7cd                	j	171ee <__ulp+0x1a>
   1720e:	fec7069b          	addiw	a3,a4,-20
   17212:	4679                	li	a2,30
   17214:	4781                	li	a5,0
   17216:	4705                	li	a4,1
   17218:	00d64663          	blt	a2,a3,17224 <__ulp+0x50>
   1721c:	80000737          	lui	a4,0x80000
   17220:	00d7573b          	srlw	a4,a4,a3
   17224:	9381                	srli	a5,a5,0x20
   17226:	1702                	slli	a4,a4,0x20
   17228:	9301                	srli	a4,a4,0x20
   1722a:	1782                	slli	a5,a5,0x20
   1722c:	8fd9                	or	a5,a5,a4
   1722e:	f2078553          	fmv.d.x	fa0,a5
   17232:	8082                	ret

0000000000017234 <__b2d>:
   17234:	7179                	addi	sp,sp,-48
   17236:	f022                	sd	s0,32(sp)
   17238:	4940                	lw	s0,20(a0)
   1723a:	e84a                	sd	s2,16(sp)
   1723c:	01850913          	addi	s2,a0,24
   17240:	040a                	slli	s0,s0,0x2
   17242:	944a                	add	s0,s0,s2
   17244:	ec26                	sd	s1,24(sp)
   17246:	ffc42483          	lw	s1,-4(s0)
   1724a:	e44e                	sd	s3,8(sp)
   1724c:	e052                	sd	s4,0(sp)
   1724e:	8526                	mv	a0,s1
   17250:	8a2e                	mv	s4,a1
   17252:	f406                	sd	ra,40(sp)
   17254:	9dbff0ef          	jal	ra,16c2e <__hi0bits>
   17258:	02000693          	li	a3,32
   1725c:	40a687bb          	subw	a5,a3,a0
   17260:	00fa2023          	sw	a5,0(s4)
   17264:	47a9                	li	a5,10
   17266:	ffc40993          	addi	s3,s0,-4
   1726a:	06a7dd63          	bge	a5,a0,172e4 <__b2d+0xb0>
   1726e:	ff55079b          	addiw	a5,a0,-11
   17272:	05397663          	bgeu	s2,s3,172be <__b2d+0x8a>
   17276:	ff842703          	lw	a4,-8(s0)
   1727a:	c7a1                	beqz	a5,172c2 <__b2d+0x8e>
   1727c:	40f6853b          	subw	a0,a3,a5
   17280:	00f496bb          	sllw	a3,s1,a5
   17284:	00a754bb          	srlw	s1,a4,a0
   17288:	8ec5                	or	a3,a3,s1
   1728a:	3ff004b7          	lui	s1,0x3ff00
   1728e:	8ec5                	or	a3,a3,s1
   17290:	00f7173b          	sllw	a4,a4,a5
   17294:	ff840613          	addi	a2,s0,-8
   17298:	02069793          	slli	a5,a3,0x20
   1729c:	0007069b          	sext.w	a3,a4
   172a0:	00c97963          	bgeu	s2,a2,172b2 <__b2d+0x7e>
   172a4:	ff442683          	lw	a3,-12(s0)
   172a8:	00a6d53b          	srlw	a0,a3,a0
   172ac:	00e566b3          	or	a3,a0,a4
   172b0:	2681                	sext.w	a3,a3
   172b2:	9381                	srli	a5,a5,0x20
   172b4:	1682                	slli	a3,a3,0x20
   172b6:	9281                	srli	a3,a3,0x20
   172b8:	1782                	slli	a5,a5,0x20
   172ba:	8fd5                	or	a5,a5,a3
   172bc:	a811                	j	172d0 <__b2d+0x9c>
   172be:	4701                	li	a4,0
   172c0:	ebb9                	bnez	a5,17316 <__b2d+0xe2>
   172c2:	3ff007b7          	lui	a5,0x3ff00
   172c6:	8fc5                	or	a5,a5,s1
   172c8:	1702                	slli	a4,a4,0x20
   172ca:	9301                	srli	a4,a4,0x20
   172cc:	1782                	slli	a5,a5,0x20
   172ce:	8fd9                	or	a5,a5,a4
   172d0:	70a2                	ld	ra,40(sp)
   172d2:	7402                	ld	s0,32(sp)
   172d4:	64e2                	ld	s1,24(sp)
   172d6:	6942                	ld	s2,16(sp)
   172d8:	69a2                	ld	s3,8(sp)
   172da:	6a02                	ld	s4,0(sp)
   172dc:	f2078553          	fmv.d.x	fa0,a5
   172e0:	6145                	addi	sp,sp,48
   172e2:	8082                	ret
   172e4:	46ad                	li	a3,11
   172e6:	9e89                	subw	a3,a3,a0
   172e8:	3ff00737          	lui	a4,0x3ff00
   172ec:	00d4d7bb          	srlw	a5,s1,a3
   172f0:	8fd9                	or	a5,a5,a4
   172f2:	1782                	slli	a5,a5,0x20
   172f4:	4701                	li	a4,0
   172f6:	01397663          	bgeu	s2,s3,17302 <__b2d+0xce>
   172fa:	ff842703          	lw	a4,-8(s0)
   172fe:	00d7573b          	srlw	a4,a4,a3
   17302:	2555                	addiw	a0,a0,21
   17304:	00a494bb          	sllw	s1,s1,a0
   17308:	8cd9                	or	s1,s1,a4
   1730a:	9381                	srli	a5,a5,0x20
   1730c:	1482                	slli	s1,s1,0x20
   1730e:	9081                	srli	s1,s1,0x20
   17310:	1782                	slli	a5,a5,0x20
   17312:	8fc5                	or	a5,a5,s1
   17314:	bf75                	j	172d0 <__b2d+0x9c>
   17316:	00f497bb          	sllw	a5,s1,a5
   1731a:	3ff004b7          	lui	s1,0x3ff00
   1731e:	8fc5                	or	a5,a5,s1
   17320:	1782                	slli	a5,a5,0x20
   17322:	4681                	li	a3,0
   17324:	b779                	j	172b2 <__b2d+0x7e>

0000000000017326 <__d2b>:
   17326:	7139                	addi	sp,sp,-64
   17328:	f426                	sd	s1,40(sp)
   1732a:	e20504d3          	fmv.x.d	s1,fa0
   1732e:	ec4e                	sd	s3,24(sp)
   17330:	89ae                	mv	s3,a1
   17332:	4585                	li	a1,1
   17334:	f822                	sd	s0,48(sp)
   17336:	f04a                	sd	s2,32(sp)
   17338:	e852                	sd	s4,16(sp)
   1733a:	fc06                	sd	ra,56(sp)
   1733c:	8932                	mv	s2,a2
   1733e:	efaff0ef          	jal	ra,16a38 <_Balloc>
   17342:	4204d793          	srai	a5,s1,0x20
   17346:	0147d41b          	srliw	s0,a5,0x14
   1734a:	7ff47413          	andi	s0,s0,2047
   1734e:	17b2                	slli	a5,a5,0x2c
   17350:	8a2a                	mv	s4,a0
   17352:	93b1                	srli	a5,a5,0x2c
   17354:	c401                	beqz	s0,1735c <__d2b+0x36>
   17356:	00100737          	lui	a4,0x100
   1735a:	8fd9                	or	a5,a5,a4
   1735c:	c63e                	sw	a5,12(sp)
   1735e:	2481                	sext.w	s1,s1
   17360:	c4b5                	beqz	s1,173cc <__d2b+0xa6>
   17362:	0028                	addi	a0,sp,8
   17364:	c426                	sw	s1,8(sp)
   17366:	919ff0ef          	jal	ra,16c7e <__lo0bits>
   1736a:	e129                	bnez	a0,173ac <__d2b+0x86>
   1736c:	4722                	lw	a4,8(sp)
   1736e:	47b2                	lw	a5,12(sp)
   17370:	00ea2c23          	sw	a4,24(s4)
   17374:	00f034b3          	snez	s1,a5
   17378:	0485                	addi	s1,s1,1
   1737a:	00fa2e23          	sw	a5,28(s4)
   1737e:	009a2a23          	sw	s1,20(s4)
   17382:	c035                	beqz	s0,173e6 <__d2b+0xc0>
   17384:	bcd4041b          	addiw	s0,s0,-1075
   17388:	9c29                	addw	s0,s0,a0
   1738a:	03500793          	li	a5,53
   1738e:	0089a023          	sw	s0,0(s3)
   17392:	40a7853b          	subw	a0,a5,a0
   17396:	00a92023          	sw	a0,0(s2)
   1739a:	70e2                	ld	ra,56(sp)
   1739c:	7442                	ld	s0,48(sp)
   1739e:	8552                	mv	a0,s4
   173a0:	74a2                	ld	s1,40(sp)
   173a2:	7902                	ld	s2,32(sp)
   173a4:	69e2                	ld	s3,24(sp)
   173a6:	6a42                	ld	s4,16(sp)
   173a8:	6121                	addi	sp,sp,64
   173aa:	8082                	ret
   173ac:	4732                	lw	a4,12(sp)
   173ae:	46a2                	lw	a3,8(sp)
   173b0:	02000793          	li	a5,32
   173b4:	9f89                	subw	a5,a5,a0
   173b6:	00f717bb          	sllw	a5,a4,a5
   173ba:	8fd5                	or	a5,a5,a3
   173bc:	00a7573b          	srlw	a4,a4,a0
   173c0:	00fa2c23          	sw	a5,24(s4)
   173c4:	c63a                	sw	a4,12(sp)
   173c6:	0007079b          	sext.w	a5,a4
   173ca:	b76d                	j	17374 <__d2b+0x4e>
   173cc:	0068                	addi	a0,sp,12
   173ce:	8b1ff0ef          	jal	ra,16c7e <__lo0bits>
   173d2:	4785                	li	a5,1
   173d4:	00fa2a23          	sw	a5,20(s4)
   173d8:	47b2                	lw	a5,12(sp)
   173da:	0205051b          	addiw	a0,a0,32
   173de:	4485                	li	s1,1
   173e0:	00fa2c23          	sw	a5,24(s4)
   173e4:	f045                	bnez	s0,17384 <__d2b+0x5e>
   173e6:	bce5051b          	addiw	a0,a0,-1074
   173ea:	00249793          	slli	a5,s1,0x2
   173ee:	00a9a023          	sw	a0,0(s3)
   173f2:	97d2                	add	a5,a5,s4
   173f4:	4bc8                	lw	a0,20(a5)
   173f6:	0054949b          	slliw	s1,s1,0x5
   173fa:	835ff0ef          	jal	ra,16c2e <__hi0bits>
   173fe:	9c89                	subw	s1,s1,a0
   17400:	00992023          	sw	s1,0(s2)
   17404:	bf59                	j	1739a <__d2b+0x74>

0000000000017406 <__ratio>:
   17406:	7179                	addi	sp,sp,-48
   17408:	ec26                	sd	s1,24(sp)
   1740a:	84ae                	mv	s1,a1
   1740c:	002c                	addi	a1,sp,8
   1740e:	f406                	sd	ra,40(sp)
   17410:	f022                	sd	s0,32(sp)
   17412:	e84a                	sd	s2,16(sp)
   17414:	892a                	mv	s2,a0
   17416:	e1fff0ef          	jal	ra,17234 <__b2d>
   1741a:	006c                	addi	a1,sp,12
   1741c:	8526                	mv	a0,s1
   1741e:	e2050453          	fmv.x.d	s0,fa0
   17422:	e13ff0ef          	jal	ra,17234 <__b2d>
   17426:	48d4                	lw	a3,20(s1)
   17428:	01492783          	lw	a5,20(s2)
   1742c:	4632                	lw	a2,12(sp)
   1742e:	e2050753          	fmv.x.d	a4,fa0
   17432:	9f95                	subw	a5,a5,a3
   17434:	46a2                	lw	a3,8(sp)
   17436:	0057979b          	slliw	a5,a5,0x5
   1743a:	9e91                	subw	a3,a3,a2
   1743c:	9ebd                	addw	a3,a3,a5
   1743e:	87b6                	mv	a5,a3
   17440:	02d05863          	blez	a3,17470 <__ratio+0x6a>
   17444:	02045693          	srli	a3,s0,0x20
   17448:	0147979b          	slliw	a5,a5,0x14
   1744c:	9fb5                	addw	a5,a5,a3
   1744e:	56fd                	li	a3,-1
   17450:	9281                	srli	a3,a3,0x20
   17452:	1782                	slli	a5,a5,0x20
   17454:	8c75                	and	s0,s0,a3
   17456:	8c5d                	or	s0,s0,a5
   17458:	f20407d3          	fmv.d.x	fa5,s0
   1745c:	70a2                	ld	ra,40(sp)
   1745e:	7402                	ld	s0,32(sp)
   17460:	f2070753          	fmv.d.x	fa4,a4
   17464:	64e2                	ld	s1,24(sp)
   17466:	6942                	ld	s2,16(sp)
   17468:	1ae7f553          	fdiv.d	fa0,fa5,fa4
   1746c:	6145                	addi	sp,sp,48
   1746e:	8082                	ret
   17470:	02075693          	srli	a3,a4,0x20
   17474:	0147979b          	slliw	a5,a5,0x14
   17478:	40f687bb          	subw	a5,a3,a5
   1747c:	56fd                	li	a3,-1
   1747e:	9281                	srli	a3,a3,0x20
   17480:	1782                	slli	a5,a5,0x20
   17482:	8f75                	and	a4,a4,a3
   17484:	8f5d                	or	a4,a4,a5
   17486:	bfc9                	j	17458 <__ratio+0x52>

0000000000017488 <_mprec_log10>:
   17488:	47dd                	li	a5,23
   1748a:	00a7df63          	bge	a5,a0,174a8 <_mprec_log10+0x20>
   1748e:	0001f7b7          	lui	a5,0x1f
   17492:	6c07b507          	fld	fa0,1728(a5) # 1f6c0 <mask+0x8>
   17496:	0001f7b7          	lui	a5,0x1f
   1749a:	6c87b787          	fld	fa5,1736(a5) # 1f6c8 <mask+0x10>
   1749e:	357d                	addiw	a0,a0,-1
   174a0:	12f57553          	fmul.d	fa0,fa0,fa5
   174a4:	fd6d                	bnez	a0,1749e <_mprec_log10+0x16>
   174a6:	8082                	ret
   174a8:	67f5                	lui	a5,0x1d
   174aa:	d6878793          	addi	a5,a5,-664 # 1cd68 <p05.3343>
   174ae:	050e                	slli	a0,a0,0x3
   174b0:	953e                	add	a0,a0,a5
   174b2:	2908                	fld	fa0,16(a0)
   174b4:	8082                	ret

00000000000174b6 <__copybits>:
   174b6:	4a54                	lw	a3,20(a2)
   174b8:	35fd                	addiw	a1,a1,-1
   174ba:	4055d59b          	sraiw	a1,a1,0x5
   174be:	0585                	addi	a1,a1,1
   174c0:	01860793          	addi	a5,a2,24
   174c4:	068a                	slli	a3,a3,0x2
   174c6:	058a                	slli	a1,a1,0x2
   174c8:	96be                	add	a3,a3,a5
   174ca:	95aa                	add	a1,a1,a0
   174cc:	02d7f163          	bgeu	a5,a3,174ee <__copybits+0x38>
   174d0:	872a                	mv	a4,a0
   174d2:	0791                	addi	a5,a5,4
   174d4:	ffc7a803          	lw	a6,-4(a5)
   174d8:	0711                	addi	a4,a4,4
   174da:	ff072e23          	sw	a6,-4(a4) # ffffc <__BSS_END__+0xe086c>
   174de:	fed7eae3          	bltu	a5,a3,174d2 <__copybits+0x1c>
   174e2:	40c687b3          	sub	a5,a3,a2
   174e6:	179d                	addi	a5,a5,-25
   174e8:	9bf1                	andi	a5,a5,-4
   174ea:	0791                	addi	a5,a5,4
   174ec:	953e                	add	a0,a0,a5
   174ee:	00b57763          	bgeu	a0,a1,174fc <__copybits+0x46>
   174f2:	0511                	addi	a0,a0,4
   174f4:	fe052e23          	sw	zero,-4(a0)
   174f8:	feb56de3          	bltu	a0,a1,174f2 <__copybits+0x3c>
   174fc:	8082                	ret

00000000000174fe <__any_on>:
   174fe:	4958                	lw	a4,20(a0)
   17500:	4055d613          	srai	a2,a1,0x5
   17504:	01850693          	addi	a3,a0,24
   17508:	02c75263          	bge	a4,a2,1752c <__any_on+0x2e>
   1750c:	00271793          	slli	a5,a4,0x2
   17510:	97b6                	add	a5,a5,a3
   17512:	02f6fe63          	bgeu	a3,a5,1754e <__any_on+0x50>
   17516:	ffc7a503          	lw	a0,-4(a5)
   1751a:	17f1                	addi	a5,a5,-4
   1751c:	e511                	bnez	a0,17528 <__any_on+0x2a>
   1751e:	02f6f763          	bgeu	a3,a5,1754c <__any_on+0x4e>
   17522:	17f1                	addi	a5,a5,-4
   17524:	4398                	lw	a4,0(a5)
   17526:	df65                	beqz	a4,1751e <__any_on+0x20>
   17528:	4505                	li	a0,1
   1752a:	8082                	ret
   1752c:	00261793          	slli	a5,a2,0x2
   17530:	97b6                	add	a5,a5,a3
   17532:	fee650e3          	bge	a2,a4,17512 <__any_on+0x14>
   17536:	89fd                	andi	a1,a1,31
   17538:	dde9                	beqz	a1,17512 <__any_on+0x14>
   1753a:	4390                	lw	a2,0(a5)
   1753c:	4505                	li	a0,1
   1753e:	00b6573b          	srlw	a4,a2,a1
   17542:	00b715bb          	sllw	a1,a4,a1
   17546:	fcc586e3          	beq	a1,a2,17512 <__any_on+0x14>
   1754a:	8082                	ret
   1754c:	8082                	ret
   1754e:	4501                	li	a0,0
   17550:	8082                	ret

0000000000017552 <_read_r>:
   17552:	1101                	addi	sp,sp,-32
   17554:	87ae                	mv	a5,a1
   17556:	e822                	sd	s0,16(sp)
   17558:	e426                	sd	s1,8(sp)
   1755a:	85b2                	mv	a1,a2
   1755c:	84aa                	mv	s1,a0
   1755e:	0001f437          	lui	s0,0x1f
   17562:	853e                	mv	a0,a5
   17564:	8636                	mv	a2,a3
   17566:	ec06                	sd	ra,24(sp)
   17568:	78042423          	sw	zero,1928(s0) # 1f788 <errno>
   1756c:	57d030ef          	jal	ra,1b2e8 <_read>
   17570:	57fd                	li	a5,-1
   17572:	00f50763          	beq	a0,a5,17580 <_read_r+0x2e>
   17576:	60e2                	ld	ra,24(sp)
   17578:	6442                	ld	s0,16(sp)
   1757a:	64a2                	ld	s1,8(sp)
   1757c:	6105                	addi	sp,sp,32
   1757e:	8082                	ret
   17580:	78842783          	lw	a5,1928(s0)
   17584:	dbed                	beqz	a5,17576 <_read_r+0x24>
   17586:	60e2                	ld	ra,24(sp)
   17588:	6442                	ld	s0,16(sp)
   1758a:	c09c                	sw	a5,0(s1)
   1758c:	64a2                	ld	s1,8(sp)
   1758e:	6105                	addi	sp,sp,32
   17590:	8082                	ret

0000000000017592 <frexp>:
   17592:	e20507d3          	fmv.x.d	a5,fa0
   17596:	80000637          	lui	a2,0x80000
   1759a:	fff64613          	not	a2,a2
   1759e:	4207d693          	srai	a3,a5,0x20
   175a2:	0006859b          	sext.w	a1,a3
   175a6:	00c5f733          	and	a4,a1,a2
   175aa:	00052023          	sw	zero,0(a0)
   175ae:	7ff00837          	lui	a6,0x7ff00
   175b2:	05075e63          	bge	a4,a6,1760e <frexp+0x7c>
   175b6:	00f76833          	or	a6,a4,a5
   175ba:	2801                	sext.w	a6,a6
   175bc:	04080963          	beqz	a6,1760e <frexp+0x7c>
   175c0:	7ff00837          	lui	a6,0x7ff00
   175c4:	0105f5b3          	and	a1,a1,a6
   175c8:	4801                	li	a6,0
   175ca:	ed99                	bnez	a1,175e8 <frexp+0x56>
   175cc:	0001f737          	lui	a4,0x1f
   175d0:	6d073787          	fld	fa5,1744(a4) # 1f6d0 <mask+0x18>
   175d4:	fca00813          	li	a6,-54
   175d8:	12f577d3          	fmul.d	fa5,fa0,fa5
   175dc:	e20787d3          	fmv.x.d	a5,fa5
   175e0:	4207d693          	srai	a3,a5,0x20
   175e4:	00c6f733          	and	a4,a3,a2
   175e8:	80100637          	lui	a2,0x80100
   175ec:	167d                	addi	a2,a2,-1
   175ee:	8ef1                	and	a3,a3,a2
   175f0:	3fe00637          	lui	a2,0x3fe00
   175f4:	8ed1                	or	a3,a3,a2
   175f6:	4147571b          	sraiw	a4,a4,0x14
   175fa:	567d                	li	a2,-1
   175fc:	c027071b          	addiw	a4,a4,-1022
   17600:	9201                	srli	a2,a2,0x20
   17602:	0107073b          	addw	a4,a4,a6
   17606:	1682                	slli	a3,a3,0x20
   17608:	8ff1                	and	a5,a5,a2
   1760a:	c118                	sw	a4,0(a0)
   1760c:	8fd5                	or	a5,a5,a3
   1760e:	f2078553          	fmv.d.x	fa0,a5
   17612:	8082                	ret

0000000000017614 <_sprintf_r>:
   17614:	7111                	addi	sp,sp,-256
   17616:	0d810e13          	addi	t3,sp,216
   1761a:	f5be                	sd	a5,232(sp)
   1761c:	80000337          	lui	t1,0x80000
   17620:	77c1                	lui	a5,0xffff0
   17622:	8eae                	mv	t4,a1
   17624:	fff34313          	not	t1,t1
   17628:	edb6                	sd	a3,216(sp)
   1762a:	2087879b          	addiw	a5,a5,520
   1762e:	080c                	addi	a1,sp,16
   17630:	86f2                	mv	a3,t3
   17632:	e586                	sd	ra,200(sp)
   17634:	d03e                	sw	a5,32(sp)
   17636:	f1ba                	sd	a4,224(sp)
   17638:	f9c2                	sd	a6,240(sp)
   1763a:	fdc6                	sd	a7,248(sp)
   1763c:	e876                	sd	t4,16(sp)
   1763e:	f476                	sd	t4,40(sp)
   17640:	d81a                	sw	t1,48(sp)
   17642:	ce1a                	sw	t1,28(sp)
   17644:	e472                	sd	t3,8(sp)
   17646:	27c000ef          	jal	ra,178c2 <_svfprintf_r>
   1764a:	67c2                	ld	a5,16(sp)
   1764c:	00078023          	sb	zero,0(a5) # ffffffffffff0000 <__BSS_END__+0xfffffffffffd0870>
   17650:	60ae                	ld	ra,200(sp)
   17652:	6111                	addi	sp,sp,256
   17654:	8082                	ret

0000000000017656 <sprintf>:
   17656:	8eaa                	mv	t4,a0
   17658:	7111                	addi	sp,sp,-256
   1765a:	7581b503          	ld	a0,1880(gp) # 1f6e8 <_impure_ptr>
   1765e:	0d010e13          	addi	t3,sp,208
   17662:	f5be                	sd	a5,232(sp)
   17664:	80000337          	lui	t1,0x80000
   17668:	77c1                	lui	a5,0xffff0
   1766a:	fff34313          	not	t1,t1
   1766e:	e9b2                	sd	a2,208(sp)
   17670:	edb6                	sd	a3,216(sp)
   17672:	2087879b          	addiw	a5,a5,520
   17676:	862e                	mv	a2,a1
   17678:	86f2                	mv	a3,t3
   1767a:	080c                	addi	a1,sp,16
   1767c:	e586                	sd	ra,200(sp)
   1767e:	d03e                	sw	a5,32(sp)
   17680:	f1ba                	sd	a4,224(sp)
   17682:	f9c2                	sd	a6,240(sp)
   17684:	fdc6                	sd	a7,248(sp)
   17686:	e876                	sd	t4,16(sp)
   17688:	f476                	sd	t4,40(sp)
   1768a:	d81a                	sw	t1,48(sp)
   1768c:	ce1a                	sw	t1,28(sp)
   1768e:	e472                	sd	t3,8(sp)
   17690:	232000ef          	jal	ra,178c2 <_svfprintf_r>
   17694:	67c2                	ld	a5,16(sp)
   17696:	00078023          	sb	zero,0(a5) # ffffffffffff0000 <__BSS_END__+0xfffffffffffd0870>
   1769a:	60ae                	ld	ra,200(sp)
   1769c:	6111                	addi	sp,sp,256
   1769e:	8082                	ret

00000000000176a0 <strcmp>:
   176a0:	00b56733          	or	a4,a0,a1
   176a4:	53fd                	li	t2,-1
   176a6:	8b1d                	andi	a4,a4,7
   176a8:	eb4d                	bnez	a4,1775a <strcmp+0xba>
   176aa:	00008797          	auipc	a5,0x8
   176ae:	00e7b783          	ld	a5,14(a5) # 1f6b8 <mask>
   176b2:	6110                	ld	a2,0(a0)
   176b4:	6194                	ld	a3,0(a1)
   176b6:	00f672b3          	and	t0,a2,a5
   176ba:	00f66333          	or	t1,a2,a5
   176be:	92be                	add	t0,t0,a5
   176c0:	0062e2b3          	or	t0,t0,t1
   176c4:	0a729963          	bne	t0,t2,17776 <strcmp+0xd6>
   176c8:	02d61e63          	bne	a2,a3,17704 <strcmp+0x64>
   176cc:	6510                	ld	a2,8(a0)
   176ce:	6594                	ld	a3,8(a1)
   176d0:	00f672b3          	and	t0,a2,a5
   176d4:	00f66333          	or	t1,a2,a5
   176d8:	92be                	add	t0,t0,a5
   176da:	0062e2b3          	or	t0,t0,t1
   176de:	08729a63          	bne	t0,t2,17772 <strcmp+0xd2>
   176e2:	02d61163          	bne	a2,a3,17704 <strcmp+0x64>
   176e6:	6910                	ld	a2,16(a0)
   176e8:	6994                	ld	a3,16(a1)
   176ea:	00f672b3          	and	t0,a2,a5
   176ee:	00f66333          	or	t1,a2,a5
   176f2:	92be                	add	t0,t0,a5
   176f4:	0062e2b3          	or	t0,t0,t1
   176f8:	08729363          	bne	t0,t2,1777e <strcmp+0xde>
   176fc:	0561                	addi	a0,a0,24
   176fe:	05e1                	addi	a1,a1,24
   17700:	fad609e3          	beq	a2,a3,176b2 <strcmp+0x12>
   17704:	03061713          	slli	a4,a2,0x30
   17708:	03069793          	slli	a5,a3,0x30
   1770c:	02f71863          	bne	a4,a5,1773c <strcmp+0x9c>
   17710:	02061713          	slli	a4,a2,0x20
   17714:	02069793          	slli	a5,a3,0x20
   17718:	02f71263          	bne	a4,a5,1773c <strcmp+0x9c>
   1771c:	01061713          	slli	a4,a2,0x10
   17720:	01069793          	slli	a5,a3,0x10
   17724:	00f71c63          	bne	a4,a5,1773c <strcmp+0x9c>
   17728:	03065713          	srli	a4,a2,0x30
   1772c:	0306d793          	srli	a5,a3,0x30
   17730:	40f70533          	sub	a0,a4,a5
   17734:	0ff57593          	andi	a1,a0,255
   17738:	e991                	bnez	a1,1774c <strcmp+0xac>
   1773a:	8082                	ret
   1773c:	9341                	srli	a4,a4,0x30
   1773e:	93c1                	srli	a5,a5,0x30
   17740:	40f70533          	sub	a0,a4,a5
   17744:	0ff57593          	andi	a1,a0,255
   17748:	e191                	bnez	a1,1774c <strcmp+0xac>
   1774a:	8082                	ret
   1774c:	0ff77713          	andi	a4,a4,255
   17750:	0ff7f793          	andi	a5,a5,255
   17754:	40f70533          	sub	a0,a4,a5
   17758:	8082                	ret
   1775a:	00054603          	lbu	a2,0(a0)
   1775e:	0005c683          	lbu	a3,0(a1)
   17762:	0505                	addi	a0,a0,1
   17764:	0585                	addi	a1,a1,1
   17766:	00d61363          	bne	a2,a3,1776c <strcmp+0xcc>
   1776a:	fa65                	bnez	a2,1775a <strcmp+0xba>
   1776c:	40d60533          	sub	a0,a2,a3
   17770:	8082                	ret
   17772:	0521                	addi	a0,a0,8
   17774:	05a1                	addi	a1,a1,8
   17776:	fed612e3          	bne	a2,a3,1775a <strcmp+0xba>
   1777a:	4501                	li	a0,0
   1777c:	8082                	ret
   1777e:	0541                	addi	a0,a0,16
   17780:	05c1                	addi	a1,a1,16
   17782:	fcd61ce3          	bne	a2,a3,1775a <strcmp+0xba>
   17786:	4501                	li	a0,0
   17788:	8082                	ret

000000000001778a <strcpy>:
   1778a:	00b567b3          	or	a5,a0,a1
   1778e:	8b9d                	andi	a5,a5,7
   17790:	e3c1                	bnez	a5,17810 <strcpy+0x86>
   17792:	0001f7b7          	lui	a5,0x1f
   17796:	6b87b683          	ld	a3,1720(a5) # 1f6b8 <mask>
   1779a:	6198                	ld	a4,0(a1)
   1779c:	567d                	li	a2,-1
   1779e:	00d777b3          	and	a5,a4,a3
   177a2:	97b6                	add	a5,a5,a3
   177a4:	8fd9                	or	a5,a5,a4
   177a6:	8fd5                	or	a5,a5,a3
   177a8:	06c79d63          	bne	a5,a2,17822 <strcpy+0x98>
   177ac:	862a                	mv	a2,a0
   177ae:	587d                	li	a6,-1
   177b0:	0621                	addi	a2,a2,8
   177b2:	05a1                	addi	a1,a1,8
   177b4:	fee63c23          	sd	a4,-8(a2) # 3fdffff8 <__BSS_END__+0x3fde0868>
   177b8:	6198                	ld	a4,0(a1)
   177ba:	00d777b3          	and	a5,a4,a3
   177be:	97b6                	add	a5,a5,a3
   177c0:	8fd9                	or	a5,a5,a4
   177c2:	8fd5                	or	a5,a5,a3
   177c4:	ff0786e3          	beq	a5,a6,177b0 <strcpy+0x26>
   177c8:	0005c783          	lbu	a5,0(a1)
   177cc:	0015c703          	lbu	a4,1(a1)
   177d0:	0025c683          	lbu	a3,2(a1)
   177d4:	00f60023          	sb	a5,0(a2)
   177d8:	cb9d                	beqz	a5,1780e <strcpy+0x84>
   177da:	00e600a3          	sb	a4,1(a2)
   177de:	cb05                	beqz	a4,1780e <strcpy+0x84>
   177e0:	0035c783          	lbu	a5,3(a1)
   177e4:	00d60123          	sb	a3,2(a2)
   177e8:	c29d                	beqz	a3,1780e <strcpy+0x84>
   177ea:	0045c703          	lbu	a4,4(a1)
   177ee:	00f601a3          	sb	a5,3(a2)
   177f2:	cf91                	beqz	a5,1780e <strcpy+0x84>
   177f4:	0055c783          	lbu	a5,5(a1)
   177f8:	00e60223          	sb	a4,4(a2)
   177fc:	cb09                	beqz	a4,1780e <strcpy+0x84>
   177fe:	0065c703          	lbu	a4,6(a1)
   17802:	00f602a3          	sb	a5,5(a2)
   17806:	c781                	beqz	a5,1780e <strcpy+0x84>
   17808:	00e60323          	sb	a4,6(a2)
   1780c:	ef09                	bnez	a4,17826 <strcpy+0x9c>
   1780e:	8082                	ret
   17810:	87aa                	mv	a5,a0
   17812:	0005c703          	lbu	a4,0(a1)
   17816:	0785                	addi	a5,a5,1
   17818:	0585                	addi	a1,a1,1
   1781a:	fee78fa3          	sb	a4,-1(a5)
   1781e:	fb75                	bnez	a4,17812 <strcpy+0x88>
   17820:	8082                	ret
   17822:	862a                	mv	a2,a0
   17824:	b755                	j	177c8 <strcpy+0x3e>
   17826:	000603a3          	sb	zero,7(a2)
   1782a:	8082                	ret

000000000001782c <strncpy>:
   1782c:	00a5e7b3          	or	a5,a1,a0
   17830:	8b9d                	andi	a5,a5,7
   17832:	ebb5                	bnez	a5,178a6 <strncpy+0x7a>
   17834:	479d                	li	a5,7
   17836:	06c7f863          	bgeu	a5,a2,178a6 <strncpy+0x7a>
   1783a:	0001f7b7          	lui	a5,0x1f
   1783e:	6a87b303          	ld	t1,1704(a5) # 1f6a8 <__SDATA_BEGIN__>
   17842:	0001f7b7          	lui	a5,0x1f
   17846:	6b07b883          	ld	a7,1712(a5) # 1f6b0 <__SDATA_BEGIN__+0x8>
   1784a:	872a                	mv	a4,a0
   1784c:	4e1d                	li	t3,7
   1784e:	6194                	ld	a3,0(a1)
   17850:	006687b3          	add	a5,a3,t1
   17854:	fff6c813          	not	a6,a3
   17858:	0107f7b3          	and	a5,a5,a6
   1785c:	0117f7b3          	and	a5,a5,a7
   17860:	eb89                	bnez	a5,17872 <strncpy+0x46>
   17862:	0721                	addi	a4,a4,8
   17864:	1661                	addi	a2,a2,-8
   17866:	fed73c23          	sd	a3,-8(a4)
   1786a:	05a1                	addi	a1,a1,8
   1786c:	fece61e3          	bltu	t3,a2,1784e <strncpy+0x22>
   17870:	c639                	beqz	a2,178be <strncpy+0x92>
   17872:	0005c803          	lbu	a6,0(a1)
   17876:	fff60693          	addi	a3,a2,-1
   1787a:	0585                	addi	a1,a1,1
   1787c:	01070023          	sb	a6,0(a4)
   17880:	00170793          	addi	a5,a4,1
   17884:	02080363          	beqz	a6,178aa <strncpy+0x7e>
   17888:	963a                	add	a2,a2,a4
   1788a:	96ba                	add	a3,a3,a4
   1788c:	a039                	j	1789a <strncpy+0x6e>
   1788e:	fff5c703          	lbu	a4,-1(a1)
   17892:	0785                	addi	a5,a5,1
   17894:	fee78fa3          	sb	a4,-1(a5)
   17898:	cb11                	beqz	a4,178ac <strncpy+0x80>
   1789a:	0585                	addi	a1,a1,1
   1789c:	40f68833          	sub	a6,a3,a5
   178a0:	fec797e3          	bne	a5,a2,1788e <strncpy+0x62>
   178a4:	8082                	ret
   178a6:	872a                	mv	a4,a0
   178a8:	b7e1                	j	17870 <strncpy+0x44>
   178aa:	8836                	mv	a6,a3
   178ac:	01078733          	add	a4,a5,a6
   178b0:	00080863          	beqz	a6,178c0 <strncpy+0x94>
   178b4:	0785                	addi	a5,a5,1
   178b6:	fe078fa3          	sb	zero,-1(a5)
   178ba:	fee79de3          	bne	a5,a4,178b4 <strncpy+0x88>
   178be:	8082                	ret
   178c0:	8082                	ret

00000000000178c2 <_svfprintf_r>:
   178c2:	d8010113          	addi	sp,sp,-640
   178c6:	26113c23          	sd	ra,632(sp)
   178ca:	25313c23          	sd	s3,600(sp)
   178ce:	25513423          	sd	s5,584(sp)
   178d2:	23a13023          	sd	s10,544(sp)
   178d6:	8aae                	mv	s5,a1
   178d8:	8d32                	mv	s10,a2
   178da:	e836                	sd	a3,16(sp)
   178dc:	26813823          	sd	s0,624(sp)
   178e0:	26913423          	sd	s1,616(sp)
   178e4:	27213023          	sd	s2,608(sp)
   178e8:	25413823          	sd	s4,592(sp)
   178ec:	25613023          	sd	s6,576(sp)
   178f0:	23713c23          	sd	s7,568(sp)
   178f4:	23813823          	sd	s8,560(sp)
   178f8:	23913423          	sd	s9,552(sp)
   178fc:	21b13c23          	sd	s11,536(sp)
   17900:	89aa                	mv	s3,a0
   17902:	fdffe0ef          	jal	ra,168e0 <_localeconv_r>
   17906:	611c                	ld	a5,0(a0)
   17908:	853e                	mv	a0,a5
   1790a:	f8be                	sd	a5,112(sp)
   1790c:	eadfa0ef          	jal	ra,127b8 <strlen>
   17910:	010ad783          	lhu	a5,16(s5)
   17914:	f4aa                	sd	a0,104(sp)
   17916:	e202                	sd	zero,256(sp)
   17918:	e602                	sd	zero,264(sp)
   1791a:	0807f793          	andi	a5,a5,128
   1791e:	c791                	beqz	a5,1792a <_svfprintf_r+0x68>
   17920:	018ab783          	ld	a5,24(s5)
   17924:	e399                	bnez	a5,1792a <_svfprintf_r+0x68>
   17926:	7c90006f          	j	188ee <_svfprintf_r+0x102c>
   1792a:	0001d7b7          	lui	a5,0x1d
   1792e:	a487b783          	ld	a5,-1464(a5) # 1ca48 <zeroes.4550+0x40>
   17932:	19010a13          	addi	s4,sp,400
   17936:	ea52                	sd	s4,272(sp)
   17938:	f13e                	sd	a5,160(sp)
   1793a:	0001d7b7          	lui	a5,0x1d
   1793e:	a287b783          	ld	a5,-1496(a5) # 1ca28 <zeroes.4550+0x20>
   17942:	f202                	sd	zero,288(sp)
   17944:	10012c23          	sw	zero,280(sp)
   17948:	e93e                	sd	a5,144(sp)
   1794a:	0001d7b7          	lui	a5,0x1d
   1794e:	a387b783          	ld	a5,-1480(a5) # 1ca38 <zeroes.4550+0x30>
   17952:	f002                	sd	zero,32(sp)
   17954:	f402                	sd	zero,40(sp)
   17956:	ed3e                	sd	a5,152(sp)
   17958:	000d4783          	lbu	a5,0(s10)
   1795c:	e102                	sd	zero,128(sp)
   1795e:	f082                	sd	zero,96(sp)
   17960:	fc82                	sd	zero,120(sp)
   17962:	e502                	sd	zero,136(sp)
   17964:	e402                	sd	zero,8(sp)
   17966:	8352                	mv	t1,s4
   17968:	50078363          	beqz	a5,17e6e <_svfprintf_r+0x5ac>
   1796c:	02500693          	li	a3,37
   17970:	6cd786e3          	beq	a5,a3,1883c <_svfprintf_r+0xf7a>
   17974:	846a                	mv	s0,s10
   17976:	a021                	j	1797e <_svfprintf_r+0xbc>
   17978:	08d78a63          	beq	a5,a3,17a0c <_svfprintf_r+0x14a>
   1797c:	844a                	mv	s0,s2
   1797e:	00144783          	lbu	a5,1(s0)
   17982:	00140913          	addi	s2,s0,1
   17986:	fbed                	bnez	a5,17978 <_svfprintf_r+0xb6>
   17988:	41a904bb          	subw	s1,s2,s10
   1798c:	4e048163          	beqz	s1,17e6e <_svfprintf_r+0x5ac>
   17990:	7692                	ld	a3,288(sp)
   17992:	11812783          	lw	a5,280(sp)
   17996:	01a33023          	sd	s10,0(t1) # ffffffff80000000 <__BSS_END__+0xffffffff7ffe0870>
   1799a:	96a6                	add	a3,a3,s1
   1799c:	2785                	addiw	a5,a5,1
   1799e:	00933423          	sd	s1,8(t1)
   179a2:	f236                	sd	a3,288(sp)
   179a4:	10f12c23          	sw	a5,280(sp)
   179a8:	0007869b          	sext.w	a3,a5
   179ac:	479d                	li	a5,7
   179ae:	0341                	addi	t1,t1,16
   179b0:	06d7c263          	blt	a5,a3,17a14 <_svfprintf_r+0x152>
   179b4:	6722                	ld	a4,8(sp)
   179b6:	00144783          	lbu	a5,1(s0)
   179ba:	9f25                	addw	a4,a4,s1
   179bc:	e43a                	sd	a4,8(sp)
   179be:	4a078863          	beqz	a5,17e6e <_svfprintf_r+0x5ac>
   179c2:	67f5                	lui	a5,0x1d
   179c4:	00190493          	addi	s1,s2,1
   179c8:	00194e83          	lbu	t4,1(s2)
   179cc:	0c010fa3          	sb	zero,223(sp)
   179d0:	5c7d                	li	s8,-1
   179d2:	4b01                	li	s6,0
   179d4:	4401                	li	s0,0
   179d6:	05a00913          	li	s2,90
   179da:	e9078b93          	addi	s7,a5,-368 # 1ce90 <__mprec_bigtens+0x28>
   179de:	4da5                	li	s11,9
   179e0:	0485                	addi	s1,s1,1
   179e2:	000e8c9b          	sext.w	s9,t4
   179e6:	02a00613          	li	a2,42
   179ea:	fe0c879b          	addiw	a5,s9,-32
   179ee:	0007869b          	sext.w	a3,a5
   179f2:	14d96a63          	bltu	s2,a3,17b46 <_svfprintf_r+0x284>
   179f6:	1782                	slli	a5,a5,0x20
   179f8:	83f9                	srli	a5,a5,0x1e
   179fa:	97de                	add	a5,a5,s7
   179fc:	439c                	lw	a5,0(a5)
   179fe:	8782                	jr	a5
   17a00:	01046413          	ori	s0,s0,16
   17a04:	2401                	sext.w	s0,s0
   17a06:	0004ce83          	lbu	t4,0(s1) # 3ff00000 <__BSS_END__+0x3fee0870>
   17a0a:	bfd9                	j	179e0 <_svfprintf_r+0x11e>
   17a0c:	41a904bb          	subw	s1,s2,s10
   17a10:	d8cd                	beqz	s1,179c2 <_svfprintf_r+0x100>
   17a12:	bfbd                	j	17990 <_svfprintf_r+0xce>
   17a14:	0a10                	addi	a2,sp,272
   17a16:	85d6                	mv	a1,s5
   17a18:	854e                	mv	a0,s3
   17a1a:	18b020ef          	jal	ra,1a3a4 <__ssprint_r>
   17a1e:	e105                	bnez	a0,17a3e <_svfprintf_r+0x17c>
   17a20:	8352                	mv	t1,s4
   17a22:	bf49                	j	179b4 <_svfprintf_r+0xf2>
   17a24:	0a10                	addi	a2,sp,272
   17a26:	85d6                	mv	a1,s5
   17a28:	854e                	mv	a0,s3
   17a2a:	17b020ef          	jal	ra,1a3a4 <__ssprint_r>
   17a2e:	42050263          	beqz	a0,17e52 <_svfprintf_r+0x590>
   17a32:	67e2                	ld	a5,24(sp)
   17a34:	c789                	beqz	a5,17a3e <_svfprintf_r+0x17c>
   17a36:	65e2                	ld	a1,24(sp)
   17a38:	854e                	mv	a0,s3
   17a3a:	856f90ef          	jal	ra,10a90 <_free_r>
   17a3e:	010ad783          	lhu	a5,16(s5)
   17a42:	0407f793          	andi	a5,a5,64
   17a46:	c399                	beqz	a5,17a4c <_svfprintf_r+0x18a>
   17a48:	03f0106f          	j	19286 <_svfprintf_r+0x19c4>
   17a4c:	27813083          	ld	ra,632(sp)
   17a50:	27013403          	ld	s0,624(sp)
   17a54:	6522                	ld	a0,8(sp)
   17a56:	26813483          	ld	s1,616(sp)
   17a5a:	26013903          	ld	s2,608(sp)
   17a5e:	25813983          	ld	s3,600(sp)
   17a62:	25013a03          	ld	s4,592(sp)
   17a66:	24813a83          	ld	s5,584(sp)
   17a6a:	24013b03          	ld	s6,576(sp)
   17a6e:	23813b83          	ld	s7,568(sp)
   17a72:	23013c03          	ld	s8,560(sp)
   17a76:	22813c83          	ld	s9,552(sp)
   17a7a:	22013d03          	ld	s10,544(sp)
   17a7e:	21813d83          	ld	s11,536(sp)
   17a82:	28010113          	addi	sp,sp,640
   17a86:	8082                	ret
   17a88:	0001d7b7          	lui	a5,0x1d
   17a8c:	66c2                	ld	a3,16(sp)
   17a8e:	a7078793          	addi	a5,a5,-1424 # 1ca70 <zeroes.4550+0x68>
   17a92:	f43e                	sd	a5,40(sp)
   17a94:	02047793          	andi	a5,s0,32
   17a98:	00868713          	addi	a4,a3,8
   17a9c:	cbf9                	beqz	a5,17b72 <_svfprintf_r+0x2b0>
   17a9e:	0006b903          	ld	s2,0(a3)
   17aa2:	00147793          	andi	a5,s0,1
   17aa6:	cf81                	beqz	a5,17abe <_svfprintf_r+0x1fc>
   17aa8:	00090b63          	beqz	s2,17abe <_svfprintf_r+0x1fc>
   17aac:	00246413          	ori	s0,s0,2
   17ab0:	03000793          	li	a5,48
   17ab4:	0ef10023          	sb	a5,224(sp)
   17ab8:	0f9100a3          	sb	s9,225(sp)
   17abc:	2401                	sext.w	s0,s0
   17abe:	bff47413          	andi	s0,s0,-1025
   17ac2:	00040d9b          	sext.w	s11,s0
   17ac6:	e83a                	sd	a4,16(sp)
   17ac8:	4789                	li	a5,2
   17aca:	0c010fa3          	sb	zero,223(sp)
   17ace:	577d                	li	a4,-1
   17ad0:	24ec0263          	beq	s8,a4,17d14 <_svfprintf_r+0x452>
   17ad4:	f7fdf413          	andi	s0,s11,-129
   17ad8:	2401                	sext.w	s0,s0
   17ada:	240919e3          	bnez	s2,1852c <_svfprintf_r+0xc6a>
   17ade:	380c13e3          	bnez	s8,18664 <_svfprintf_r+0xda2>
   17ae2:	1e079863          	bnez	a5,17cd2 <_svfprintf_r+0x410>
   17ae6:	001dfb93          	andi	s7,s11,1
   17aea:	18c10d13          	addi	s10,sp,396
   17aee:	580b94e3          	bnez	s7,18876 <_svfprintf_r+0xfb4>
   17af2:	000b891b          	sext.w	s2,s7
   17af6:	018bd463          	bge	s7,s8,17afe <_svfprintf_r+0x23c>
   17afa:	000c091b          	sext.w	s2,s8
   17afe:	0df14783          	lbu	a5,223(sp)
   17b02:	ec02                	sd	zero,24(sp)
   17b04:	e482                	sd	zero,72(sp)
   17b06:	ec82                	sd	zero,88(sp)
   17b08:	e882                	sd	zero,80(sp)
   17b0a:	26078d63          	beqz	a5,17d84 <_svfprintf_r+0x4c2>
   17b0e:	2905                	addiw	s2,s2,1
   17b10:	ac95                	j	17d84 <_svfprintf_r+0x4c2>
   17b12:	4b01                	li	s6,0
   17b14:	0485                	addi	s1,s1,1
   17b16:	fff4c683          	lbu	a3,-1(s1)
   17b1a:	002b179b          	slliw	a5,s6,0x2
   17b1e:	01678b3b          	addw	s6,a5,s6
   17b22:	fd0c8e9b          	addiw	t4,s9,-48
   17b26:	001b1b1b          	slliw	s6,s6,0x1
   17b2a:	fd06879b          	addiw	a5,a3,-48
   17b2e:	016e8b3b          	addw	s6,t4,s6
   17b32:	00068c9b          	sext.w	s9,a3
   17b36:	fcfdffe3          	bgeu	s11,a5,17b14 <_svfprintf_r+0x252>
   17b3a:	fe0c879b          	addiw	a5,s9,-32
   17b3e:	0007869b          	sext.w	a3,a5
   17b42:	ead97ae3          	bgeu	s2,a3,179f6 <_svfprintf_r+0x134>
   17b46:	320c8463          	beqz	s9,17e6e <_svfprintf_r+0x5ac>
   17b4a:	13910423          	sb	s9,296(sp)
   17b4e:	0c010fa3          	sb	zero,223(sp)
   17b52:	4905                	li	s2,1
   17b54:	4b85                	li	s7,1
   17b56:	12810d13          	addi	s10,sp,296
   17b5a:	a405                	j	17d7a <_svfprintf_r+0x4b8>
   17b5c:	0001d7b7          	lui	a5,0x1d
   17b60:	66c2                	ld	a3,16(sp)
   17b62:	a8878793          	addi	a5,a5,-1400 # 1ca88 <zeroes.4550+0x80>
   17b66:	f43e                	sd	a5,40(sp)
   17b68:	02047793          	andi	a5,s0,32
   17b6c:	00868713          	addi	a4,a3,8
   17b70:	f79d                	bnez	a5,17a9e <_svfprintf_r+0x1dc>
   17b72:	01047793          	andi	a5,s0,16
   17b76:	520798e3          	bnez	a5,188a6 <_svfprintf_r+0xfe4>
   17b7a:	66c2                	ld	a3,16(sp)
   17b7c:	04047793          	andi	a5,s0,64
   17b80:	0006a903          	lw	s2,0(a3)
   17b84:	e399                	bnez	a5,17b8a <_svfprintf_r+0x2c8>
   17b86:	14e0106f          	j	18cd4 <_svfprintf_r+0x1412>
   17b8a:	1942                	slli	s2,s2,0x30
   17b8c:	03095913          	srli	s2,s2,0x30
   17b90:	bf09                	j	17aa2 <_svfprintf_r+0x1e0>
   17b92:	0004ce83          	lbu	t4,0(s1)
   17b96:	00446413          	ori	s0,s0,4
   17b9a:	2401                	sext.w	s0,s0
   17b9c:	b591                	j	179e0 <_svfprintf_r+0x11e>
   17b9e:	0004cc83          	lbu	s9,0(s1)
   17ba2:	00148793          	addi	a5,s1,1
   17ba6:	00cc9463          	bne	s9,a2,17bae <_svfprintf_r+0x2ec>
   17baa:	0490106f          	j	193f2 <_svfprintf_r+0x1b30>
   17bae:	fd0c869b          	addiw	a3,s9,-48
   17bb2:	84be                	mv	s1,a5
   17bb4:	4c01                	li	s8,0
   17bb6:	e2ddeae3          	bltu	s11,a3,179ea <_svfprintf_r+0x128>
   17bba:	0485                	addi	s1,s1,1
   17bbc:	002c179b          	slliw	a5,s8,0x2
   17bc0:	fff4cc83          	lbu	s9,-1(s1)
   17bc4:	01878e3b          	addw	t3,a5,s8
   17bc8:	001e1e1b          	slliw	t3,t3,0x1
   17bcc:	00de0c3b          	addw	s8,t3,a3
   17bd0:	fd0c869b          	addiw	a3,s9,-48
   17bd4:	feddf3e3          	bgeu	s11,a3,17bba <_svfprintf_r+0x2f8>
   17bd8:	bd09                	j	179ea <_svfprintf_r+0x128>
   17bda:	08046413          	ori	s0,s0,128
   17bde:	2401                	sext.w	s0,s0
   17be0:	0004ce83          	lbu	t4,0(s1)
   17be4:	bbf5                	j	179e0 <_svfprintf_r+0x11e>
   17be6:	67c2                	ld	a5,16(sp)
   17be8:	01046d93          	ori	s11,s0,16
   17bec:	2d81                	sext.w	s11,s11
   17bee:	00878713          	addi	a4,a5,8
   17bf2:	67c2                	ld	a5,16(sp)
   17bf4:	0007b903          	ld	s2,0(a5)
   17bf8:	4785                	li	a5,1
   17bfa:	e83a                	sd	a4,16(sp)
   17bfc:	b5f9                	j	17aca <_svfprintf_r+0x208>
   17bfe:	67c2                	ld	a5,16(sp)
   17c00:	0c010fa3          	sb	zero,223(sp)
   17c04:	0007bd03          	ld	s10,0(a5)
   17c08:	00878d93          	addi	s11,a5,8
   17c0c:	500d02e3          	beqz	s10,18910 <_svfprintf_r+0x104e>
   17c10:	57fd                	li	a5,-1
   17c12:	00fc1463          	bne	s8,a5,17c1a <_svfprintf_r+0x358>
   17c16:	7e90006f          	j	18bfe <_svfprintf_r+0x133c>
   17c1a:	8662                	mv	a2,s8
   17c1c:	4581                	li	a1,0
   17c1e:	856a                	mv	a0,s10
   17c20:	e81a                	sd	t1,16(sp)
   17c22:	850fa0ef          	jal	ra,11c72 <memchr>
   17c26:	ec2a                	sd	a0,24(sp)
   17c28:	6342                	ld	t1,16(sp)
   17c2a:	e119                	bnez	a0,17c30 <_svfprintf_r+0x36e>
   17c2c:	36e0106f          	j	18f9a <_svfprintf_r+0x16d8>
   17c30:	67e2                	ld	a5,24(sp)
   17c32:	e86e                	sd	s11,16(sp)
   17c34:	ec02                	sd	zero,24(sp)
   17c36:	41a78bbb          	subw	s7,a5,s10
   17c3a:	fffbc913          	not	s2,s7
   17c3e:	0df14783          	lbu	a5,223(sp)
   17c42:	43f95913          	srai	s2,s2,0x3f
   17c46:	012bf933          	and	s2,s7,s2
   17c4a:	e482                	sd	zero,72(sp)
   17c4c:	ec82                	sd	zero,88(sp)
   17c4e:	e882                	sd	zero,80(sp)
   17c50:	2901                	sext.w	s2,s2
   17c52:	4c01                	li	s8,0
   17c54:	ea079de3          	bnez	a5,17b0e <_svfprintf_r+0x24c>
   17c58:	a235                	j	17d84 <_svfprintf_r+0x4c2>
   17c5a:	6742                	ld	a4,16(sp)
   17c5c:	01046d93          	ori	s11,s0,16
   17c60:	000d841b          	sext.w	s0,s11
   17c64:	0721                	addi	a4,a4,8
   17c66:	67c2                	ld	a5,16(sp)
   17c68:	0007b903          	ld	s2,0(a5)
   17c6c:	e83a                	sd	a4,16(sp)
   17c6e:	bff47d93          	andi	s11,s0,-1025
   17c72:	2d81                	sext.w	s11,s11
   17c74:	4781                	li	a5,0
   17c76:	bd91                	j	17aca <_svfprintf_r+0x208>
   17c78:	0004ce83          	lbu	t4,0(s1)
   17c7c:	06800793          	li	a5,104
   17c80:	44fe87e3          	beq	t4,a5,188ce <_svfprintf_r+0x100c>
   17c84:	04046413          	ori	s0,s0,64
   17c88:	2401                	sext.w	s0,s0
   17c8a:	bb99                	j	179e0 <_svfprintf_r+0x11e>
   17c8c:	6742                	ld	a4,16(sp)
   17c8e:	02047793          	andi	a5,s0,32
   17c92:	0721                	addi	a4,a4,8
   17c94:	3e0799e3          	bnez	a5,18886 <_svfprintf_r+0xfc4>
   17c98:	01047793          	andi	a5,s0,16
   17c9c:	3e0795e3          	bnez	a5,18886 <_svfprintf_r+0xfc4>
   17ca0:	04047793          	andi	a5,s0,64
   17ca4:	e399                	bnez	a5,17caa <_svfprintf_r+0x3e8>
   17ca6:	0660106f          	j	18d0c <_svfprintf_r+0x144a>
   17caa:	67c2                	ld	a5,16(sp)
   17cac:	8da2                	mv	s11,s0
   17cae:	e83a                	sd	a4,16(sp)
   17cb0:	00079903          	lh	s2,0(a5)
   17cb4:	87ca                	mv	a5,s2
   17cb6:	0407c563          	bltz	a5,17d00 <_svfprintf_r+0x43e>
   17cba:	57fd                	li	a5,-1
   17cbc:	60fc0363          	beq	s8,a5,182c2 <_svfprintf_r+0xa00>
   17cc0:	f7fdf413          	andi	s0,s11,-129
   17cc4:	2401                	sext.w	s0,s0
   17cc6:	5e091d63          	bnez	s2,182c0 <_svfprintf_r+0x9fe>
   17cca:	000c0463          	beqz	s8,17cd2 <_svfprintf_r+0x410>
   17cce:	18a0106f          	j	18e58 <_svfprintf_r+0x1596>
   17cd2:	4c01                	li	s8,0
   17cd4:	4b81                	li	s7,0
   17cd6:	18c10d13          	addi	s10,sp,396
   17cda:	bd21                	j	17af2 <_svfprintf_r+0x230>
   17cdc:	00846413          	ori	s0,s0,8
   17ce0:	2401                	sext.w	s0,s0
   17ce2:	0004ce83          	lbu	t4,0(s1)
   17ce6:	b9ed                	j	179e0 <_svfprintf_r+0x11e>
   17ce8:	67c2                	ld	a5,16(sp)
   17cea:	01046d93          	ori	s11,s0,16
   17cee:	2d81                	sext.w	s11,s11
   17cf0:	00878713          	addi	a4,a5,8
   17cf4:	67c2                	ld	a5,16(sp)
   17cf6:	639c                	ld	a5,0(a5)
   17cf8:	e83a                	sd	a4,16(sp)
   17cfa:	893e                	mv	s2,a5
   17cfc:	fa07dfe3          	bgez	a5,17cba <_svfprintf_r+0x3f8>
   17d00:	02d00793          	li	a5,45
   17d04:	0cf10fa3          	sb	a5,223(sp)
   17d08:	577d                	li	a4,-1
   17d0a:	41200933          	neg	s2,s2
   17d0e:	4785                	li	a5,1
   17d10:	dcec12e3          	bne	s8,a4,17ad4 <_svfprintf_r+0x212>
   17d14:	4705                	li	a4,1
   17d16:	5ae78663          	beq	a5,a4,182c2 <_svfprintf_r+0xa00>
   17d1a:	4709                	li	a4,2
   17d1c:	14e78be3          	beq	a5,a4,18672 <_svfprintf_r+0xdb0>
   17d20:	18c10b93          	addi	s7,sp,396
   17d24:	86de                	mv	a3,s7
   17d26:	a011                	j	17d2a <_svfprintf_r+0x468>
   17d28:	86ea                	mv	a3,s10
   17d2a:	00797793          	andi	a5,s2,7
   17d2e:	03078793          	addi	a5,a5,48
   17d32:	fef68fa3          	sb	a5,-1(a3)
   17d36:	00395913          	srli	s2,s2,0x3
   17d3a:	fff68d13          	addi	s10,a3,-1
   17d3e:	fe0915e3          	bnez	s2,17d28 <_svfprintf_r+0x466>
   17d42:	001df613          	andi	a2,s11,1
   17d46:	5e060263          	beqz	a2,1832a <_svfprintf_r+0xa68>
   17d4a:	03000613          	li	a2,48
   17d4e:	5cc78e63          	beq	a5,a2,1832a <_svfprintf_r+0xa68>
   17d52:	16f9                	addi	a3,a3,-2
   17d54:	fecd0fa3          	sb	a2,-1(s10)
   17d58:	40db8bbb          	subw	s7,s7,a3
   17d5c:	846e                	mv	s0,s11
   17d5e:	8d36                	mv	s10,a3
   17d60:	bb49                	j	17af2 <_svfprintf_r+0x230>
   17d62:	6742                	ld	a4,16(sp)
   17d64:	0c010fa3          	sb	zero,223(sp)
   17d68:	4905                	li	s2,1
   17d6a:	431c                	lw	a5,0(a4)
   17d6c:	0721                	addi	a4,a4,8
   17d6e:	e83a                	sd	a4,16(sp)
   17d70:	12f10423          	sb	a5,296(sp)
   17d74:	4b85                	li	s7,1
   17d76:	12810d13          	addi	s10,sp,296
   17d7a:	ec02                	sd	zero,24(sp)
   17d7c:	4c01                	li	s8,0
   17d7e:	e482                	sd	zero,72(sp)
   17d80:	ec82                	sd	zero,88(sp)
   17d82:	e882                	sd	zero,80(sp)
   17d84:	00247f13          	andi	t5,s0,2
   17d88:	2f01                	sext.w	t5,t5
   17d8a:	000f0363          	beqz	t5,17d90 <_svfprintf_r+0x4ce>
   17d8e:	2909                	addiw	s2,s2,2
   17d90:	08447293          	andi	t0,s0,132
   17d94:	7792                	ld	a5,288(sp)
   17d96:	00029663          	bnez	t0,17da2 <_svfprintf_r+0x4e0>
   17d9a:	412b083b          	subw	a6,s6,s2
   17d9e:	79004a63          	bgtz	a6,18532 <_svfprintf_r+0xc70>
   17da2:	0df14683          	lbu	a3,223(sp)
   17da6:	c68d                	beqz	a3,17dd0 <_svfprintf_r+0x50e>
   17da8:	11812683          	lw	a3,280(sp)
   17dac:	0df10613          	addi	a2,sp,223
   17db0:	00c33023          	sd	a2,0(t1)
   17db4:	2685                	addiw	a3,a3,1
   17db6:	4605                	li	a2,1
   17db8:	0785                	addi	a5,a5,1
   17dba:	00c33423          	sd	a2,8(t1)
   17dbe:	10d12c23          	sw	a3,280(sp)
   17dc2:	0006861b          	sext.w	a2,a3
   17dc6:	f23e                	sd	a5,288(sp)
   17dc8:	469d                	li	a3,7
   17dca:	0341                	addi	t1,t1,16
   17dcc:	0ac6cc63          	blt	a3,a2,17e84 <_svfprintf_r+0x5c2>
   17dd0:	020f0563          	beqz	t5,17dfa <_svfprintf_r+0x538>
   17dd4:	11812683          	lw	a3,280(sp)
   17dd8:	1190                	addi	a2,sp,224
   17dda:	00c33023          	sd	a2,0(t1)
   17dde:	2685                	addiw	a3,a3,1
   17de0:	4609                	li	a2,2
   17de2:	0789                	addi	a5,a5,2
   17de4:	00c33423          	sd	a2,8(t1)
   17de8:	10d12c23          	sw	a3,280(sp)
   17dec:	0006861b          	sext.w	a2,a3
   17df0:	f23e                	sd	a5,288(sp)
   17df2:	469d                	li	a3,7
   17df4:	0341                	addi	t1,t1,16
   17df6:	7cc6cb63          	blt	a3,a2,185cc <_svfprintf_r+0xd0a>
   17dfa:	08000693          	li	a3,128
   17dfe:	60d28a63          	beq	t0,a3,18412 <_svfprintf_r+0xb50>
   17e02:	417c0c3b          	subw	s8,s8,s7
   17e06:	6b804163          	bgtz	s8,184a8 <_svfprintf_r+0xbe6>
   17e0a:	10047693          	andi	a3,s0,256
   17e0e:	52069363          	bnez	a3,18334 <_svfprintf_r+0xa72>
   17e12:	11812703          	lw	a4,280(sp)
   17e16:	97de                	add	a5,a5,s7
   17e18:	01a33023          	sd	s10,0(t1)
   17e1c:	0017069b          	addiw	a3,a4,1
   17e20:	8736                	mv	a4,a3
   17e22:	01733423          	sd	s7,8(t1)
   17e26:	10e12c23          	sw	a4,280(sp)
   17e2a:	f23e                	sd	a5,288(sp)
   17e2c:	471d                	li	a4,7
   17e2e:	12d74a63          	blt	a4,a3,17f62 <_svfprintf_r+0x6a0>
   17e32:	0341                	addi	t1,t1,16
   17e34:	8811                	andi	s0,s0,4
   17e36:	c409                	beqz	s0,17e40 <_svfprintf_r+0x57e>
   17e38:	412b043b          	subw	s0,s6,s2
   17e3c:	7a804563          	bgtz	s0,185e6 <_svfprintf_r+0xd24>
   17e40:	875a                	mv	a4,s6
   17e42:	012b5363          	bge	s6,s2,17e48 <_svfprintf_r+0x586>
   17e46:	874a                	mv	a4,s2
   17e48:	66a2                	ld	a3,8(sp)
   17e4a:	9f35                	addw	a4,a4,a3
   17e4c:	e43a                	sd	a4,8(sp)
   17e4e:	bc079be3          	bnez	a5,17a24 <_svfprintf_r+0x162>
   17e52:	67e2                	ld	a5,24(sp)
   17e54:	10012c23          	sw	zero,280(sp)
   17e58:	c789                	beqz	a5,17e62 <_svfprintf_r+0x5a0>
   17e5a:	65e2                	ld	a1,24(sp)
   17e5c:	854e                	mv	a0,s3
   17e5e:	c33f80ef          	jal	ra,10a90 <_free_r>
   17e62:	8352                	mv	t1,s4
   17e64:	8d26                	mv	s10,s1
   17e66:	000d4783          	lbu	a5,0(s10)
   17e6a:	b00791e3          	bnez	a5,1796c <_svfprintf_r+0xaa>
   17e6e:	7792                	ld	a5,288(sp)
   17e70:	bc0787e3          	beqz	a5,17a3e <_svfprintf_r+0x17c>
   17e74:	0a10                	addi	a2,sp,272
   17e76:	85d6                	mv	a1,s5
   17e78:	854e                	mv	a0,s3
   17e7a:	52a020ef          	jal	ra,1a3a4 <__ssprint_r>
   17e7e:	010ad783          	lhu	a5,16(s5)
   17e82:	b6c1                	j	17a42 <_svfprintf_r+0x180>
   17e84:	0a10                	addi	a2,sp,272
   17e86:	85d6                	mv	a1,s5
   17e88:	854e                	mv	a0,s3
   17e8a:	fc16                	sd	t0,56(sp)
   17e8c:	f87a                	sd	t5,48(sp)
   17e8e:	516020ef          	jal	ra,1a3a4 <__ssprint_r>
   17e92:	ba0510e3          	bnez	a0,17a32 <_svfprintf_r+0x170>
   17e96:	7792                	ld	a5,288(sp)
   17e98:	8352                	mv	t1,s4
   17e9a:	72e2                	ld	t0,56(sp)
   17e9c:	7f42                	ld	t5,48(sp)
   17e9e:	bf0d                	j	17dd0 <_svfprintf_r+0x50e>
   17ea0:	11812f03          	lw	t5,280(sp)
   17ea4:	00178c93          	addi	s9,a5,1
   17ea8:	7782                	ld	a5,32(sp)
   17eaa:	001f069b          	addiw	a3,t5,1
   17eae:	4585                	li	a1,1
   17eb0:	01a33023          	sd	s10,0(t1)
   17eb4:	8636                	mv	a2,a3
   17eb6:	01030b93          	addi	s7,t1,16
   17eba:	10f5d4e3          	bge	a1,a5,187c2 <_svfprintf_r+0xf00>
   17ebe:	4585                	li	a1,1
   17ec0:	10c12c23          	sw	a2,280(sp)
   17ec4:	00b33423          	sd	a1,8(t1)
   17ec8:	f266                	sd	s9,288(sp)
   17eca:	461d                	li	a2,7
   17ecc:	16d64be3          	blt	a2,a3,18842 <_svfprintf_r+0xf80>
   17ed0:	77a6                	ld	a5,104(sp)
   17ed2:	7746                	ld	a4,112(sp)
   17ed4:	0016889b          	addiw	a7,a3,1
   17ed8:	9cbe                	add	s9,s9,a5
   17eda:	00ebb023          	sd	a4,0(s7)
   17ede:	00fbb423          	sd	a5,8(s7)
   17ee2:	f266                	sd	s9,288(sp)
   17ee4:	11112c23          	sw	a7,280(sp)
   17ee8:	469d                	li	a3,7
   17eea:	0bc1                	addi	s7,s7,16
   17eec:	1716c8e3          	blt	a3,a7,1885c <_svfprintf_r+0xf9a>
   17ef0:	7782                	ld	a5,32(sp)
   17ef2:	6512                	ld	a0,256(sp)
   17ef4:	65b2                	ld	a1,264(sp)
   17ef6:	00188e9b          	addiw	t4,a7,1
   17efa:	010b8313          	addi	t1,s7,16
   17efe:	37fd                	addiw	a5,a5,-1
   17f00:	4601                	li	a2,0
   17f02:	4681                	li	a3,0
   17f04:	000e8c1b          	sext.w	s8,t4
   17f08:	e0f6                	sd	t4,64(sp)
   17f0a:	fc1a                	sd	t1,56(sp)
   17f0c:	f83e                	sd	a5,48(sp)
   17f0e:	e4c6                	sd	a7,72(sp)
   17f10:	530030ef          	jal	ra,1b440 <__eqtf2>
   17f14:	77c2                	ld	a5,48(sp)
   17f16:	7362                	ld	t1,56(sp)
   17f18:	6e86                	ld	t4,64(sp)
   17f1a:	0c0506e3          	beqz	a0,187e6 <_svfprintf_r+0xf24>
   17f1e:	001d0713          	addi	a4,s10,1
   17f22:	9cbe                	add	s9,s9,a5
   17f24:	00ebb023          	sd	a4,0(s7)
   17f28:	00fbb423          	sd	a5,8(s7)
   17f2c:	f266                	sd	s9,288(sp)
   17f2e:	11d12c23          	sw	t4,280(sp)
   17f32:	471d                	li	a4,7
   17f34:	398740e3          	blt	a4,s8,18ab4 <_svfprintf_r+0x11f2>
   17f38:	68a6                	ld	a7,72(sp)
   17f3a:	020b8713          	addi	a4,s7,32
   17f3e:	8b9a                	mv	s7,t1
   17f40:	00288c1b          	addiw	s8,a7,2
   17f44:	833a                	mv	t1,a4
   17f46:	668a                	ld	a3,128(sp)
   17f48:	1998                	addi	a4,sp,240
   17f4a:	00ebb023          	sd	a4,0(s7)
   17f4e:	019687b3          	add	a5,a3,s9
   17f52:	00dbb423          	sd	a3,8(s7)
   17f56:	f23e                	sd	a5,288(sp)
   17f58:	11812c23          	sw	s8,280(sp)
   17f5c:	471d                	li	a4,7
   17f5e:	ed875be3          	bge	a4,s8,17e34 <_svfprintf_r+0x572>
   17f62:	0a10                	addi	a2,sp,272
   17f64:	85d6                	mv	a1,s5
   17f66:	854e                	mv	a0,s3
   17f68:	43c020ef          	jal	ra,1a3a4 <__ssprint_r>
   17f6c:	ac0513e3          	bnez	a0,17a32 <_svfprintf_r+0x170>
   17f70:	7792                	ld	a5,288(sp)
   17f72:	8352                	mv	t1,s4
   17f74:	b5c1                	j	17e34 <_svfprintf_r+0x572>
   17f76:	02b00793          	li	a5,43
   17f7a:	0cf10fa3          	sb	a5,223(sp)
   17f7e:	0004ce83          	lbu	t4,0(s1)
   17f82:	bcb9                	j	179e0 <_svfprintf_r+0x11e>
   17f84:	67c2                	ld	a5,16(sp)
   17f86:	0004ce83          	lbu	t4,0(s1)
   17f8a:	0007ab03          	lw	s6,0(a5)
   17f8e:	07a1                	addi	a5,a5,8
   17f90:	e83e                	sd	a5,16(sp)
   17f92:	a40b57e3          	bgez	s6,179e0 <_svfprintf_r+0x11e>
   17f96:	41600b3b          	negw	s6,s6
   17f9a:	bef5                	j	17b96 <_svfprintf_r+0x2d4>
   17f9c:	854e                	mv	a0,s3
   17f9e:	ec1a                	sd	t1,24(sp)
   17fa0:	941fe0ef          	jal	ra,168e0 <_localeconv_r>
   17fa4:	651c                	ld	a5,8(a0)
   17fa6:	853e                	mv	a0,a5
   17fa8:	e53e                	sd	a5,136(sp)
   17faa:	80ffa0ef          	jal	ra,127b8 <strlen>
   17fae:	fcaa                	sd	a0,120(sp)
   17fb0:	8caa                	mv	s9,a0
   17fb2:	854e                	mv	a0,s3
   17fb4:	92dfe0ef          	jal	ra,168e0 <_localeconv_r>
   17fb8:	6918                	ld	a4,16(a0)
   17fba:	6362                	ld	t1,24(sp)
   17fbc:	0004ce83          	lbu	t4,0(s1)
   17fc0:	f0ba                	sd	a4,96(sp)
   17fc2:	a00c8fe3          	beqz	s9,179e0 <_svfprintf_r+0x11e>
   17fc6:	a0070de3          	beqz	a4,179e0 <_svfprintf_r+0x11e>
   17fca:	00074783          	lbu	a5,0(a4)
   17fce:	a00789e3          	beqz	a5,179e0 <_svfprintf_r+0x11e>
   17fd2:	40046413          	ori	s0,s0,1024
   17fd6:	2401                	sext.w	s0,s0
   17fd8:	b421                	j	179e0 <_svfprintf_r+0x11e>
   17fda:	00146413          	ori	s0,s0,1
   17fde:	2401                	sext.w	s0,s0
   17fe0:	0004ce83          	lbu	t4,0(s1)
   17fe4:	baf5                	j	179e0 <_svfprintf_r+0x11e>
   17fe6:	0df14783          	lbu	a5,223(sp)
   17fea:	0004ce83          	lbu	t4,0(s1)
   17fee:	9e0799e3          	bnez	a5,179e0 <_svfprintf_r+0x11e>
   17ff2:	02000793          	li	a5,32
   17ff6:	0cf10fa3          	sb	a5,223(sp)
   17ffa:	b2dd                	j	179e0 <_svfprintf_r+0x11e>
   17ffc:	6742                	ld	a4,16(sp)
   17ffe:	02047793          	andi	a5,s0,32
   18002:	0721                	addi	a4,a4,8
   18004:	08079ee3          	bnez	a5,188a0 <_svfprintf_r+0xfde>
   18008:	01047793          	andi	a5,s0,16
   1800c:	08079ae3          	bnez	a5,188a0 <_svfprintf_r+0xfde>
   18010:	66c2                	ld	a3,16(sp)
   18012:	04047793          	andi	a5,s0,64
   18016:	0006a903          	lw	s2,0(a3)
   1801a:	4c078ee3          	beqz	a5,18cf6 <_svfprintf_r+0x1434>
   1801e:	1942                	slli	s2,s2,0x30
   18020:	03095913          	srli	s2,s2,0x30
   18024:	e83a                	sd	a4,16(sp)
   18026:	8da2                	mv	s11,s0
   18028:	4785                	li	a5,1
   1802a:	b445                	j	17aca <_svfprintf_r+0x208>
   1802c:	02046413          	ori	s0,s0,32
   18030:	2401                	sext.w	s0,s0
   18032:	0004ce83          	lbu	t4,0(s1)
   18036:	b26d                	j	179e0 <_svfprintf_r+0x11e>
   18038:	6742                	ld	a4,16(sp)
   1803a:	77e1                	lui	a5,0xffff8
   1803c:	8307c793          	xori	a5,a5,-2000
   18040:	0ef11023          	sh	a5,224(sp)
   18044:	00870793          	addi	a5,a4,8
   18048:	e83e                	sd	a5,16(sp)
   1804a:	0001d7b7          	lui	a5,0x1d
   1804e:	a7078793          	addi	a5,a5,-1424 # 1ca70 <zeroes.4550+0x68>
   18052:	00246413          	ori	s0,s0,2
   18056:	f43e                	sd	a5,40(sp)
   18058:	00073903          	ld	s2,0(a4)
   1805c:	00040d9b          	sext.w	s11,s0
   18060:	4789                	li	a5,2
   18062:	07800c93          	li	s9,120
   18066:	b495                	j	17aca <_svfprintf_r+0x208>
   18068:	6742                	ld	a4,16(sp)
   1806a:	02047793          	andi	a5,s0,32
   1806e:	0721                	addi	a4,a4,8
   18070:	be079be3          	bnez	a5,17c66 <_svfprintf_r+0x3a4>
   18074:	01047793          	andi	a5,s0,16
   18078:	be0797e3          	bnez	a5,17c66 <_svfprintf_r+0x3a4>
   1807c:	66c2                	ld	a3,16(sp)
   1807e:	04047793          	andi	a5,s0,64
   18082:	0006a903          	lw	s2,0(a3)
   18086:	44078fe3          	beqz	a5,18ce4 <_svfprintf_r+0x1422>
   1808a:	1942                	slli	s2,s2,0x30
   1808c:	03095913          	srli	s2,s2,0x30
   18090:	e83a                	sd	a4,16(sp)
   18092:	bef1                	j	17c6e <_svfprintf_r+0x3ac>
   18094:	66c2                	ld	a3,16(sp)
   18096:	02047793          	andi	a5,s0,32
   1809a:	6298                	ld	a4,0(a3)
   1809c:	06a1                	addi	a3,a3,8
   1809e:	e836                	sd	a3,16(sp)
   180a0:	20079c63          	bnez	a5,182b8 <_svfprintf_r+0x9f6>
   180a4:	01047793          	andi	a5,s0,16
   180a8:	20079863          	bnez	a5,182b8 <_svfprintf_r+0x9f6>
   180ac:	04047793          	andi	a5,s0,64
   180b0:	520799e3          	bnez	a5,18de2 <_svfprintf_r+0x1520>
   180b4:	20047413          	andi	s0,s0,512
   180b8:	67a2                	ld	a5,8(sp)
   180ba:	e019                	bnez	s0,180c0 <_svfprintf_r+0x7fe>
   180bc:	1d60106f          	j	19292 <_svfprintf_r+0x19d0>
   180c0:	00f70023          	sb	a5,0(a4)
   180c4:	8d26                	mv	s10,s1
   180c6:	b345                	j	17e66 <_svfprintf_r+0x5a4>
   180c8:	0004ce83          	lbu	t4,0(s1)
   180cc:	06c00793          	li	a5,108
   180d0:	00fe87e3          	beq	t4,a5,188de <_svfprintf_r+0x101c>
   180d4:	01046413          	ori	s0,s0,16
   180d8:	2401                	sext.w	s0,s0
   180da:	b219                	j	179e0 <_svfprintf_r+0x11e>
   180dc:	00847793          	andi	a5,s0,8
   180e0:	7a079663          	bnez	a5,1888c <_svfprintf_r+0xfca>
   180e4:	67c2                	ld	a5,16(sp)
   180e6:	ec1a                	sd	t1,24(sp)
   180e8:	2388                	fld	fa0,0(a5)
   180ea:	07a1                	addi	a5,a5,8
   180ec:	e83e                	sd	a5,16(sp)
   180ee:	454040ef          	jal	ra,1c542 <__extenddftf2>
   180f2:	6362                	ld	t1,24(sp)
   180f4:	e22a                	sd	a0,256(sp)
   180f6:	e62e                	sd	a1,264(sp)
   180f8:	0208                	addi	a0,sp,256
   180fa:	ec1a                	sd	t1,24(sp)
   180fc:	fa8fe0ef          	jal	ra,168a4 <_ldcheck>
   18100:	d5aa                	sw	a0,232(sp)
   18102:	4789                	li	a5,2
   18104:	6362                	ld	t1,24(sp)
   18106:	2af50ae3          	beq	a0,a5,18bba <_svfprintf_r+0x12f8>
   1810a:	4785                	li	a5,1
   1810c:	40f50be3          	beq	a0,a5,18d22 <_svfprintf_r+0x1460>
   18110:	06100793          	li	a5,97
   18114:	00fc9463          	bne	s9,a5,1811c <_svfprintf_r+0x85a>
   18118:	1200106f          	j	19238 <_svfprintf_r+0x1976>
   1811c:	04100793          	li	a5,65
   18120:	70fc84e3          	beq	s9,a5,19028 <_svfprintf_r+0x1766>
   18124:	fdfcf713          	andi	a4,s9,-33
   18128:	57fd                	li	a5,-1
   1812a:	f93a                	sd	a4,176(sp)
   1812c:	52fc03e3          	beq	s8,a5,18e52 <_svfprintf_r+0x1590>
   18130:	04700793          	li	a5,71
   18134:	00f71463          	bne	a4,a5,1813c <_svfprintf_r+0x87a>
   18138:	1400106f          	j	19278 <_svfprintf_r+0x19b6>
   1813c:	6bb2                	ld	s7,264(sp)
   1813e:	10046793          	ori	a5,s0,256
   18142:	fd22                	sd	s0,184(sp)
   18144:	2781                	sext.w	a5,a5
   18146:	6d92                	ld	s11,256(sp)
   18148:	000bd463          	bgez	s7,18150 <_svfprintf_r+0x88e>
   1814c:	04e0106f          	j	1919a <_svfprintf_r+0x18d8>
   18150:	e582                	sd	zero,200(sp)
   18152:	843e                	mv	s0,a5
   18154:	ec02                	sd	zero,24(sp)
   18156:	774a                	ld	a4,176(sp)
   18158:	04600793          	li	a5,70
   1815c:	56f703e3          	beq	a4,a5,18ec2 <_svfprintf_r+0x1600>
   18160:	04500793          	li	a5,69
   18164:	f01a                	sd	t1,32(sp)
   18166:	00f71463          	bne	a4,a5,1816e <_svfprintf_r+0x8ac>
   1816a:	0aa0106f          	j	19214 <_svfprintf_r+0x1952>
   1816e:	11bc                	addi	a5,sp,232
   18170:	8762                	mv	a4,s8
   18172:	0f810893          	addi	a7,sp,248
   18176:	0ec10813          	addi	a6,sp,236
   1817a:	4689                	li	a3,2
   1817c:	85ee                	mv	a1,s11
   1817e:	865e                	mv	a2,s7
   18180:	854e                	mv	a0,s3
   18182:	875fd0ef          	jal	ra,159f6 <_ldtoa_r>
   18186:	774a                	ld	a4,176(sp)
   18188:	04700793          	li	a5,71
   1818c:	8d2a                	mv	s10,a0
   1818e:	7302                	ld	t1,32(sp)
   18190:	00f70463          	beq	a4,a5,18198 <_svfprintf_r+0x8d6>
   18194:	2880106f          	j	1941c <_svfprintf_r+0x1b5a>
   18198:	77ea                	ld	a5,184(sp)
   1819a:	01850933          	add	s2,a0,s8
   1819e:	8b85                	andi	a5,a5,1
   181a0:	54079ae3          	bnez	a5,18ef4 <_svfprintf_r+0x1632>
   181a4:	776e                	ld	a4,248(sp)
   181a6:	41a707bb          	subw	a5,a4,s10
   181aa:	f03e                	sd	a5,32(sp)
   181ac:	572e                	lw	a4,232(sp)
   181ae:	04700793          	li	a5,71
   181b2:	e8ba                	sd	a4,80(sp)
   181b4:	774a                	ld	a4,176(sp)
   181b6:	4af70be3          	beq	a4,a5,18e6c <_svfprintf_r+0x15aa>
   181ba:	774a                	ld	a4,176(sp)
   181bc:	04600793          	li	a5,70
   181c0:	64f701e3          	beq	a4,a5,19002 <_svfprintf_r+0x1740>
   181c4:	67c6                	ld	a5,80(sp)
   181c6:	774a                	ld	a4,176(sp)
   181c8:	04100593          	li	a1,65
   181cc:	37fd                	addiw	a5,a5,-1
   181ce:	d5be                	sw	a5,232(sp)
   181d0:	0ffcf693          	andi	a3,s9,255
   181d4:	4601                	li	a2,0
   181d6:	00b71663          	bne	a4,a1,181e2 <_svfprintf_r+0x920>
   181da:	26bd                	addiw	a3,a3,15
   181dc:	0ff6f693          	andi	a3,a3,255
   181e0:	4605                	li	a2,1
   181e2:	0ed10823          	sb	a3,240(sp)
   181e6:	0007d463          	bgez	a5,181ee <_svfprintf_r+0x92c>
   181ea:	1be0106f          	j	193a8 <_svfprintf_r+0x1ae6>
   181ee:	02b00693          	li	a3,43
   181f2:	0ed108a3          	sb	a3,241(sp)
   181f6:	46a5                	li	a3,9
   181f8:	00f6c463          	blt	a3,a5,18200 <_svfprintf_r+0x93e>
   181fc:	1460106f          	j	19342 <_svfprintf_r+0x1a80>
   18200:	0ff10813          	addi	a6,sp,255
   18204:	85c2                	mv	a1,a6
   18206:	4529                	li	a0,10
   18208:	06300893          	li	a7,99
   1820c:	a019                	j	18212 <_svfprintf_r+0x950>
   1820e:	85b2                	mv	a1,a2
   18210:	87b6                	mv	a5,a3
   18212:	02a7e6bb          	remw	a3,a5,a0
   18216:	fff58613          	addi	a2,a1,-1
   1821a:	0306869b          	addiw	a3,a3,48
   1821e:	fed58fa3          	sb	a3,-1(a1)
   18222:	02a7c6bb          	divw	a3,a5,a0
   18226:	fef8c4e3          	blt	a7,a5,1820e <_svfprintf_r+0x94c>
   1822a:	0306879b          	addiw	a5,a3,48
   1822e:	0ff7f793          	andi	a5,a5,255
   18232:	ffe58693          	addi	a3,a1,-2
   18236:	fef60fa3          	sb	a5,-1(a2)
   1823a:	0106e463          	bltu	a3,a6,18242 <_svfprintf_r+0x980>
   1823e:	1f60106f          	j	19434 <_svfprintf_r+0x1b72>
   18242:	0f210613          	addi	a2,sp,242
   18246:	a019                	j	1824c <_svfprintf_r+0x98a>
   18248:	0006c783          	lbu	a5,0(a3)
   1824c:	0605                	addi	a2,a2,1
   1824e:	0685                	addi	a3,a3,1
   18250:	fef60fa3          	sb	a5,-1(a2)
   18254:	ff069ae3          	bne	a3,a6,18248 <_svfprintf_r+0x986>
   18258:	10110793          	addi	a5,sp,257
   1825c:	8f8d                	sub	a5,a5,a1
   1825e:	0f210713          	addi	a4,sp,242
   18262:	97ba                	add	a5,a5,a4
   18264:	1994                	addi	a3,sp,240
   18266:	9f95                	subw	a5,a5,a3
   18268:	e13e                	sd	a5,128(sp)
   1826a:	678a                	ld	a5,128(sp)
   1826c:	7702                	ld	a4,32(sp)
   1826e:	4685                	li	a3,1
   18270:	00f70bbb          	addw	s7,a4,a5
   18274:	87de                	mv	a5,s7
   18276:	00e6c463          	blt	a3,a4,1827e <_svfprintf_r+0x9bc>
   1827a:	1020106f          	j	1937c <_svfprintf_r+0x1aba>
   1827e:	7726                	ld	a4,104(sp)
   18280:	00e78bbb          	addw	s7,a5,a4
   18284:	77ea                	ld	a5,184(sp)
   18286:	fffbc913          	not	s2,s7
   1828a:	43f95913          	srai	s2,s2,0x3f
   1828e:	bff7f413          	andi	s0,a5,-1025
   18292:	2401                	sext.w	s0,s0
   18294:	012bf933          	and	s2,s7,s2
   18298:	10046413          	ori	s0,s0,256
   1829c:	2901                	sext.w	s2,s2
   1829e:	e482                	sd	zero,72(sp)
   182a0:	ec82                	sd	zero,88(sp)
   182a2:	e882                	sd	zero,80(sp)
   182a4:	67ae                	ld	a5,200(sp)
   182a6:	480781e3          	beqz	a5,18f28 <_svfprintf_r+0x1666>
   182aa:	02d00793          	li	a5,45
   182ae:	0cf10fa3          	sb	a5,223(sp)
   182b2:	4c01                	li	s8,0
   182b4:	2905                	addiw	s2,s2,1
   182b6:	b4f9                	j	17d84 <_svfprintf_r+0x4c2>
   182b8:	67a2                	ld	a5,8(sp)
   182ba:	8d26                	mv	s10,s1
   182bc:	e31c                	sd	a5,0(a4)
   182be:	b665                	j	17e66 <_svfprintf_r+0x5a4>
   182c0:	8da2                	mv	s11,s0
   182c2:	47a5                	li	a5,9
   182c4:	0127ec63          	bltu	a5,s2,182dc <_svfprintf_r+0xa1a>
   182c8:	0309091b          	addiw	s2,s2,48
   182cc:	192105a3          	sb	s2,395(sp)
   182d0:	846e                	mv	s0,s11
   182d2:	4b85                	li	s7,1
   182d4:	18b10d13          	addi	s10,sp,395
   182d8:	81bff06f          	j	17af2 <_svfprintf_r+0x230>
   182dc:	400df693          	andi	a3,s11,1024
   182e0:	18c10b93          	addi	s7,sp,396
   182e4:	2681                	sext.w	a3,a3
   182e6:	f002                	sd	zero,32(sp)
   182e8:	865e                	mv	a2,s7
   182ea:	4429                	li	s0,10
   182ec:	4825                	li	a6,9
   182ee:	0ff00893          	li	a7,255
   182f2:	a039                	j	18300 <_svfprintf_r+0xa3e>
   182f4:	028957b3          	divu	a5,s2,s0
   182f8:	03287963          	bgeu	a6,s2,1832a <_svfprintf_r+0xa68>
   182fc:	893e                	mv	s2,a5
   182fe:	866a                	mv	a2,s10
   18300:	7702                	ld	a4,32(sp)
   18302:	fff60d13          	addi	s10,a2,-1
   18306:	2705                	addiw	a4,a4,1
   18308:	f03a                	sd	a4,32(sp)
   1830a:	028977b3          	remu	a5,s2,s0
   1830e:	0307879b          	addiw	a5,a5,48
   18312:	fef60fa3          	sb	a5,-1(a2)
   18316:	def9                	beqz	a3,182f4 <_svfprintf_r+0xa32>
   18318:	7786                	ld	a5,96(sp)
   1831a:	0007c783          	lbu	a5,0(a5)
   1831e:	fcf71be3          	bne	a4,a5,182f4 <_svfprintf_r+0xa32>
   18322:	fd1789e3          	beq	a5,a7,182f4 <_svfprintf_r+0xa32>
   18326:	272865e3          	bltu	a6,s2,18d90 <_svfprintf_r+0x14ce>
   1832a:	41ab8bbb          	subw	s7,s7,s10
   1832e:	846e                	mv	s0,s11
   18330:	fc2ff06f          	j	17af2 <_svfprintf_r+0x230>
   18334:	06500693          	li	a3,101
   18338:	b796d4e3          	bge	a3,s9,17ea0 <_svfprintf_r+0x5de>
   1833c:	6512                	ld	a0,256(sp)
   1833e:	65b2                	ld	a1,264(sp)
   18340:	4601                	li	a2,0
   18342:	4681                	li	a3,0
   18344:	fc3e                	sd	a5,56(sp)
   18346:	f81a                	sd	t1,48(sp)
   18348:	0f8030ef          	jal	ra,1b440 <__eqtf2>
   1834c:	7342                	ld	t1,48(sp)
   1834e:	77e2                	ld	a5,56(sp)
   18350:	34051663          	bnez	a0,1869c <_svfprintf_r+0xdda>
   18354:	11812703          	lw	a4,280(sp)
   18358:	0001d6b7          	lui	a3,0x1d
   1835c:	aa868693          	addi	a3,a3,-1368 # 1caa8 <zeroes.4550+0xa0>
   18360:	2705                	addiw	a4,a4,1
   18362:	0785                	addi	a5,a5,1
   18364:	00d33023          	sd	a3,0(t1)
   18368:	4685                	li	a3,1
   1836a:	00d33423          	sd	a3,8(t1)
   1836e:	f23e                	sd	a5,288(sp)
   18370:	0007069b          	sext.w	a3,a4
   18374:	10e12c23          	sw	a4,280(sp)
   18378:	479d                	li	a5,7
   1837a:	0341                	addi	t1,t1,16
   1837c:	7ed7ca63          	blt	a5,a3,18b70 <_svfprintf_r+0x12ae>
   18380:	57ae                	lw	a5,232(sp)
   18382:	7702                	ld	a4,32(sp)
   18384:	00e7c763          	blt	a5,a4,18392 <_svfprintf_r+0xad0>
   18388:	00147793          	andi	a5,s0,1
   1838c:	e399                	bnez	a5,18392 <_svfprintf_r+0xad0>
   1838e:	7792                	ld	a5,288(sp)
   18390:	b455                	j	17e34 <_svfprintf_r+0x572>
   18392:	77c6                	ld	a5,112(sp)
   18394:	76a6                	ld	a3,104(sp)
   18396:	11812703          	lw	a4,280(sp)
   1839a:	00f33023          	sd	a5,0(t1)
   1839e:	7792                	ld	a5,288(sp)
   183a0:	2705                	addiw	a4,a4,1
   183a2:	00d33423          	sd	a3,8(t1)
   183a6:	97b6                	add	a5,a5,a3
   183a8:	10e12c23          	sw	a4,280(sp)
   183ac:	0007069b          	sext.w	a3,a4
   183b0:	f23e                	sd	a5,288(sp)
   183b2:	471d                	li	a4,7
   183b4:	0341                	addi	t1,t1,16
   183b6:	50d74263          	blt	a4,a3,188ba <_svfprintf_r+0xff8>
   183ba:	7702                	ld	a4,32(sp)
   183bc:	fff70b9b          	addiw	s7,a4,-1
   183c0:	a7705ae3          	blez	s7,17e34 <_svfprintf_r+0x572>
   183c4:	6875                	lui	a6,0x1d
   183c6:	46c1                	li	a3,16
   183c8:	11812703          	lw	a4,280(sp)
   183cc:	01080d93          	addi	s11,a6,16 # 1d010 <zeroes.4535>
   183d0:	4cc1                	li	s9,16
   183d2:	4c1d                	li	s8,7
   183d4:	0176c763          	blt	a3,s7,183e2 <_svfprintf_r+0xb20>
   183d8:	7ae0006f          	j	18b86 <_svfprintf_r+0x12c4>
   183dc:	3bc1                	addiw	s7,s7,-16
   183de:	7b7cd463          	bge	s9,s7,18b86 <_svfprintf_r+0x12c4>
   183e2:	2705                	addiw	a4,a4,1
   183e4:	07c1                	addi	a5,a5,16
   183e6:	01b33023          	sd	s11,0(t1)
   183ea:	01933423          	sd	s9,8(t1)
   183ee:	f23e                	sd	a5,288(sp)
   183f0:	10e12c23          	sw	a4,280(sp)
   183f4:	0341                	addi	t1,t1,16
   183f6:	feec53e3          	bge	s8,a4,183dc <_svfprintf_r+0xb1a>
   183fa:	0a10                	addi	a2,sp,272
   183fc:	85d6                	mv	a1,s5
   183fe:	854e                	mv	a0,s3
   18400:	7a5010ef          	jal	ra,1a3a4 <__ssprint_r>
   18404:	e2051763          	bnez	a0,17a32 <_svfprintf_r+0x170>
   18408:	7792                	ld	a5,288(sp)
   1840a:	11812703          	lw	a4,280(sp)
   1840e:	8352                	mv	t1,s4
   18410:	b7f1                	j	183dc <_svfprintf_r+0xb1a>
   18412:	412b08bb          	subw	a7,s6,s2
   18416:	9f1056e3          	blez	a7,17e02 <_svfprintf_r+0x540>
   1841a:	6875                	lui	a6,0x1d
   1841c:	4641                	li	a2,16
   1841e:	11812683          	lw	a3,280(sp)
   18422:	01080d93          	addi	s11,a6,16 # 1d010 <zeroes.4535>
   18426:	4f41                	li	t5,16
   18428:	4f9d                	li	t6,7
   1842a:	01164663          	blt	a2,a7,18436 <_svfprintf_r+0xb74>
   1842e:	a091                	j	18472 <_svfprintf_r+0xbb0>
   18430:	38c1                	addiw	a7,a7,-16
   18432:	051f5063          	bge	t5,a7,18472 <_svfprintf_r+0xbb0>
   18436:	2685                	addiw	a3,a3,1
   18438:	07c1                	addi	a5,a5,16
   1843a:	01b33023          	sd	s11,0(t1)
   1843e:	01e33423          	sd	t5,8(t1)
   18442:	f23e                	sd	a5,288(sp)
   18444:	10d12c23          	sw	a3,280(sp)
   18448:	0341                	addi	t1,t1,16
   1844a:	fedfd3e3          	bge	t6,a3,18430 <_svfprintf_r+0xb6e>
   1844e:	0a10                	addi	a2,sp,272
   18450:	85d6                	mv	a1,s5
   18452:	854e                	mv	a0,s3
   18454:	f846                	sd	a7,48(sp)
   18456:	74f010ef          	jal	ra,1a3a4 <__ssprint_r>
   1845a:	dc051c63          	bnez	a0,17a32 <_svfprintf_r+0x170>
   1845e:	78c2                	ld	a7,48(sp)
   18460:	4f41                	li	t5,16
   18462:	7792                	ld	a5,288(sp)
   18464:	38c1                	addiw	a7,a7,-16
   18466:	11812683          	lw	a3,280(sp)
   1846a:	8352                	mv	t1,s4
   1846c:	4f9d                	li	t6,7
   1846e:	fd1f44e3          	blt	t5,a7,18436 <_svfprintf_r+0xb74>
   18472:	0016861b          	addiw	a2,a3,1
   18476:	97c6                	add	a5,a5,a7
   18478:	01b33023          	sd	s11,0(t1)
   1847c:	01133423          	sd	a7,8(t1)
   18480:	f23e                	sd	a5,288(sp)
   18482:	10c12c23          	sw	a2,280(sp)
   18486:	469d                	li	a3,7
   18488:	0341                	addi	t1,t1,16
   1848a:	96c6dce3          	bge	a3,a2,17e02 <_svfprintf_r+0x540>
   1848e:	0a10                	addi	a2,sp,272
   18490:	85d6                	mv	a1,s5
   18492:	854e                	mv	a0,s3
   18494:	711010ef          	jal	ra,1a3a4 <__ssprint_r>
   18498:	d8051d63          	bnez	a0,17a32 <_svfprintf_r+0x170>
   1849c:	417c0c3b          	subw	s8,s8,s7
   184a0:	7792                	ld	a5,288(sp)
   184a2:	8352                	mv	t1,s4
   184a4:	978053e3          	blez	s8,17e0a <_svfprintf_r+0x548>
   184a8:	6875                	lui	a6,0x1d
   184aa:	4641                	li	a2,16
   184ac:	11812683          	lw	a3,280(sp)
   184b0:	01080d93          	addi	s11,a6,16 # 1d010 <zeroes.4535>
   184b4:	48c1                	li	a7,16
   184b6:	4f1d                	li	t5,7
   184b8:	01864663          	blt	a2,s8,184c4 <_svfprintf_r+0xc02>
   184bc:	a081                	j	184fc <_svfprintf_r+0xc3a>
   184be:	3c41                	addiw	s8,s8,-16
   184c0:	0388de63          	bge	a7,s8,184fc <_svfprintf_r+0xc3a>
   184c4:	2685                	addiw	a3,a3,1
   184c6:	07c1                	addi	a5,a5,16
   184c8:	01b33023          	sd	s11,0(t1)
   184cc:	01133423          	sd	a7,8(t1)
   184d0:	f23e                	sd	a5,288(sp)
   184d2:	10d12c23          	sw	a3,280(sp)
   184d6:	0341                	addi	t1,t1,16
   184d8:	fedf53e3          	bge	t5,a3,184be <_svfprintf_r+0xbfc>
   184dc:	0a10                	addi	a2,sp,272
   184de:	85d6                	mv	a1,s5
   184e0:	854e                	mv	a0,s3
   184e2:	6c3010ef          	jal	ra,1a3a4 <__ssprint_r>
   184e6:	d4051663          	bnez	a0,17a32 <_svfprintf_r+0x170>
   184ea:	48c1                	li	a7,16
   184ec:	3c41                	addiw	s8,s8,-16
   184ee:	7792                	ld	a5,288(sp)
   184f0:	11812683          	lw	a3,280(sp)
   184f4:	8352                	mv	t1,s4
   184f6:	4f1d                	li	t5,7
   184f8:	fd88c6e3          	blt	a7,s8,184c4 <_svfprintf_r+0xc02>
   184fc:	0016861b          	addiw	a2,a3,1
   18500:	97e2                	add	a5,a5,s8
   18502:	01b33023          	sd	s11,0(t1)
   18506:	01833423          	sd	s8,8(t1)
   1850a:	f23e                	sd	a5,288(sp)
   1850c:	10c12c23          	sw	a2,280(sp)
   18510:	469d                	li	a3,7
   18512:	0341                	addi	t1,t1,16
   18514:	8ec6dbe3          	bge	a3,a2,17e0a <_svfprintf_r+0x548>
   18518:	0a10                	addi	a2,sp,272
   1851a:	85d6                	mv	a1,s5
   1851c:	854e                	mv	a0,s3
   1851e:	687010ef          	jal	ra,1a3a4 <__ssprint_r>
   18522:	d0051863          	bnez	a0,17a32 <_svfprintf_r+0x170>
   18526:	7792                	ld	a5,288(sp)
   18528:	8352                	mv	t1,s4
   1852a:	b0c5                	j	17e0a <_svfprintf_r+0x548>
   1852c:	8da2                	mv	s11,s0
   1852e:	fe6ff06f          	j	17d14 <_svfprintf_r+0x452>
   18532:	68f5                	lui	a7,0x1d
   18534:	4641                	li	a2,16
   18536:	11812683          	lw	a3,280(sp)
   1853a:	00088d93          	mv	s11,a7
   1853e:	4fc1                	li	t6,16
   18540:	439d                	li	t2,7
   18542:	01064663          	blt	a2,a6,1854e <_svfprintf_r+0xc8c>
   18546:	a0b1                	j	18592 <_svfprintf_r+0xcd0>
   18548:	3841                	addiw	a6,a6,-16
   1854a:	050fd463          	bge	t6,a6,18592 <_svfprintf_r+0xcd0>
   1854e:	2685                	addiw	a3,a3,1
   18550:	07c1                	addi	a5,a5,16
   18552:	01b33023          	sd	s11,0(t1)
   18556:	01f33423          	sd	t6,8(t1)
   1855a:	f23e                	sd	a5,288(sp)
   1855c:	10d12c23          	sw	a3,280(sp)
   18560:	0341                	addi	t1,t1,16
   18562:	fed3d3e3          	bge	t2,a3,18548 <_svfprintf_r+0xc86>
   18566:	0a10                	addi	a2,sp,272
   18568:	85d6                	mv	a1,s5
   1856a:	854e                	mv	a0,s3
   1856c:	e0c2                	sd	a6,64(sp)
   1856e:	fc16                	sd	t0,56(sp)
   18570:	f87a                	sd	t5,48(sp)
   18572:	633010ef          	jal	ra,1a3a4 <__ssprint_r>
   18576:	ca051e63          	bnez	a0,17a32 <_svfprintf_r+0x170>
   1857a:	6806                	ld	a6,64(sp)
   1857c:	4fc1                	li	t6,16
   1857e:	7792                	ld	a5,288(sp)
   18580:	3841                	addiw	a6,a6,-16
   18582:	11812683          	lw	a3,280(sp)
   18586:	8352                	mv	t1,s4
   18588:	439d                	li	t2,7
   1858a:	72e2                	ld	t0,56(sp)
   1858c:	7f42                	ld	t5,48(sp)
   1858e:	fd0fc0e3          	blt	t6,a6,1854e <_svfprintf_r+0xc8c>
   18592:	0016861b          	addiw	a2,a3,1
   18596:	97c2                	add	a5,a5,a6
   18598:	01b33023          	sd	s11,0(t1)
   1859c:	01033423          	sd	a6,8(t1)
   185a0:	f23e                	sd	a5,288(sp)
   185a2:	10c12c23          	sw	a2,280(sp)
   185a6:	469d                	li	a3,7
   185a8:	0341                	addi	t1,t1,16
   185aa:	fec6dc63          	bge	a3,a2,17da2 <_svfprintf_r+0x4e0>
   185ae:	0a10                	addi	a2,sp,272
   185b0:	85d6                	mv	a1,s5
   185b2:	854e                	mv	a0,s3
   185b4:	fc16                	sd	t0,56(sp)
   185b6:	f87a                	sd	t5,48(sp)
   185b8:	5ed010ef          	jal	ra,1a3a4 <__ssprint_r>
   185bc:	c6051b63          	bnez	a0,17a32 <_svfprintf_r+0x170>
   185c0:	7792                	ld	a5,288(sp)
   185c2:	8352                	mv	t1,s4
   185c4:	72e2                	ld	t0,56(sp)
   185c6:	7f42                	ld	t5,48(sp)
   185c8:	fdaff06f          	j	17da2 <_svfprintf_r+0x4e0>
   185cc:	0a10                	addi	a2,sp,272
   185ce:	85d6                	mv	a1,s5
   185d0:	854e                	mv	a0,s3
   185d2:	f816                	sd	t0,48(sp)
   185d4:	5d1010ef          	jal	ra,1a3a4 <__ssprint_r>
   185d8:	c4051d63          	bnez	a0,17a32 <_svfprintf_r+0x170>
   185dc:	7792                	ld	a5,288(sp)
   185de:	8352                	mv	t1,s4
   185e0:	72c2                	ld	t0,48(sp)
   185e2:	819ff06f          	j	17dfa <_svfprintf_r+0x538>
   185e6:	68f5                	lui	a7,0x1d
   185e8:	46c1                	li	a3,16
   185ea:	11812703          	lw	a4,280(sp)
   185ee:	00088d93          	mv	s11,a7
   185f2:	4bc1                	li	s7,16
   185f4:	4c1d                	li	s8,7
   185f6:	0086c663          	blt	a3,s0,18602 <_svfprintf_r+0xd40>
   185fa:	a835                	j	18636 <_svfprintf_r+0xd74>
   185fc:	3441                	addiw	s0,s0,-16
   185fe:	028bdc63          	bge	s7,s0,18636 <_svfprintf_r+0xd74>
   18602:	2705                	addiw	a4,a4,1
   18604:	07c1                	addi	a5,a5,16
   18606:	01b33023          	sd	s11,0(t1)
   1860a:	01733423          	sd	s7,8(t1)
   1860e:	f23e                	sd	a5,288(sp)
   18610:	10e12c23          	sw	a4,280(sp)
   18614:	0341                	addi	t1,t1,16
   18616:	feec53e3          	bge	s8,a4,185fc <_svfprintf_r+0xd3a>
   1861a:	0a10                	addi	a2,sp,272
   1861c:	85d6                	mv	a1,s5
   1861e:	854e                	mv	a0,s3
   18620:	585010ef          	jal	ra,1a3a4 <__ssprint_r>
   18624:	c0051763          	bnez	a0,17a32 <_svfprintf_r+0x170>
   18628:	3441                	addiw	s0,s0,-16
   1862a:	7792                	ld	a5,288(sp)
   1862c:	11812703          	lw	a4,280(sp)
   18630:	8352                	mv	t1,s4
   18632:	fc8bc8e3          	blt	s7,s0,18602 <_svfprintf_r+0xd40>
   18636:	0017069b          	addiw	a3,a4,1
   1863a:	97a2                	add	a5,a5,s0
   1863c:	01b33023          	sd	s11,0(t1)
   18640:	00833423          	sd	s0,8(t1)
   18644:	f23e                	sd	a5,288(sp)
   18646:	10d12c23          	sw	a3,280(sp)
   1864a:	471d                	li	a4,7
   1864c:	fed75a63          	bge	a4,a3,17e40 <_svfprintf_r+0x57e>
   18650:	0a10                	addi	a2,sp,272
   18652:	85d6                	mv	a1,s5
   18654:	854e                	mv	a0,s3
   18656:	54f010ef          	jal	ra,1a3a4 <__ssprint_r>
   1865a:	bc051c63          	bnez	a0,17a32 <_svfprintf_r+0x170>
   1865e:	7792                	ld	a5,288(sp)
   18660:	fe0ff06f          	j	17e40 <_svfprintf_r+0x57e>
   18664:	4705                	li	a4,1
   18666:	7ee78963          	beq	a5,a4,18e58 <_svfprintf_r+0x1596>
   1866a:	4709                	li	a4,2
   1866c:	8da2                	mv	s11,s0
   1866e:	eae79963          	bne	a5,a4,17d20 <_svfprintf_r+0x45e>
   18672:	18c10b93          	addi	s7,sp,396
   18676:	8d5e                	mv	s10,s7
   18678:	7722                	ld	a4,40(sp)
   1867a:	00f97793          	andi	a5,s2,15
   1867e:	1d7d                	addi	s10,s10,-1
   18680:	97ba                	add	a5,a5,a4
   18682:	0007c783          	lbu	a5,0(a5)
   18686:	00495913          	srli	s2,s2,0x4
   1868a:	00fd0023          	sb	a5,0(s10)
   1868e:	fe0915e3          	bnez	s2,18678 <_svfprintf_r+0xdb6>
   18692:	41ab8bbb          	subw	s7,s7,s10
   18696:	846e                	mv	s0,s11
   18698:	c5aff06f          	j	17af2 <_svfprintf_r+0x230>
   1869c:	55ae                	lw	a1,232(sp)
   1869e:	42b05d63          	blez	a1,18ad8 <_svfprintf_r+0x1216>
   186a2:	7702                	ld	a4,32(sp)
   186a4:	66c6                	ld	a3,80(sp)
   186a6:	00070b9b          	sext.w	s7,a4
   186aa:	20e6c363          	blt	a3,a4,188b0 <_svfprintf_r+0xfee>
   186ae:	03705263          	blez	s7,186d2 <_svfprintf_r+0xe10>
   186b2:	11812683          	lw	a3,280(sp)
   186b6:	97de                	add	a5,a5,s7
   186b8:	01a33023          	sd	s10,0(t1)
   186bc:	0016861b          	addiw	a2,a3,1
   186c0:	01733423          	sd	s7,8(t1)
   186c4:	f23e                	sd	a5,288(sp)
   186c6:	10c12c23          	sw	a2,280(sp)
   186ca:	469d                	li	a3,7
   186cc:	0341                	addi	t1,t1,16
   186ce:	6ac6c663          	blt	a3,a2,18d7a <_svfprintf_r+0x14b8>
   186d2:	fffbc693          	not	a3,s7
   186d6:	6746                	ld	a4,80(sp)
   186d8:	96fd                	srai	a3,a3,0x3f
   186da:	00dbfbb3          	and	s7,s7,a3
   186de:	41770bbb          	subw	s7,a4,s7
   186e2:	25704763          	bgtz	s7,18930 <_svfprintf_r+0x106e>
   186e6:	6746                	ld	a4,80(sp)
   186e8:	40047693          	andi	a3,s0,1024
   186ec:	00ed0c33          	add	s8,s10,a4
   186f0:	28069663          	bnez	a3,1897c <_svfprintf_r+0x10ba>
   186f4:	56ae                	lw	a3,232(sp)
   186f6:	7702                	ld	a4,32(sp)
   186f8:	00e6c663          	blt	a3,a4,18704 <_svfprintf_r+0xe42>
   186fc:	00147613          	andi	a2,s0,1
   18700:	6c060563          	beqz	a2,18dca <_svfprintf_r+0x1508>
   18704:	7646                	ld	a2,112(sp)
   18706:	7726                	ld	a4,104(sp)
   18708:	0341                	addi	t1,t1,16
   1870a:	fec33823          	sd	a2,-16(t1)
   1870e:	11812603          	lw	a2,280(sp)
   18712:	97ba                	add	a5,a5,a4
   18714:	fee33c23          	sd	a4,-8(t1)
   18718:	0016059b          	addiw	a1,a2,1
   1871c:	f23e                	sd	a5,288(sp)
   1871e:	10b12c23          	sw	a1,280(sp)
   18722:	461d                	li	a2,7
   18724:	04b64ee3          	blt	a2,a1,18f80 <_svfprintf_r+0x16be>
   18728:	7702                	ld	a4,32(sp)
   1872a:	40d7063b          	subw	a2,a4,a3
   1872e:	976a                	add	a4,a4,s10
   18730:	4187073b          	subw	a4,a4,s8
   18734:	86b2                	mv	a3,a2
   18736:	00c75363          	bge	a4,a2,1873c <_svfprintf_r+0xe7a>
   1873a:	86ba                	mv	a3,a4
   1873c:	00068b9b          	sext.w	s7,a3
   18740:	03705263          	blez	s7,18764 <_svfprintf_r+0xea2>
   18744:	11812703          	lw	a4,280(sp)
   18748:	97de                	add	a5,a5,s7
   1874a:	01833023          	sd	s8,0(t1)
   1874e:	0017069b          	addiw	a3,a4,1
   18752:	01733423          	sd	s7,8(t1)
   18756:	f23e                	sd	a5,288(sp)
   18758:	10d12c23          	sw	a3,280(sp)
   1875c:	471d                	li	a4,7
   1875e:	0341                	addi	t1,t1,16
   18760:	04d74be3          	blt	a4,a3,18fb6 <_svfprintf_r+0x16f4>
   18764:	fffbc713          	not	a4,s7
   18768:	977d                	srai	a4,a4,0x3f
   1876a:	00ebfbb3          	and	s7,s7,a4
   1876e:	41760bbb          	subw	s7,a2,s7
   18772:	ed705163          	blez	s7,17e34 <_svfprintf_r+0x572>
   18776:	6875                	lui	a6,0x1d
   18778:	46c1                	li	a3,16
   1877a:	11812703          	lw	a4,280(sp)
   1877e:	01080d93          	addi	s11,a6,16 # 1d010 <zeroes.4535>
   18782:	4cc1                	li	s9,16
   18784:	4c1d                	li	s8,7
   18786:	0176c663          	blt	a3,s7,18792 <_svfprintf_r+0xed0>
   1878a:	aef5                	j	18b86 <_svfprintf_r+0x12c4>
   1878c:	3bc1                	addiw	s7,s7,-16
   1878e:	3f7cdc63          	bge	s9,s7,18b86 <_svfprintf_r+0x12c4>
   18792:	2705                	addiw	a4,a4,1
   18794:	07c1                	addi	a5,a5,16
   18796:	01b33023          	sd	s11,0(t1)
   1879a:	01933423          	sd	s9,8(t1)
   1879e:	f23e                	sd	a5,288(sp)
   187a0:	10e12c23          	sw	a4,280(sp)
   187a4:	0341                	addi	t1,t1,16
   187a6:	feec53e3          	bge	s8,a4,1878c <_svfprintf_r+0xeca>
   187aa:	0a10                	addi	a2,sp,272
   187ac:	85d6                	mv	a1,s5
   187ae:	854e                	mv	a0,s3
   187b0:	3f5010ef          	jal	ra,1a3a4 <__ssprint_r>
   187b4:	a6051f63          	bnez	a0,17a32 <_svfprintf_r+0x170>
   187b8:	7792                	ld	a5,288(sp)
   187ba:	11812703          	lw	a4,280(sp)
   187be:	8352                	mv	t1,s4
   187c0:	b7f1                	j	1878c <_svfprintf_r+0xeca>
   187c2:	00147513          	andi	a0,s0,1
   187c6:	ee051c63          	bnez	a0,17ebe <_svfprintf_r+0x5fc>
   187ca:	00b33423          	sd	a1,8(t1)
   187ce:	f266                	sd	s9,288(sp)
   187d0:	10d12c23          	sw	a3,280(sp)
   187d4:	471d                	li	a4,7
   187d6:	2cd74f63          	blt	a4,a3,18ab4 <_svfprintf_r+0x11f2>
   187da:	002f0c1b          	addiw	s8,t5,2
   187de:	02030313          	addi	t1,t1,32
   187e2:	f64ff06f          	j	17f46 <_svfprintf_r+0x684>
   187e6:	f6f05063          	blez	a5,17f46 <_svfprintf_r+0x684>
   187ea:	4741                	li	a4,16
   187ec:	3ef75ee3          	bge	a4,a5,193e8 <_svfprintf_r+0x1b26>
   187f0:	6875                	lui	a6,0x1d
   187f2:	01080d93          	addi	s11,a6,16 # 1d010 <zeroes.4535>
   187f6:	4d41                	li	s10,16
   187f8:	4c1d                	li	s8,7
   187fa:	a031                	j	18806 <_svfprintf_r+0xf44>
   187fc:	37c1                	addiw	a5,a5,-16
   187fe:	4afd5663          	bge	s10,a5,18caa <_svfprintf_r+0x13e8>
   18802:	00188e9b          	addiw	t4,a7,1
   18806:	0cc1                	addi	s9,s9,16
   18808:	01bbb023          	sd	s11,0(s7)
   1880c:	01abb423          	sd	s10,8(s7)
   18810:	f266                	sd	s9,288(sp)
   18812:	000e889b          	sext.w	a7,t4
   18816:	11d12c23          	sw	t4,280(sp)
   1881a:	0bc1                	addi	s7,s7,16
   1881c:	ff1c50e3          	bge	s8,a7,187fc <_svfprintf_r+0xf3a>
   18820:	0a10                	addi	a2,sp,272
   18822:	85d6                	mv	a1,s5
   18824:	854e                	mv	a0,s3
   18826:	f83e                	sd	a5,48(sp)
   18828:	37d010ef          	jal	ra,1a3a4 <__ssprint_r>
   1882c:	a0051363          	bnez	a0,17a32 <_svfprintf_r+0x170>
   18830:	7c92                	ld	s9,288(sp)
   18832:	11812883          	lw	a7,280(sp)
   18836:	8bd2                	mv	s7,s4
   18838:	77c2                	ld	a5,48(sp)
   1883a:	b7c9                	j	187fc <_svfprintf_r+0xf3a>
   1883c:	896a                	mv	s2,s10
   1883e:	984ff06f          	j	179c2 <_svfprintf_r+0x100>
   18842:	0a10                	addi	a2,sp,272
   18844:	85d6                	mv	a1,s5
   18846:	854e                	mv	a0,s3
   18848:	35d010ef          	jal	ra,1a3a4 <__ssprint_r>
   1884c:	9e051363          	bnez	a0,17a32 <_svfprintf_r+0x170>
   18850:	7c92                	ld	s9,288(sp)
   18852:	11812683          	lw	a3,280(sp)
   18856:	8bd2                	mv	s7,s4
   18858:	e78ff06f          	j	17ed0 <_svfprintf_r+0x60e>
   1885c:	0a10                	addi	a2,sp,272
   1885e:	85d6                	mv	a1,s5
   18860:	854e                	mv	a0,s3
   18862:	343010ef          	jal	ra,1a3a4 <__ssprint_r>
   18866:	9c051663          	bnez	a0,17a32 <_svfprintf_r+0x170>
   1886a:	7c92                	ld	s9,288(sp)
   1886c:	11812883          	lw	a7,280(sp)
   18870:	8bd2                	mv	s7,s4
   18872:	e7eff06f          	j	17ef0 <_svfprintf_r+0x62e>
   18876:	03000793          	li	a5,48
   1887a:	18f105a3          	sb	a5,395(sp)
   1887e:	18b10d13          	addi	s10,sp,395
   18882:	a70ff06f          	j	17af2 <_svfprintf_r+0x230>
   18886:	8da2                	mv	s11,s0
   18888:	c6cff06f          	j	17cf4 <_svfprintf_r+0x432>
   1888c:	67c2                	ld	a5,16(sp)
   1888e:	07bd                	addi	a5,a5,15
   18890:	9bc1                	andi	a5,a5,-16
   18892:	6394                	ld	a3,0(a5)
   18894:	6798                	ld	a4,8(a5)
   18896:	07c1                	addi	a5,a5,16
   18898:	e83e                	sd	a5,16(sp)
   1889a:	e236                	sd	a3,256(sp)
   1889c:	e63a                	sd	a4,264(sp)
   1889e:	b8a9                	j	180f8 <_svfprintf_r+0x836>
   188a0:	8da2                	mv	s11,s0
   188a2:	b50ff06f          	j	17bf2 <_svfprintf_r+0x330>
   188a6:	67c2                	ld	a5,16(sp)
   188a8:	0007b903          	ld	s2,0(a5)
   188ac:	9f6ff06f          	j	17aa2 <_svfprintf_r+0x1e0>
   188b0:	00068b9b          	sext.w	s7,a3
   188b4:	df704fe3          	bgtz	s7,186b2 <_svfprintf_r+0xdf0>
   188b8:	bd29                	j	186d2 <_svfprintf_r+0xe10>
   188ba:	0a10                	addi	a2,sp,272
   188bc:	85d6                	mv	a1,s5
   188be:	854e                	mv	a0,s3
   188c0:	2e5010ef          	jal	ra,1a3a4 <__ssprint_r>
   188c4:	96051763          	bnez	a0,17a32 <_svfprintf_r+0x170>
   188c8:	7792                	ld	a5,288(sp)
   188ca:	8352                	mv	t1,s4
   188cc:	b4fd                	j	183ba <_svfprintf_r+0xaf8>
   188ce:	20046413          	ori	s0,s0,512
   188d2:	0014ce83          	lbu	t4,1(s1)
   188d6:	2401                	sext.w	s0,s0
   188d8:	0485                	addi	s1,s1,1
   188da:	906ff06f          	j	179e0 <_svfprintf_r+0x11e>
   188de:	02046413          	ori	s0,s0,32
   188e2:	0014ce83          	lbu	t4,1(s1)
   188e6:	2401                	sext.w	s0,s0
   188e8:	0485                	addi	s1,s1,1
   188ea:	8f6ff06f          	j	179e0 <_svfprintf_r+0x11e>
   188ee:	04000593          	li	a1,64
   188f2:	854e                	mv	a0,s3
   188f4:	d57f80ef          	jal	ra,1164a <_malloc_r>
   188f8:	00aab023          	sd	a0,0(s5)
   188fc:	00aabc23          	sd	a0,24(s5)
   18900:	300507e3          	beqz	a0,1940e <_svfprintf_r+0x1b4c>
   18904:	04000793          	li	a5,64
   18908:	02faa023          	sw	a5,32(s5)
   1890c:	81eff06f          	j	1792a <_svfprintf_r+0x68>
   18910:	000c071b          	sext.w	a4,s8
   18914:	4799                	li	a5,6
   18916:	8e62                	mv	t3,s8
   18918:	4ae7e763          	bltu	a5,a4,18dc6 <_svfprintf_r+0x1504>
   1891c:	000e0b9b          	sext.w	s7,t3
   18920:	0001d737          	lui	a4,0x1d
   18924:	895e                	mv	s2,s7
   18926:	e86e                	sd	s11,16(sp)
   18928:	aa070d13          	addi	s10,a4,-1376 # 1caa0 <zeroes.4550+0x98>
   1892c:	c4eff06f          	j	17d7a <_svfprintf_r+0x4b8>
   18930:	6875                	lui	a6,0x1d
   18932:	4641                	li	a2,16
   18934:	11812683          	lw	a3,280(sp)
   18938:	01080d93          	addi	s11,a6,16 # 1d010 <zeroes.4535>
   1893c:	4cc1                	li	s9,16
   1893e:	4c1d                	li	s8,7
   18940:	01764663          	blt	a2,s7,1894c <_svfprintf_r+0x108a>
   18944:	aeed                	j	18d3e <_svfprintf_r+0x147c>
   18946:	3bc1                	addiw	s7,s7,-16
   18948:	3f7cdb63          	bge	s9,s7,18d3e <_svfprintf_r+0x147c>
   1894c:	2685                	addiw	a3,a3,1
   1894e:	07c1                	addi	a5,a5,16
   18950:	01b33023          	sd	s11,0(t1)
   18954:	01933423          	sd	s9,8(t1)
   18958:	f23e                	sd	a5,288(sp)
   1895a:	10d12c23          	sw	a3,280(sp)
   1895e:	0341                	addi	t1,t1,16
   18960:	fedc53e3          	bge	s8,a3,18946 <_svfprintf_r+0x1084>
   18964:	0a10                	addi	a2,sp,272
   18966:	85d6                	mv	a1,s5
   18968:	854e                	mv	a0,s3
   1896a:	23b010ef          	jal	ra,1a3a4 <__ssprint_r>
   1896e:	8c051263          	bnez	a0,17a32 <_svfprintf_r+0x170>
   18972:	7792                	ld	a5,288(sp)
   18974:	11812683          	lw	a3,280(sp)
   18978:	8352                	mv	t1,s4
   1897a:	b7f1                	j	18946 <_svfprintf_r+0x1084>
   1897c:	7702                	ld	a4,32(sp)
   1897e:	6ef5                	lui	t4,0x1d
   18980:	4b9d                	li	s7,7
   18982:	976a                	add	a4,a4,s10
   18984:	fc3a                	sd	a4,56(sp)
   18986:	6766                	ld	a4,88(sp)
   18988:	4dc1                	li	s11,16
   1898a:	010e8c93          	addi	s9,t4,16 # 1d010 <zeroes.4535>
   1898e:	cb49                	beqz	a4,18a20 <_svfprintf_r+0x115e>
   18990:	6726                	ld	a4,72(sp)
   18992:	eb51                	bnez	a4,18a26 <_svfprintf_r+0x1164>
   18994:	7706                	ld	a4,96(sp)
   18996:	177d                	addi	a4,a4,-1
   18998:	f0ba                	sd	a4,96(sp)
   1899a:	6766                	ld	a4,88(sp)
   1899c:	377d                	addiw	a4,a4,-1
   1899e:	ecba                	sd	a4,88(sp)
   189a0:	66aa                	ld	a3,136(sp)
   189a2:	7766                	ld	a4,120(sp)
   189a4:	0341                	addi	t1,t1,16
   189a6:	fed33823          	sd	a3,-16(t1)
   189aa:	11812683          	lw	a3,280(sp)
   189ae:	97ba                	add	a5,a5,a4
   189b0:	fee33c23          	sd	a4,-8(t1)
   189b4:	0016861b          	addiw	a2,a3,1
   189b8:	f23e                	sd	a5,288(sp)
   189ba:	10c12c23          	sw	a2,280(sp)
   189be:	0ecbc063          	blt	s7,a2,18a9e <_svfprintf_r+0x11dc>
   189c2:	7706                	ld	a4,96(sp)
   189c4:	00074583          	lbu	a1,0(a4)
   189c8:	7762                	ld	a4,56(sp)
   189ca:	0005869b          	sext.w	a3,a1
   189ce:	4187053b          	subw	a0,a4,s8
   189d2:	8636                	mv	a2,a3
   189d4:	00d55363          	bge	a0,a3,189da <_svfprintf_r+0x1118>
   189d8:	862a                	mv	a2,a0
   189da:	00060f1b          	sext.w	t5,a2
   189de:	03e05663          	blez	t5,18a0a <_svfprintf_r+0x1148>
   189e2:	11812683          	lw	a3,280(sp)
   189e6:	97fa                	add	a5,a5,t5
   189e8:	01833023          	sd	s8,0(t1)
   189ec:	0016861b          	addiw	a2,a3,1
   189f0:	01e33423          	sd	t5,8(t1)
   189f4:	f23e                	sd	a5,288(sp)
   189f6:	10c12c23          	sw	a2,280(sp)
   189fa:	18cbce63          	blt	s7,a2,18b96 <_svfprintf_r+0x12d4>
   189fe:	7706                	ld	a4,96(sp)
   18a00:	0341                	addi	t1,t1,16
   18a02:	00074583          	lbu	a1,0(a4)
   18a06:	0005869b          	sext.w	a3,a1
   18a0a:	ffff4613          	not	a2,t5
   18a0e:	967d                	srai	a2,a2,0x3f
   18a10:	00cf7633          	and	a2,t5,a2
   18a14:	9e91                	subw	a3,a3,a2
   18a16:	00d04c63          	bgtz	a3,18a2e <_svfprintf_r+0x116c>
   18a1a:	9c2e                	add	s8,s8,a1
   18a1c:	6766                	ld	a4,88(sp)
   18a1e:	fb2d                	bnez	a4,18990 <_svfprintf_r+0x10ce>
   18a20:	6726                	ld	a4,72(sp)
   18a22:	42070e63          	beqz	a4,18e5e <_svfprintf_r+0x159c>
   18a26:	6726                	ld	a4,72(sp)
   18a28:	377d                	addiw	a4,a4,-1
   18a2a:	e4ba                	sd	a4,72(sp)
   18a2c:	bf95                	j	189a0 <_svfprintf_r+0x10de>
   18a2e:	11812603          	lw	a2,280(sp)
   18a32:	00ddc663          	blt	s11,a3,18a3e <_svfprintf_r+0x117c>
   18a36:	a089                	j	18a78 <_svfprintf_r+0x11b6>
   18a38:	36c1                	addiw	a3,a3,-16
   18a3a:	02dddf63          	bge	s11,a3,18a78 <_svfprintf_r+0x11b6>
   18a3e:	2605                	addiw	a2,a2,1
   18a40:	07c1                	addi	a5,a5,16
   18a42:	01933023          	sd	s9,0(t1)
   18a46:	01b33423          	sd	s11,8(t1)
   18a4a:	f23e                	sd	a5,288(sp)
   18a4c:	10c12c23          	sw	a2,280(sp)
   18a50:	0341                	addi	t1,t1,16
   18a52:	fecbd3e3          	bge	s7,a2,18a38 <_svfprintf_r+0x1176>
   18a56:	0a10                	addi	a2,sp,272
   18a58:	85d6                	mv	a1,s5
   18a5a:	854e                	mv	a0,s3
   18a5c:	f836                	sd	a3,48(sp)
   18a5e:	147010ef          	jal	ra,1a3a4 <__ssprint_r>
   18a62:	c119                	beqz	a0,18a68 <_svfprintf_r+0x11a6>
   18a64:	fcffe06f          	j	17a32 <_svfprintf_r+0x170>
   18a68:	76c2                	ld	a3,48(sp)
   18a6a:	7792                	ld	a5,288(sp)
   18a6c:	11812603          	lw	a2,280(sp)
   18a70:	36c1                	addiw	a3,a3,-16
   18a72:	8352                	mv	t1,s4
   18a74:	fcddc5e3          	blt	s11,a3,18a3e <_svfprintf_r+0x117c>
   18a78:	2605                	addiw	a2,a2,1
   18a7a:	97b6                	add	a5,a5,a3
   18a7c:	00d33423          	sd	a3,8(t1)
   18a80:	01933023          	sd	s9,0(t1)
   18a84:	f23e                	sd	a5,288(sp)
   18a86:	0006069b          	sext.w	a3,a2
   18a8a:	10c12c23          	sw	a2,280(sp)
   18a8e:	4adbc563          	blt	s7,a3,18f38 <_svfprintf_r+0x1676>
   18a92:	7706                	ld	a4,96(sp)
   18a94:	0341                	addi	t1,t1,16
   18a96:	00074583          	lbu	a1,0(a4)
   18a9a:	9c2e                	add	s8,s8,a1
   18a9c:	b741                	j	18a1c <_svfprintf_r+0x115a>
   18a9e:	0a10                	addi	a2,sp,272
   18aa0:	85d6                	mv	a1,s5
   18aa2:	854e                	mv	a0,s3
   18aa4:	101010ef          	jal	ra,1a3a4 <__ssprint_r>
   18aa8:	c119                	beqz	a0,18aae <_svfprintf_r+0x11ec>
   18aaa:	f89fe06f          	j	17a32 <_svfprintf_r+0x170>
   18aae:	7792                	ld	a5,288(sp)
   18ab0:	8352                	mv	t1,s4
   18ab2:	bf01                	j	189c2 <_svfprintf_r+0x1100>
   18ab4:	0a10                	addi	a2,sp,272
   18ab6:	85d6                	mv	a1,s5
   18ab8:	854e                	mv	a0,s3
   18aba:	0eb010ef          	jal	ra,1a3a4 <__ssprint_r>
   18abe:	c119                	beqz	a0,18ac4 <_svfprintf_r+0x1202>
   18ac0:	f73fe06f          	j	17a32 <_svfprintf_r+0x170>
   18ac4:	11812f03          	lw	t5,280(sp)
   18ac8:	7c92                	ld	s9,288(sp)
   18aca:	1a010313          	addi	t1,sp,416
   18ace:	001f0c1b          	addiw	s8,t5,1
   18ad2:	8bd2                	mv	s7,s4
   18ad4:	c72ff06f          	j	17f46 <_svfprintf_r+0x684>
   18ad8:	11812683          	lw	a3,280(sp)
   18adc:	0001d637          	lui	a2,0x1d
   18ae0:	aa860613          	addi	a2,a2,-1368 # 1caa8 <zeroes.4550+0xa0>
   18ae4:	2685                	addiw	a3,a3,1
   18ae6:	00c33023          	sd	a2,0(t1)
   18aea:	0785                	addi	a5,a5,1
   18aec:	4605                	li	a2,1
   18aee:	00c33423          	sd	a2,8(t1)
   18af2:	10d12c23          	sw	a3,280(sp)
   18af6:	0006861b          	sext.w	a2,a3
   18afa:	f23e                	sd	a5,288(sp)
   18afc:	469d                	li	a3,7
   18afe:	0341                	addi	t1,t1,16
   18b00:	04c6cc63          	blt	a3,a2,18b58 <_svfprintf_r+0x1296>
   18b04:	12059863          	bnez	a1,18c34 <_svfprintf_r+0x1372>
   18b08:	7702                	ld	a4,32(sp)
   18b0a:	00147693          	andi	a3,s0,1
   18b0e:	8ed9                	or	a3,a3,a4
   18b10:	b2068263          	beqz	a3,17e34 <_svfprintf_r+0x572>
   18b14:	11812603          	lw	a2,280(sp)
   18b18:	7726                	ld	a4,104(sp)
   18b1a:	76c6                	ld	a3,112(sp)
   18b1c:	97ba                	add	a5,a5,a4
   18b1e:	00d33023          	sd	a3,0(t1)
   18b22:	0016069b          	addiw	a3,a2,1
   18b26:	00e33423          	sd	a4,8(t1)
   18b2a:	f23e                	sd	a5,288(sp)
   18b2c:	10d12c23          	sw	a3,280(sp)
   18b30:	461d                	li	a2,7
   18b32:	30d64063          	blt	a2,a3,18e32 <_svfprintf_r+0x1570>
   18b36:	0341                	addi	t1,t1,16
   18b38:	7702                	ld	a4,32(sp)
   18b3a:	0016861b          	addiw	a2,a3,1
   18b3e:	01a33023          	sd	s10,0(t1)
   18b42:	97ba                	add	a5,a5,a4
   18b44:	00e33423          	sd	a4,8(t1)
   18b48:	f23e                	sd	a5,288(sp)
   18b4a:	10c12c23          	sw	a2,280(sp)
   18b4e:	471d                	li	a4,7
   18b50:	aec75163          	bge	a4,a2,17e32 <_svfprintf_r+0x570>
   18b54:	c0eff06f          	j	17f62 <_svfprintf_r+0x6a0>
   18b58:	0a10                	addi	a2,sp,272
   18b5a:	85d6                	mv	a1,s5
   18b5c:	854e                	mv	a0,s3
   18b5e:	047010ef          	jal	ra,1a3a4 <__ssprint_r>
   18b62:	c119                	beqz	a0,18b68 <_svfprintf_r+0x12a6>
   18b64:	ecffe06f          	j	17a32 <_svfprintf_r+0x170>
   18b68:	55ae                	lw	a1,232(sp)
   18b6a:	7792                	ld	a5,288(sp)
   18b6c:	8352                	mv	t1,s4
   18b6e:	bf59                	j	18b04 <_svfprintf_r+0x1242>
   18b70:	0a10                	addi	a2,sp,272
   18b72:	85d6                	mv	a1,s5
   18b74:	854e                	mv	a0,s3
   18b76:	02f010ef          	jal	ra,1a3a4 <__ssprint_r>
   18b7a:	c119                	beqz	a0,18b80 <_svfprintf_r+0x12be>
   18b7c:	eb7fe06f          	j	17a32 <_svfprintf_r+0x170>
   18b80:	8352                	mv	t1,s4
   18b82:	ffeff06f          	j	18380 <_svfprintf_r+0xabe>
   18b86:	0017069b          	addiw	a3,a4,1
   18b8a:	8736                	mv	a4,a3
   18b8c:	97de                	add	a5,a5,s7
   18b8e:	01b33023          	sd	s11,0(t1)
   18b92:	a90ff06f          	j	17e22 <_svfprintf_r+0x560>
   18b96:	0a10                	addi	a2,sp,272
   18b98:	85d6                	mv	a1,s5
   18b9a:	854e                	mv	a0,s3
   18b9c:	f87a                	sd	t5,48(sp)
   18b9e:	007010ef          	jal	ra,1a3a4 <__ssprint_r>
   18ba2:	c119                	beqz	a0,18ba8 <_svfprintf_r+0x12e6>
   18ba4:	e8ffe06f          	j	17a32 <_svfprintf_r+0x170>
   18ba8:	7786                	ld	a5,96(sp)
   18baa:	8352                	mv	t1,s4
   18bac:	7f42                	ld	t5,48(sp)
   18bae:	0007c583          	lbu	a1,0(a5)
   18bb2:	7792                	ld	a5,288(sp)
   18bb4:	0005869b          	sext.w	a3,a1
   18bb8:	bd89                	j	18a0a <_svfprintf_r+0x1148>
   18bba:	6512                	ld	a0,256(sp)
   18bbc:	65b2                	ld	a1,264(sp)
   18bbe:	4601                	li	a2,0
   18bc0:	4681                	li	a3,0
   18bc2:	1c9020ef          	jal	ra,1b58a <__letf2>
   18bc6:	6362                	ld	t1,24(sp)
   18bc8:	3a054563          	bltz	a0,18f72 <_svfprintf_r+0x16b0>
   18bcc:	0df14783          	lbu	a5,223(sp)
   18bd0:	04700713          	li	a4,71
   18bd4:	19975e63          	bge	a4,s9,18d70 <_svfprintf_r+0x14ae>
   18bd8:	0001d737          	lui	a4,0x1d
   18bdc:	a5870d13          	addi	s10,a4,-1448 # 1ca58 <zeroes.4550+0x50>
   18be0:	f7f47413          	andi	s0,s0,-129
   18be4:	ec02                	sd	zero,24(sp)
   18be6:	e482                	sd	zero,72(sp)
   18be8:	ec82                	sd	zero,88(sp)
   18bea:	e882                	sd	zero,80(sp)
   18bec:	2401                	sext.w	s0,s0
   18bee:	490d                	li	s2,3
   18bf0:	4b8d                	li	s7,3
   18bf2:	4c01                	li	s8,0
   18bf4:	c399                	beqz	a5,18bfa <_svfprintf_r+0x1338>
   18bf6:	f19fe06f          	j	17b0e <_svfprintf_r+0x24c>
   18bfa:	98aff06f          	j	17d84 <_svfprintf_r+0x4c2>
   18bfe:	856a                	mv	a0,s10
   18c00:	f81a                	sd	t1,48(sp)
   18c02:	bb7f90ef          	jal	ra,127b8 <strlen>
   18c06:	00050b9b          	sext.w	s7,a0
   18c0a:	fffbc913          	not	s2,s7
   18c0e:	0df14783          	lbu	a5,223(sp)
   18c12:	43f95913          	srai	s2,s2,0x3f
   18c16:	012bf933          	and	s2,s7,s2
   18c1a:	e86e                	sd	s11,16(sp)
   18c1c:	ec02                	sd	zero,24(sp)
   18c1e:	e482                	sd	zero,72(sp)
   18c20:	ec82                	sd	zero,88(sp)
   18c22:	e882                	sd	zero,80(sp)
   18c24:	2901                	sext.w	s2,s2
   18c26:	4c01                	li	s8,0
   18c28:	7342                	ld	t1,48(sp)
   18c2a:	c399                	beqz	a5,18c30 <_svfprintf_r+0x136e>
   18c2c:	ee3fe06f          	j	17b0e <_svfprintf_r+0x24c>
   18c30:	954ff06f          	j	17d84 <_svfprintf_r+0x4c2>
   18c34:	11812603          	lw	a2,280(sp)
   18c38:	7726                	ld	a4,104(sp)
   18c3a:	76c6                	ld	a3,112(sp)
   18c3c:	0341                	addi	t1,t1,16
   18c3e:	97ba                	add	a5,a5,a4
   18c40:	fed33823          	sd	a3,-16(t1)
   18c44:	0016069b          	addiw	a3,a2,1
   18c48:	fee33c23          	sd	a4,-8(t1)
   18c4c:	f23e                	sd	a5,288(sp)
   18c4e:	10d12c23          	sw	a3,280(sp)
   18c52:	461d                	li	a2,7
   18c54:	1cd64f63          	blt	a2,a3,18e32 <_svfprintf_r+0x1570>
   18c58:	ee05d0e3          	bgez	a1,18b38 <_svfprintf_r+0x1276>
   18c5c:	6875                	lui	a6,0x1d
   18c5e:	5641                	li	a2,-16
   18c60:	40b00bbb          	negw	s7,a1
   18c64:	01080d93          	addi	s11,a6,16 # 1d010 <zeroes.4535>
   18c68:	4cc1                	li	s9,16
   18c6a:	4c1d                	li	s8,7
   18c6c:	00c5c663          	blt	a1,a2,18c78 <_svfprintf_r+0x13b6>
   18c70:	abd9                	j	19246 <_svfprintf_r+0x1984>
   18c72:	3bc1                	addiw	s7,s7,-16
   18c74:	5d7cd963          	bge	s9,s7,19246 <_svfprintf_r+0x1984>
   18c78:	2685                	addiw	a3,a3,1
   18c7a:	07c1                	addi	a5,a5,16
   18c7c:	01b33023          	sd	s11,0(t1)
   18c80:	01933423          	sd	s9,8(t1)
   18c84:	f23e                	sd	a5,288(sp)
   18c86:	10d12c23          	sw	a3,280(sp)
   18c8a:	0341                	addi	t1,t1,16
   18c8c:	fedc53e3          	bge	s8,a3,18c72 <_svfprintf_r+0x13b0>
   18c90:	0a10                	addi	a2,sp,272
   18c92:	85d6                	mv	a1,s5
   18c94:	854e                	mv	a0,s3
   18c96:	70e010ef          	jal	ra,1a3a4 <__ssprint_r>
   18c9a:	c119                	beqz	a0,18ca0 <_svfprintf_r+0x13de>
   18c9c:	d97fe06f          	j	17a32 <_svfprintf_r+0x170>
   18ca0:	7792                	ld	a5,288(sp)
   18ca2:	11812683          	lw	a3,280(sp)
   18ca6:	8352                	mv	t1,s4
   18ca8:	b7e9                	j	18c72 <_svfprintf_r+0x13b0>
   18caa:	00188c1b          	addiw	s8,a7,1
   18cae:	010b8713          	addi	a4,s7,16
   18cb2:	9cbe                	add	s9,s9,a5
   18cb4:	01bbb023          	sd	s11,0(s7)
   18cb8:	00fbb423          	sd	a5,8(s7)
   18cbc:	f266                	sd	s9,288(sp)
   18cbe:	11812c23          	sw	s8,280(sp)
   18cc2:	469d                	li	a3,7
   18cc4:	df86c8e3          	blt	a3,s8,18ab4 <_svfprintf_r+0x11f2>
   18cc8:	2c05                	addiw	s8,s8,1
   18cca:	01070313          	addi	t1,a4,16
   18cce:	8bba                	mv	s7,a4
   18cd0:	a76ff06f          	j	17f46 <_svfprintf_r+0x684>
   18cd4:	20047793          	andi	a5,s0,512
   18cd8:	14078163          	beqz	a5,18e1a <_svfprintf_r+0x1558>
   18cdc:	0ff97913          	andi	s2,s2,255
   18ce0:	dc3fe06f          	j	17aa2 <_svfprintf_r+0x1e0>
   18ce4:	20047793          	andi	a5,s0,512
   18ce8:	12078363          	beqz	a5,18e0e <_svfprintf_r+0x154c>
   18cec:	0ff97913          	andi	s2,s2,255
   18cf0:	e83a                	sd	a4,16(sp)
   18cf2:	f7dfe06f          	j	17c6e <_svfprintf_r+0x3ac>
   18cf6:	20047793          	andi	a5,s0,512
   18cfa:	10078263          	beqz	a5,18dfe <_svfprintf_r+0x153c>
   18cfe:	0ff97913          	andi	s2,s2,255
   18d02:	e83a                	sd	a4,16(sp)
   18d04:	8da2                	mv	s11,s0
   18d06:	4785                	li	a5,1
   18d08:	dc3fe06f          	j	17aca <_svfprintf_r+0x208>
   18d0c:	20047793          	andi	a5,s0,512
   18d10:	cff9                	beqz	a5,18dee <_svfprintf_r+0x152c>
   18d12:	67c2                	ld	a5,16(sp)
   18d14:	8da2                	mv	s11,s0
   18d16:	e83a                	sd	a4,16(sp)
   18d18:	00078903          	lb	s2,0(a5)
   18d1c:	87ca                	mv	a5,s2
   18d1e:	f99fe06f          	j	17cb6 <_svfprintf_r+0x3f4>
   18d22:	67b2                	ld	a5,264(sp)
   18d24:	1007c063          	bltz	a5,18e24 <_svfprintf_r+0x1562>
   18d28:	0df14783          	lbu	a5,223(sp)
   18d2c:	04700713          	li	a4,71
   18d30:	2f975763          	bge	a4,s9,1901e <_svfprintf_r+0x175c>
   18d34:	0001d737          	lui	a4,0x1d
   18d38:	a6870d13          	addi	s10,a4,-1432 # 1ca68 <zeroes.4550+0x60>
   18d3c:	b555                	j	18be0 <_svfprintf_r+0x131e>
   18d3e:	0016861b          	addiw	a2,a3,1
   18d42:	97de                	add	a5,a5,s7
   18d44:	01b33023          	sd	s11,0(t1)
   18d48:	01733423          	sd	s7,8(t1)
   18d4c:	f23e                	sd	a5,288(sp)
   18d4e:	10c12c23          	sw	a2,280(sp)
   18d52:	469d                	li	a3,7
   18d54:	0341                	addi	t1,t1,16
   18d56:	98c6d8e3          	bge	a3,a2,186e6 <_svfprintf_r+0xe24>
   18d5a:	0a10                	addi	a2,sp,272
   18d5c:	85d6                	mv	a1,s5
   18d5e:	854e                	mv	a0,s3
   18d60:	644010ef          	jal	ra,1a3a4 <__ssprint_r>
   18d64:	c119                	beqz	a0,18d6a <_svfprintf_r+0x14a8>
   18d66:	ccdfe06f          	j	17a32 <_svfprintf_r+0x170>
   18d6a:	7792                	ld	a5,288(sp)
   18d6c:	8352                	mv	t1,s4
   18d6e:	baa5                	j	186e6 <_svfprintf_r+0xe24>
   18d70:	0001d737          	lui	a4,0x1d
   18d74:	a5070d13          	addi	s10,a4,-1456 # 1ca50 <zeroes.4550+0x48>
   18d78:	b5a5                	j	18be0 <_svfprintf_r+0x131e>
   18d7a:	0a10                	addi	a2,sp,272
   18d7c:	85d6                	mv	a1,s5
   18d7e:	854e                	mv	a0,s3
   18d80:	624010ef          	jal	ra,1a3a4 <__ssprint_r>
   18d84:	c119                	beqz	a0,18d8a <_svfprintf_r+0x14c8>
   18d86:	cadfe06f          	j	17a32 <_svfprintf_r+0x170>
   18d8a:	7792                	ld	a5,288(sp)
   18d8c:	8352                	mv	t1,s4
   18d8e:	b291                	j	186d2 <_svfprintf_r+0xe10>
   18d90:	77e6                	ld	a5,120(sp)
   18d92:	65aa                	ld	a1,136(sp)
   18d94:	f836                	sd	a3,48(sp)
   18d96:	40fd0d33          	sub	s10,s10,a5
   18d9a:	863e                	mv	a2,a5
   18d9c:	856a                	mv	a0,s10
   18d9e:	ec1a                	sd	t1,24(sp)
   18da0:	a8dfe0ef          	jal	ra,1782c <strncpy>
   18da4:	7706                	ld	a4,96(sp)
   18da6:	028957b3          	divu	a5,s2,s0
   18daa:	f002                	sd	zero,32(sp)
   18dac:	00174603          	lbu	a2,1(a4)
   18db0:	6362                	ld	t1,24(sp)
   18db2:	76c2                	ld	a3,48(sp)
   18db4:	00c03633          	snez	a2,a2
   18db8:	9732                	add	a4,a4,a2
   18dba:	f0ba                	sd	a4,96(sp)
   18dbc:	4825                	li	a6,9
   18dbe:	0ff00893          	li	a7,255
   18dc2:	d3aff06f          	j	182fc <_svfprintf_r+0xa3a>
   18dc6:	4e19                	li	t3,6
   18dc8:	be91                	j	1891c <_svfprintf_r+0x105a>
   18dca:	7702                	ld	a4,32(sp)
   18dcc:	40d7063b          	subw	a2,a4,a3
   18dd0:	976a                	add	a4,a4,s10
   18dd2:	418708bb          	subw	a7,a4,s8
   18dd6:	8bb2                	mv	s7,a2
   18dd8:	98c8d6e3          	bge	a7,a2,18764 <_svfprintf_r+0xea2>
   18ddc:	00088b9b          	sext.w	s7,a7
   18de0:	b251                	j	18764 <_svfprintf_r+0xea2>
   18de2:	67a2                	ld	a5,8(sp)
   18de4:	8d26                	mv	s10,s1
   18de6:	00f71023          	sh	a5,0(a4)
   18dea:	87cff06f          	j	17e66 <_svfprintf_r+0x5a4>
   18dee:	67c2                	ld	a5,16(sp)
   18df0:	8da2                	mv	s11,s0
   18df2:	e83a                	sd	a4,16(sp)
   18df4:	0007a903          	lw	s2,0(a5)
   18df8:	87ca                	mv	a5,s2
   18dfa:	ebdfe06f          	j	17cb6 <_svfprintf_r+0x3f4>
   18dfe:	1902                	slli	s2,s2,0x20
   18e00:	02095913          	srli	s2,s2,0x20
   18e04:	e83a                	sd	a4,16(sp)
   18e06:	8da2                	mv	s11,s0
   18e08:	4785                	li	a5,1
   18e0a:	cc1fe06f          	j	17aca <_svfprintf_r+0x208>
   18e0e:	1902                	slli	s2,s2,0x20
   18e10:	02095913          	srli	s2,s2,0x20
   18e14:	e83a                	sd	a4,16(sp)
   18e16:	e59fe06f          	j	17c6e <_svfprintf_r+0x3ac>
   18e1a:	1902                	slli	s2,s2,0x20
   18e1c:	02095913          	srli	s2,s2,0x20
   18e20:	c83fe06f          	j	17aa2 <_svfprintf_r+0x1e0>
   18e24:	02d00793          	li	a5,45
   18e28:	0cf10fa3          	sb	a5,223(sp)
   18e2c:	02d00793          	li	a5,45
   18e30:	bdf5                	j	18d2c <_svfprintf_r+0x146a>
   18e32:	0a10                	addi	a2,sp,272
   18e34:	85d6                	mv	a1,s5
   18e36:	854e                	mv	a0,s3
   18e38:	56c010ef          	jal	ra,1a3a4 <__ssprint_r>
   18e3c:	c119                	beqz	a0,18e42 <_svfprintf_r+0x1580>
   18e3e:	bf5fe06f          	j	17a32 <_svfprintf_r+0x170>
   18e42:	55ae                	lw	a1,232(sp)
   18e44:	7792                	ld	a5,288(sp)
   18e46:	11812683          	lw	a3,280(sp)
   18e4a:	8352                	mv	t1,s4
   18e4c:	ce05d6e3          	bgez	a1,18b38 <_svfprintf_r+0x1276>
   18e50:	b531                	j	18c5c <_svfprintf_r+0x139a>
   18e52:	4c19                	li	s8,6
   18e54:	ae8ff06f          	j	1813c <_svfprintf_r+0x87a>
   18e58:	8da2                	mv	s11,s0
   18e5a:	c6eff06f          	j	182c8 <_svfprintf_r+0xa06>
   18e5e:	7702                	ld	a4,32(sp)
   18e60:	00ed06b3          	add	a3,s10,a4
   18e64:	8986f8e3          	bgeu	a3,s8,186f4 <_svfprintf_r+0xe32>
   18e68:	8c36                	mv	s8,a3
   18e6a:	b069                	j	186f4 <_svfprintf_r+0xe32>
   18e6c:	6746                	ld	a4,80(sp)
   18e6e:	57f5                	li	a5,-3
   18e70:	00f74463          	blt	a4,a5,18e78 <_svfprintf_r+0x15b6>
   18e74:	00ec5863          	bge	s8,a4,18e84 <_svfprintf_r+0x15c2>
   18e78:	3cf9                	addiw	s9,s9,-2
   18e7a:	fdfcf793          	andi	a5,s9,-33
   18e7e:	f93e                	sd	a5,176(sp)
   18e80:	b44ff06f          	j	181c4 <_svfprintf_r+0x902>
   18e84:	7782                	ld	a5,32(sp)
   18e86:	6746                	ld	a4,80(sp)
   18e88:	14f74763          	blt	a4,a5,18fd6 <_svfprintf_r+0x1714>
   18e8c:	77ea                	ld	a5,184(sp)
   18e8e:	8bba                	mv	s7,a4
   18e90:	8b85                	andi	a5,a5,1
   18e92:	c781                	beqz	a5,18e9a <_svfprintf_r+0x15d8>
   18e94:	77a6                	ld	a5,104(sp)
   18e96:	00e78bbb          	addw	s7,a5,a4
   18e9a:	77ea                	ld	a5,184(sp)
   18e9c:	4007f793          	andi	a5,a5,1024
   18ea0:	c781                	beqz	a5,18ea8 <_svfprintf_r+0x15e6>
   18ea2:	67c6                	ld	a5,80(sp)
   18ea4:	42f04963          	bgtz	a5,192d6 <_svfprintf_r+0x1a14>
   18ea8:	fffbc913          	not	s2,s7
   18eac:	43f95913          	srai	s2,s2,0x3f
   18eb0:	012bf933          	and	s2,s7,s2
   18eb4:	2901                	sext.w	s2,s2
   18eb6:	06700c93          	li	s9,103
   18eba:	e482                	sd	zero,72(sp)
   18ebc:	ec82                	sd	zero,88(sp)
   18ebe:	be6ff06f          	j	182a4 <_svfprintf_r+0x9e2>
   18ec2:	11bc                	addi	a5,sp,232
   18ec4:	468d                	li	a3,3
   18ec6:	0f810893          	addi	a7,sp,248
   18eca:	0ec10813          	addi	a6,sp,236
   18ece:	8762                	mv	a4,s8
   18ed0:	85ee                	mv	a1,s11
   18ed2:	865e                	mv	a2,s7
   18ed4:	854e                	mv	a0,s3
   18ed6:	f01a                	sd	t1,32(sp)
   18ed8:	b1ffc0ef          	jal	ra,159f6 <_ldtoa_r>
   18edc:	00054683          	lbu	a3,0(a0)
   18ee0:	03000793          	li	a5,48
   18ee4:	8d2a                	mv	s10,a0
   18ee6:	7302                	ld	t1,32(sp)
   18ee8:	06f68763          	beq	a3,a5,18f56 <_svfprintf_r+0x1694>
   18eec:	57ae                	lw	a5,232(sp)
   18eee:	97e2                	add	a5,a5,s8
   18ef0:	00fd0933          	add	s2,s10,a5
   18ef4:	4601                	li	a2,0
   18ef6:	4681                	li	a3,0
   18ef8:	856e                	mv	a0,s11
   18efa:	85de                	mv	a1,s7
   18efc:	f01a                	sd	t1,32(sp)
   18efe:	542020ef          	jal	ra,1b440 <__eqtf2>
   18f02:	874a                	mv	a4,s2
   18f04:	7302                	ld	t1,32(sp)
   18f06:	aa050063          	beqz	a0,181a6 <_svfprintf_r+0x8e4>
   18f0a:	776e                	ld	a4,248(sp)
   18f0c:	03000693          	li	a3,48
   18f10:	a9277b63          	bgeu	a4,s2,181a6 <_svfprintf_r+0x8e4>
   18f14:	00170793          	addi	a5,a4,1
   18f18:	fdbe                	sd	a5,248(sp)
   18f1a:	00d70023          	sb	a3,0(a4)
   18f1e:	776e                	ld	a4,248(sp)
   18f20:	ff276ae3          	bltu	a4,s2,18f14 <_svfprintf_r+0x1652>
   18f24:	a82ff06f          	j	181a6 <_svfprintf_r+0x8e4>
   18f28:	0df14783          	lbu	a5,223(sp)
   18f2c:	4c01                	li	s8,0
   18f2e:	c399                	beqz	a5,18f34 <_svfprintf_r+0x1672>
   18f30:	bdffe06f          	j	17b0e <_svfprintf_r+0x24c>
   18f34:	e51fe06f          	j	17d84 <_svfprintf_r+0x4c2>
   18f38:	0a10                	addi	a2,sp,272
   18f3a:	85d6                	mv	a1,s5
   18f3c:	854e                	mv	a0,s3
   18f3e:	466010ef          	jal	ra,1a3a4 <__ssprint_r>
   18f42:	c119                	beqz	a0,18f48 <_svfprintf_r+0x1686>
   18f44:	aeffe06f          	j	17a32 <_svfprintf_r+0x170>
   18f48:	7786                	ld	a5,96(sp)
   18f4a:	8352                	mv	t1,s4
   18f4c:	0007c583          	lbu	a1,0(a5)
   18f50:	7792                	ld	a5,288(sp)
   18f52:	9c2e                	add	s8,s8,a1
   18f54:	b4e1                	j	18a1c <_svfprintf_r+0x115a>
   18f56:	4601                	li	a2,0
   18f58:	4681                	li	a3,0
   18f5a:	856e                	mv	a0,s11
   18f5c:	85de                	mv	a1,s7
   18f5e:	f01a                	sd	t1,32(sp)
   18f60:	4e0020ef          	jal	ra,1b440 <__eqtf2>
   18f64:	7302                	ld	t1,32(sp)
   18f66:	d159                	beqz	a0,18eec <_svfprintf_r+0x162a>
   18f68:	4685                	li	a3,1
   18f6a:	418687bb          	subw	a5,a3,s8
   18f6e:	d5be                	sw	a5,232(sp)
   18f70:	bfbd                	j	18eee <_svfprintf_r+0x162c>
   18f72:	02d00793          	li	a5,45
   18f76:	0cf10fa3          	sb	a5,223(sp)
   18f7a:	02d00793          	li	a5,45
   18f7e:	b989                	j	18bd0 <_svfprintf_r+0x130e>
   18f80:	0a10                	addi	a2,sp,272
   18f82:	85d6                	mv	a1,s5
   18f84:	854e                	mv	a0,s3
   18f86:	41e010ef          	jal	ra,1a3a4 <__ssprint_r>
   18f8a:	c119                	beqz	a0,18f90 <_svfprintf_r+0x16ce>
   18f8c:	aa7fe06f          	j	17a32 <_svfprintf_r+0x170>
   18f90:	56ae                	lw	a3,232(sp)
   18f92:	7792                	ld	a5,288(sp)
   18f94:	8352                	mv	t1,s4
   18f96:	f92ff06f          	j	18728 <_svfprintf_r+0xe66>
   18f9a:	0df14783          	lbu	a5,223(sp)
   18f9e:	e86e                	sd	s11,16(sp)
   18fa0:	e482                	sd	zero,72(sp)
   18fa2:	ec82                	sd	zero,88(sp)
   18fa4:	e882                	sd	zero,80(sp)
   18fa6:	8962                	mv	s2,s8
   18fa8:	8be2                	mv	s7,s8
   18faa:	4c01                	li	s8,0
   18fac:	c399                	beqz	a5,18fb2 <_svfprintf_r+0x16f0>
   18fae:	b61fe06f          	j	17b0e <_svfprintf_r+0x24c>
   18fb2:	dd3fe06f          	j	17d84 <_svfprintf_r+0x4c2>
   18fb6:	0a10                	addi	a2,sp,272
   18fb8:	85d6                	mv	a1,s5
   18fba:	854e                	mv	a0,s3
   18fbc:	3e8010ef          	jal	ra,1a3a4 <__ssprint_r>
   18fc0:	c119                	beqz	a0,18fc6 <_svfprintf_r+0x1704>
   18fc2:	a71fe06f          	j	17a32 <_svfprintf_r+0x170>
   18fc6:	562e                	lw	a2,232(sp)
   18fc8:	7702                	ld	a4,32(sp)
   18fca:	7792                	ld	a5,288(sp)
   18fcc:	8352                	mv	t1,s4
   18fce:	40c7063b          	subw	a2,a4,a2
   18fd2:	f92ff06f          	j	18764 <_svfprintf_r+0xea2>
   18fd6:	7702                	ld	a4,32(sp)
   18fd8:	77a6                	ld	a5,104(sp)
   18fda:	06700c93          	li	s9,103
   18fde:	00e78bbb          	addw	s7,a5,a4
   18fe2:	6746                	ld	a4,80(sp)
   18fe4:	3ae05463          	blez	a4,1938c <_svfprintf_r+0x1aca>
   18fe8:	77ea                	ld	a5,184(sp)
   18fea:	4007f793          	andi	a5,a5,1024
   18fee:	2e079663          	bnez	a5,192da <_svfprintf_r+0x1a18>
   18ff2:	fffbc913          	not	s2,s7
   18ff6:	43f95913          	srai	s2,s2,0x3f
   18ffa:	012bf933          	and	s2,s7,s2
   18ffe:	2901                	sext.w	s2,s2
   19000:	bd6d                	j	18eba <_svfprintf_r+0x15f8>
   19002:	77ea                	ld	a5,184(sp)
   19004:	6746                	ld	a4,80(sp)
   19006:	8b85                	andi	a5,a5,1
   19008:	00fc67b3          	or	a5,s8,a5
   1900c:	2781                	sext.w	a5,a5
   1900e:	3ae05663          	blez	a4,193ba <_svfprintf_r+0x1af8>
   19012:	34079d63          	bnez	a5,1936c <_svfprintf_r+0x1aaa>
   19016:	6bc6                	ld	s7,80(sp)
   19018:	06600c93          	li	s9,102
   1901c:	b7f1                	j	18fe8 <_svfprintf_r+0x1726>
   1901e:	0001d737          	lui	a4,0x1d
   19022:	a6070d13          	addi	s10,a4,-1440 # 1ca60 <zeroes.4550+0x58>
   19026:	be6d                	j	18be0 <_svfprintf_r+0x131e>
   19028:	03000793          	li	a5,48
   1902c:	0ef10023          	sb	a5,224(sp)
   19030:	05800713          	li	a4,88
   19034:	00246793          	ori	a5,s0,2
   19038:	2781                	sext.w	a5,a5
   1903a:	0ee100a3          	sb	a4,225(sp)
   1903e:	06300693          	li	a3,99
   19042:	fd3e                	sd	a5,184(sp)
   19044:	ec02                	sd	zero,24(sp)
   19046:	12810d13          	addi	s10,sp,296
   1904a:	1b86c963          	blt	a3,s8,191fc <_svfprintf_r+0x193a>
   1904e:	6bb2                	ld	s7,264(sp)
   19050:	fdfcf793          	andi	a5,s9,-33
   19054:	10246413          	ori	s0,s0,258
   19058:	f93e                	sd	a5,176(sp)
   1905a:	e582                	sd	zero,200(sp)
   1905c:	2401                	sext.w	s0,s0
   1905e:	6d92                	ld	s11,256(sp)
   19060:	120bcf63          	bltz	s7,1919e <_svfprintf_r+0x18dc>
   19064:	06100793          	li	a5,97
   19068:	22fc8963          	beq	s9,a5,1929a <_svfprintf_r+0x19d8>
   1906c:	04100793          	li	a5,65
   19070:	8efc9363          	bne	s9,a5,18156 <_svfprintf_r+0x894>
   19074:	85de                	mv	a1,s7
   19076:	856e                	mv	a0,s11
   19078:	f01a                	sd	t1,32(sp)
   1907a:	58c030ef          	jal	ra,1c606 <__trunctfdf2>
   1907e:	11a8                	addi	a0,sp,232
   19080:	d12fe0ef          	jal	ra,17592 <frexp>
   19084:	4be030ef          	jal	ra,1c542 <__extenddftf2>
   19088:	00fff7b7          	lui	a5,0xfff
   1908c:	02679693          	slli	a3,a5,0x26
   19090:	4601                	li	a2,0
   19092:	5a6020ef          	jal	ra,1b638 <__multf3>
   19096:	4601                	li	a2,0
   19098:	4681                	li	a3,0
   1909a:	8baa                	mv	s7,a0
   1909c:	892e                	mv	s2,a1
   1909e:	3a2020ef          	jal	ra,1b440 <__eqtf2>
   190a2:	7302                	ld	t1,32(sp)
   190a4:	e119                	bnez	a0,190aa <_svfprintf_r+0x17e8>
   190a6:	4785                	li	a5,1
   190a8:	d5be                	sw	a5,232(sp)
   190aa:	0001d7b7          	lui	a5,0x1d
   190ae:	a8878793          	addi	a5,a5,-1400 # 1ca88 <zeroes.4550+0x80>
   190b2:	ecbe                	sd	a5,88(sp)
   190b4:	000c079b          	sext.w	a5,s8
   190b8:	02079713          	slli	a4,a5,0x20
   190bc:	9301                	srli	a4,a4,0x20
   190be:	0705                	addi	a4,a4,1
   190c0:	00fd07bb          	addw	a5,s10,a5
   190c4:	00ed0db3          	add	s11,s10,a4
   190c8:	f86a                	sd	s10,48(sp)
   190ca:	c3be                	sw	a5,196(sp)
   190cc:	a831                	j	190e8 <_svfprintf_r+0x1826>
   190ce:	4601                	li	a2,0
   190d0:	4681                	li	a3,0
   190d2:	e8ae                	sd	a1,80(sp)
   190d4:	e4aa                	sd	a0,72(sp)
   190d6:	36a020ef          	jal	ra,1b440 <__eqtf2>
   190da:	7362                	ld	t1,56(sp)
   190dc:	68a6                	ld	a7,72(sp)
   190de:	6846                	ld	a6,80(sp)
   190e0:	6786                	ld	a5,64(sp)
   190e2:	1a050663          	beqz	a0,1928e <_svfprintf_r+0x19cc>
   190e6:	f83e                	sd	a5,48(sp)
   190e8:	66ca                	ld	a3,144(sp)
   190ea:	4601                	li	a2,0
   190ec:	855e                	mv	a0,s7
   190ee:	85ca                	mv	a1,s2
   190f0:	fc1a                	sd	t1,56(sp)
   190f2:	546020ef          	jal	ra,1b638 <__multf3>
   190f6:	892e                	mv	s2,a1
   190f8:	8baa                	mv	s7,a0
   190fa:	35a030ef          	jal	ra,1c454 <__fixtfsi>
   190fe:	0005079b          	sext.w	a5,a0
   19102:	f03e                	sd	a5,32(sp)
   19104:	3e0030ef          	jal	ra,1c4e4 <__floatsitf>
   19108:	86ae                	mv	a3,a1
   1910a:	862a                	mv	a2,a0
   1910c:	85ca                	mv	a1,s2
   1910e:	855e                	mv	a0,s7
   19110:	32b020ef          	jal	ra,1bc3a <__subtf3>
   19114:	6766                	ld	a4,88(sp)
   19116:	7782                	ld	a5,32(sp)
   19118:	88aa                	mv	a7,a0
   1911a:	882e                	mv	a6,a1
   1911c:	97ba                	add	a5,a5,a4
   1911e:	0007c683          	lbu	a3,0(a5)
   19122:	77c2                	ld	a5,48(sp)
   19124:	471e                	lw	a4,196(sp)
   19126:	8baa                	mv	s7,a0
   19128:	00d78023          	sb	a3,0(a5)
   1912c:	0785                	addi	a5,a5,1
   1912e:	9f1d                	subw	a4,a4,a5
   19130:	f53a                	sd	a4,168(sp)
   19132:	e0be                	sd	a5,64(sp)
   19134:	892e                	mv	s2,a1
   19136:	7362                	ld	t1,56(sp)
   19138:	f8fd9be3          	bne	s11,a5,190ce <_svfprintf_r+0x180c>
   1913c:	57fd                	li	a5,-1
   1913e:	f53e                	sd	a5,168(sp)
   19140:	66ea                	ld	a3,152(sp)
   19142:	4601                	li	a2,0
   19144:	8546                	mv	a0,a7
   19146:	85c2                	mv	a1,a6
   19148:	fc1a                	sd	t1,56(sp)
   1914a:	e4c6                	sd	a7,72(sp)
   1914c:	e0c2                	sd	a6,64(sp)
   1914e:	38e020ef          	jal	ra,1b4dc <__getf2>
   19152:	7362                	ld	t1,56(sp)
   19154:	04a04d63          	bgtz	a0,191ae <_svfprintf_r+0x18ec>
   19158:	68a6                	ld	a7,72(sp)
   1915a:	6806                	ld	a6,64(sp)
   1915c:	66ea                	ld	a3,152(sp)
   1915e:	4601                	li	a2,0
   19160:	8546                	mv	a0,a7
   19162:	85c2                	mv	a1,a6
   19164:	2dc020ef          	jal	ra,1b440 <__eqtf2>
   19168:	7362                	ld	t1,56(sp)
   1916a:	e511                	bnez	a0,19176 <_svfprintf_r+0x18b4>
   1916c:	7782                	ld	a5,32(sp)
   1916e:	0017f913          	andi	s2,a5,1
   19172:	02091e63          	bnez	s2,191ae <_svfprintf_r+0x18ec>
   19176:	772a                	ld	a4,168(sp)
   19178:	03000693          	li	a3,48
   1917c:	00170793          	addi	a5,a4,1
   19180:	97ee                	add	a5,a5,s11
   19182:	00074763          	bltz	a4,19190 <_svfprintf_r+0x18ce>
   19186:	0d85                	addi	s11,s11,1
   19188:	fedd8fa3          	sb	a3,-1(s11) # 3fff <register_fini-0xc0b1>
   1918c:	ffb79de3          	bne	a5,s11,19186 <_svfprintf_r+0x18c4>
   19190:	41ad87bb          	subw	a5,s11,s10
   19194:	f03e                	sd	a5,32(sp)
   19196:	816ff06f          	j	181ac <_svfprintf_r+0x8ea>
   1919a:	ec02                	sd	zero,24(sp)
   1919c:	843e                	mv	s0,a5
   1919e:	57fd                	li	a5,-1
   191a0:	17fe                	slli	a5,a5,0x3f
   191a2:	00fbcbb3          	xor	s7,s7,a5
   191a6:	02d00793          	li	a5,45
   191aa:	e5be                	sd	a5,200(sp)
   191ac:	bd65                	j	19064 <_svfprintf_r+0x17a2>
   191ae:	77c2                	ld	a5,48(sp)
   191b0:	fdbe                	sd	a5,248(sp)
   191b2:	67e6                	ld	a5,88(sp)
   191b4:	fffdc683          	lbu	a3,-1(s11)
   191b8:	00f7c603          	lbu	a2,15(a5)
   191bc:	87ee                	mv	a5,s11
   191be:	00c69e63          	bne	a3,a2,191da <_svfprintf_r+0x1918>
   191c2:	03000593          	li	a1,48
   191c6:	feb78fa3          	sb	a1,-1(a5)
   191ca:	77ee                	ld	a5,248(sp)
   191cc:	fff78693          	addi	a3,a5,-1
   191d0:	fdb6                	sd	a3,248(sp)
   191d2:	fff7c683          	lbu	a3,-1(a5)
   191d6:	fec688e3          	beq	a3,a2,191c6 <_svfprintf_r+0x1904>
   191da:	0016861b          	addiw	a2,a3,1
   191de:	03900593          	li	a1,57
   191e2:	0ff67613          	andi	a2,a2,255
   191e6:	00b68563          	beq	a3,a1,191f0 <_svfprintf_r+0x192e>
   191ea:	fec78fa3          	sb	a2,-1(a5)
   191ee:	b74d                	j	19190 <_svfprintf_r+0x18ce>
   191f0:	6766                	ld	a4,88(sp)
   191f2:	00a74603          	lbu	a2,10(a4)
   191f6:	fec78fa3          	sb	a2,-1(a5)
   191fa:	bf59                	j	19190 <_svfprintf_r+0x18ce>
   191fc:	001c059b          	addiw	a1,s8,1
   19200:	854e                	mv	a0,s3
   19202:	ec1a                	sd	t1,24(sp)
   19204:	c46f80ef          	jal	ra,1164a <_malloc_r>
   19208:	8d2a                	mv	s10,a0
   1920a:	6362                	ld	t1,24(sp)
   1920c:	20050b63          	beqz	a0,19422 <_svfprintf_r+0x1b60>
   19210:	ec2a                	sd	a0,24(sp)
   19212:	bd35                	j	1904e <_svfprintf_r+0x178c>
   19214:	001c091b          	addiw	s2,s8,1
   19218:	874a                	mv	a4,s2
   1921a:	0f810893          	addi	a7,sp,248
   1921e:	0ec10813          	addi	a6,sp,236
   19222:	11bc                	addi	a5,sp,232
   19224:	4689                	li	a3,2
   19226:	85ee                	mv	a1,s11
   19228:	865e                	mv	a2,s7
   1922a:	854e                	mv	a0,s3
   1922c:	fcafc0ef          	jal	ra,159f6 <_ldtoa_r>
   19230:	8d2a                	mv	s10,a0
   19232:	7302                	ld	t1,32(sp)
   19234:	996a                	add	s2,s2,s10
   19236:	b97d                	j	18ef4 <_svfprintf_r+0x1632>
   19238:	03000793          	li	a5,48
   1923c:	0ef10023          	sb	a5,224(sp)
   19240:	07800713          	li	a4,120
   19244:	bbc5                	j	19034 <_svfprintf_r+0x1772>
   19246:	2685                	addiw	a3,a3,1
   19248:	97de                	add	a5,a5,s7
   1924a:	01b33023          	sd	s11,0(t1)
   1924e:	01733423          	sd	s7,8(t1)
   19252:	f23e                	sd	a5,288(sp)
   19254:	10d12c23          	sw	a3,280(sp)
   19258:	461d                	li	a2,7
   1925a:	8cd65ee3          	bge	a2,a3,18b36 <_svfprintf_r+0x1274>
   1925e:	0a10                	addi	a2,sp,272
   19260:	85d6                	mv	a1,s5
   19262:	854e                	mv	a0,s3
   19264:	140010ef          	jal	ra,1a3a4 <__ssprint_r>
   19268:	c119                	beqz	a0,1926e <_svfprintf_r+0x19ac>
   1926a:	fc8fe06f          	j	17a32 <_svfprintf_r+0x170>
   1926e:	7792                	ld	a5,288(sp)
   19270:	11812683          	lw	a3,280(sp)
   19274:	8352                	mv	t1,s4
   19276:	b0c9                	j	18b38 <_svfprintf_r+0x1276>
   19278:	000c0463          	beqz	s8,19280 <_svfprintf_r+0x19be>
   1927c:	ec1fe06f          	j	1813c <_svfprintf_r+0x87a>
   19280:	4c05                	li	s8,1
   19282:	ebbfe06f          	j	1813c <_svfprintf_r+0x87a>
   19286:	57fd                	li	a5,-1
   19288:	e43e                	sd	a5,8(sp)
   1928a:	fc2fe06f          	j	17a4c <_svfprintf_r+0x18a>
   1928e:	8dbe                	mv	s11,a5
   19290:	bd45                	j	19140 <_svfprintf_r+0x187e>
   19292:	c31c                	sw	a5,0(a4)
   19294:	8d26                	mv	s10,s1
   19296:	bd1fe06f          	j	17e66 <_svfprintf_r+0x5a4>
   1929a:	85de                	mv	a1,s7
   1929c:	856e                	mv	a0,s11
   1929e:	f01a                	sd	t1,32(sp)
   192a0:	366030ef          	jal	ra,1c606 <__trunctfdf2>
   192a4:	11a8                	addi	a0,sp,232
   192a6:	aecfe0ef          	jal	ra,17592 <frexp>
   192aa:	298030ef          	jal	ra,1c542 <__extenddftf2>
   192ae:	768a                	ld	a3,160(sp)
   192b0:	4601                	li	a2,0
   192b2:	386020ef          	jal	ra,1b638 <__multf3>
   192b6:	4601                	li	a2,0
   192b8:	4681                	li	a3,0
   192ba:	8baa                	mv	s7,a0
   192bc:	892e                	mv	s2,a1
   192be:	182020ef          	jal	ra,1b440 <__eqtf2>
   192c2:	7302                	ld	t1,32(sp)
   192c4:	e119                	bnez	a0,192ca <_svfprintf_r+0x1a08>
   192c6:	4785                	li	a5,1
   192c8:	d5be                	sw	a5,232(sp)
   192ca:	0001d7b7          	lui	a5,0x1d
   192ce:	a7078793          	addi	a5,a5,-1424 # 1ca70 <zeroes.4550+0x68>
   192d2:	ecbe                	sd	a5,88(sp)
   192d4:	b3c5                	j	190b4 <_svfprintf_r+0x17f2>
   192d6:	06700c93          	li	s9,103
   192da:	7786                	ld	a5,96(sp)
   192dc:	e482                	sd	zero,72(sp)
   192de:	ec82                	sd	zero,88(sp)
   192e0:	0007c783          	lbu	a5,0(a5)
   192e4:	0ff00593          	li	a1,255
   192e8:	02b78963          	beq	a5,a1,1931a <_svfprintf_r+0x1a58>
   192ec:	6746                	ld	a4,80(sp)
   192ee:	0007869b          	sext.w	a3,a5
   192f2:	02e6d463          	bge	a3,a4,1931a <_svfprintf_r+0x1a58>
   192f6:	7506                	ld	a0,96(sp)
   192f8:	9f15                	subw	a4,a4,a3
   192fa:	e8ba                	sd	a4,80(sp)
   192fc:	00154603          	lbu	a2,1(a0)
   19300:	ca09                	beqz	a2,19312 <_svfprintf_r+0x1a50>
   19302:	67e6                	ld	a5,88(sp)
   19304:	2785                	addiw	a5,a5,1
   19306:	ecbe                	sd	a5,88(sp)
   19308:	00150793          	addi	a5,a0,1
   1930c:	f0be                	sd	a5,96(sp)
   1930e:	87b2                	mv	a5,a2
   19310:	bfe1                	j	192e8 <_svfprintf_r+0x1a26>
   19312:	6726                	ld	a4,72(sp)
   19314:	2705                	addiw	a4,a4,1
   19316:	e4ba                	sd	a4,72(sp)
   19318:	bfc1                	j	192e8 <_svfprintf_r+0x1a26>
   1931a:	6726                	ld	a4,72(sp)
   1931c:	67e6                	ld	a5,88(sp)
   1931e:	9fb9                	addw	a5,a5,a4
   19320:	7766                	ld	a4,120(sp)
   19322:	02e787bb          	mulw	a5,a5,a4
   19326:	017787bb          	addw	a5,a5,s7
   1932a:	00078b9b          	sext.w	s7,a5
   1932e:	fffbc913          	not	s2,s7
   19332:	43f95913          	srai	s2,s2,0x3f
   19336:	0127f7b3          	and	a5,a5,s2
   1933a:	0007891b          	sext.w	s2,a5
   1933e:	f67fe06f          	j	182a4 <_svfprintf_r+0x9e2>
   19342:	0f210693          	addi	a3,sp,242
   19346:	e619                	bnez	a2,19354 <_svfprintf_r+0x1a92>
   19348:	03000693          	li	a3,48
   1934c:	0ed10923          	sb	a3,242(sp)
   19350:	0f310693          	addi	a3,sp,243
   19354:	0c18                	addi	a4,sp,528
   19356:	0307879b          	addiw	a5,a5,48
   1935a:	40e68633          	sub	a2,a3,a4
   1935e:	00f68023          	sb	a5,0(a3)
   19362:	1216079b          	addiw	a5,a2,289
   19366:	e13e                	sd	a5,128(sp)
   19368:	f03fe06f          	j	1826a <_svfprintf_r+0x9a8>
   1936c:	77a6                	ld	a5,104(sp)
   1936e:	06600c93          	li	s9,102
   19372:	00e78bbb          	addw	s7,a5,a4
   19376:	018b8bbb          	addw	s7,s7,s8
   1937a:	b1bd                	j	18fe8 <_svfprintf_r+0x1726>
   1937c:	776a                	ld	a4,184(sp)
   1937e:	00177693          	andi	a3,a4,1
   19382:	e299                	bnez	a3,19388 <_svfprintf_r+0x1ac6>
   19384:	f01fe06f          	j	18284 <_svfprintf_r+0x9c2>
   19388:	ef7fe06f          	j	1827e <_svfprintf_r+0x9bc>
   1938c:	40eb87bb          	subw	a5,s7,a4
   19390:	2785                	addiw	a5,a5,1
   19392:	00078b9b          	sext.w	s7,a5
   19396:	fffbc913          	not	s2,s7
   1939a:	43f95913          	srai	s2,s2,0x3f
   1939e:	0127f7b3          	and	a5,a5,s2
   193a2:	0007891b          	sext.w	s2,a5
   193a6:	be11                	j	18eba <_svfprintf_r+0x15f8>
   193a8:	6746                	ld	a4,80(sp)
   193aa:	4785                	li	a5,1
   193ac:	02d00693          	li	a3,45
   193b0:	9f99                	subw	a5,a5,a4
   193b2:	0ed108a3          	sb	a3,241(sp)
   193b6:	e41fe06f          	j	181f6 <_svfprintf_r+0x934>
   193ba:	e791                	bnez	a5,193c6 <_svfprintf_r+0x1b04>
   193bc:	4905                	li	s2,1
   193be:	06600c93          	li	s9,102
   193c2:	4b85                	li	s7,1
   193c4:	bcdd                	j	18eba <_svfprintf_r+0x15f8>
   193c6:	77a6                	ld	a5,104(sp)
   193c8:	06600c93          	li	s9,102
   193cc:	2785                	addiw	a5,a5,1
   193ce:	01878e3b          	addw	t3,a5,s8
   193d2:	000e0b9b          	sext.w	s7,t3
   193d6:	fffbc913          	not	s2,s7
   193da:	43f95913          	srai	s2,s2,0x3f
   193de:	012e7e33          	and	t3,t3,s2
   193e2:	000e091b          	sext.w	s2,t3
   193e6:	bcd1                	j	18eba <_svfprintf_r+0x15f8>
   193e8:	6875                	lui	a6,0x1d
   193ea:	871a                	mv	a4,t1
   193ec:	01080d93          	addi	s11,a6,16 # 1d010 <zeroes.4535>
   193f0:	b0c9                	j	18cb2 <_svfprintf_r+0x13f0>
   193f2:	6742                	ld	a4,16(sp)
   193f4:	00072e03          	lw	t3,0(a4)
   193f8:	0721                	addi	a4,a4,8
   193fa:	000e5363          	bgez	t3,19400 <_svfprintf_r+0x1b3e>
   193fe:	5e7d                	li	t3,-1
   19400:	0014ce83          	lbu	t4,1(s1)
   19404:	8c72                	mv	s8,t3
   19406:	e83a                	sd	a4,16(sp)
   19408:	84be                	mv	s1,a5
   1940a:	dd6fe06f          	j	179e0 <_svfprintf_r+0x11e>
   1940e:	47b1                	li	a5,12
   19410:	00f9a023          	sw	a5,0(s3)
   19414:	57fd                	li	a5,-1
   19416:	e43e                	sd	a5,8(sp)
   19418:	e34fe06f          	j	17a4c <_svfprintf_r+0x18a>
   1941c:	8962                	mv	s2,s8
   1941e:	996a                	add	s2,s2,s10
   19420:	bcd1                	j	18ef4 <_svfprintf_r+0x1632>
   19422:	010ad783          	lhu	a5,16(s5)
   19426:	0407e713          	ori	a4,a5,64
   1942a:	87ba                	mv	a5,a4
   1942c:	00ea9823          	sh	a4,16(s5)
   19430:	e12fe06f          	j	17a42 <_svfprintf_r+0x180>
   19434:	4789                	li	a5,2
   19436:	e13e                	sd	a5,128(sp)
   19438:	e33fe06f          	j	1826a <_svfprintf_r+0x9a8>

000000000001943c <__sprint_r.part.0>:
   1943c:	0ac5a783          	lw	a5,172(a1)
   19440:	715d                	addi	sp,sp,-80
   19442:	ec56                	sd	s5,24(sp)
   19444:	e486                	sd	ra,72(sp)
   19446:	e0a2                	sd	s0,64(sp)
   19448:	fc26                	sd	s1,56(sp)
   1944a:	f84a                	sd	s2,48(sp)
   1944c:	f44e                	sd	s3,40(sp)
   1944e:	f052                	sd	s4,32(sp)
   19450:	e85a                	sd	s6,16(sp)
   19452:	e45e                	sd	s7,8(sp)
   19454:	03279713          	slli	a4,a5,0x32
   19458:	8ab2                	mv	s5,a2
   1945a:	08075063          	bgez	a4,194da <__sprint_r.part.0+0x9e>
   1945e:	6a18                	ld	a4,16(a2)
   19460:	892e                	mv	s2,a1
   19462:	89aa                	mv	s3,a0
   19464:	00063b03          	ld	s6,0(a2)
   19468:	5a7d                	li	s4,-1
   1946a:	c735                	beqz	a4,194d6 <__sprint_r.part.0+0x9a>
   1946c:	008b3783          	ld	a5,8(s6)
   19470:	000b3403          	ld	s0,0(s6)
   19474:	8389                	srli	a5,a5,0x2
   19476:	00078b9b          	sext.w	s7,a5
   1947a:	05705763          	blez	s7,194c8 <__sprint_r.part.0+0x8c>
   1947e:	fff7849b          	addiw	s1,a5,-1
   19482:	1482                	slli	s1,s1,0x20
   19484:	80f9                	srli	s1,s1,0x1e
   19486:	00440793          	addi	a5,s0,4
   1948a:	94be                	add	s1,s1,a5
   1948c:	a019                	j	19492 <__sprint_r.part.0+0x56>
   1948e:	02848b63          	beq	s1,s0,194c4 <__sprint_r.part.0+0x88>
   19492:	400c                	lw	a1,0(s0)
   19494:	864a                	mv	a2,s2
   19496:	854e                	mv	a0,s3
   19498:	697000ef          	jal	ra,1a32e <_fputwc_r>
   1949c:	2501                	sext.w	a0,a0
   1949e:	0411                	addi	s0,s0,4
   194a0:	ff4517e3          	bne	a0,s4,1948e <__sprint_r.part.0+0x52>
   194a4:	557d                	li	a0,-1
   194a6:	60a6                	ld	ra,72(sp)
   194a8:	6406                	ld	s0,64(sp)
   194aa:	000ab823          	sd	zero,16(s5)
   194ae:	000aa423          	sw	zero,8(s5)
   194b2:	74e2                	ld	s1,56(sp)
   194b4:	7942                	ld	s2,48(sp)
   194b6:	79a2                	ld	s3,40(sp)
   194b8:	7a02                	ld	s4,32(sp)
   194ba:	6ae2                	ld	s5,24(sp)
   194bc:	6b42                	ld	s6,16(sp)
   194be:	6ba2                	ld	s7,8(sp)
   194c0:	6161                	addi	sp,sp,80
   194c2:	8082                	ret
   194c4:	010ab703          	ld	a4,16(s5)
   194c8:	0b8a                	slli	s7,s7,0x2
   194ca:	41770733          	sub	a4,a4,s7
   194ce:	00eab823          	sd	a4,16(s5)
   194d2:	0b41                	addi	s6,s6,16
   194d4:	ff41                	bnez	a4,1946c <__sprint_r.part.0+0x30>
   194d6:	4501                	li	a0,0
   194d8:	b7f9                	j	194a6 <__sprint_r.part.0+0x6a>
   194da:	b7df70ef          	jal	ra,11056 <__sfvwrite_r>
   194de:	b7e1                	j	194a6 <__sprint_r.part.0+0x6a>

00000000000194e0 <__sprint_r>:
   194e0:	6a18                	ld	a4,16(a2)
   194e2:	c319                	beqz	a4,194e8 <__sprint_r+0x8>
   194e4:	f59ff06f          	j	1943c <__sprint_r.part.0>
   194e8:	00062423          	sw	zero,8(a2)
   194ec:	4501                	li	a0,0
   194ee:	8082                	ret

00000000000194f0 <_vfiprintf_r>:
   194f0:	7145                	addi	sp,sp,-464
   194f2:	f74e                	sd	s3,424(sp)
   194f4:	ef56                	sd	s5,408(sp)
   194f6:	e362                	sd	s8,384(sp)
   194f8:	f6ee                	sd	s11,360(sp)
   194fa:	e786                	sd	ra,456(sp)
   194fc:	e3a2                	sd	s0,448(sp)
   194fe:	ff26                	sd	s1,440(sp)
   19500:	fb4a                	sd	s2,432(sp)
   19502:	f352                	sd	s4,416(sp)
   19504:	eb5a                	sd	s6,400(sp)
   19506:	e75e                	sd	s7,392(sp)
   19508:	fee6                	sd	s9,376(sp)
   1950a:	faea                	sd	s10,368(sp)
   1950c:	8aaa                	mv	s5,a0
   1950e:	89ae                	mv	s3,a1
   19510:	8db2                	mv	s11,a2
   19512:	8c36                	mv	s8,a3
   19514:	c501                	beqz	a0,1951c <_vfiprintf_r+0x2c>
   19516:	493c                	lw	a5,80(a0)
   19518:	66078363          	beqz	a5,19b7e <_vfiprintf_r+0x68e>
   1951c:	01099703          	lh	a4,16(s3)
   19520:	03071793          	slli	a5,a4,0x30
   19524:	93c1                	srli	a5,a5,0x30
   19526:	03279693          	slli	a3,a5,0x32
   1952a:	0006cf63          	bltz	a3,19548 <_vfiprintf_r+0x58>
   1952e:	0ac9a683          	lw	a3,172(s3)
   19532:	6789                	lui	a5,0x2
   19534:	8fd9                	or	a5,a5,a4
   19536:	7779                	lui	a4,0xffffe
   19538:	177d                	addi	a4,a4,-1
   1953a:	8f75                	and	a4,a4,a3
   1953c:	00f99823          	sh	a5,16(s3)
   19540:	17c2                	slli	a5,a5,0x30
   19542:	0ae9a623          	sw	a4,172(s3)
   19546:	93c1                	srli	a5,a5,0x30
   19548:	0087f713          	andi	a4,a5,8
   1954c:	c37d                	beqz	a4,19632 <_vfiprintf_r+0x142>
   1954e:	0189b703          	ld	a4,24(s3)
   19552:	c365                	beqz	a4,19632 <_vfiprintf_r+0x142>
   19554:	8be9                	andi	a5,a5,26
   19556:	4729                	li	a4,10
   19558:	0ee78963          	beq	a5,a4,1964a <_vfiprintf_r+0x15a>
   1955c:	6d75                	lui	s10,0x1d
   1955e:	1180                	addi	s0,sp,224
   19560:	020d0793          	addi	a5,s10,32 # 1d020 <zeroes.4535+0x10>
   19564:	6b75                	lui	s6,0x1d
   19566:	64f5                	lui	s1,0x1d
   19568:	f0a2                	sd	s0,96(sp)
   1956a:	f882                	sd	zero,112(sp)
   1956c:	d482                	sw	zero,104(sp)
   1956e:	8722                	mv	a4,s0
   19570:	ec02                	sd	zero,24(sp)
   19572:	fc02                	sd	zero,56(sp)
   19574:	e482                	sd	zero,72(sp)
   19576:	e082                	sd	zero,64(sp)
   19578:	e002                	sd	zero,0(sp)
   1957a:	e83e                	sd	a5,16(sp)
   1957c:	190b0b13          	addi	s6,s6,400 # 1d190 <blanks.4525>
   19580:	1a048493          	addi	s1,s1,416 # 1d1a0 <zeroes.4526>
   19584:	000dc783          	lbu	a5,0(s11)
   19588:	c3f5                	beqz	a5,1966c <_vfiprintf_r+0x17c>
   1958a:	02500693          	li	a3,37
   1958e:	12d788e3          	beq	a5,a3,19ebe <_vfiprintf_r+0x9ce>
   19592:	896e                	mv	s2,s11
   19594:	a021                	j	1959c <_vfiprintf_r+0xac>
   19596:	0cd78663          	beq	a5,a3,19662 <_vfiprintf_r+0x172>
   1959a:	8952                	mv	s2,s4
   1959c:	00194783          	lbu	a5,1(s2)
   195a0:	00190a13          	addi	s4,s2,1
   195a4:	fbed                	bnez	a5,19596 <_vfiprintf_r+0xa6>
   195a6:	41ba0bbb          	subw	s7,s4,s11
   195aa:	0c0b8163          	beqz	s7,1966c <_vfiprintf_r+0x17c>
   195ae:	57a6                	lw	a5,104(sp)
   195b0:	76c6                	ld	a3,112(sp)
   195b2:	01b73023          	sd	s11,0(a4) # ffffffffffffe000 <__BSS_END__+0xfffffffffffde870>
   195b6:	0017861b          	addiw	a2,a5,1
   195ba:	96de                	add	a3,a3,s7
   195bc:	01773423          	sd	s7,8(a4)
   195c0:	f8b6                	sd	a3,112(sp)
   195c2:	d4b2                	sw	a2,104(sp)
   195c4:	479d                	li	a5,7
   195c6:	0741                	addi	a4,a4,16
   195c8:	00c7db63          	bge	a5,a2,195de <_vfiprintf_r+0xee>
   195cc:	0c0689e3          	beqz	a3,19e9e <_vfiprintf_r+0x9ae>
   195d0:	1090                	addi	a2,sp,96
   195d2:	85ce                	mv	a1,s3
   195d4:	8556                	mv	a0,s5
   195d6:	e67ff0ef          	jal	ra,1943c <__sprint_r.part.0>
   195da:	e145                	bnez	a0,1967a <_vfiprintf_r+0x18a>
   195dc:	8722                	mv	a4,s0
   195de:	6682                	ld	a3,0(sp)
   195e0:	00194783          	lbu	a5,1(s2)
   195e4:	017686bb          	addw	a3,a3,s7
   195e8:	e036                	sd	a3,0(sp)
   195ea:	c3c9                	beqz	a5,1966c <_vfiprintf_r+0x17c>
   195ec:	001a0d93          	addi	s11,s4,1
   195f0:	001a4683          	lbu	a3,1(s4)
   195f4:	04010ba3          	sb	zero,87(sp)
   195f8:	58fd                	li	a7,-1
   195fa:	4901                	li	s2,0
   195fc:	4d01                	li	s10,0
   195fe:	05a00a13          	li	s4,90
   19602:	4ba5                	li	s7,9
   19604:	0d85                	addi	s11,s11,1
   19606:	2681                	sext.w	a3,a3
   19608:	02a00593          	li	a1,42
   1960c:	fe06879b          	addiw	a5,a3,-32
   19610:	0007861b          	sext.w	a2,a5
   19614:	14ca6963          	bltu	s4,a2,19766 <_vfiprintf_r+0x276>
   19618:	6642                	ld	a2,16(sp)
   1961a:	1782                	slli	a5,a5,0x20
   1961c:	83f9                	srli	a5,a5,0x1e
   1961e:	97b2                	add	a5,a5,a2
   19620:	439c                	lw	a5,0(a5)
   19622:	8782                	jr	a5
   19624:	010d6313          	ori	t1,s10,16
   19628:	00030d1b          	sext.w	s10,t1
   1962c:	000dc683          	lbu	a3,0(s11)
   19630:	bfd1                	j	19604 <_vfiprintf_r+0x114>
   19632:	85ce                	mv	a1,s3
   19634:	8556                	mv	a0,s5
   19636:	ecdfa0ef          	jal	ra,14502 <__swsetup_r>
   1963a:	2a0510e3          	bnez	a0,1a0da <_vfiprintf_r+0xbea>
   1963e:	0109d783          	lhu	a5,16(s3)
   19642:	4729                	li	a4,10
   19644:	8be9                	andi	a5,a5,26
   19646:	f0e79be3          	bne	a5,a4,1955c <_vfiprintf_r+0x6c>
   1964a:	01299783          	lh	a5,18(s3)
   1964e:	f007c7e3          	bltz	a5,1955c <_vfiprintf_r+0x6c>
   19652:	86e2                	mv	a3,s8
   19654:	866e                	mv	a2,s11
   19656:	85ce                	mv	a1,s3
   19658:	8556                	mv	a0,s5
   1965a:	2b9000ef          	jal	ra,1a112 <__sbprintf>
   1965e:	e02a                	sd	a0,0(sp)
   19660:	a01d                	j	19686 <_vfiprintf_r+0x196>
   19662:	41ba0bbb          	subw	s7,s4,s11
   19666:	f80b83e3          	beqz	s7,195ec <_vfiprintf_r+0xfc>
   1966a:	b791                	j	195ae <_vfiprintf_r+0xbe>
   1966c:	77c6                	ld	a5,112(sp)
   1966e:	c791                	beqz	a5,1967a <_vfiprintf_r+0x18a>
   19670:	1090                	addi	a2,sp,96
   19672:	85ce                	mv	a1,s3
   19674:	8556                	mv	a0,s5
   19676:	dc7ff0ef          	jal	ra,1943c <__sprint_r.part.0>
   1967a:	0109d783          	lhu	a5,16(s3)
   1967e:	0407f793          	andi	a5,a5,64
   19682:	24079ce3          	bnez	a5,1a0da <_vfiprintf_r+0xbea>
   19686:	60be                	ld	ra,456(sp)
   19688:	641e                	ld	s0,448(sp)
   1968a:	6502                	ld	a0,0(sp)
   1968c:	74fa                	ld	s1,440(sp)
   1968e:	795a                	ld	s2,432(sp)
   19690:	79ba                	ld	s3,424(sp)
   19692:	7a1a                	ld	s4,416(sp)
   19694:	6afa                	ld	s5,408(sp)
   19696:	6b5a                	ld	s6,400(sp)
   19698:	6bba                	ld	s7,392(sp)
   1969a:	6c1a                	ld	s8,384(sp)
   1969c:	7cf6                	ld	s9,376(sp)
   1969e:	7d56                	ld	s10,368(sp)
   196a0:	7db6                	ld	s11,360(sp)
   196a2:	6179                	addi	sp,sp,464
   196a4:	8082                	ret
   196a6:	0001d7b7          	lui	a5,0x1d
   196aa:	a8878793          	addi	a5,a5,-1400 # 1ca88 <zeroes.4550+0x80>
   196ae:	ec3e                	sd	a5,24(sp)
   196b0:	020d7793          	andi	a5,s10,32
   196b4:	008c0613          	addi	a2,s8,8
   196b8:	e789                	bnez	a5,196c2 <_vfiprintf_r+0x1d2>
   196ba:	010d7793          	andi	a5,s10,16
   196be:	040789e3          	beqz	a5,19f10 <_vfiprintf_r+0xa20>
   196c2:	000c3b83          	ld	s7,0(s8)
   196c6:	001d7793          	andi	a5,s10,1
   196ca:	cf89                	beqz	a5,196e4 <_vfiprintf_r+0x1f4>
   196cc:	000b8c63          	beqz	s7,196e4 <_vfiprintf_r+0x1f4>
   196d0:	002d6313          	ori	t1,s10,2
   196d4:	03000793          	li	a5,48
   196d8:	04f10c23          	sb	a5,88(sp)
   196dc:	04d10ca3          	sb	a3,89(sp)
   196e0:	00030d1b          	sext.w	s10,t1
   196e4:	bffd7313          	andi	t1,s10,-1025
   196e8:	00030e9b          	sext.w	t4,t1
   196ec:	8c32                	mv	s8,a2
   196ee:	4789                	li	a5,2
   196f0:	04010ba3          	sb	zero,87(sp)
   196f4:	56fd                	li	a3,-1
   196f6:	42d88863          	beq	a7,a3,19b26 <_vfiprintf_r+0x636>
   196fa:	f7fef313          	andi	t1,t4,-129
   196fe:	00030d1b          	sext.w	s10,t1
   19702:	640b9463          	bnez	s7,19d4a <_vfiprintf_r+0x85a>
   19706:	48089263          	bnez	a7,19b8a <_vfiprintf_r+0x69a>
   1970a:	7a079063          	bnez	a5,19eaa <_vfiprintf_r+0x9ba>
   1970e:	001efa13          	andi	s4,t4,1
   19712:	0dc10c93          	addi	s9,sp,220
   19716:	7a0a1c63          	bnez	s4,19ece <_vfiprintf_r+0x9de>
   1971a:	87c6                	mv	a5,a7
   1971c:	0148d363          	bge	a7,s4,19722 <_vfiprintf_r+0x232>
   19720:	87d2                	mv	a5,s4
   19722:	05714683          	lbu	a3,87(sp)
   19726:	00078b9b          	sext.w	s7,a5
   1972a:	caa1                	beqz	a3,1977a <_vfiprintf_r+0x28a>
   1972c:	00178b9b          	addiw	s7,a5,1
   19730:	a0a9                	j	1977a <_vfiprintf_r+0x28a>
   19732:	4901                	li	s2,0
   19734:	0d85                	addi	s11,s11,1
   19736:	fffdc603          	lbu	a2,-1(s11)
   1973a:	0029179b          	slliw	a5,s2,0x2
   1973e:	0127893b          	addw	s2,a5,s2
   19742:	fd06869b          	addiw	a3,a3,-48
   19746:	0019191b          	slliw	s2,s2,0x1
   1974a:	fd06079b          	addiw	a5,a2,-48
   1974e:	0126893b          	addw	s2,a3,s2
   19752:	0006069b          	sext.w	a3,a2
   19756:	fcfbffe3          	bgeu	s7,a5,19734 <_vfiprintf_r+0x244>
   1975a:	fe06879b          	addiw	a5,a3,-32
   1975e:	0007861b          	sext.w	a2,a5
   19762:	eaca7be3          	bgeu	s4,a2,19618 <_vfiprintf_r+0x128>
   19766:	d299                	beqz	a3,1966c <_vfiprintf_r+0x17c>
   19768:	06d10c23          	sb	a3,120(sp)
   1976c:	04010ba3          	sb	zero,87(sp)
   19770:	4b85                	li	s7,1
   19772:	4a05                	li	s4,1
   19774:	07810c93          	addi	s9,sp,120
   19778:	4881                	li	a7,0
   1977a:	002d7f13          	andi	t5,s10,2
   1977e:	2f01                	sext.w	t5,t5
   19780:	000f0363          	beqz	t5,19786 <_vfiprintf_r+0x296>
   19784:	2b89                	addiw	s7,s7,2
   19786:	56a6                	lw	a3,104(sp)
   19788:	084d7f93          	andi	t6,s10,132
   1978c:	77c6                	ld	a5,112(sp)
   1978e:	0016861b          	addiw	a2,a3,1
   19792:	85b2                	mv	a1,a2
   19794:	000f9663          	bnez	t6,197a0 <_vfiprintf_r+0x2b0>
   19798:	41790ebb          	subw	t4,s2,s7
   1979c:	5bd04963          	bgtz	t4,19d4e <_vfiprintf_r+0x85e>
   197a0:	05714503          	lbu	a0,87(sp)
   197a4:	01070593          	addi	a1,a4,16
   197a8:	c105                	beqz	a0,197c8 <_vfiprintf_r+0x2d8>
   197aa:	05710693          	addi	a3,sp,87
   197ae:	e314                	sd	a3,0(a4)
   197b0:	0785                	addi	a5,a5,1
   197b2:	4685                	li	a3,1
   197b4:	e714                	sd	a3,8(a4)
   197b6:	f8be                	sd	a5,112(sp)
   197b8:	d4b2                	sw	a2,104(sp)
   197ba:	471d                	li	a4,7
   197bc:	56c74263          	blt	a4,a2,19d20 <_vfiprintf_r+0x830>
   197c0:	86b2                	mv	a3,a2
   197c2:	872e                	mv	a4,a1
   197c4:	2605                	addiw	a2,a2,1
   197c6:	05c1                	addi	a1,a1,16
   197c8:	020f0f63          	beqz	t5,19806 <_vfiprintf_r+0x316>
   197cc:	08b4                	addi	a3,sp,88
   197ce:	e314                	sd	a3,0(a4)
   197d0:	0789                	addi	a5,a5,2
   197d2:	4689                	li	a3,2
   197d4:	e714                	sd	a3,8(a4)
   197d6:	f8be                	sd	a5,112(sp)
   197d8:	d4b2                	sw	a2,104(sp)
   197da:	471d                	li	a4,7
   197dc:	52c75d63          	bge	a4,a2,19d16 <_vfiprintf_r+0x826>
   197e0:	6c078a63          	beqz	a5,19eb4 <_vfiprintf_r+0x9c4>
   197e4:	1090                	addi	a2,sp,96
   197e6:	85ce                	mv	a1,s3
   197e8:	8556                	mv	a0,s5
   197ea:	f046                	sd	a7,32(sp)
   197ec:	e47e                	sd	t6,8(sp)
   197ee:	c4fff0ef          	jal	ra,1943c <__sprint_r.part.0>
   197f2:	e80514e3          	bnez	a0,1967a <_vfiprintf_r+0x18a>
   197f6:	56a6                	lw	a3,104(sp)
   197f8:	77c6                	ld	a5,112(sp)
   197fa:	7882                	ld	a7,32(sp)
   197fc:	6fa2                	ld	t6,8(sp)
   197fe:	198c                	addi	a1,sp,240
   19800:	0016861b          	addiw	a2,a3,1
   19804:	8722                	mv	a4,s0
   19806:	08000513          	li	a0,128
   1980a:	3aaf8b63          	beq	t6,a0,19bc0 <_vfiprintf_r+0x6d0>
   1980e:	414888bb          	subw	a7,a7,s4
   19812:	45104963          	bgtz	a7,19c64 <_vfiprintf_r+0x774>
   19816:	97d2                	add	a5,a5,s4
   19818:	01973023          	sd	s9,0(a4)
   1981c:	01473423          	sd	s4,8(a4)
   19820:	f8be                	sd	a5,112(sp)
   19822:	d4b2                	sw	a2,104(sp)
   19824:	471d                	li	a4,7
   19826:	00c75d63          	bge	a4,a2,19840 <_vfiprintf_r+0x350>
   1982a:	5a078963          	beqz	a5,19ddc <_vfiprintf_r+0x8ec>
   1982e:	1090                	addi	a2,sp,96
   19830:	85ce                	mv	a1,s3
   19832:	8556                	mv	a0,s5
   19834:	c09ff0ef          	jal	ra,1943c <__sprint_r.part.0>
   19838:	e40511e3          	bnez	a0,1967a <_vfiprintf_r+0x18a>
   1983c:	77c6                	ld	a5,112(sp)
   1983e:	85a2                	mv	a1,s0
   19840:	004d7313          	andi	t1,s10,4
   19844:	00030663          	beqz	t1,19850 <_vfiprintf_r+0x360>
   19848:	41790a3b          	subw	s4,s2,s7
   1984c:	5b404263          	bgtz	s4,19df0 <_vfiprintf_r+0x900>
   19850:	874a                	mv	a4,s2
   19852:	01795363          	bge	s2,s7,19858 <_vfiprintf_r+0x368>
   19856:	875e                	mv	a4,s7
   19858:	6682                	ld	a3,0(sp)
   1985a:	9f35                	addw	a4,a4,a3
   1985c:	e03a                	sd	a4,0(sp)
   1985e:	48079263          	bnez	a5,19ce2 <_vfiprintf_r+0x7f2>
   19862:	d482                	sw	zero,104(sp)
   19864:	8722                	mv	a4,s0
   19866:	bb39                	j	19584 <_vfiprintf_r+0x94>
   19868:	010d6e93          	ori	t4,s10,16
   1986c:	2e81                	sext.w	t4,t4
   1986e:	008c0693          	addi	a3,s8,8
   19872:	000c3b83          	ld	s7,0(s8)
   19876:	4785                	li	a5,1
   19878:	8c36                	mv	s8,a3
   1987a:	bd9d                	j	196f0 <_vfiprintf_r+0x200>
   1987c:	000c3c83          	ld	s9,0(s8)
   19880:	04010ba3          	sb	zero,87(sp)
   19884:	0c21                	addi	s8,s8,8
   19886:	760c8d63          	beqz	s9,1a000 <_vfiprintf_r+0xb10>
   1988a:	57fd                	li	a5,-1
   1988c:	6af88363          	beq	a7,a5,19f32 <_vfiprintf_r+0xa42>
   19890:	8646                	mv	a2,a7
   19892:	4581                	li	a1,0
   19894:	8566                	mv	a0,s9
   19896:	f03a                	sd	a4,32(sp)
   19898:	e446                	sd	a7,8(sp)
   1989a:	bd8f80ef          	jal	ra,11c72 <memchr>
   1989e:	68a2                	ld	a7,8(sp)
   198a0:	7702                	ld	a4,32(sp)
   198a2:	020505e3          	beqz	a0,1a0cc <_vfiprintf_r+0xbdc>
   198a6:	41950a3b          	subw	s4,a0,s9
   198aa:	4881                	li	a7,0
   198ac:	b5bd                	j	1971a <_vfiprintf_r+0x22a>
   198ae:	010d6793          	ori	a5,s10,16
   198b2:	0007831b          	sext.w	t1,a5
   198b6:	008c0793          	addi	a5,s8,8
   198ba:	000c3b83          	ld	s7,0(s8)
   198be:	8c3e                	mv	s8,a5
   198c0:	bff37313          	andi	t1,t1,-1025
   198c4:	00030e9b          	sext.w	t4,t1
   198c8:	4781                	li	a5,0
   198ca:	b51d                	j	196f0 <_vfiprintf_r+0x200>
   198cc:	010d6e93          	ori	t4,s10,16
   198d0:	2e81                	sext.w	t4,t4
   198d2:	008c0693          	addi	a3,s8,8
   198d6:	000c3783          	ld	a5,0(s8)
   198da:	8c36                	mv	s8,a3
   198dc:	8bbe                	mv	s7,a5
   198de:	2207ca63          	bltz	a5,19b12 <_vfiprintf_r+0x622>
   198e2:	57fd                	li	a5,-1
   198e4:	00f88963          	beq	a7,a5,198f6 <_vfiprintf_r+0x406>
   198e8:	f7fef313          	andi	t1,t4,-129
   198ec:	00030d1b          	sext.w	s10,t1
   198f0:	5a0b8b63          	beqz	s7,19ea6 <_vfiprintf_r+0x9b6>
   198f4:	8eea                	mv	t4,s10
   198f6:	47a5                	li	a5,9
   198f8:	6577ef63          	bltu	a5,s7,19f56 <_vfiprintf_r+0xa66>
   198fc:	030b8b9b          	addiw	s7,s7,48
   19900:	0d710da3          	sb	s7,219(sp)
   19904:	8d76                	mv	s10,t4
   19906:	4a05                	li	s4,1
   19908:	0db10c93          	addi	s9,sp,219
   1990c:	b539                	j	1971a <_vfiprintf_r+0x22a>
   1990e:	000c2783          	lw	a5,0(s8)
   19912:	04010ba3          	sb	zero,87(sp)
   19916:	0c21                	addi	s8,s8,8
   19918:	06f10c23          	sb	a5,120(sp)
   1991c:	4b85                	li	s7,1
   1991e:	4a05                	li	s4,1
   19920:	07810c93          	addi	s9,sp,120
   19924:	bd91                	j	19778 <_vfiprintf_r+0x288>
   19926:	020d7793          	andi	a5,s10,32
   1992a:	008c0693          	addi	a3,s8,8
   1992e:	5e079c63          	bnez	a5,19f26 <_vfiprintf_r+0xa36>
   19932:	010d7793          	andi	a5,s10,16
   19936:	5e079863          	bnez	a5,19f26 <_vfiprintf_r+0xa36>
   1993a:	040d7793          	andi	a5,s10,64
   1993e:	000c2b83          	lw	s7,0(s8)
   19942:	70078563          	beqz	a5,1a04c <_vfiprintf_r+0xb5c>
   19946:	1bc2                	slli	s7,s7,0x30
   19948:	030bdb93          	srli	s7,s7,0x30
   1994c:	8c36                	mv	s8,a3
   1994e:	8eea                	mv	t4,s10
   19950:	4785                	li	a5,1
   19952:	bb79                	j	196f0 <_vfiprintf_r+0x200>
   19954:	080d6313          	ori	t1,s10,128
   19958:	00030d1b          	sext.w	s10,t1
   1995c:	000dc683          	lbu	a3,0(s11)
   19960:	b155                	j	19604 <_vfiprintf_r+0x114>
   19962:	000dc683          	lbu	a3,0(s11)
   19966:	001d8793          	addi	a5,s11,1
   1996a:	78b68263          	beq	a3,a1,1a0ee <_vfiprintf_r+0xbfe>
   1996e:	fd06861b          	addiw	a2,a3,-48
   19972:	8dbe                	mv	s11,a5
   19974:	4881                	li	a7,0
   19976:	c8cbebe3          	bltu	s7,a2,1960c <_vfiprintf_r+0x11c>
   1997a:	0d85                	addi	s11,s11,1
   1997c:	0028979b          	slliw	a5,a7,0x2
   19980:	fffdc683          	lbu	a3,-1(s11)
   19984:	011788bb          	addw	a7,a5,a7
   19988:	0018989b          	slliw	a7,a7,0x1
   1998c:	00c888bb          	addw	a7,a7,a2
   19990:	fd06861b          	addiw	a2,a3,-48
   19994:	fecbf3e3          	bgeu	s7,a2,1997a <_vfiprintf_r+0x48a>
   19998:	b995                	j	1960c <_vfiprintf_r+0x11c>
   1999a:	000dc683          	lbu	a3,0(s11)
   1999e:	004d6313          	ori	t1,s10,4
   199a2:	00030d1b          	sext.w	s10,t1
   199a6:	b9b9                	j	19604 <_vfiprintf_r+0x114>
   199a8:	02b00793          	li	a5,43
   199ac:	04f10ba3          	sb	a5,87(sp)
   199b0:	000dc683          	lbu	a3,0(s11)
   199b4:	b981                	j	19604 <_vfiprintf_r+0x114>
   199b6:	000c2903          	lw	s2,0(s8)
   199ba:	000dc683          	lbu	a3,0(s11)
   199be:	0c21                	addi	s8,s8,8
   199c0:	c40952e3          	bgez	s2,19604 <_vfiprintf_r+0x114>
   199c4:	4120093b          	negw	s2,s2
   199c8:	bfd9                	j	1999e <_vfiprintf_r+0x4ae>
   199ca:	8556                	mv	a0,s5
   199cc:	f03a                	sd	a4,32(sp)
   199ce:	e446                	sd	a7,8(sp)
   199d0:	f11fc0ef          	jal	ra,168e0 <_localeconv_r>
   199d4:	651c                	ld	a5,8(a0)
   199d6:	853e                	mv	a0,a5
   199d8:	e0be                	sd	a5,64(sp)
   199da:	ddff80ef          	jal	ra,127b8 <strlen>
   199de:	e4aa                	sd	a0,72(sp)
   199e0:	8caa                	mv	s9,a0
   199e2:	8556                	mv	a0,s5
   199e4:	efdfc0ef          	jal	ra,168e0 <_localeconv_r>
   199e8:	6910                	ld	a2,16(a0)
   199ea:	68a2                	ld	a7,8(sp)
   199ec:	7702                	ld	a4,32(sp)
   199ee:	fc32                	sd	a2,56(sp)
   199f0:	000dc683          	lbu	a3,0(s11)
   199f4:	c00c88e3          	beqz	s9,19604 <_vfiprintf_r+0x114>
   199f8:	c00606e3          	beqz	a2,19604 <_vfiprintf_r+0x114>
   199fc:	00064783          	lbu	a5,0(a2)
   19a00:	c00782e3          	beqz	a5,19604 <_vfiprintf_r+0x114>
   19a04:	400d6313          	ori	t1,s10,1024
   19a08:	00030d1b          	sext.w	s10,t1
   19a0c:	bee5                	j	19604 <_vfiprintf_r+0x114>
   19a0e:	001d6313          	ori	t1,s10,1
   19a12:	00030d1b          	sext.w	s10,t1
   19a16:	000dc683          	lbu	a3,0(s11)
   19a1a:	b6ed                	j	19604 <_vfiprintf_r+0x114>
   19a1c:	05714783          	lbu	a5,87(sp)
   19a20:	000dc683          	lbu	a3,0(s11)
   19a24:	be0790e3          	bnez	a5,19604 <_vfiprintf_r+0x114>
   19a28:	02000793          	li	a5,32
   19a2c:	04f10ba3          	sb	a5,87(sp)
   19a30:	bed1                	j	19604 <_vfiprintf_r+0x114>
   19a32:	020d6313          	ori	t1,s10,32
   19a36:	00030d1b          	sext.w	s10,t1
   19a3a:	000dc683          	lbu	a3,0(s11)
   19a3e:	b6d9                	j	19604 <_vfiprintf_r+0x114>
   19a40:	77e1                	lui	a5,0xffff8
   19a42:	8307c793          	xori	a5,a5,-2000
   19a46:	04f11c23          	sh	a5,88(sp)
   19a4a:	0001d7b7          	lui	a5,0x1d
   19a4e:	a7078793          	addi	a5,a5,-1424 # 1ca70 <zeroes.4550+0x68>
   19a52:	002d6313          	ori	t1,s10,2
   19a56:	000c3b83          	ld	s7,0(s8)
   19a5a:	ec3e                	sd	a5,24(sp)
   19a5c:	00030e9b          	sext.w	t4,t1
   19a60:	0c21                	addi	s8,s8,8
   19a62:	4789                	li	a5,2
   19a64:	b171                	j	196f0 <_vfiprintf_r+0x200>
   19a66:	020d7693          	andi	a3,s10,32
   19a6a:	008c0793          	addi	a5,s8,8
   19a6e:	4a069e63          	bnez	a3,19f2a <_vfiprintf_r+0xa3a>
   19a72:	010d7693          	andi	a3,s10,16
   19a76:	4a069a63          	bnez	a3,19f2a <_vfiprintf_r+0xa3a>
   19a7a:	040d7693          	andi	a3,s10,64
   19a7e:	000c2b83          	lw	s7,0(s8)
   19a82:	5a068d63          	beqz	a3,1a03c <_vfiprintf_r+0xb4c>
   19a86:	1bc2                	slli	s7,s7,0x30
   19a88:	030bdb93          	srli	s7,s7,0x30
   19a8c:	836a                	mv	t1,s10
   19a8e:	8c3e                	mv	s8,a5
   19a90:	bd05                	j	198c0 <_vfiprintf_r+0x3d0>
   19a92:	020d7793          	andi	a5,s10,32
   19a96:	000c3683          	ld	a3,0(s8)
   19a9a:	0c21                	addi	s8,s8,8
   19a9c:	e7e5                	bnez	a5,19b84 <_vfiprintf_r+0x694>
   19a9e:	010d7793          	andi	a5,s10,16
   19aa2:	e3ed                	bnez	a5,19b84 <_vfiprintf_r+0x694>
   19aa4:	040d7793          	andi	a5,s10,64
   19aa8:	5c079f63          	bnez	a5,1a086 <_vfiprintf_r+0xb96>
   19aac:	200d7313          	andi	t1,s10,512
   19ab0:	6782                	ld	a5,0(sp)
   19ab2:	62030b63          	beqz	t1,1a0e8 <_vfiprintf_r+0xbf8>
   19ab6:	00f68023          	sb	a5,0(a3)
   19aba:	b4e9                	j	19584 <_vfiprintf_r+0x94>
   19abc:	000dc683          	lbu	a3,0(s11)
   19ac0:	06c00793          	li	a5,108
   19ac4:	52f68563          	beq	a3,a5,19fee <_vfiprintf_r+0xafe>
   19ac8:	010d6313          	ori	t1,s10,16
   19acc:	00030d1b          	sext.w	s10,t1
   19ad0:	be15                	j	19604 <_vfiprintf_r+0x114>
   19ad2:	000dc683          	lbu	a3,0(s11)
   19ad6:	06800793          	li	a5,104
   19ada:	50f68163          	beq	a3,a5,19fdc <_vfiprintf_r+0xaec>
   19ade:	040d6313          	ori	t1,s10,64
   19ae2:	00030d1b          	sext.w	s10,t1
   19ae6:	be39                	j	19604 <_vfiprintf_r+0x114>
   19ae8:	020d7793          	andi	a5,s10,32
   19aec:	008c0693          	addi	a3,s8,8
   19af0:	42079f63          	bnez	a5,19f2e <_vfiprintf_r+0xa3e>
   19af4:	010d7793          	andi	a5,s10,16
   19af8:	42079b63          	bnez	a5,19f2e <_vfiprintf_r+0xa3e>
   19afc:	040d7793          	andi	a5,s10,64
   19b00:	50078e63          	beqz	a5,1a01c <_vfiprintf_r+0xb2c>
   19b04:	000c1b83          	lh	s7,0(s8)
   19b08:	8eea                	mv	t4,s10
   19b0a:	8c36                	mv	s8,a3
   19b0c:	87de                	mv	a5,s7
   19b0e:	dc07dae3          	bgez	a5,198e2 <_vfiprintf_r+0x3f2>
   19b12:	02d00793          	li	a5,45
   19b16:	04f10ba3          	sb	a5,87(sp)
   19b1a:	56fd                	li	a3,-1
   19b1c:	41700bb3          	neg	s7,s7
   19b20:	4785                	li	a5,1
   19b22:	bcd89ce3          	bne	a7,a3,196fa <_vfiprintf_r+0x20a>
   19b26:	4685                	li	a3,1
   19b28:	dcd787e3          	beq	a5,a3,198f6 <_vfiprintf_r+0x406>
   19b2c:	4689                	li	a3,2
   19b2e:	06d78563          	beq	a5,a3,19b98 <_vfiprintf_r+0x6a8>
   19b32:	0dc10a13          	addi	s4,sp,220
   19b36:	86d2                	mv	a3,s4
   19b38:	a011                	j	19b3c <_vfiprintf_r+0x64c>
   19b3a:	86e6                	mv	a3,s9
   19b3c:	007bf793          	andi	a5,s7,7
   19b40:	03078793          	addi	a5,a5,48
   19b44:	fef68fa3          	sb	a5,-1(a3)
   19b48:	003bdb93          	srli	s7,s7,0x3
   19b4c:	fff68c93          	addi	s9,a3,-1
   19b50:	fe0b95e3          	bnez	s7,19b3a <_vfiprintf_r+0x64a>
   19b54:	001ef613          	andi	a2,t4,1
   19b58:	c225                	beqz	a2,19bb8 <_vfiprintf_r+0x6c8>
   19b5a:	03000613          	li	a2,48
   19b5e:	04c78d63          	beq	a5,a2,19bb8 <_vfiprintf_r+0x6c8>
   19b62:	16f9                	addi	a3,a3,-2
   19b64:	fecc8fa3          	sb	a2,-1(s9)
   19b68:	40da0a3b          	subw	s4,s4,a3
   19b6c:	8d76                	mv	s10,t4
   19b6e:	8cb6                	mv	s9,a3
   19b70:	b66d                	j	1971a <_vfiprintf_r+0x22a>
   19b72:	0001d7b7          	lui	a5,0x1d
   19b76:	a7078793          	addi	a5,a5,-1424 # 1ca70 <zeroes.4550+0x68>
   19b7a:	ec3e                	sd	a5,24(sp)
   19b7c:	be15                	j	196b0 <_vfiprintf_r+0x1c0>
   19b7e:	ca5f60ef          	jal	ra,10822 <__sinit>
   19b82:	ba69                	j	1951c <_vfiprintf_r+0x2c>
   19b84:	6782                	ld	a5,0(sp)
   19b86:	e29c                	sd	a5,0(a3)
   19b88:	baf5                	j	19584 <_vfiprintf_r+0x94>
   19b8a:	4685                	li	a3,1
   19b8c:	52d78d63          	beq	a5,a3,1a0c6 <_vfiprintf_r+0xbd6>
   19b90:	4689                	li	a3,2
   19b92:	8eea                	mv	t4,s10
   19b94:	f8d79fe3          	bne	a5,a3,19b32 <_vfiprintf_r+0x642>
   19b98:	0dc10a13          	addi	s4,sp,220
   19b9c:	8cd2                	mv	s9,s4
   19b9e:	66e2                	ld	a3,24(sp)
   19ba0:	00fbf793          	andi	a5,s7,15
   19ba4:	1cfd                	addi	s9,s9,-1
   19ba6:	97b6                	add	a5,a5,a3
   19ba8:	0007c783          	lbu	a5,0(a5)
   19bac:	004bdb93          	srli	s7,s7,0x4
   19bb0:	00fc8023          	sb	a5,0(s9)
   19bb4:	fe0b95e3          	bnez	s7,19b9e <_vfiprintf_r+0x6ae>
   19bb8:	419a0a3b          	subw	s4,s4,s9
   19bbc:	8d76                	mv	s10,t4
   19bbe:	beb1                	j	1971a <_vfiprintf_r+0x22a>
   19bc0:	41790ebb          	subw	t4,s2,s7
   19bc4:	c5d055e3          	blez	t4,1980e <_vfiprintf_r+0x31e>
   19bc8:	4541                	li	a0,16
   19bca:	51d55c63          	bge	a0,t4,1a0e2 <_vfiprintf_r+0xbf2>
   19bce:	4f41                	li	t5,16
   19bd0:	4f9d                	li	t6,7
   19bd2:	a801                	j	19be2 <_vfiprintf_r+0x6f2>
   19bd4:	0026851b          	addiw	a0,a3,2
   19bd8:	0741                	addi	a4,a4,16
   19bda:	86ae                	mv	a3,a1
   19bdc:	3ec1                	addiw	t4,t4,-16
   19bde:	05df5363          	bge	t5,t4,19c24 <_vfiprintf_r+0x734>
   19be2:	0016859b          	addiw	a1,a3,1
   19be6:	07c1                	addi	a5,a5,16
   19be8:	e304                	sd	s1,0(a4)
   19bea:	01e73423          	sd	t5,8(a4)
   19bee:	f8be                	sd	a5,112(sp)
   19bf0:	d4ae                	sw	a1,104(sp)
   19bf2:	febfd1e3          	bge	t6,a1,19bd4 <_vfiprintf_r+0x6e4>
   19bf6:	0e078e63          	beqz	a5,19cf2 <_vfiprintf_r+0x802>
   19bfa:	1090                	addi	a2,sp,96
   19bfc:	85ce                	mv	a1,s3
   19bfe:	8556                	mv	a0,s5
   19c00:	f076                	sd	t4,32(sp)
   19c02:	e446                	sd	a7,8(sp)
   19c04:	839ff0ef          	jal	ra,1943c <__sprint_r.part.0>
   19c08:	a60519e3          	bnez	a0,1967a <_vfiprintf_r+0x18a>
   19c0c:	7e82                	ld	t4,32(sp)
   19c0e:	56a6                	lw	a3,104(sp)
   19c10:	4f41                	li	t5,16
   19c12:	3ec1                	addiw	t4,t4,-16
   19c14:	77c6                	ld	a5,112(sp)
   19c16:	8722                	mv	a4,s0
   19c18:	0016851b          	addiw	a0,a3,1
   19c1c:	4f9d                	li	t6,7
   19c1e:	68a2                	ld	a7,8(sp)
   19c20:	fddf41e3          	blt	t5,t4,19be2 <_vfiprintf_r+0x6f2>
   19c24:	01070f13          	addi	t5,a4,16
   19c28:	97f6                	add	a5,a5,t4
   19c2a:	e304                	sd	s1,0(a4)
   19c2c:	01d73423          	sd	t4,8(a4)
   19c30:	f8be                	sd	a5,112(sp)
   19c32:	d4aa                	sw	a0,104(sp)
   19c34:	471d                	li	a4,7
   19c36:	2ca75663          	bge	a4,a0,19f02 <_vfiprintf_r+0xa12>
   19c3a:	42078563          	beqz	a5,1a064 <_vfiprintf_r+0xb74>
   19c3e:	1090                	addi	a2,sp,96
   19c40:	85ce                	mv	a1,s3
   19c42:	8556                	mv	a0,s5
   19c44:	e446                	sd	a7,8(sp)
   19c46:	ff6ff0ef          	jal	ra,1943c <__sprint_r.part.0>
   19c4a:	a20518e3          	bnez	a0,1967a <_vfiprintf_r+0x18a>
   19c4e:	68a2                	ld	a7,8(sp)
   19c50:	56a6                	lw	a3,104(sp)
   19c52:	77c6                	ld	a5,112(sp)
   19c54:	414888bb          	subw	a7,a7,s4
   19c58:	198c                	addi	a1,sp,240
   19c5a:	0016861b          	addiw	a2,a3,1
   19c5e:	8722                	mv	a4,s0
   19c60:	bb105be3          	blez	a7,19816 <_vfiprintf_r+0x326>
   19c64:	4541                	li	a0,16
   19c66:	3f155d63          	bge	a0,a7,1a060 <_vfiprintf_r+0xb70>
   19c6a:	4ec1                	li	t4,16
   19c6c:	4f1d                	li	t5,7
   19c6e:	a801                	j	19c7e <_vfiprintf_r+0x78e>
   19c70:	0026861b          	addiw	a2,a3,2
   19c74:	0741                	addi	a4,a4,16
   19c76:	86ae                	mv	a3,a1
   19c78:	38c1                	addiw	a7,a7,-16
   19c7a:	051ed063          	bge	t4,a7,19cba <_vfiprintf_r+0x7ca>
   19c7e:	0016859b          	addiw	a1,a3,1
   19c82:	07c1                	addi	a5,a5,16
   19c84:	e304                	sd	s1,0(a4)
   19c86:	01d73423          	sd	t4,8(a4)
   19c8a:	f8be                	sd	a5,112(sp)
   19c8c:	d4ae                	sw	a1,104(sp)
   19c8e:	febf51e3          	bge	t5,a1,19c70 <_vfiprintf_r+0x780>
   19c92:	c7a1                	beqz	a5,19cda <_vfiprintf_r+0x7ea>
   19c94:	1090                	addi	a2,sp,96
   19c96:	85ce                	mv	a1,s3
   19c98:	8556                	mv	a0,s5
   19c9a:	e446                	sd	a7,8(sp)
   19c9c:	fa0ff0ef          	jal	ra,1943c <__sprint_r.part.0>
   19ca0:	9c051de3          	bnez	a0,1967a <_vfiprintf_r+0x18a>
   19ca4:	68a2                	ld	a7,8(sp)
   19ca6:	56a6                	lw	a3,104(sp)
   19ca8:	4ec1                	li	t4,16
   19caa:	38c1                	addiw	a7,a7,-16
   19cac:	77c6                	ld	a5,112(sp)
   19cae:	8722                	mv	a4,s0
   19cb0:	0016861b          	addiw	a2,a3,1
   19cb4:	4f1d                	li	t5,7
   19cb6:	fd1ec4e3          	blt	t4,a7,19c7e <_vfiprintf_r+0x78e>
   19cba:	01070693          	addi	a3,a4,16
   19cbe:	97c6                	add	a5,a5,a7
   19cc0:	e304                	sd	s1,0(a4)
   19cc2:	01173423          	sd	a7,8(a4)
   19cc6:	f8be                	sd	a5,112(sp)
   19cc8:	d4b2                	sw	a2,104(sp)
   19cca:	471d                	li	a4,7
   19ccc:	1ac74b63          	blt	a4,a2,19e82 <_vfiprintf_r+0x992>
   19cd0:	2605                	addiw	a2,a2,1
   19cd2:	01068593          	addi	a1,a3,16
   19cd6:	8736                	mv	a4,a3
   19cd8:	be3d                	j	19816 <_vfiprintf_r+0x326>
   19cda:	4605                	li	a2,1
   19cdc:	4681                	li	a3,0
   19cde:	8722                	mv	a4,s0
   19ce0:	bf61                	j	19c78 <_vfiprintf_r+0x788>
   19ce2:	1090                	addi	a2,sp,96
   19ce4:	85ce                	mv	a1,s3
   19ce6:	8556                	mv	a0,s5
   19ce8:	f54ff0ef          	jal	ra,1943c <__sprint_r.part.0>
   19cec:	b6050be3          	beqz	a0,19862 <_vfiprintf_r+0x372>
   19cf0:	b269                	j	1967a <_vfiprintf_r+0x18a>
   19cf2:	4505                	li	a0,1
   19cf4:	4681                	li	a3,0
   19cf6:	8722                	mv	a4,s0
   19cf8:	b5d5                	j	19bdc <_vfiprintf_r+0x6ec>
   19cfa:	1e079163          	bnez	a5,19edc <_vfiprintf_r+0x9ec>
   19cfe:	05714703          	lbu	a4,87(sp)
   19d02:	36071963          	bnez	a4,1a074 <_vfiprintf_r+0xb84>
   19d06:	1a0f0f63          	beqz	t5,19ec4 <_vfiprintf_r+0x9d4>
   19d0a:	08bc                	addi	a5,sp,88
   19d0c:	f1be                	sd	a5,224(sp)
   19d0e:	4789                	li	a5,2
   19d10:	f5be                	sd	a5,232(sp)
   19d12:	4605                	li	a2,1
   19d14:	198c                	addi	a1,sp,240
   19d16:	86b2                	mv	a3,a2
   19d18:	872e                	mv	a4,a1
   19d1a:	2605                	addiw	a2,a2,1
   19d1c:	05c1                	addi	a1,a1,16
   19d1e:	b4e5                	j	19806 <_vfiprintf_r+0x316>
   19d20:	d3fd                	beqz	a5,19d06 <_vfiprintf_r+0x816>
   19d22:	1090                	addi	a2,sp,96
   19d24:	85ce                	mv	a1,s3
   19d26:	8556                	mv	a0,s5
   19d28:	f446                	sd	a7,40(sp)
   19d2a:	f07e                	sd	t6,32(sp)
   19d2c:	e47a                	sd	t5,8(sp)
   19d2e:	f0eff0ef          	jal	ra,1943c <__sprint_r.part.0>
   19d32:	940514e3          	bnez	a0,1967a <_vfiprintf_r+0x18a>
   19d36:	56a6                	lw	a3,104(sp)
   19d38:	77c6                	ld	a5,112(sp)
   19d3a:	198c                	addi	a1,sp,240
   19d3c:	0016861b          	addiw	a2,a3,1
   19d40:	8722                	mv	a4,s0
   19d42:	78a2                	ld	a7,40(sp)
   19d44:	7f82                	ld	t6,32(sp)
   19d46:	6f22                	ld	t5,8(sp)
   19d48:	b441                	j	197c8 <_vfiprintf_r+0x2d8>
   19d4a:	8eea                	mv	t4,s10
   19d4c:	bbe9                	j	19b26 <_vfiprintf_r+0x636>
   19d4e:	4541                	li	a0,16
   19d50:	07d55363          	bge	a0,t4,19db6 <_vfiprintf_r+0x8c6>
   19d54:	42c1                	li	t0,16
   19d56:	439d                	li	t2,7
   19d58:	a811                	j	19d6c <_vfiprintf_r+0x87c>
   19d5a:	0026859b          	addiw	a1,a3,2
   19d5e:	0741                	addi	a4,a4,16
   19d60:	86b2                	mv	a3,a2
   19d62:	3ec1                	addiw	t4,t4,-16
   19d64:	05d2d963          	bge	t0,t4,19db6 <_vfiprintf_r+0x8c6>
   19d68:	0016859b          	addiw	a1,a3,1
   19d6c:	07c1                	addi	a5,a5,16
   19d6e:	01673023          	sd	s6,0(a4)
   19d72:	00573423          	sd	t0,8(a4)
   19d76:	f8be                	sd	a5,112(sp)
   19d78:	0005861b          	sext.w	a2,a1
   19d7c:	d4ae                	sw	a1,104(sp)
   19d7e:	fcc3dee3          	bge	t2,a2,19d5a <_vfiprintf_r+0x86a>
   19d82:	cba9                	beqz	a5,19dd4 <_vfiprintf_r+0x8e4>
   19d84:	1090                	addi	a2,sp,96
   19d86:	85ce                	mv	a1,s3
   19d88:	8556                	mv	a0,s5
   19d8a:	f876                	sd	t4,48(sp)
   19d8c:	f446                	sd	a7,40(sp)
   19d8e:	f07e                	sd	t6,32(sp)
   19d90:	e47a                	sd	t5,8(sp)
   19d92:	eaaff0ef          	jal	ra,1943c <__sprint_r.part.0>
   19d96:	8e0512e3          	bnez	a0,1967a <_vfiprintf_r+0x18a>
   19d9a:	7ec2                	ld	t4,48(sp)
   19d9c:	56a6                	lw	a3,104(sp)
   19d9e:	42c1                	li	t0,16
   19da0:	3ec1                	addiw	t4,t4,-16
   19da2:	77c6                	ld	a5,112(sp)
   19da4:	8722                	mv	a4,s0
   19da6:	0016859b          	addiw	a1,a3,1
   19daa:	439d                	li	t2,7
   19dac:	78a2                	ld	a7,40(sp)
   19dae:	7f82                	ld	t6,32(sp)
   19db0:	6f22                	ld	t5,8(sp)
   19db2:	fbd2cbe3          	blt	t0,t4,19d68 <_vfiprintf_r+0x878>
   19db6:	97f6                	add	a5,a5,t4
   19db8:	01673023          	sd	s6,0(a4)
   19dbc:	01d73423          	sd	t4,8(a4)
   19dc0:	f8be                	sd	a5,112(sp)
   19dc2:	d4ae                	sw	a1,104(sp)
   19dc4:	469d                	li	a3,7
   19dc6:	f2b6cae3          	blt	a3,a1,19cfa <_vfiprintf_r+0x80a>
   19dca:	0741                	addi	a4,a4,16
   19dcc:	0015861b          	addiw	a2,a1,1
   19dd0:	86ae                	mv	a3,a1
   19dd2:	b2f9                	j	197a0 <_vfiprintf_r+0x2b0>
   19dd4:	4681                	li	a3,0
   19dd6:	4585                	li	a1,1
   19dd8:	8722                	mv	a4,s0
   19dda:	b761                	j	19d62 <_vfiprintf_r+0x872>
   19ddc:	d482                	sw	zero,104(sp)
   19dde:	004d7313          	andi	t1,s10,4
   19de2:	08030863          	beqz	t1,19e72 <_vfiprintf_r+0x982>
   19de6:	41790a3b          	subw	s4,s2,s7
   19dea:	09405463          	blez	s4,19e72 <_vfiprintf_r+0x982>
   19dee:	85a2                	mv	a1,s0
   19df0:	4741                	li	a4,16
   19df2:	56a6                	lw	a3,104(sp)
   19df4:	2f475063          	bge	a4,s4,1a0d4 <_vfiprintf_r+0xbe4>
   19df8:	4d41                	li	s10,16
   19dfa:	4c9d                	li	s9,7
   19dfc:	a801                	j	19e0c <_vfiprintf_r+0x91c>
   19dfe:	0026871b          	addiw	a4,a3,2
   19e02:	05c1                	addi	a1,a1,16
   19e04:	86b2                	mv	a3,a2
   19e06:	3a41                	addiw	s4,s4,-16
   19e08:	034d5d63          	bge	s10,s4,19e42 <_vfiprintf_r+0x952>
   19e0c:	0016861b          	addiw	a2,a3,1
   19e10:	07c1                	addi	a5,a5,16
   19e12:	0165b023          	sd	s6,0(a1)
   19e16:	01a5b423          	sd	s10,8(a1)
   19e1a:	f8be                	sd	a5,112(sp)
   19e1c:	d4b2                	sw	a2,104(sp)
   19e1e:	feccd0e3          	bge	s9,a2,19dfe <_vfiprintf_r+0x90e>
   19e22:	c7a1                	beqz	a5,19e6a <_vfiprintf_r+0x97a>
   19e24:	1090                	addi	a2,sp,96
   19e26:	85ce                	mv	a1,s3
   19e28:	8556                	mv	a0,s5
   19e2a:	e12ff0ef          	jal	ra,1943c <__sprint_r.part.0>
   19e2e:	840516e3          	bnez	a0,1967a <_vfiprintf_r+0x18a>
   19e32:	56a6                	lw	a3,104(sp)
   19e34:	3a41                	addiw	s4,s4,-16
   19e36:	77c6                	ld	a5,112(sp)
   19e38:	85a2                	mv	a1,s0
   19e3a:	0016871b          	addiw	a4,a3,1
   19e3e:	fd4d47e3          	blt	s10,s4,19e0c <_vfiprintf_r+0x91c>
   19e42:	97d2                	add	a5,a5,s4
   19e44:	0165b023          	sd	s6,0(a1)
   19e48:	0145b423          	sd	s4,8(a1)
   19e4c:	f8be                	sd	a5,112(sp)
   19e4e:	d4ba                	sw	a4,104(sp)
   19e50:	469d                	li	a3,7
   19e52:	9ee6dfe3          	bge	a3,a4,19850 <_vfiprintf_r+0x360>
   19e56:	cf91                	beqz	a5,19e72 <_vfiprintf_r+0x982>
   19e58:	1090                	addi	a2,sp,96
   19e5a:	85ce                	mv	a1,s3
   19e5c:	8556                	mv	a0,s5
   19e5e:	ddeff0ef          	jal	ra,1943c <__sprint_r.part.0>
   19e62:	80051ce3          	bnez	a0,1967a <_vfiprintf_r+0x18a>
   19e66:	77c6                	ld	a5,112(sp)
   19e68:	b2e5                	j	19850 <_vfiprintf_r+0x360>
   19e6a:	4705                	li	a4,1
   19e6c:	4681                	li	a3,0
   19e6e:	85a2                	mv	a1,s0
   19e70:	bf59                	j	19e06 <_vfiprintf_r+0x916>
   19e72:	87ca                	mv	a5,s2
   19e74:	01795363          	bge	s2,s7,19e7a <_vfiprintf_r+0x98a>
   19e78:	87de                	mv	a5,s7
   19e7a:	6702                	ld	a4,0(sp)
   19e7c:	9fb9                	addw	a5,a5,a4
   19e7e:	e03e                	sd	a5,0(sp)
   19e80:	b2cd                	j	19862 <_vfiprintf_r+0x372>
   19e82:	c3f1                	beqz	a5,19f46 <_vfiprintf_r+0xa56>
   19e84:	1090                	addi	a2,sp,96
   19e86:	85ce                	mv	a1,s3
   19e88:	8556                	mv	a0,s5
   19e8a:	db2ff0ef          	jal	ra,1943c <__sprint_r.part.0>
   19e8e:	fe051663          	bnez	a0,1967a <_vfiprintf_r+0x18a>
   19e92:	5626                	lw	a2,104(sp)
   19e94:	77c6                	ld	a5,112(sp)
   19e96:	198c                	addi	a1,sp,240
   19e98:	2605                	addiw	a2,a2,1
   19e9a:	8722                	mv	a4,s0
   19e9c:	baad                	j	19816 <_vfiprintf_r+0x326>
   19e9e:	d482                	sw	zero,104(sp)
   19ea0:	8722                	mv	a4,s0
   19ea2:	f3cff06f          	j	195de <_vfiprintf_r+0xee>
   19ea6:	22089063          	bnez	a7,1a0c6 <_vfiprintf_r+0xbd6>
   19eaa:	4881                	li	a7,0
   19eac:	4a01                	li	s4,0
   19eae:	0dc10c93          	addi	s9,sp,220
   19eb2:	b0a5                	j	1971a <_vfiprintf_r+0x22a>
   19eb4:	198c                	addi	a1,sp,240
   19eb6:	4605                	li	a2,1
   19eb8:	4681                	li	a3,0
   19eba:	8722                	mv	a4,s0
   19ebc:	b2a9                	j	19806 <_vfiprintf_r+0x316>
   19ebe:	8a6e                	mv	s4,s11
   19ec0:	f2cff06f          	j	195ec <_vfiprintf_r+0xfc>
   19ec4:	4681                	li	a3,0
   19ec6:	198c                	addi	a1,sp,240
   19ec8:	4605                	li	a2,1
   19eca:	8722                	mv	a4,s0
   19ecc:	ba2d                	j	19806 <_vfiprintf_r+0x316>
   19ece:	03000793          	li	a5,48
   19ed2:	0cf10da3          	sb	a5,219(sp)
   19ed6:	0db10c93          	addi	s9,sp,219
   19eda:	b081                	j	1971a <_vfiprintf_r+0x22a>
   19edc:	1090                	addi	a2,sp,96
   19ede:	85ce                	mv	a1,s3
   19ee0:	8556                	mv	a0,s5
   19ee2:	f446                	sd	a7,40(sp)
   19ee4:	f07e                	sd	t6,32(sp)
   19ee6:	e47a                	sd	t5,8(sp)
   19ee8:	d54ff0ef          	jal	ra,1943c <__sprint_r.part.0>
   19eec:	f8051763          	bnez	a0,1967a <_vfiprintf_r+0x18a>
   19ef0:	56a6                	lw	a3,104(sp)
   19ef2:	77c6                	ld	a5,112(sp)
   19ef4:	8722                	mv	a4,s0
   19ef6:	0016861b          	addiw	a2,a3,1
   19efa:	78a2                	ld	a7,40(sp)
   19efc:	7f82                	ld	t6,32(sp)
   19efe:	6f22                	ld	t5,8(sp)
   19f00:	b045                	j	197a0 <_vfiprintf_r+0x2b0>
   19f02:	0015061b          	addiw	a2,a0,1
   19f06:	010f0593          	addi	a1,t5,16
   19f0a:	86aa                	mv	a3,a0
   19f0c:	877a                	mv	a4,t5
   19f0e:	b201                	j	1980e <_vfiprintf_r+0x31e>
   19f10:	040d7793          	andi	a5,s10,64
   19f14:	000c2b83          	lw	s7,0(s8)
   19f18:	10078b63          	beqz	a5,1a02e <_vfiprintf_r+0xb3e>
   19f1c:	1bc2                	slli	s7,s7,0x30
   19f1e:	030bdb93          	srli	s7,s7,0x30
   19f22:	fa4ff06f          	j	196c6 <_vfiprintf_r+0x1d6>
   19f26:	8eea                	mv	t4,s10
   19f28:	b2a9                	j	19872 <_vfiprintf_r+0x382>
   19f2a:	836a                	mv	t1,s10
   19f2c:	b279                	j	198ba <_vfiprintf_r+0x3ca>
   19f2e:	8eea                	mv	t4,s10
   19f30:	b25d                	j	198d6 <_vfiprintf_r+0x3e6>
   19f32:	8566                	mv	a0,s9
   19f34:	e43a                	sd	a4,8(sp)
   19f36:	883f80ef          	jal	ra,127b8 <strlen>
   19f3a:	00050a1b          	sext.w	s4,a0
   19f3e:	4881                	li	a7,0
   19f40:	6722                	ld	a4,8(sp)
   19f42:	fd8ff06f          	j	1971a <_vfiprintf_r+0x22a>
   19f46:	4705                	li	a4,1
   19f48:	87d2                	mv	a5,s4
   19f4a:	f1e6                	sd	s9,224(sp)
   19f4c:	f5d2                	sd	s4,232(sp)
   19f4e:	f8d2                	sd	s4,112(sp)
   19f50:	d4ba                	sw	a4,104(sp)
   19f52:	198c                	addi	a1,sp,240
   19f54:	b0f5                	j	19840 <_vfiprintf_r+0x350>
   19f56:	400ef313          	andi	t1,t4,1024
   19f5a:	0dc10a13          	addi	s4,sp,220
   19f5e:	2301                	sext.w	t1,t1
   19f60:	4581                	li	a1,0
   19f62:	8652                	mv	a2,s4
   19f64:	46a9                	li	a3,10
   19f66:	4f25                	li	t5,9
   19f68:	0ff00d13          	li	s10,255
   19f6c:	a039                	j	19f7a <_vfiprintf_r+0xa8a>
   19f6e:	02dbd7b3          	divu	a5,s7,a3
   19f72:	c57f73e3          	bgeu	t5,s7,19bb8 <_vfiprintf_r+0x6c8>
   19f76:	8bbe                	mv	s7,a5
   19f78:	8666                	mv	a2,s9
   19f7a:	fff60c93          	addi	s9,a2,-1
   19f7e:	2585                	addiw	a1,a1,1
   19f80:	02dbf7b3          	remu	a5,s7,a3
   19f84:	0307879b          	addiw	a5,a5,48
   19f88:	fef60fa3          	sb	a5,-1(a2)
   19f8c:	fe0301e3          	beqz	t1,19f6e <_vfiprintf_r+0xa7e>
   19f90:	77e2                	ld	a5,56(sp)
   19f92:	0007c783          	lbu	a5,0(a5)
   19f96:	fcb79ce3          	bne	a5,a1,19f6e <_vfiprintf_r+0xa7e>
   19f9a:	fda78ae3          	beq	a5,s10,19f6e <_vfiprintf_r+0xa7e>
   19f9e:	c17f7de3          	bgeu	t5,s7,19bb8 <_vfiprintf_r+0x6c8>
   19fa2:	67a6                	ld	a5,72(sp)
   19fa4:	6586                	ld	a1,64(sp)
   19fa6:	f81a                	sd	t1,48(sp)
   19fa8:	40fc8cb3          	sub	s9,s9,a5
   19fac:	863e                	mv	a2,a5
   19fae:	8566                	mv	a0,s9
   19fb0:	f43a                	sd	a4,40(sp)
   19fb2:	f046                	sd	a7,32(sp)
   19fb4:	e476                	sd	t4,8(sp)
   19fb6:	877fd0ef          	jal	ra,1782c <strncpy>
   19fba:	7762                	ld	a4,56(sp)
   19fbc:	46a9                	li	a3,10
   19fbe:	02dbd7b3          	divu	a5,s7,a3
   19fc2:	00174603          	lbu	a2,1(a4)
   19fc6:	4581                	li	a1,0
   19fc8:	6ea2                	ld	t4,8(sp)
   19fca:	00c03633          	snez	a2,a2
   19fce:	9732                	add	a4,a4,a2
   19fd0:	fc3a                	sd	a4,56(sp)
   19fd2:	7882                	ld	a7,32(sp)
   19fd4:	7722                	ld	a4,40(sp)
   19fd6:	7342                	ld	t1,48(sp)
   19fd8:	4f25                	li	t5,9
   19fda:	bf71                	j	19f76 <_vfiprintf_r+0xa86>
   19fdc:	200d6313          	ori	t1,s10,512
   19fe0:	001dc683          	lbu	a3,1(s11)
   19fe4:	00030d1b          	sext.w	s10,t1
   19fe8:	0d85                	addi	s11,s11,1
   19fea:	e1aff06f          	j	19604 <_vfiprintf_r+0x114>
   19fee:	020d6313          	ori	t1,s10,32
   19ff2:	001dc683          	lbu	a3,1(s11)
   19ff6:	00030d1b          	sext.w	s10,t1
   19ffa:	0d85                	addi	s11,s11,1
   19ffc:	e08ff06f          	j	19604 <_vfiprintf_r+0x114>
   1a000:	0008869b          	sext.w	a3,a7
   1a004:	4799                	li	a5,6
   1a006:	06d7e563          	bltu	a5,a3,1a070 <_vfiprintf_r+0xb80>
   1a00a:	00088a1b          	sext.w	s4,a7
   1a00e:	0001de37          	lui	t3,0x1d
   1a012:	8bd2                	mv	s7,s4
   1a014:	aa0e0c93          	addi	s9,t3,-1376 # 1caa0 <zeroes.4550+0x98>
   1a018:	f60ff06f          	j	19778 <_vfiprintf_r+0x288>
   1a01c:	200d7793          	andi	a5,s10,512
   1a020:	c7c1                	beqz	a5,1a0a8 <_vfiprintf_r+0xbb8>
   1a022:	000c0b83          	lb	s7,0(s8)
   1a026:	8eea                	mv	t4,s10
   1a028:	8c36                	mv	s8,a3
   1a02a:	87de                	mv	a5,s7
   1a02c:	b84d                	j	198de <_vfiprintf_r+0x3ee>
   1a02e:	200d7793          	andi	a5,s10,512
   1a032:	c7b5                	beqz	a5,1a09e <_vfiprintf_r+0xbae>
   1a034:	0ffbfb93          	andi	s7,s7,255
   1a038:	e8eff06f          	j	196c6 <_vfiprintf_r+0x1d6>
   1a03c:	200d7693          	andi	a3,s10,512
   1a040:	caa1                	beqz	a3,1a090 <_vfiprintf_r+0xba0>
   1a042:	0ffbfb93          	andi	s7,s7,255
   1a046:	836a                	mv	t1,s10
   1a048:	8c3e                	mv	s8,a5
   1a04a:	b89d                	j	198c0 <_vfiprintf_r+0x3d0>
   1a04c:	200d7793          	andi	a5,s10,512
   1a050:	c3bd                	beqz	a5,1a0b6 <_vfiprintf_r+0xbc6>
   1a052:	0ffbfb93          	andi	s7,s7,255
   1a056:	8c36                	mv	s8,a3
   1a058:	8eea                	mv	t4,s10
   1a05a:	4785                	li	a5,1
   1a05c:	e94ff06f          	j	196f0 <_vfiprintf_r+0x200>
   1a060:	86ae                	mv	a3,a1
   1a062:	b9b1                	j	19cbe <_vfiprintf_r+0x7ce>
   1a064:	198c                	addi	a1,sp,240
   1a066:	4605                	li	a2,1
   1a068:	4681                	li	a3,0
   1a06a:	8722                	mv	a4,s0
   1a06c:	fa2ff06f          	j	1980e <_vfiprintf_r+0x31e>
   1a070:	4899                	li	a7,6
   1a072:	bf61                	j	1a00a <_vfiprintf_r+0xb1a>
   1a074:	05710793          	addi	a5,sp,87
   1a078:	f1be                	sd	a5,224(sp)
   1a07a:	4785                	li	a5,1
   1a07c:	f5be                	sd	a5,232(sp)
   1a07e:	4605                	li	a2,1
   1a080:	198c                	addi	a1,sp,240
   1a082:	f3eff06f          	j	197c0 <_vfiprintf_r+0x2d0>
   1a086:	6782                	ld	a5,0(sp)
   1a088:	00f69023          	sh	a5,0(a3)
   1a08c:	cf8ff06f          	j	19584 <_vfiprintf_r+0x94>
   1a090:	1b82                	slli	s7,s7,0x20
   1a092:	020bdb93          	srli	s7,s7,0x20
   1a096:	836a                	mv	t1,s10
   1a098:	8c3e                	mv	s8,a5
   1a09a:	827ff06f          	j	198c0 <_vfiprintf_r+0x3d0>
   1a09e:	1b82                	slli	s7,s7,0x20
   1a0a0:	020bdb93          	srli	s7,s7,0x20
   1a0a4:	e22ff06f          	j	196c6 <_vfiprintf_r+0x1d6>
   1a0a8:	000c2b83          	lw	s7,0(s8)
   1a0ac:	8eea                	mv	t4,s10
   1a0ae:	8c36                	mv	s8,a3
   1a0b0:	87de                	mv	a5,s7
   1a0b2:	82dff06f          	j	198de <_vfiprintf_r+0x3ee>
   1a0b6:	1b82                	slli	s7,s7,0x20
   1a0b8:	020bdb93          	srli	s7,s7,0x20
   1a0bc:	8c36                	mv	s8,a3
   1a0be:	8eea                	mv	t4,s10
   1a0c0:	4785                	li	a5,1
   1a0c2:	e2eff06f          	j	196f0 <_vfiprintf_r+0x200>
   1a0c6:	8eea                	mv	t4,s10
   1a0c8:	835ff06f          	j	198fc <_vfiprintf_r+0x40c>
   1a0cc:	8a46                	mv	s4,a7
   1a0ce:	4881                	li	a7,0
   1a0d0:	e4aff06f          	j	1971a <_vfiprintf_r+0x22a>
   1a0d4:	0016871b          	addiw	a4,a3,1
   1a0d8:	b3ad                	j	19e42 <_vfiprintf_r+0x952>
   1a0da:	57fd                	li	a5,-1
   1a0dc:	e03e                	sd	a5,0(sp)
   1a0de:	da8ff06f          	j	19686 <_vfiprintf_r+0x196>
   1a0e2:	8f2e                	mv	t5,a1
   1a0e4:	8532                	mv	a0,a2
   1a0e6:	b689                	j	19c28 <_vfiprintf_r+0x738>
   1a0e8:	c29c                	sw	a5,0(a3)
   1a0ea:	c9aff06f          	j	19584 <_vfiprintf_r+0x94>
   1a0ee:	000c2883          	lw	a7,0(s8)
   1a0f2:	0c21                	addi	s8,s8,8
   1a0f4:	0008d363          	bgez	a7,1a0fa <_vfiprintf_r+0xc0a>
   1a0f8:	58fd                	li	a7,-1
   1a0fa:	001dc683          	lbu	a3,1(s11)
   1a0fe:	8dbe                	mv	s11,a5
   1a100:	d04ff06f          	j	19604 <_vfiprintf_r+0x114>

000000000001a104 <vfiprintf>:
   1a104:	86b2                	mv	a3,a2
   1a106:	862e                	mv	a2,a1
   1a108:	85aa                	mv	a1,a0
   1a10a:	7581b503          	ld	a0,1880(gp) # 1f6e8 <_impure_ptr>
   1a10e:	be2ff06f          	j	194f0 <_vfiprintf_r>

000000000001a112 <__sbprintf>:
   1a112:	0105d783          	lhu	a5,16(a1)
   1a116:	0ac5ae03          	lw	t3,172(a1)
   1a11a:	0125d303          	lhu	t1,18(a1)
   1a11e:	0305b883          	ld	a7,48(a1)
   1a122:	0405b803          	ld	a6,64(a1)
   1a126:	b3010113          	addi	sp,sp,-1232
   1a12a:	9bf5                	andi	a5,a5,-3
   1a12c:	40000713          	li	a4,1024
   1a130:	4c813023          	sd	s0,1216(sp)
   1a134:	00f11823          	sh	a5,16(sp)
   1a138:	842e                	mv	s0,a1
   1a13a:	191c                	addi	a5,sp,176
   1a13c:	858a                	mv	a1,sp
   1a13e:	4a913c23          	sd	s1,1208(sp)
   1a142:	4b213823          	sd	s2,1200(sp)
   1a146:	4c113423          	sd	ra,1224(sp)
   1a14a:	892a                	mv	s2,a0
   1a14c:	d772                	sw	t3,172(sp)
   1a14e:	00611923          	sh	t1,18(sp)
   1a152:	f846                	sd	a7,48(sp)
   1a154:	e0c2                	sd	a6,64(sp)
   1a156:	e03e                	sd	a5,0(sp)
   1a158:	ec3e                	sd	a5,24(sp)
   1a15a:	c63a                	sw	a4,12(sp)
   1a15c:	d03a                	sw	a4,32(sp)
   1a15e:	d402                	sw	zero,40(sp)
   1a160:	b90ff0ef          	jal	ra,194f0 <_vfiprintf_r>
   1a164:	84aa                	mv	s1,a0
   1a166:	02055963          	bgez	a0,1a198 <__sbprintf+0x86>
   1a16a:	01015783          	lhu	a5,16(sp)
   1a16e:	0407f793          	andi	a5,a5,64
   1a172:	c799                	beqz	a5,1a180 <__sbprintf+0x6e>
   1a174:	01045783          	lhu	a5,16(s0)
   1a178:	0407e793          	ori	a5,a5,64
   1a17c:	00f41823          	sh	a5,16(s0)
   1a180:	4c813083          	ld	ra,1224(sp)
   1a184:	4c013403          	ld	s0,1216(sp)
   1a188:	8526                	mv	a0,s1
   1a18a:	4b013903          	ld	s2,1200(sp)
   1a18e:	4b813483          	ld	s1,1208(sp)
   1a192:	4d010113          	addi	sp,sp,1232
   1a196:	8082                	ret
   1a198:	858a                	mv	a1,sp
   1a19a:	854a                	mv	a0,s2
   1a19c:	b0cf60ef          	jal	ra,104a8 <_fflush_r>
   1a1a0:	d569                	beqz	a0,1a16a <__sbprintf+0x58>
   1a1a2:	54fd                	li	s1,-1
   1a1a4:	b7d9                	j	1a16a <__sbprintf+0x58>

000000000001a1a6 <_wctomb_r>:
   1a1a6:	7581b783          	ld	a5,1880(gp) # 1f6e8 <_impure_ptr>
   1a1aa:	67bc                	ld	a5,72(a5)
   1a1ac:	c781                	beqz	a5,1a1b4 <_wctomb_r+0xe>
   1a1ae:	0e07b303          	ld	t1,224(a5)
   1a1b2:	8302                	jr	t1
   1a1b4:	57018793          	addi	a5,gp,1392 # 1f500 <__global_locale>
   1a1b8:	0e07b303          	ld	t1,224(a5)
   1a1bc:	8302                	jr	t1

000000000001a1be <__ascii_wctomb>:
   1a1be:	0006079b          	sext.w	a5,a2
   1a1c2:	cd91                	beqz	a1,1a1de <__ascii_wctomb+0x20>
   1a1c4:	0ff00713          	li	a4,255
   1a1c8:	00f76663          	bltu	a4,a5,1a1d4 <__ascii_wctomb+0x16>
   1a1cc:	00c58023          	sb	a2,0(a1)
   1a1d0:	4505                	li	a0,1
   1a1d2:	8082                	ret
   1a1d4:	08a00793          	li	a5,138
   1a1d8:	c11c                	sw	a5,0(a0)
   1a1da:	557d                	li	a0,-1
   1a1dc:	8082                	ret
   1a1de:	4501                	li	a0,0
   1a1e0:	8082                	ret

000000000001a1e2 <_calloc_r>:
   1a1e2:	02c585b3          	mul	a1,a1,a2
   1a1e6:	1141                	addi	sp,sp,-16
   1a1e8:	e022                	sd	s0,0(sp)
   1a1ea:	e406                	sd	ra,8(sp)
   1a1ec:	c5ef70ef          	jal	ra,1164a <_malloc_r>
   1a1f0:	842a                	mv	s0,a0
   1a1f2:	c505                	beqz	a0,1a21a <_calloc_r+0x38>
   1a1f4:	ff853603          	ld	a2,-8(a0)
   1a1f8:	04800713          	li	a4,72
   1a1fc:	9a71                	andi	a2,a2,-4
   1a1fe:	1661                	addi	a2,a2,-8
   1a200:	04c76963          	bltu	a4,a2,1a252 <_calloc_r+0x70>
   1a204:	02700693          	li	a3,39
   1a208:	87aa                	mv	a5,a0
   1a20a:	00c6ed63          	bltu	a3,a2,1a224 <_calloc_r+0x42>
   1a20e:	0007b023          	sd	zero,0(a5)
   1a212:	0007b423          	sd	zero,8(a5)
   1a216:	0007b823          	sd	zero,16(a5)
   1a21a:	8522                	mv	a0,s0
   1a21c:	60a2                	ld	ra,8(sp)
   1a21e:	6402                	ld	s0,0(sp)
   1a220:	0141                	addi	sp,sp,16
   1a222:	8082                	ret
   1a224:	00053023          	sd	zero,0(a0)
   1a228:	00053423          	sd	zero,8(a0)
   1a22c:	03700793          	li	a5,55
   1a230:	02c7f963          	bgeu	a5,a2,1a262 <_calloc_r+0x80>
   1a234:	00053823          	sd	zero,16(a0)
   1a238:	00053c23          	sd	zero,24(a0)
   1a23c:	02050793          	addi	a5,a0,32
   1a240:	fce617e3          	bne	a2,a4,1a20e <_calloc_r+0x2c>
   1a244:	02053023          	sd	zero,32(a0)
   1a248:	03050793          	addi	a5,a0,48
   1a24c:	02053423          	sd	zero,40(a0)
   1a250:	bf7d                	j	1a20e <_calloc_r+0x2c>
   1a252:	4581                	li	a1,0
   1a254:	c81f70ef          	jal	ra,11ed4 <memset>
   1a258:	8522                	mv	a0,s0
   1a25a:	60a2                	ld	ra,8(sp)
   1a25c:	6402                	ld	s0,0(sp)
   1a25e:	0141                	addi	sp,sp,16
   1a260:	8082                	ret
   1a262:	01050793          	addi	a5,a0,16
   1a266:	b765                	j	1a20e <_calloc_r+0x2c>

000000000001a268 <__fputwc>:
   1a268:	715d                	addi	sp,sp,-80
   1a26a:	e0a2                	sd	s0,64(sp)
   1a26c:	f84a                	sd	s2,48(sp)
   1a26e:	f44e                	sd	s3,40(sp)
   1a270:	e486                	sd	ra,72(sp)
   1a272:	fc26                	sd	s1,56(sp)
   1a274:	f052                	sd	s4,32(sp)
   1a276:	ec56                	sd	s5,24(sp)
   1a278:	e85a                	sd	s6,16(sp)
   1a27a:	892a                	mv	s2,a0
   1a27c:	89ae                	mv	s3,a1
   1a27e:	8432                	mv	s0,a2
   1a280:	ee4fc0ef          	jal	ra,16964 <__locale_mb_cur_max>
   1a284:	4785                	li	a5,1
   1a286:	00f51e63          	bne	a0,a5,1a2a2 <__fputwc+0x3a>
   1a28a:	fff9879b          	addiw	a5,s3,-1
   1a28e:	0fe00713          	li	a4,254
   1a292:	00f76863          	bltu	a4,a5,1a2a2 <__fputwc+0x3a>
   1a296:	0ff9f713          	andi	a4,s3,255
   1a29a:	00e10423          	sb	a4,8(sp)
   1a29e:	4a85                	li	s5,1
   1a2a0:	a839                	j	1a2be <__fputwc+0x56>
   1a2a2:	0a440693          	addi	a3,s0,164
   1a2a6:	864e                	mv	a2,s3
   1a2a8:	002c                	addi	a1,sp,8
   1a2aa:	854a                	mv	a0,s2
   1a2ac:	643000ef          	jal	ra,1b0ee <_wcrtomb_r>
   1a2b0:	57fd                	li	a5,-1
   1a2b2:	8aaa                	mv	s5,a0
   1a2b4:	06f50563          	beq	a0,a5,1a31e <__fputwc+0xb6>
   1a2b8:	c125                	beqz	a0,1a318 <__fputwc+0xb0>
   1a2ba:	00814703          	lbu	a4,8(sp)
   1a2be:	4481                	li	s1,0
   1a2c0:	5a7d                	li	s4,-1
   1a2c2:	4b29                	li	s6,10
   1a2c4:	a831                	j	1a2e0 <__fputwc+0x78>
   1a2c6:	601c                	ld	a5,0(s0)
   1a2c8:	00178693          	addi	a3,a5,1
   1a2cc:	e014                	sd	a3,0(s0)
   1a2ce:	00e78023          	sb	a4,0(a5)
   1a2d2:	0485                	addi	s1,s1,1
   1a2d4:	003c                	addi	a5,sp,8
   1a2d6:	97a6                	add	a5,a5,s1
   1a2d8:	0554f063          	bgeu	s1,s5,1a318 <__fputwc+0xb0>
   1a2dc:	0007c703          	lbu	a4,0(a5)
   1a2e0:	445c                	lw	a5,12(s0)
   1a2e2:	37fd                	addiw	a5,a5,-1
   1a2e4:	c45c                	sw	a5,12(s0)
   1a2e6:	fe07d0e3          	bgez	a5,1a2c6 <__fputwc+0x5e>
   1a2ea:	5414                	lw	a3,40(s0)
   1a2ec:	85ba                	mv	a1,a4
   1a2ee:	8622                	mv	a2,s0
   1a2f0:	854a                	mv	a0,s2
   1a2f2:	00d7c463          	blt	a5,a3,1a2fa <__fputwc+0x92>
   1a2f6:	fd6718e3          	bne	a4,s6,1a2c6 <__fputwc+0x5e>
   1a2fa:	4eb000ef          	jal	ra,1afe4 <__swbuf_r>
   1a2fe:	fd451ae3          	bne	a0,s4,1a2d2 <__fputwc+0x6a>
   1a302:	557d                	li	a0,-1
   1a304:	60a6                	ld	ra,72(sp)
   1a306:	6406                	ld	s0,64(sp)
   1a308:	74e2                	ld	s1,56(sp)
   1a30a:	7942                	ld	s2,48(sp)
   1a30c:	79a2                	ld	s3,40(sp)
   1a30e:	7a02                	ld	s4,32(sp)
   1a310:	6ae2                	ld	s5,24(sp)
   1a312:	6b42                	ld	s6,16(sp)
   1a314:	6161                	addi	sp,sp,80
   1a316:	8082                	ret
   1a318:	0009851b          	sext.w	a0,s3
   1a31c:	b7e5                	j	1a304 <__fputwc+0x9c>
   1a31e:	01045783          	lhu	a5,16(s0)
   1a322:	557d                	li	a0,-1
   1a324:	0407e793          	ori	a5,a5,64
   1a328:	00f41823          	sh	a5,16(s0)
   1a32c:	bfe1                	j	1a304 <__fputwc+0x9c>

000000000001a32e <_fputwc_r>:
   1a32e:	01061783          	lh	a5,16(a2)
   1a332:	03279713          	slli	a4,a5,0x32
   1a336:	00074c63          	bltz	a4,1a34e <_fputwc_r+0x20>
   1a33a:	0ac62703          	lw	a4,172(a2)
   1a33e:	6689                	lui	a3,0x2
   1a340:	8fd5                	or	a5,a5,a3
   1a342:	6689                	lui	a3,0x2
   1a344:	8f55                	or	a4,a4,a3
   1a346:	00f61823          	sh	a5,16(a2)
   1a34a:	0ae62623          	sw	a4,172(a2)
   1a34e:	f1bff06f          	j	1a268 <__fputwc>

000000000001a352 <fputwc>:
   1a352:	7179                	addi	sp,sp,-48
   1a354:	f022                	sd	s0,32(sp)
   1a356:	7581b403          	ld	s0,1880(gp) # 1f6e8 <_impure_ptr>
   1a35a:	ec26                	sd	s1,24(sp)
   1a35c:	f406                	sd	ra,40(sp)
   1a35e:	84aa                	mv	s1,a0
   1a360:	862e                	mv	a2,a1
   1a362:	c019                	beqz	s0,1a368 <fputwc+0x16>
   1a364:	483c                	lw	a5,80(s0)
   1a366:	cb8d                	beqz	a5,1a398 <fputwc+0x46>
   1a368:	01061783          	lh	a5,16(a2)
   1a36c:	03279713          	slli	a4,a5,0x32
   1a370:	00074c63          	bltz	a4,1a388 <fputwc+0x36>
   1a374:	0ac62703          	lw	a4,172(a2)
   1a378:	6689                	lui	a3,0x2
   1a37a:	8fd5                	or	a5,a5,a3
   1a37c:	6689                	lui	a3,0x2
   1a37e:	8f55                	or	a4,a4,a3
   1a380:	00f61823          	sh	a5,16(a2)
   1a384:	0ae62623          	sw	a4,172(a2)
   1a388:	8522                	mv	a0,s0
   1a38a:	7402                	ld	s0,32(sp)
   1a38c:	70a2                	ld	ra,40(sp)
   1a38e:	85a6                	mv	a1,s1
   1a390:	64e2                	ld	s1,24(sp)
   1a392:	6145                	addi	sp,sp,48
   1a394:	ed5ff06f          	j	1a268 <__fputwc>
   1a398:	8522                	mv	a0,s0
   1a39a:	e42e                	sd	a1,8(sp)
   1a39c:	c86f60ef          	jal	ra,10822 <__sinit>
   1a3a0:	6622                	ld	a2,8(sp)
   1a3a2:	b7d9                	j	1a368 <fputwc+0x16>

000000000001a3a4 <__ssprint_r>:
   1a3a4:	6a1c                	ld	a5,16(a2)
   1a3a6:	715d                	addi	sp,sp,-80
   1a3a8:	f052                	sd	s4,32(sp)
   1a3aa:	e486                	sd	ra,72(sp)
   1a3ac:	e0a2                	sd	s0,64(sp)
   1a3ae:	fc26                	sd	s1,56(sp)
   1a3b0:	f84a                	sd	s2,48(sp)
   1a3b2:	f44e                	sd	s3,40(sp)
   1a3b4:	ec56                	sd	s5,24(sp)
   1a3b6:	e85a                	sd	s6,16(sp)
   1a3b8:	e45e                	sd	s7,8(sp)
   1a3ba:	e062                	sd	s8,0(sp)
   1a3bc:	8a32                	mv	s4,a2
   1a3be:	cff9                	beqz	a5,1a49c <__ssprint_r+0xf8>
   1a3c0:	8aaa                	mv	s5,a0
   1a3c2:	00063983          	ld	s3,0(a2)
   1a3c6:	6188                	ld	a0,0(a1)
   1a3c8:	45c0                	lw	s0,12(a1)
   1a3ca:	892e                	mv	s2,a1
   1a3cc:	4b01                	li	s6,0
   1a3ce:	4481                	li	s1,0
   1a3d0:	c4ed                	beqz	s1,1a4ba <__ssprint_r+0x116>
   1a3d2:	8c22                	mv	s8,s0
   1a3d4:	0004879b          	sext.w	a5,s1
   1a3d8:	0e84e763          	bltu	s1,s0,1a4c6 <__ssprint_r+0x122>
   1a3dc:	01095783          	lhu	a5,16(s2)
   1a3e0:	00048b9b          	sext.w	s7,s1
   1a3e4:	4807f713          	andi	a4,a5,1152
   1a3e8:	c349                	beqz	a4,1a46a <__ssprint_r+0xc6>
   1a3ea:	02092683          	lw	a3,32(s2)
   1a3ee:	01893583          	ld	a1,24(s2)
   1a3f2:	00148713          	addi	a4,s1,1
   1a3f6:	0016941b          	slliw	s0,a3,0x1
   1a3fa:	9ea1                	addw	a3,a3,s0
   1a3fc:	8d0d                	sub	a0,a0,a1
   1a3fe:	01f6d41b          	srliw	s0,a3,0x1f
   1a402:	00050b9b          	sext.w	s7,a0
   1a406:	9c35                	addw	s0,s0,a3
   1a408:	4014541b          	sraiw	s0,s0,0x1
   1a40c:	975e                	add	a4,a4,s7
   1a40e:	00e47563          	bgeu	s0,a4,1a418 <__ssprint_r+0x74>
   1a412:	0014841b          	addiw	s0,s1,1
   1a416:	9c29                	addw	s0,s0,a0
   1a418:	4007f793          	andi	a5,a5,1024
   1a41c:	cbcd                	beqz	a5,1a4ce <__ssprint_r+0x12a>
   1a41e:	85a2                	mv	a1,s0
   1a420:	8556                	mv	a0,s5
   1a422:	a28f70ef          	jal	ra,1164a <_malloc_r>
   1a426:	8c2a                	mv	s8,a0
   1a428:	cd55                	beqz	a0,1a4e4 <__ssprint_r+0x140>
   1a42a:	01893583          	ld	a1,24(s2)
   1a42e:	865e                	mv	a2,s7
   1a430:	8edf70ef          	jal	ra,11d1c <memcpy>
   1a434:	01095783          	lhu	a5,16(s2)
   1a438:	b7f7f793          	andi	a5,a5,-1153
   1a43c:	0807e793          	ori	a5,a5,128
   1a440:	00f91823          	sh	a5,16(s2)
   1a444:	017c0533          	add	a0,s8,s7
   1a448:	41740bbb          	subw	s7,s0,s7
   1a44c:	0004879b          	sext.w	a5,s1
   1a450:	01893c23          	sd	s8,24(s2)
   1a454:	02892023          	sw	s0,32(s2)
   1a458:	01792623          	sw	s7,12(s2)
   1a45c:	00a93023          	sd	a0,0(s2)
   1a460:	843e                	mv	s0,a5
   1a462:	8c3e                	mv	s8,a5
   1a464:	8bbe                	mv	s7,a5
   1a466:	06f4e063          	bltu	s1,a5,1a4c6 <__ssprint_r+0x122>
   1a46a:	8622                	mv	a2,s0
   1a46c:	85da                	mv	a1,s6
   1a46e:	991f70ef          	jal	ra,11dfe <memmove>
   1a472:	00c92703          	lw	a4,12(s2)
   1a476:	00093503          	ld	a0,0(s2)
   1a47a:	010a3783          	ld	a5,16(s4)
   1a47e:	4087043b          	subw	s0,a4,s0
   1a482:	9562                	add	a0,a0,s8
   1a484:	00892623          	sw	s0,12(s2)
   1a488:	00a93023          	sd	a0,0(s2)
   1a48c:	417787b3          	sub	a5,a5,s7
   1a490:	00fa3823          	sd	a5,16(s4)
   1a494:	9b5e                	add	s6,s6,s7
   1a496:	417484b3          	sub	s1,s1,s7
   1a49a:	fb9d                	bnez	a5,1a3d0 <__ssprint_r+0x2c>
   1a49c:	000a2423          	sw	zero,8(s4)
   1a4a0:	4501                	li	a0,0
   1a4a2:	60a6                	ld	ra,72(sp)
   1a4a4:	6406                	ld	s0,64(sp)
   1a4a6:	74e2                	ld	s1,56(sp)
   1a4a8:	7942                	ld	s2,48(sp)
   1a4aa:	79a2                	ld	s3,40(sp)
   1a4ac:	7a02                	ld	s4,32(sp)
   1a4ae:	6ae2                	ld	s5,24(sp)
   1a4b0:	6b42                	ld	s6,16(sp)
   1a4b2:	6ba2                	ld	s7,8(sp)
   1a4b4:	6c02                	ld	s8,0(sp)
   1a4b6:	6161                	addi	sp,sp,80
   1a4b8:	8082                	ret
   1a4ba:	0009bb03          	ld	s6,0(s3)
   1a4be:	0089b483          	ld	s1,8(s3)
   1a4c2:	09c1                	addi	s3,s3,16
   1a4c4:	b731                	j	1a3d0 <__ssprint_r+0x2c>
   1a4c6:	843e                	mv	s0,a5
   1a4c8:	8c3e                	mv	s8,a5
   1a4ca:	8bbe                	mv	s7,a5
   1a4cc:	bf79                	j	1a46a <__ssprint_r+0xc6>
   1a4ce:	8622                	mv	a2,s0
   1a4d0:	8556                	mv	a0,s5
   1a4d2:	b43f70ef          	jal	ra,12014 <_realloc_r>
   1a4d6:	8c2a                	mv	s8,a0
   1a4d8:	f535                	bnez	a0,1a444 <__ssprint_r+0xa0>
   1a4da:	01893583          	ld	a1,24(s2)
   1a4de:	8556                	mv	a0,s5
   1a4e0:	db0f60ef          	jal	ra,10a90 <_free_r>
   1a4e4:	47b1                	li	a5,12
   1a4e6:	00faa023          	sw	a5,0(s5)
   1a4ea:	01095783          	lhu	a5,16(s2)
   1a4ee:	557d                	li	a0,-1
   1a4f0:	0407e793          	ori	a5,a5,64
   1a4f4:	00f91823          	sh	a5,16(s2)
   1a4f8:	000a3823          	sd	zero,16(s4)
   1a4fc:	000a2423          	sw	zero,8(s4)
   1a500:	b74d                	j	1a4a2 <__ssprint_r+0xfe>

000000000001a502 <_svfiprintf_r>:
   1a502:	0105d783          	lhu	a5,16(a1)
   1a506:	7145                	addi	sp,sp,-464
   1a508:	f352                	sd	s4,416(sp)
   1a50a:	e75e                	sd	s7,392(sp)
   1a50c:	e362                	sd	s8,384(sp)
   1a50e:	f6ee                	sd	s11,360(sp)
   1a510:	e786                	sd	ra,456(sp)
   1a512:	e3a2                	sd	s0,448(sp)
   1a514:	ff26                	sd	s1,440(sp)
   1a516:	fb4a                	sd	s2,432(sp)
   1a518:	f74e                	sd	s3,424(sp)
   1a51a:	ef56                	sd	s5,408(sp)
   1a51c:	eb5a                	sd	s6,400(sp)
   1a51e:	fee6                	sd	s9,376(sp)
   1a520:	faea                	sd	s10,368(sp)
   1a522:	0807f793          	andi	a5,a5,128
   1a526:	8a2e                	mv	s4,a1
   1a528:	8baa                	mv	s7,a0
   1a52a:	8db2                	mv	s11,a2
   1a52c:	8c36                	mv	s8,a3
   1a52e:	c781                	beqz	a5,1a536 <_svfiprintf_r+0x34>
   1a530:	6d9c                	ld	a5,24(a1)
   1a532:	0c078fe3          	beqz	a5,1ae10 <_svfiprintf_r+0x90e>
   1a536:	6d75                	lui	s10,0x1d
   1a538:	0e010993          	addi	s3,sp,224
   1a53c:	2b8d0793          	addi	a5,s10,696 # 1d2b8 <_ctype_+0x108>
   1a540:	6af5                	lui	s5,0x1d
   1a542:	6475                	lui	s0,0x1d
   1a544:	f0ce                	sd	s3,96(sp)
   1a546:	f882                	sd	zero,112(sp)
   1a548:	d482                	sw	zero,104(sp)
   1a54a:	874e                	mv	a4,s3
   1a54c:	ec02                	sd	zero,24(sp)
   1a54e:	fc02                	sd	zero,56(sp)
   1a550:	e482                	sd	zero,72(sp)
   1a552:	e082                	sd	zero,64(sp)
   1a554:	e002                	sd	zero,0(sp)
   1a556:	e83e                	sd	a5,16(sp)
   1a558:	428a8a93          	addi	s5,s5,1064 # 1d428 <blanks.4511>
   1a55c:	43840413          	addi	s0,s0,1080 # 1d438 <zeroes.4512>
   1a560:	000dc783          	lbu	a5,0(s11)
   1a564:	cbd5                	beqz	a5,1a618 <_svfiprintf_r+0x116>
   1a566:	02500693          	li	a3,37
   1a56a:	06d787e3          	beq	a5,a3,1add8 <_svfiprintf_r+0x8d6>
   1a56e:	84ee                	mv	s1,s11
   1a570:	a021                	j	1a578 <_svfiprintf_r+0x76>
   1a572:	08d78663          	beq	a5,a3,1a5fe <_svfiprintf_r+0xfc>
   1a576:	84ca                	mv	s1,s2
   1a578:	0014c783          	lbu	a5,1(s1)
   1a57c:	00148913          	addi	s2,s1,1
   1a580:	fbed                	bnez	a5,1a572 <_svfiprintf_r+0x70>
   1a582:	41b90b3b          	subw	s6,s2,s11
   1a586:	080b0963          	beqz	s6,1a618 <_svfiprintf_r+0x116>
   1a58a:	76c6                	ld	a3,112(sp)
   1a58c:	57a6                	lw	a5,104(sp)
   1a58e:	01b73023          	sd	s11,0(a4)
   1a592:	96da                	add	a3,a3,s6
   1a594:	2785                	addiw	a5,a5,1
   1a596:	01673423          	sd	s6,8(a4)
   1a59a:	f8b6                	sd	a3,112(sp)
   1a59c:	d4be                	sw	a5,104(sp)
   1a59e:	0007869b          	sext.w	a3,a5
   1a5a2:	479d                	li	a5,7
   1a5a4:	0741                	addi	a4,a4,16
   1a5a6:	06d7c163          	blt	a5,a3,1a608 <_svfiprintf_r+0x106>
   1a5aa:	6682                	ld	a3,0(sp)
   1a5ac:	0014c783          	lbu	a5,1(s1)
   1a5b0:	016686bb          	addw	a3,a3,s6
   1a5b4:	e036                	sd	a3,0(sp)
   1a5b6:	c3ad                	beqz	a5,1a618 <_svfiprintf_r+0x116>
   1a5b8:	00190d93          	addi	s11,s2,1
   1a5bc:	00194683          	lbu	a3,1(s2)
   1a5c0:	04010ba3          	sb	zero,87(sp)
   1a5c4:	537d                	li	t1,-1
   1a5c6:	4481                	li	s1,0
   1a5c8:	4d01                	li	s10,0
   1a5ca:	05a00913          	li	s2,90
   1a5ce:	4b25                	li	s6,9
   1a5d0:	0d85                	addi	s11,s11,1
   1a5d2:	2681                	sext.w	a3,a3
   1a5d4:	02a00593          	li	a1,42
   1a5d8:	fe06879b          	addiw	a5,a3,-32
   1a5dc:	0007861b          	sext.w	a2,a5
   1a5e0:	1ec96f63          	bltu	s2,a2,1a7de <_svfiprintf_r+0x2dc>
   1a5e4:	6642                	ld	a2,16(sp)
   1a5e6:	1782                	slli	a5,a5,0x20
   1a5e8:	83f9                	srli	a5,a5,0x1e
   1a5ea:	97b2                	add	a5,a5,a2
   1a5ec:	439c                	lw	a5,0(a5)
   1a5ee:	8782                	jr	a5
   1a5f0:	010d6893          	ori	a7,s10,16
   1a5f4:	00088d1b          	sext.w	s10,a7
   1a5f8:	000dc683          	lbu	a3,0(s11)
   1a5fc:	bfd1                	j	1a5d0 <_svfiprintf_r+0xce>
   1a5fe:	41b90b3b          	subw	s6,s2,s11
   1a602:	fa0b0be3          	beqz	s6,1a5b8 <_svfiprintf_r+0xb6>
   1a606:	b751                	j	1a58a <_svfiprintf_r+0x88>
   1a608:	1090                	addi	a2,sp,96
   1a60a:	85d2                	mv	a1,s4
   1a60c:	855e                	mv	a0,s7
   1a60e:	d97ff0ef          	jal	ra,1a3a4 <__ssprint_r>
   1a612:	e911                	bnez	a0,1a626 <_svfiprintf_r+0x124>
   1a614:	874e                	mv	a4,s3
   1a616:	bf51                	j	1a5aa <_svfiprintf_r+0xa8>
   1a618:	77c6                	ld	a5,112(sp)
   1a61a:	c791                	beqz	a5,1a626 <_svfiprintf_r+0x124>
   1a61c:	1090                	addi	a2,sp,96
   1a61e:	85d2                	mv	a1,s4
   1a620:	855e                	mv	a0,s7
   1a622:	d83ff0ef          	jal	ra,1a3a4 <__ssprint_r>
   1a626:	010a5783          	lhu	a5,16(s4)
   1a62a:	0407f793          	andi	a5,a5,64
   1a62e:	180795e3          	bnez	a5,1afb8 <_svfiprintf_r+0xab6>
   1a632:	60be                	ld	ra,456(sp)
   1a634:	641e                	ld	s0,448(sp)
   1a636:	6502                	ld	a0,0(sp)
   1a638:	74fa                	ld	s1,440(sp)
   1a63a:	795a                	ld	s2,432(sp)
   1a63c:	79ba                	ld	s3,424(sp)
   1a63e:	7a1a                	ld	s4,416(sp)
   1a640:	6afa                	ld	s5,408(sp)
   1a642:	6b5a                	ld	s6,400(sp)
   1a644:	6bba                	ld	s7,392(sp)
   1a646:	6c1a                	ld	s8,384(sp)
   1a648:	7cf6                	ld	s9,376(sp)
   1a64a:	7d56                	ld	s10,368(sp)
   1a64c:	7db6                	ld	s11,360(sp)
   1a64e:	6179                	addi	sp,sp,464
   1a650:	8082                	ret
   1a652:	0001d7b7          	lui	a5,0x1d
   1a656:	a8878793          	addi	a5,a5,-1400 # 1ca88 <zeroes.4550+0x80>
   1a65a:	ec3e                	sd	a5,24(sp)
   1a65c:	020d7793          	andi	a5,s10,32
   1a660:	008c0613          	addi	a2,s8,8
   1a664:	e789                	bnez	a5,1a66e <_svfiprintf_r+0x16c>
   1a666:	010d7793          	andi	a5,s10,16
   1a66a:	78078063          	beqz	a5,1adea <_svfiprintf_r+0x8e8>
   1a66e:	000c3b03          	ld	s6,0(s8)
   1a672:	001d7793          	andi	a5,s10,1
   1a676:	cf89                	beqz	a5,1a690 <_svfiprintf_r+0x18e>
   1a678:	000b0c63          	beqz	s6,1a690 <_svfiprintf_r+0x18e>
   1a67c:	002d6893          	ori	a7,s10,2
   1a680:	03000793          	li	a5,48
   1a684:	04f10c23          	sb	a5,88(sp)
   1a688:	04d10ca3          	sb	a3,89(sp)
   1a68c:	00088d1b          	sext.w	s10,a7
   1a690:	bffd7893          	andi	a7,s10,-1025
   1a694:	00088e9b          	sext.w	t4,a7
   1a698:	8c32                	mv	s8,a2
   1a69a:	4789                	li	a5,2
   1a69c:	04010ba3          	sb	zero,87(sp)
   1a6a0:	56fd                	li	a3,-1
   1a6a2:	3cd30563          	beq	t1,a3,1aa6c <_svfiprintf_r+0x56a>
   1a6a6:	f7fef893          	andi	a7,t4,-129
   1a6aa:	00088d1b          	sext.w	s10,a7
   1a6ae:	5a0b1b63          	bnez	s6,1ac64 <_svfiprintf_r+0x762>
   1a6b2:	56031663          	bnez	t1,1ac1e <_svfiprintf_r+0x71c>
   1a6b6:	6e079f63          	bnez	a5,1adb4 <_svfiprintf_r+0x8b2>
   1a6ba:	001ef913          	andi	s2,t4,1
   1a6be:	0dc10c93          	addi	s9,sp,220
   1a6c2:	00090863          	beqz	s2,1a6d2 <_svfiprintf_r+0x1d0>
   1a6c6:	03000793          	li	a5,48
   1a6ca:	0cf10da3          	sb	a5,219(sp)
   1a6ce:	0db10c93          	addi	s9,sp,219
   1a6d2:	879a                	mv	a5,t1
   1a6d4:	01235363          	bge	t1,s2,1a6da <_svfiprintf_r+0x1d8>
   1a6d8:	87ca                	mv	a5,s2
   1a6da:	05714683          	lbu	a3,87(sp)
   1a6de:	00078b1b          	sext.w	s6,a5
   1a6e2:	c299                	beqz	a3,1a6e8 <_svfiprintf_r+0x1e6>
   1a6e4:	00178b1b          	addiw	s6,a5,1
   1a6e8:	002d7e93          	andi	t4,s10,2
   1a6ec:	2e81                	sext.w	t4,t4
   1a6ee:	000e8363          	beqz	t4,1a6f4 <_svfiprintf_r+0x1f2>
   1a6f2:	2b09                	addiw	s6,s6,2
   1a6f4:	084d7f13          	andi	t5,s10,132
   1a6f8:	77c6                	ld	a5,112(sp)
   1a6fa:	55a6                	lw	a1,104(sp)
   1a6fc:	000f1663          	bnez	t5,1a708 <_svfiprintf_r+0x206>
   1a700:	416486bb          	subw	a3,s1,s6
   1a704:	56d04263          	bgtz	a3,1ac68 <_svfiprintf_r+0x766>
   1a708:	05714f83          	lbu	t6,87(sp)
   1a70c:	0015851b          	addiw	a0,a1,1
   1a710:	01070613          	addi	a2,a4,16
   1a714:	020f8763          	beqz	t6,1a742 <_svfiprintf_r+0x240>
   1a718:	05710f93          	addi	t6,sp,87
   1a71c:	0785                	addi	a5,a5,1
   1a71e:	01f73023          	sd	t6,0(a4)
   1a722:	4f85                	li	t6,1
   1a724:	01f73423          	sd	t6,8(a4)
   1a728:	f8be                	sd	a5,112(sp)
   1a72a:	d4aa                	sw	a0,104(sp)
   1a72c:	469d                	li	a3,7
   1a72e:	5ca6c463          	blt	a3,a0,1acf6 <_svfiprintf_r+0x7f4>
   1a732:	00258f9b          	addiw	t6,a1,2
   1a736:	02070693          	addi	a3,a4,32
   1a73a:	85aa                	mv	a1,a0
   1a73c:	8732                	mv	a4,a2
   1a73e:	857e                	mv	a0,t6
   1a740:	8636                	mv	a2,a3
   1a742:	020e8063          	beqz	t4,1a762 <_svfiprintf_r+0x260>
   1a746:	08b4                	addi	a3,sp,88
   1a748:	e314                	sd	a3,0(a4)
   1a74a:	0789                	addi	a5,a5,2
   1a74c:	4689                	li	a3,2
   1a74e:	e714                	sd	a3,8(a4)
   1a750:	f8be                	sd	a5,112(sp)
   1a752:	d4aa                	sw	a0,104(sp)
   1a754:	471d                	li	a4,7
   1a756:	5ca74463          	blt	a4,a0,1ad1e <_svfiprintf_r+0x81c>
   1a75a:	85aa                	mv	a1,a0
   1a75c:	8732                	mv	a4,a2
   1a75e:	2505                	addiw	a0,a0,1
   1a760:	0641                	addi	a2,a2,16
   1a762:	08000693          	li	a3,128
   1a766:	3adf0863          	beq	t5,a3,1ab16 <_svfiprintf_r+0x614>
   1a76a:	412306bb          	subw	a3,t1,s2
   1a76e:	42d04163          	bgtz	a3,1ab90 <_svfiprintf_r+0x68e>
   1a772:	97ca                	add	a5,a5,s2
   1a774:	01973023          	sd	s9,0(a4)
   1a778:	01273423          	sd	s2,8(a4)
   1a77c:	f8be                	sd	a5,112(sp)
   1a77e:	d4aa                	sw	a0,104(sp)
   1a780:	471d                	li	a4,7
   1a782:	48a74463          	blt	a4,a0,1ac0a <_svfiprintf_r+0x708>
   1a786:	004d7893          	andi	a7,s10,4
   1a78a:	00088663          	beqz	a7,1a796 <_svfiprintf_r+0x294>
   1a78e:	4164893b          	subw	s2,s1,s6
   1a792:	5b204863          	bgtz	s2,1ad42 <_svfiprintf_r+0x840>
   1a796:	8726                	mv	a4,s1
   1a798:	0164d363          	bge	s1,s6,1a79e <_svfiprintf_r+0x29c>
   1a79c:	875a                	mv	a4,s6
   1a79e:	6682                	ld	a3,0(sp)
   1a7a0:	9f35                	addw	a4,a4,a3
   1a7a2:	e03a                	sd	a4,0(sp)
   1a7a4:	4a079863          	bnez	a5,1ac54 <_svfiprintf_r+0x752>
   1a7a8:	d482                	sw	zero,104(sp)
   1a7aa:	874e                	mv	a4,s3
   1a7ac:	bb55                	j	1a560 <_svfiprintf_r+0x5e>
   1a7ae:	4481                	li	s1,0
   1a7b0:	0d85                	addi	s11,s11,1
   1a7b2:	fffdc603          	lbu	a2,-1(s11)
   1a7b6:	0024979b          	slliw	a5,s1,0x2
   1a7ba:	9cbd                	addw	s1,s1,a5
   1a7bc:	fd06869b          	addiw	a3,a3,-48
   1a7c0:	0014949b          	slliw	s1,s1,0x1
   1a7c4:	fd06079b          	addiw	a5,a2,-48
   1a7c8:	9cb5                	addw	s1,s1,a3
   1a7ca:	0006069b          	sext.w	a3,a2
   1a7ce:	fefb71e3          	bgeu	s6,a5,1a7b0 <_svfiprintf_r+0x2ae>
   1a7d2:	fe06879b          	addiw	a5,a3,-32
   1a7d6:	0007861b          	sext.w	a2,a5
   1a7da:	e0c975e3          	bgeu	s2,a2,1a5e4 <_svfiprintf_r+0xe2>
   1a7de:	e2068de3          	beqz	a3,1a618 <_svfiprintf_r+0x116>
   1a7e2:	06d10c23          	sb	a3,120(sp)
   1a7e6:	04010ba3          	sb	zero,87(sp)
   1a7ea:	4b05                	li	s6,1
   1a7ec:	4905                	li	s2,1
   1a7ee:	07810c93          	addi	s9,sp,120
   1a7f2:	4301                	li	t1,0
   1a7f4:	bdd5                	j	1a6e8 <_svfiprintf_r+0x1e6>
   1a7f6:	010d6e93          	ori	t4,s10,16
   1a7fa:	2e81                	sext.w	t4,t4
   1a7fc:	008c0693          	addi	a3,s8,8
   1a800:	000c3b03          	ld	s6,0(s8)
   1a804:	4785                	li	a5,1
   1a806:	8c36                	mv	s8,a3
   1a808:	bd51                	j	1a69c <_svfiprintf_r+0x19a>
   1a80a:	001d6893          	ori	a7,s10,1
   1a80e:	00088d1b          	sext.w	s10,a7
   1a812:	000dc683          	lbu	a3,0(s11)
   1a816:	bb6d                	j	1a5d0 <_svfiprintf_r+0xce>
   1a818:	000dc683          	lbu	a3,0(s11)
   1a81c:	004d6893          	ori	a7,s10,4
   1a820:	00088d1b          	sext.w	s10,a7
   1a824:	b375                	j	1a5d0 <_svfiprintf_r+0xce>
   1a826:	02b00793          	li	a5,43
   1a82a:	04f10ba3          	sb	a5,87(sp)
   1a82e:	000dc683          	lbu	a3,0(s11)
   1a832:	bb79                	j	1a5d0 <_svfiprintf_r+0xce>
   1a834:	000c2483          	lw	s1,0(s8)
   1a838:	000dc683          	lbu	a3,0(s11)
   1a83c:	0c21                	addi	s8,s8,8
   1a83e:	d804d9e3          	bgez	s1,1a5d0 <_svfiprintf_r+0xce>
   1a842:	409004bb          	negw	s1,s1
   1a846:	bfd9                	j	1a81c <_svfiprintf_r+0x31a>
   1a848:	855e                	mv	a0,s7
   1a84a:	f01a                	sd	t1,32(sp)
   1a84c:	e43a                	sd	a4,8(sp)
   1a84e:	892fc0ef          	jal	ra,168e0 <_localeconv_r>
   1a852:	651c                	ld	a5,8(a0)
   1a854:	853e                	mv	a0,a5
   1a856:	e0be                	sd	a5,64(sp)
   1a858:	f61f70ef          	jal	ra,127b8 <strlen>
   1a85c:	e4aa                	sd	a0,72(sp)
   1a85e:	8caa                	mv	s9,a0
   1a860:	855e                	mv	a0,s7
   1a862:	87efc0ef          	jal	ra,168e0 <_localeconv_r>
   1a866:	6910                	ld	a2,16(a0)
   1a868:	6722                	ld	a4,8(sp)
   1a86a:	7302                	ld	t1,32(sp)
   1a86c:	fc32                	sd	a2,56(sp)
   1a86e:	000dc683          	lbu	a3,0(s11)
   1a872:	d40c8fe3          	beqz	s9,1a5d0 <_svfiprintf_r+0xce>
   1a876:	d4060de3          	beqz	a2,1a5d0 <_svfiprintf_r+0xce>
   1a87a:	00064783          	lbu	a5,0(a2)
   1a87e:	d40789e3          	beqz	a5,1a5d0 <_svfiprintf_r+0xce>
   1a882:	400d6893          	ori	a7,s10,1024
   1a886:	00088d1b          	sext.w	s10,a7
   1a88a:	b399                	j	1a5d0 <_svfiprintf_r+0xce>
   1a88c:	080d6893          	ori	a7,s10,128
   1a890:	00088d1b          	sext.w	s10,a7
   1a894:	000dc683          	lbu	a3,0(s11)
   1a898:	bb25                	j	1a5d0 <_svfiprintf_r+0xce>
   1a89a:	000dc683          	lbu	a3,0(s11)
   1a89e:	001d8793          	addi	a5,s11,1
   1a8a2:	70b68f63          	beq	a3,a1,1afc0 <_svfiprintf_r+0xabe>
   1a8a6:	fd06861b          	addiw	a2,a3,-48
   1a8aa:	8dbe                	mv	s11,a5
   1a8ac:	4301                	li	t1,0
   1a8ae:	d2cb65e3          	bltu	s6,a2,1a5d8 <_svfiprintf_r+0xd6>
   1a8b2:	0d85                	addi	s11,s11,1
   1a8b4:	0023179b          	slliw	a5,t1,0x2
   1a8b8:	fffdc683          	lbu	a3,-1(s11)
   1a8bc:	0067833b          	addw	t1,a5,t1
   1a8c0:	0013131b          	slliw	t1,t1,0x1
   1a8c4:	00c3033b          	addw	t1,t1,a2
   1a8c8:	fd06861b          	addiw	a2,a3,-48
   1a8cc:	fecb73e3          	bgeu	s6,a2,1a8b2 <_svfiprintf_r+0x3b0>
   1a8d0:	b321                	j	1a5d8 <_svfiprintf_r+0xd6>
   1a8d2:	000c2783          	lw	a5,0(s8)
   1a8d6:	04010ba3          	sb	zero,87(sp)
   1a8da:	0c21                	addi	s8,s8,8
   1a8dc:	06f10c23          	sb	a5,120(sp)
   1a8e0:	4b05                	li	s6,1
   1a8e2:	4905                	li	s2,1
   1a8e4:	07810c93          	addi	s9,sp,120
   1a8e8:	4301                	li	t1,0
   1a8ea:	bbfd                	j	1a6e8 <_svfiprintf_r+0x1e6>
   1a8ec:	000c3c83          	ld	s9,0(s8)
   1a8f0:	04010ba3          	sb	zero,87(sp)
   1a8f4:	0c21                	addi	s8,s8,8
   1a8f6:	600c8263          	beqz	s9,1aefa <_svfiprintf_r+0x9f8>
   1a8fa:	57fd                	li	a5,-1
   1a8fc:	50f30163          	beq	t1,a5,1adfe <_svfiprintf_r+0x8fc>
   1a900:	861a                	mv	a2,t1
   1a902:	4581                	li	a1,0
   1a904:	8566                	mv	a0,s9
   1a906:	f03a                	sd	a4,32(sp)
   1a908:	e41a                	sd	t1,8(sp)
   1a90a:	b68f70ef          	jal	ra,11c72 <memchr>
   1a90e:	6322                	ld	t1,8(sp)
   1a910:	7702                	ld	a4,32(sp)
   1a912:	68050963          	beqz	a0,1afa4 <_svfiprintf_r+0xaa2>
   1a916:	4195093b          	subw	s2,a0,s9
   1a91a:	4301                	li	t1,0
   1a91c:	bb5d                	j	1a6d2 <_svfiprintf_r+0x1d0>
   1a91e:	010d6793          	ori	a5,s10,16
   1a922:	0007889b          	sext.w	a7,a5
   1a926:	008c0793          	addi	a5,s8,8
   1a92a:	000c3b03          	ld	s6,0(s8)
   1a92e:	8c3e                	mv	s8,a5
   1a930:	bff8f893          	andi	a7,a7,-1025
   1a934:	00088e9b          	sext.w	t4,a7
   1a938:	4781                	li	a5,0
   1a93a:	b38d                	j	1a69c <_svfiprintf_r+0x19a>
   1a93c:	010d6e93          	ori	t4,s10,16
   1a940:	2e81                	sext.w	t4,t4
   1a942:	008c0693          	addi	a3,s8,8
   1a946:	000c3783          	ld	a5,0(s8)
   1a94a:	8c36                	mv	s8,a3
   1a94c:	8b3e                	mv	s6,a5
   1a94e:	1007c563          	bltz	a5,1aa58 <_svfiprintf_r+0x556>
   1a952:	57fd                	li	a5,-1
   1a954:	00f30963          	beq	t1,a5,1a966 <_svfiprintf_r+0x464>
   1a958:	f7fef893          	andi	a7,t4,-129
   1a95c:	00088d1b          	sext.w	s10,a7
   1a960:	440b0863          	beqz	s6,1adb0 <_svfiprintf_r+0x8ae>
   1a964:	8eea                	mv	t4,s10
   1a966:	47a5                	li	a5,9
   1a968:	4d67e463          	bltu	a5,s6,1ae30 <_svfiprintf_r+0x92e>
   1a96c:	030b0b1b          	addiw	s6,s6,48
   1a970:	0d610da3          	sb	s6,219(sp)
   1a974:	8d76                	mv	s10,t4
   1a976:	4905                	li	s2,1
   1a978:	0db10c93          	addi	s9,sp,219
   1a97c:	bb99                	j	1a6d2 <_svfiprintf_r+0x1d0>
   1a97e:	020d6893          	ori	a7,s10,32
   1a982:	00088d1b          	sext.w	s10,a7
   1a986:	000dc683          	lbu	a3,0(s11)
   1a98a:	b199                	j	1a5d0 <_svfiprintf_r+0xce>
   1a98c:	77e1                	lui	a5,0xffff8
   1a98e:	8307c793          	xori	a5,a5,-2000
   1a992:	04f11c23          	sh	a5,88(sp)
   1a996:	0001d7b7          	lui	a5,0x1d
   1a99a:	a7078793          	addi	a5,a5,-1424 # 1ca70 <zeroes.4550+0x68>
   1a99e:	002d6893          	ori	a7,s10,2
   1a9a2:	000c3b03          	ld	s6,0(s8)
   1a9a6:	ec3e                	sd	a5,24(sp)
   1a9a8:	00088e9b          	sext.w	t4,a7
   1a9ac:	0c21                	addi	s8,s8,8
   1a9ae:	4789                	li	a5,2
   1a9b0:	b1f5                	j	1a69c <_svfiprintf_r+0x19a>
   1a9b2:	020d7793          	andi	a5,s10,32
   1a9b6:	008c0693          	addi	a3,s8,8
   1a9ba:	42079663          	bnez	a5,1ade6 <_svfiprintf_r+0x8e4>
   1a9be:	010d7793          	andi	a5,s10,16
   1a9c2:	42079263          	bnez	a5,1ade6 <_svfiprintf_r+0x8e4>
   1a9c6:	040d7793          	andi	a5,s10,64
   1a9ca:	000c2b03          	lw	s6,0(s8)
   1a9ce:	56078663          	beqz	a5,1af3a <_svfiprintf_r+0xa38>
   1a9d2:	1b42                	slli	s6,s6,0x30
   1a9d4:	030b5b13          	srli	s6,s6,0x30
   1a9d8:	8c36                	mv	s8,a3
   1a9da:	8eea                	mv	t4,s10
   1a9dc:	4785                	li	a5,1
   1a9de:	b97d                	j	1a69c <_svfiprintf_r+0x19a>
   1a9e0:	05714783          	lbu	a5,87(sp)
   1a9e4:	000dc683          	lbu	a3,0(s11)
   1a9e8:	be0794e3          	bnez	a5,1a5d0 <_svfiprintf_r+0xce>
   1a9ec:	02000793          	li	a5,32
   1a9f0:	04f10ba3          	sb	a5,87(sp)
   1a9f4:	bef1                	j	1a5d0 <_svfiprintf_r+0xce>
   1a9f6:	000dc683          	lbu	a3,0(s11)
   1a9fa:	06c00793          	li	a5,108
   1a9fe:	4cf68563          	beq	a3,a5,1aec8 <_svfiprintf_r+0x9c6>
   1aa02:	010d6893          	ori	a7,s10,16
   1aa06:	00088d1b          	sext.w	s10,a7
   1aa0a:	b6d9                	j	1a5d0 <_svfiprintf_r+0xce>
   1aa0c:	0001d7b7          	lui	a5,0x1d
   1aa10:	a7078793          	addi	a5,a5,-1424 # 1ca70 <zeroes.4550+0x68>
   1aa14:	ec3e                	sd	a5,24(sp)
   1aa16:	b199                	j	1a65c <_svfiprintf_r+0x15a>
   1aa18:	000dc683          	lbu	a3,0(s11)
   1aa1c:	06800793          	li	a5,104
   1aa20:	48f68b63          	beq	a3,a5,1aeb6 <_svfiprintf_r+0x9b4>
   1aa24:	040d6893          	ori	a7,s10,64
   1aa28:	00088d1b          	sext.w	s10,a7
   1aa2c:	b655                	j	1a5d0 <_svfiprintf_r+0xce>
   1aa2e:	020d7793          	andi	a5,s10,32
   1aa32:	008c0693          	addi	a3,s8,8
   1aa36:	3a079663          	bnez	a5,1ade2 <_svfiprintf_r+0x8e0>
   1aa3a:	010d7793          	andi	a5,s10,16
   1aa3e:	3a079263          	bnez	a5,1ade2 <_svfiprintf_r+0x8e0>
   1aa42:	040d7793          	andi	a5,s10,64
   1aa46:	50078463          	beqz	a5,1af4e <_svfiprintf_r+0xa4c>
   1aa4a:	000c1b03          	lh	s6,0(s8)
   1aa4e:	8eea                	mv	t4,s10
   1aa50:	8c36                	mv	s8,a3
   1aa52:	87da                	mv	a5,s6
   1aa54:	ee07dfe3          	bgez	a5,1a952 <_svfiprintf_r+0x450>
   1aa58:	02d00793          	li	a5,45
   1aa5c:	04f10ba3          	sb	a5,87(sp)
   1aa60:	56fd                	li	a3,-1
   1aa62:	41600b33          	neg	s6,s6
   1aa66:	4785                	li	a5,1
   1aa68:	c2d31fe3          	bne	t1,a3,1a6a6 <_svfiprintf_r+0x1a4>
   1aa6c:	4685                	li	a3,1
   1aa6e:	eed78ce3          	beq	a5,a3,1a966 <_svfiprintf_r+0x464>
   1aa72:	4689                	li	a3,2
   1aa74:	1ad78c63          	beq	a5,a3,1ac2c <_svfiprintf_r+0x72a>
   1aa78:	0dc10913          	addi	s2,sp,220
   1aa7c:	86ca                	mv	a3,s2
   1aa7e:	a011                	j	1aa82 <_svfiprintf_r+0x580>
   1aa80:	86e6                	mv	a3,s9
   1aa82:	007b7793          	andi	a5,s6,7
   1aa86:	03078793          	addi	a5,a5,48
   1aa8a:	fef68fa3          	sb	a5,-1(a3) # 1fff <register_fini-0xe0b1>
   1aa8e:	003b5b13          	srli	s6,s6,0x3
   1aa92:	fff68c93          	addi	s9,a3,-1
   1aa96:	fe0b15e3          	bnez	s6,1aa80 <_svfiprintf_r+0x57e>
   1aa9a:	001ef613          	andi	a2,t4,1
   1aa9e:	1a060763          	beqz	a2,1ac4c <_svfiprintf_r+0x74a>
   1aaa2:	03000613          	li	a2,48
   1aaa6:	1ac78363          	beq	a5,a2,1ac4c <_svfiprintf_r+0x74a>
   1aaaa:	16f9                	addi	a3,a3,-2
   1aaac:	fecc8fa3          	sb	a2,-1(s9)
   1aab0:	40d9093b          	subw	s2,s2,a3
   1aab4:	8d76                	mv	s10,t4
   1aab6:	8cb6                	mv	s9,a3
   1aab8:	b929                	j	1a6d2 <_svfiprintf_r+0x1d0>
   1aaba:	020d7693          	andi	a3,s10,32
   1aabe:	008c0793          	addi	a5,s8,8
   1aac2:	30069e63          	bnez	a3,1adde <_svfiprintf_r+0x8dc>
   1aac6:	010d7693          	andi	a3,s10,16
   1aaca:	30069a63          	bnez	a3,1adde <_svfiprintf_r+0x8dc>
   1aace:	040d7693          	andi	a3,s10,64
   1aad2:	000c2b03          	lw	s6,0(s8)
   1aad6:	44068a63          	beqz	a3,1af2a <_svfiprintf_r+0xa28>
   1aada:	1b42                	slli	s6,s6,0x30
   1aadc:	030b5b13          	srli	s6,s6,0x30
   1aae0:	88ea                	mv	a7,s10
   1aae2:	8c3e                	mv	s8,a5
   1aae4:	b5b1                	j	1a930 <_svfiprintf_r+0x42e>
   1aae6:	020d7793          	andi	a5,s10,32
   1aaea:	000c3683          	ld	a3,0(s8)
   1aaee:	0c21                	addi	s8,s8,8
   1aaf0:	e385                	bnez	a5,1ab10 <_svfiprintf_r+0x60e>
   1aaf2:	010d7793          	andi	a5,s10,16
   1aaf6:	ef89                	bnez	a5,1ab10 <_svfiprintf_r+0x60e>
   1aaf8:	040d7793          	andi	a5,s10,64
   1aafc:	48079d63          	bnez	a5,1af96 <_svfiprintf_r+0xa94>
   1ab00:	200d7893          	andi	a7,s10,512
   1ab04:	6782                	ld	a5,0(sp)
   1ab06:	4a088663          	beqz	a7,1afb2 <_svfiprintf_r+0xab0>
   1ab0a:	00f68023          	sb	a5,0(a3)
   1ab0e:	bc89                	j	1a560 <_svfiprintf_r+0x5e>
   1ab10:	6782                	ld	a5,0(sp)
   1ab12:	e29c                	sd	a5,0(a3)
   1ab14:	b4b1                	j	1a560 <_svfiprintf_r+0x5e>
   1ab16:	416486bb          	subw	a3,s1,s6
   1ab1a:	c4d058e3          	blez	a3,1a76a <_svfiprintf_r+0x268>
   1ab1e:	4ec1                	li	t4,16
   1ab20:	48ded663          	bge	t4,a3,1afac <_svfiprintf_r+0xaaa>
   1ab24:	4f1d                	li	t5,7
   1ab26:	a021                	j	1ab2e <_svfiprintf_r+0x62c>
   1ab28:	36c1                	addiw	a3,a3,-16
   1ab2a:	02dedf63          	bge	t4,a3,1ab68 <_svfiprintf_r+0x666>
   1ab2e:	2585                	addiw	a1,a1,1
   1ab30:	07c1                	addi	a5,a5,16
   1ab32:	e300                	sd	s0,0(a4)
   1ab34:	01d73423          	sd	t4,8(a4)
   1ab38:	f8be                	sd	a5,112(sp)
   1ab3a:	d4ae                	sw	a1,104(sp)
   1ab3c:	0741                	addi	a4,a4,16
   1ab3e:	febf55e3          	bge	t5,a1,1ab28 <_svfiprintf_r+0x626>
   1ab42:	1090                	addi	a2,sp,96
   1ab44:	85d2                	mv	a1,s4
   1ab46:	855e                	mv	a0,s7
   1ab48:	f036                	sd	a3,32(sp)
   1ab4a:	e41a                	sd	t1,8(sp)
   1ab4c:	859ff0ef          	jal	ra,1a3a4 <__ssprint_r>
   1ab50:	ac051be3          	bnez	a0,1a626 <_svfiprintf_r+0x124>
   1ab54:	7682                	ld	a3,32(sp)
   1ab56:	4ec1                	li	t4,16
   1ab58:	77c6                	ld	a5,112(sp)
   1ab5a:	36c1                	addiw	a3,a3,-16
   1ab5c:	55a6                	lw	a1,104(sp)
   1ab5e:	874e                	mv	a4,s3
   1ab60:	4f1d                	li	t5,7
   1ab62:	6322                	ld	t1,8(sp)
   1ab64:	fcdec5e3          	blt	t4,a3,1ab2e <_svfiprintf_r+0x62c>
   1ab68:	2585                	addiw	a1,a1,1
   1ab6a:	01070e93          	addi	t4,a4,16
   1ab6e:	97b6                	add	a5,a5,a3
   1ab70:	e300                	sd	s0,0(a4)
   1ab72:	e714                	sd	a3,8(a4)
   1ab74:	f8be                	sd	a5,112(sp)
   1ab76:	d4ae                	sw	a1,104(sp)
   1ab78:	471d                	li	a4,7
   1ab7a:	36b74063          	blt	a4,a1,1aeda <_svfiprintf_r+0x9d8>
   1ab7e:	412306bb          	subw	a3,t1,s2
   1ab82:	0015851b          	addiw	a0,a1,1
   1ab86:	010e8613          	addi	a2,t4,16
   1ab8a:	8776                	mv	a4,t4
   1ab8c:	bed053e3          	blez	a3,1a772 <_svfiprintf_r+0x270>
   1ab90:	4341                	li	t1,16
   1ab92:	3cd35763          	bge	t1,a3,1af60 <_svfiprintf_r+0xa5e>
   1ab96:	4e9d                	li	t4,7
   1ab98:	a021                	j	1aba0 <_svfiprintf_r+0x69e>
   1ab9a:	36c1                	addiw	a3,a3,-16
   1ab9c:	02d35d63          	bge	t1,a3,1abd6 <_svfiprintf_r+0x6d4>
   1aba0:	2585                	addiw	a1,a1,1
   1aba2:	07c1                	addi	a5,a5,16
   1aba4:	e300                	sd	s0,0(a4)
   1aba6:	00673423          	sd	t1,8(a4)
   1abaa:	f8be                	sd	a5,112(sp)
   1abac:	d4ae                	sw	a1,104(sp)
   1abae:	0741                	addi	a4,a4,16
   1abb0:	febed5e3          	bge	t4,a1,1ab9a <_svfiprintf_r+0x698>
   1abb4:	1090                	addi	a2,sp,96
   1abb6:	85d2                	mv	a1,s4
   1abb8:	855e                	mv	a0,s7
   1abba:	e436                	sd	a3,8(sp)
   1abbc:	fe8ff0ef          	jal	ra,1a3a4 <__ssprint_r>
   1abc0:	a60513e3          	bnez	a0,1a626 <_svfiprintf_r+0x124>
   1abc4:	66a2                	ld	a3,8(sp)
   1abc6:	4341                	li	t1,16
   1abc8:	77c6                	ld	a5,112(sp)
   1abca:	36c1                	addiw	a3,a3,-16
   1abcc:	55a6                	lw	a1,104(sp)
   1abce:	874e                	mv	a4,s3
   1abd0:	4e9d                	li	t4,7
   1abd2:	fcd347e3          	blt	t1,a3,1aba0 <_svfiprintf_r+0x69e>
   1abd6:	0015851b          	addiw	a0,a1,1
   1abda:	01070593          	addi	a1,a4,16
   1abde:	97b6                	add	a5,a5,a3
   1abe0:	e300                	sd	s0,0(a4)
   1abe2:	e714                	sd	a3,8(a4)
   1abe4:	f8be                	sd	a5,112(sp)
   1abe6:	d4aa                	sw	a0,104(sp)
   1abe8:	471d                	li	a4,7
   1abea:	1ca74a63          	blt	a4,a0,1adbe <_svfiprintf_r+0x8bc>
   1abee:	872e                	mv	a4,a1
   1abf0:	2505                	addiw	a0,a0,1
   1abf2:	97ca                	add	a5,a5,s2
   1abf4:	01973023          	sd	s9,0(a4)
   1abf8:	01273423          	sd	s2,8(a4)
   1abfc:	f8be                	sd	a5,112(sp)
   1abfe:	d4aa                	sw	a0,104(sp)
   1ac00:	471d                	li	a4,7
   1ac02:	01058613          	addi	a2,a1,16
   1ac06:	b8a750e3          	bge	a4,a0,1a786 <_svfiprintf_r+0x284>
   1ac0a:	1090                	addi	a2,sp,96
   1ac0c:	85d2                	mv	a1,s4
   1ac0e:	855e                	mv	a0,s7
   1ac10:	f94ff0ef          	jal	ra,1a3a4 <__ssprint_r>
   1ac14:	a00519e3          	bnez	a0,1a626 <_svfiprintf_r+0x124>
   1ac18:	77c6                	ld	a5,112(sp)
   1ac1a:	864e                	mv	a2,s3
   1ac1c:	b6ad                	j	1a786 <_svfiprintf_r+0x284>
   1ac1e:	4685                	li	a3,1
   1ac20:	38d78063          	beq	a5,a3,1afa0 <_svfiprintf_r+0xa9e>
   1ac24:	4689                	li	a3,2
   1ac26:	8eea                	mv	t4,s10
   1ac28:	e4d798e3          	bne	a5,a3,1aa78 <_svfiprintf_r+0x576>
   1ac2c:	0dc10913          	addi	s2,sp,220
   1ac30:	8cca                	mv	s9,s2
   1ac32:	66e2                	ld	a3,24(sp)
   1ac34:	00fb7793          	andi	a5,s6,15
   1ac38:	1cfd                	addi	s9,s9,-1
   1ac3a:	97b6                	add	a5,a5,a3
   1ac3c:	0007c783          	lbu	a5,0(a5)
   1ac40:	004b5b13          	srli	s6,s6,0x4
   1ac44:	00fc8023          	sb	a5,0(s9)
   1ac48:	fe0b15e3          	bnez	s6,1ac32 <_svfiprintf_r+0x730>
   1ac4c:	4199093b          	subw	s2,s2,s9
   1ac50:	8d76                	mv	s10,t4
   1ac52:	b441                	j	1a6d2 <_svfiprintf_r+0x1d0>
   1ac54:	1090                	addi	a2,sp,96
   1ac56:	85d2                	mv	a1,s4
   1ac58:	855e                	mv	a0,s7
   1ac5a:	f4aff0ef          	jal	ra,1a3a4 <__ssprint_r>
   1ac5e:	b40505e3          	beqz	a0,1a7a8 <_svfiprintf_r+0x2a6>
   1ac62:	b2d1                	j	1a626 <_svfiprintf_r+0x124>
   1ac64:	8eea                	mv	t4,s10
   1ac66:	b519                	j	1aa6c <_svfiprintf_r+0x56a>
   1ac68:	4641                	li	a2,16
   1ac6a:	04d65a63          	bge	a2,a3,1acbe <_svfiprintf_r+0x7bc>
   1ac6e:	4fc1                	li	t6,16
   1ac70:	429d                	li	t0,7
   1ac72:	a021                	j	1ac7a <_svfiprintf_r+0x778>
   1ac74:	36c1                	addiw	a3,a3,-16
   1ac76:	04dfd463          	bge	t6,a3,1acbe <_svfiprintf_r+0x7bc>
   1ac7a:	2585                	addiw	a1,a1,1
   1ac7c:	07c1                	addi	a5,a5,16
   1ac7e:	01573023          	sd	s5,0(a4)
   1ac82:	01f73423          	sd	t6,8(a4)
   1ac86:	f8be                	sd	a5,112(sp)
   1ac88:	d4ae                	sw	a1,104(sp)
   1ac8a:	0741                	addi	a4,a4,16
   1ac8c:	feb2d4e3          	bge	t0,a1,1ac74 <_svfiprintf_r+0x772>
   1ac90:	1090                	addi	a2,sp,96
   1ac92:	85d2                	mv	a1,s4
   1ac94:	855e                	mv	a0,s7
   1ac96:	f836                	sd	a3,48(sp)
   1ac98:	f41a                	sd	t1,40(sp)
   1ac9a:	f07a                	sd	t5,32(sp)
   1ac9c:	e476                	sd	t4,8(sp)
   1ac9e:	f06ff0ef          	jal	ra,1a3a4 <__ssprint_r>
   1aca2:	980512e3          	bnez	a0,1a626 <_svfiprintf_r+0x124>
   1aca6:	76c2                	ld	a3,48(sp)
   1aca8:	4fc1                	li	t6,16
   1acaa:	77c6                	ld	a5,112(sp)
   1acac:	36c1                	addiw	a3,a3,-16
   1acae:	55a6                	lw	a1,104(sp)
   1acb0:	874e                	mv	a4,s3
   1acb2:	429d                	li	t0,7
   1acb4:	7322                	ld	t1,40(sp)
   1acb6:	7f02                	ld	t5,32(sp)
   1acb8:	6ea2                	ld	t4,8(sp)
   1acba:	fcdfc0e3          	blt	t6,a3,1ac7a <_svfiprintf_r+0x778>
   1acbe:	97b6                	add	a5,a5,a3
   1acc0:	2585                	addiw	a1,a1,1
   1acc2:	e714                	sd	a3,8(a4)
   1acc4:	01573023          	sd	s5,0(a4)
   1acc8:	f8be                	sd	a5,112(sp)
   1acca:	d4ae                	sw	a1,104(sp)
   1accc:	469d                	li	a3,7
   1acce:	0741                	addi	a4,a4,16
   1acd0:	a2b6dce3          	bge	a3,a1,1a708 <_svfiprintf_r+0x206>
   1acd4:	1090                	addi	a2,sp,96
   1acd6:	85d2                	mv	a1,s4
   1acd8:	855e                	mv	a0,s7
   1acda:	f41a                	sd	t1,40(sp)
   1acdc:	f07a                	sd	t5,32(sp)
   1acde:	e476                	sd	t4,8(sp)
   1ace0:	ec4ff0ef          	jal	ra,1a3a4 <__ssprint_r>
   1ace4:	940511e3          	bnez	a0,1a626 <_svfiprintf_r+0x124>
   1ace8:	77c6                	ld	a5,112(sp)
   1acea:	55a6                	lw	a1,104(sp)
   1acec:	874e                	mv	a4,s3
   1acee:	7322                	ld	t1,40(sp)
   1acf0:	7f02                	ld	t5,32(sp)
   1acf2:	6ea2                	ld	t4,8(sp)
   1acf4:	bc11                	j	1a708 <_svfiprintf_r+0x206>
   1acf6:	1090                	addi	a2,sp,96
   1acf8:	85d2                	mv	a1,s4
   1acfa:	855e                	mv	a0,s7
   1acfc:	f41a                	sd	t1,40(sp)
   1acfe:	f07a                	sd	t5,32(sp)
   1ad00:	e476                	sd	t4,8(sp)
   1ad02:	ea2ff0ef          	jal	ra,1a3a4 <__ssprint_r>
   1ad06:	920510e3          	bnez	a0,1a626 <_svfiprintf_r+0x124>
   1ad0a:	55a6                	lw	a1,104(sp)
   1ad0c:	77c6                	ld	a5,112(sp)
   1ad0e:	1990                	addi	a2,sp,240
   1ad10:	0015851b          	addiw	a0,a1,1
   1ad14:	874e                	mv	a4,s3
   1ad16:	7322                	ld	t1,40(sp)
   1ad18:	7f02                	ld	t5,32(sp)
   1ad1a:	6ea2                	ld	t4,8(sp)
   1ad1c:	b41d                	j	1a742 <_svfiprintf_r+0x240>
   1ad1e:	1090                	addi	a2,sp,96
   1ad20:	85d2                	mv	a1,s4
   1ad22:	855e                	mv	a0,s7
   1ad24:	f01a                	sd	t1,32(sp)
   1ad26:	e47a                	sd	t5,8(sp)
   1ad28:	e7cff0ef          	jal	ra,1a3a4 <__ssprint_r>
   1ad2c:	8e051de3          	bnez	a0,1a626 <_svfiprintf_r+0x124>
   1ad30:	55a6                	lw	a1,104(sp)
   1ad32:	77c6                	ld	a5,112(sp)
   1ad34:	1990                	addi	a2,sp,240
   1ad36:	0015851b          	addiw	a0,a1,1
   1ad3a:	874e                	mv	a4,s3
   1ad3c:	7302                	ld	t1,32(sp)
   1ad3e:	6f22                	ld	t5,8(sp)
   1ad40:	b40d                	j	1a762 <_svfiprintf_r+0x260>
   1ad42:	46c1                	li	a3,16
   1ad44:	5726                	lw	a4,104(sp)
   1ad46:	0526d063          	bge	a3,s2,1ad86 <_svfiprintf_r+0x884>
   1ad4a:	4d41                	li	s10,16
   1ad4c:	4c9d                	li	s9,7
   1ad4e:	a021                	j	1ad56 <_svfiprintf_r+0x854>
   1ad50:	3941                	addiw	s2,s2,-16
   1ad52:	032d5a63          	bge	s10,s2,1ad86 <_svfiprintf_r+0x884>
   1ad56:	2705                	addiw	a4,a4,1
   1ad58:	07c1                	addi	a5,a5,16
   1ad5a:	01563023          	sd	s5,0(a2)
   1ad5e:	01a63423          	sd	s10,8(a2)
   1ad62:	f8be                	sd	a5,112(sp)
   1ad64:	d4ba                	sw	a4,104(sp)
   1ad66:	0641                	addi	a2,a2,16
   1ad68:	feecd4e3          	bge	s9,a4,1ad50 <_svfiprintf_r+0x84e>
   1ad6c:	1090                	addi	a2,sp,96
   1ad6e:	85d2                	mv	a1,s4
   1ad70:	855e                	mv	a0,s7
   1ad72:	e32ff0ef          	jal	ra,1a3a4 <__ssprint_r>
   1ad76:	8a0518e3          	bnez	a0,1a626 <_svfiprintf_r+0x124>
   1ad7a:	3941                	addiw	s2,s2,-16
   1ad7c:	77c6                	ld	a5,112(sp)
   1ad7e:	5726                	lw	a4,104(sp)
   1ad80:	864e                	mv	a2,s3
   1ad82:	fd2d4ae3          	blt	s10,s2,1ad56 <_svfiprintf_r+0x854>
   1ad86:	0017069b          	addiw	a3,a4,1
   1ad8a:	97ca                	add	a5,a5,s2
   1ad8c:	01563023          	sd	s5,0(a2)
   1ad90:	01263423          	sd	s2,8(a2)
   1ad94:	f8be                	sd	a5,112(sp)
   1ad96:	d4b6                	sw	a3,104(sp)
   1ad98:	471d                	li	a4,7
   1ad9a:	9ed75ee3          	bge	a4,a3,1a796 <_svfiprintf_r+0x294>
   1ad9e:	1090                	addi	a2,sp,96
   1ada0:	85d2                	mv	a1,s4
   1ada2:	855e                	mv	a0,s7
   1ada4:	e00ff0ef          	jal	ra,1a3a4 <__ssprint_r>
   1ada8:	86051fe3          	bnez	a0,1a626 <_svfiprintf_r+0x124>
   1adac:	77c6                	ld	a5,112(sp)
   1adae:	b2e5                	j	1a796 <_svfiprintf_r+0x294>
   1adb0:	1e031863          	bnez	t1,1afa0 <_svfiprintf_r+0xa9e>
   1adb4:	4301                	li	t1,0
   1adb6:	4901                	li	s2,0
   1adb8:	0dc10c93          	addi	s9,sp,220
   1adbc:	ba19                	j	1a6d2 <_svfiprintf_r+0x1d0>
   1adbe:	1090                	addi	a2,sp,96
   1adc0:	85d2                	mv	a1,s4
   1adc2:	855e                	mv	a0,s7
   1adc4:	de0ff0ef          	jal	ra,1a3a4 <__ssprint_r>
   1adc8:	84051fe3          	bnez	a0,1a626 <_svfiprintf_r+0x124>
   1adcc:	5526                	lw	a0,104(sp)
   1adce:	77c6                	ld	a5,112(sp)
   1add0:	1990                	addi	a2,sp,240
   1add2:	2505                	addiw	a0,a0,1
   1add4:	874e                	mv	a4,s3
   1add6:	ba71                	j	1a772 <_svfiprintf_r+0x270>
   1add8:	896e                	mv	s2,s11
   1adda:	fdeff06f          	j	1a5b8 <_svfiprintf_r+0xb6>
   1adde:	88ea                	mv	a7,s10
   1ade0:	b6a9                	j	1a92a <_svfiprintf_r+0x428>
   1ade2:	8eea                	mv	t4,s10
   1ade4:	b68d                	j	1a946 <_svfiprintf_r+0x444>
   1ade6:	8eea                	mv	t4,s10
   1ade8:	bc21                	j	1a800 <_svfiprintf_r+0x2fe>
   1adea:	040d7793          	andi	a5,s10,64
   1adee:	000c2b03          	lw	s6,0(s8)
   1adf2:	12078563          	beqz	a5,1af1c <_svfiprintf_r+0xa1a>
   1adf6:	1b42                	slli	s6,s6,0x30
   1adf8:	030b5b13          	srli	s6,s6,0x30
   1adfc:	b89d                	j	1a672 <_svfiprintf_r+0x170>
   1adfe:	8566                	mv	a0,s9
   1ae00:	e43a                	sd	a4,8(sp)
   1ae02:	9b7f70ef          	jal	ra,127b8 <strlen>
   1ae06:	0005091b          	sext.w	s2,a0
   1ae0a:	4301                	li	t1,0
   1ae0c:	6722                	ld	a4,8(sp)
   1ae0e:	b0d1                	j	1a6d2 <_svfiprintf_r+0x1d0>
   1ae10:	04000593          	li	a1,64
   1ae14:	837f60ef          	jal	ra,1164a <_malloc_r>
   1ae18:	00aa3023          	sd	a0,0(s4)
   1ae1c:	00aa3c23          	sd	a0,24(s4)
   1ae20:	1a050b63          	beqz	a0,1afd6 <_svfiprintf_r+0xad4>
   1ae24:	04000793          	li	a5,64
   1ae28:	02fa2023          	sw	a5,32(s4)
   1ae2c:	f0aff06f          	j	1a536 <_svfiprintf_r+0x34>
   1ae30:	400ef893          	andi	a7,t4,1024
   1ae34:	0dc10913          	addi	s2,sp,220
   1ae38:	2881                	sext.w	a7,a7
   1ae3a:	4581                	li	a1,0
   1ae3c:	864a                	mv	a2,s2
   1ae3e:	46a9                	li	a3,10
   1ae40:	4f25                	li	t5,9
   1ae42:	0ff00d13          	li	s10,255
   1ae46:	a039                	j	1ae54 <_svfiprintf_r+0x952>
   1ae48:	02db57b3          	divu	a5,s6,a3
   1ae4c:	e16f70e3          	bgeu	t5,s6,1ac4c <_svfiprintf_r+0x74a>
   1ae50:	8b3e                	mv	s6,a5
   1ae52:	8666                	mv	a2,s9
   1ae54:	fff60c93          	addi	s9,a2,-1
   1ae58:	2585                	addiw	a1,a1,1
   1ae5a:	02db77b3          	remu	a5,s6,a3
   1ae5e:	0307879b          	addiw	a5,a5,48
   1ae62:	fef60fa3          	sb	a5,-1(a2)
   1ae66:	fe0881e3          	beqz	a7,1ae48 <_svfiprintf_r+0x946>
   1ae6a:	77e2                	ld	a5,56(sp)
   1ae6c:	0007c783          	lbu	a5,0(a5)
   1ae70:	fcb79ce3          	bne	a5,a1,1ae48 <_svfiprintf_r+0x946>
   1ae74:	fda78ae3          	beq	a5,s10,1ae48 <_svfiprintf_r+0x946>
   1ae78:	dd6f7ae3          	bgeu	t5,s6,1ac4c <_svfiprintf_r+0x74a>
   1ae7c:	67a6                	ld	a5,72(sp)
   1ae7e:	6586                	ld	a1,64(sp)
   1ae80:	f846                	sd	a7,48(sp)
   1ae82:	40fc8cb3          	sub	s9,s9,a5
   1ae86:	863e                	mv	a2,a5
   1ae88:	8566                	mv	a0,s9
   1ae8a:	f41a                	sd	t1,40(sp)
   1ae8c:	f076                	sd	t4,32(sp)
   1ae8e:	e43a                	sd	a4,8(sp)
   1ae90:	99dfc0ef          	jal	ra,1782c <strncpy>
   1ae94:	7762                	ld	a4,56(sp)
   1ae96:	46a9                	li	a3,10
   1ae98:	02db57b3          	divu	a5,s6,a3
   1ae9c:	00174603          	lbu	a2,1(a4)
   1aea0:	4581                	li	a1,0
   1aea2:	7e82                	ld	t4,32(sp)
   1aea4:	00c03633          	snez	a2,a2
   1aea8:	9732                	add	a4,a4,a2
   1aeaa:	fc3a                	sd	a4,56(sp)
   1aeac:	7322                	ld	t1,40(sp)
   1aeae:	6722                	ld	a4,8(sp)
   1aeb0:	78c2                	ld	a7,48(sp)
   1aeb2:	4f25                	li	t5,9
   1aeb4:	bf71                	j	1ae50 <_svfiprintf_r+0x94e>
   1aeb6:	200d6893          	ori	a7,s10,512
   1aeba:	001dc683          	lbu	a3,1(s11)
   1aebe:	00088d1b          	sext.w	s10,a7
   1aec2:	0d85                	addi	s11,s11,1
   1aec4:	f0cff06f          	j	1a5d0 <_svfiprintf_r+0xce>
   1aec8:	020d6893          	ori	a7,s10,32
   1aecc:	001dc683          	lbu	a3,1(s11)
   1aed0:	00088d1b          	sext.w	s10,a7
   1aed4:	0d85                	addi	s11,s11,1
   1aed6:	efaff06f          	j	1a5d0 <_svfiprintf_r+0xce>
   1aeda:	1090                	addi	a2,sp,96
   1aedc:	85d2                	mv	a1,s4
   1aede:	855e                	mv	a0,s7
   1aee0:	e41a                	sd	t1,8(sp)
   1aee2:	cc2ff0ef          	jal	ra,1a3a4 <__ssprint_r>
   1aee6:	f4051063          	bnez	a0,1a626 <_svfiprintf_r+0x124>
   1aeea:	55a6                	lw	a1,104(sp)
   1aeec:	77c6                	ld	a5,112(sp)
   1aeee:	1990                	addi	a2,sp,240
   1aef0:	0015851b          	addiw	a0,a1,1
   1aef4:	874e                	mv	a4,s3
   1aef6:	6322                	ld	t1,8(sp)
   1aef8:	b88d                	j	1a76a <_svfiprintf_r+0x268>
   1aefa:	0003061b          	sext.w	a2,t1
   1aefe:	4799                	li	a5,6
   1af00:	869a                	mv	a3,t1
   1af02:	00c7f363          	bgeu	a5,a2,1af08 <_svfiprintf_r+0xa06>
   1af06:	4699                	li	a3,6
   1af08:	0006891b          	sext.w	s2,a3
   1af0c:	0001de37          	lui	t3,0x1d
   1af10:	8b4a                	mv	s6,s2
   1af12:	aa0e0c93          	addi	s9,t3,-1376 # 1caa0 <zeroes.4550+0x98>
   1af16:	4301                	li	t1,0
   1af18:	fd0ff06f          	j	1a6e8 <_svfiprintf_r+0x1e6>
   1af1c:	200d7793          	andi	a5,s10,512
   1af20:	c7b5                	beqz	a5,1af8c <_svfiprintf_r+0xa8a>
   1af22:	0ffb7b13          	andi	s6,s6,255
   1af26:	f4cff06f          	j	1a672 <_svfiprintf_r+0x170>
   1af2a:	200d7693          	andi	a3,s10,512
   1af2e:	caa9                	beqz	a3,1af80 <_svfiprintf_r+0xa7e>
   1af30:	0ffb7b13          	andi	s6,s6,255
   1af34:	88ea                	mv	a7,s10
   1af36:	8c3e                	mv	s8,a5
   1af38:	bae5                	j	1a930 <_svfiprintf_r+0x42e>
   1af3a:	200d7793          	andi	a5,s10,512
   1af3e:	cb8d                	beqz	a5,1af70 <_svfiprintf_r+0xa6e>
   1af40:	0ffb7b13          	andi	s6,s6,255
   1af44:	8c36                	mv	s8,a3
   1af46:	8eea                	mv	t4,s10
   1af48:	4785                	li	a5,1
   1af4a:	f52ff06f          	j	1a69c <_svfiprintf_r+0x19a>
   1af4e:	200d7793          	andi	a5,s10,512
   1af52:	cb89                	beqz	a5,1af64 <_svfiprintf_r+0xa62>
   1af54:	000c0b03          	lb	s6,0(s8)
   1af58:	8eea                	mv	t4,s10
   1af5a:	8c36                	mv	s8,a3
   1af5c:	87da                	mv	a5,s6
   1af5e:	bac5                	j	1a94e <_svfiprintf_r+0x44c>
   1af60:	85b2                	mv	a1,a2
   1af62:	b9b5                	j	1abde <_svfiprintf_r+0x6dc>
   1af64:	000c2b03          	lw	s6,0(s8)
   1af68:	8eea                	mv	t4,s10
   1af6a:	8c36                	mv	s8,a3
   1af6c:	87da                	mv	a5,s6
   1af6e:	b2c5                	j	1a94e <_svfiprintf_r+0x44c>
   1af70:	1b02                	slli	s6,s6,0x20
   1af72:	020b5b13          	srli	s6,s6,0x20
   1af76:	8c36                	mv	s8,a3
   1af78:	8eea                	mv	t4,s10
   1af7a:	4785                	li	a5,1
   1af7c:	f20ff06f          	j	1a69c <_svfiprintf_r+0x19a>
   1af80:	1b02                	slli	s6,s6,0x20
   1af82:	020b5b13          	srli	s6,s6,0x20
   1af86:	88ea                	mv	a7,s10
   1af88:	8c3e                	mv	s8,a5
   1af8a:	b25d                	j	1a930 <_svfiprintf_r+0x42e>
   1af8c:	1b02                	slli	s6,s6,0x20
   1af8e:	020b5b13          	srli	s6,s6,0x20
   1af92:	ee0ff06f          	j	1a672 <_svfiprintf_r+0x170>
   1af96:	6782                	ld	a5,0(sp)
   1af98:	00f69023          	sh	a5,0(a3)
   1af9c:	dc4ff06f          	j	1a560 <_svfiprintf_r+0x5e>
   1afa0:	8eea                	mv	t4,s10
   1afa2:	b2e9                	j	1a96c <_svfiprintf_r+0x46a>
   1afa4:	891a                	mv	s2,t1
   1afa6:	4301                	li	t1,0
   1afa8:	f2aff06f          	j	1a6d2 <_svfiprintf_r+0x1d0>
   1afac:	8eb2                	mv	t4,a2
   1afae:	85aa                	mv	a1,a0
   1afb0:	be7d                	j	1ab6e <_svfiprintf_r+0x66c>
   1afb2:	c29c                	sw	a5,0(a3)
   1afb4:	dacff06f          	j	1a560 <_svfiprintf_r+0x5e>
   1afb8:	57fd                	li	a5,-1
   1afba:	e03e                	sd	a5,0(sp)
   1afbc:	e76ff06f          	j	1a632 <_svfiprintf_r+0x130>
   1afc0:	000c2303          	lw	t1,0(s8)
   1afc4:	0c21                	addi	s8,s8,8
   1afc6:	00035363          	bgez	t1,1afcc <_svfiprintf_r+0xaca>
   1afca:	537d                	li	t1,-1
   1afcc:	001dc683          	lbu	a3,1(s11)
   1afd0:	8dbe                	mv	s11,a5
   1afd2:	dfeff06f          	j	1a5d0 <_svfiprintf_r+0xce>
   1afd6:	47b1                	li	a5,12
   1afd8:	00fba023          	sw	a5,0(s7)
   1afdc:	57fd                	li	a5,-1
   1afde:	e03e                	sd	a5,0(sp)
   1afe0:	e52ff06f          	j	1a632 <_svfiprintf_r+0x130>

000000000001afe4 <__swbuf_r>:
   1afe4:	7179                	addi	sp,sp,-48
   1afe6:	f022                	sd	s0,32(sp)
   1afe8:	ec26                	sd	s1,24(sp)
   1afea:	e84a                	sd	s2,16(sp)
   1afec:	f406                	sd	ra,40(sp)
   1afee:	e44e                	sd	s3,8(sp)
   1aff0:	892a                	mv	s2,a0
   1aff2:	84ae                	mv	s1,a1
   1aff4:	8432                	mv	s0,a2
   1aff6:	c119                	beqz	a0,1affc <__swbuf_r+0x18>
   1aff8:	493c                	lw	a5,80(a0)
   1affa:	c3ed                	beqz	a5,1b0dc <__swbuf_r+0xf8>
   1affc:	01041703          	lh	a4,16(s0)
   1b000:	541c                	lw	a5,40(s0)
   1b002:	03071693          	slli	a3,a4,0x30
   1b006:	92c1                	srli	a3,a3,0x30
   1b008:	c45c                	sw	a5,12(s0)
   1b00a:	0086f793          	andi	a5,a3,8
   1b00e:	cbb9                	beqz	a5,1b064 <__swbuf_r+0x80>
   1b010:	6c1c                	ld	a5,24(s0)
   1b012:	cba9                	beqz	a5,1b064 <__swbuf_r+0x80>
   1b014:	0ff4f993          	andi	s3,s1,255
   1b018:	03269613          	slli	a2,a3,0x32
   1b01c:	84ce                	mv	s1,s3
   1b01e:	06065563          	bgez	a2,1b088 <__swbuf_r+0xa4>
   1b022:	6018                	ld	a4,0(s0)
   1b024:	5014                	lw	a3,32(s0)
   1b026:	40f707bb          	subw	a5,a4,a5
   1b02a:	08d7d063          	bge	a5,a3,1b0aa <__swbuf_r+0xc6>
   1b02e:	4454                	lw	a3,12(s0)
   1b030:	00170613          	addi	a2,a4,1
   1b034:	e010                	sd	a2,0(s0)
   1b036:	36fd                	addiw	a3,a3,-1
   1b038:	c454                	sw	a3,12(s0)
   1b03a:	01370023          	sb	s3,0(a4)
   1b03e:	5018                	lw	a4,32(s0)
   1b040:	2785                	addiw	a5,a5,1
   1b042:	08f70663          	beq	a4,a5,1b0ce <__swbuf_r+0xea>
   1b046:	01045783          	lhu	a5,16(s0)
   1b04a:	8b85                	andi	a5,a5,1
   1b04c:	c781                	beqz	a5,1b054 <__swbuf_r+0x70>
   1b04e:	47a9                	li	a5,10
   1b050:	06f48f63          	beq	s1,a5,1b0ce <__swbuf_r+0xea>
   1b054:	70a2                	ld	ra,40(sp)
   1b056:	7402                	ld	s0,32(sp)
   1b058:	8526                	mv	a0,s1
   1b05a:	6942                	ld	s2,16(sp)
   1b05c:	64e2                	ld	s1,24(sp)
   1b05e:	69a2                	ld	s3,8(sp)
   1b060:	6145                	addi	sp,sp,48
   1b062:	8082                	ret
   1b064:	85a2                	mv	a1,s0
   1b066:	854a                	mv	a0,s2
   1b068:	c9af90ef          	jal	ra,14502 <__swsetup_r>
   1b06c:	e535                	bnez	a0,1b0d8 <__swbuf_r+0xf4>
   1b06e:	01041703          	lh	a4,16(s0)
   1b072:	0ff4f993          	andi	s3,s1,255
   1b076:	6c1c                	ld	a5,24(s0)
   1b078:	03071693          	slli	a3,a4,0x30
   1b07c:	92c1                	srli	a3,a3,0x30
   1b07e:	03269613          	slli	a2,a3,0x32
   1b082:	84ce                	mv	s1,s3
   1b084:	f8064fe3          	bltz	a2,1b022 <__swbuf_r+0x3e>
   1b088:	0ac42683          	lw	a3,172(s0)
   1b08c:	6609                	lui	a2,0x2
   1b08e:	8f51                	or	a4,a4,a2
   1b090:	7679                	lui	a2,0xffffe
   1b092:	167d                	addi	a2,a2,-1
   1b094:	8ef1                	and	a3,a3,a2
   1b096:	00e41823          	sh	a4,16(s0)
   1b09a:	6018                	ld	a4,0(s0)
   1b09c:	0ad42623          	sw	a3,172(s0)
   1b0a0:	5014                	lw	a3,32(s0)
   1b0a2:	40f707bb          	subw	a5,a4,a5
   1b0a6:	f8d7c4e3          	blt	a5,a3,1b02e <__swbuf_r+0x4a>
   1b0aa:	85a2                	mv	a1,s0
   1b0ac:	854a                	mv	a0,s2
   1b0ae:	bfaf50ef          	jal	ra,104a8 <_fflush_r>
   1b0b2:	e11d                	bnez	a0,1b0d8 <__swbuf_r+0xf4>
   1b0b4:	6018                	ld	a4,0(s0)
   1b0b6:	4454                	lw	a3,12(s0)
   1b0b8:	4785                	li	a5,1
   1b0ba:	00170613          	addi	a2,a4,1
   1b0be:	36fd                	addiw	a3,a3,-1
   1b0c0:	e010                	sd	a2,0(s0)
   1b0c2:	c454                	sw	a3,12(s0)
   1b0c4:	01370023          	sb	s3,0(a4)
   1b0c8:	5018                	lw	a4,32(s0)
   1b0ca:	f6f71ee3          	bne	a4,a5,1b046 <__swbuf_r+0x62>
   1b0ce:	85a2                	mv	a1,s0
   1b0d0:	854a                	mv	a0,s2
   1b0d2:	bd6f50ef          	jal	ra,104a8 <_fflush_r>
   1b0d6:	dd3d                	beqz	a0,1b054 <__swbuf_r+0x70>
   1b0d8:	54fd                	li	s1,-1
   1b0da:	bfad                	j	1b054 <__swbuf_r+0x70>
   1b0dc:	f46f50ef          	jal	ra,10822 <__sinit>
   1b0e0:	bf31                	j	1affc <__swbuf_r+0x18>

000000000001b0e2 <__swbuf>:
   1b0e2:	862e                	mv	a2,a1
   1b0e4:	85aa                	mv	a1,a0
   1b0e6:	7581b503          	ld	a0,1880(gp) # 1f6e8 <_impure_ptr>
   1b0ea:	efbff06f          	j	1afe4 <__swbuf_r>

000000000001b0ee <_wcrtomb_r>:
   1b0ee:	7581b783          	ld	a5,1880(gp) # 1f6e8 <_impure_ptr>
   1b0f2:	7179                	addi	sp,sp,-48
   1b0f4:	f022                	sd	s0,32(sp)
   1b0f6:	ec26                	sd	s1,24(sp)
   1b0f8:	f406                	sd	ra,40(sp)
   1b0fa:	842a                	mv	s0,a0
   1b0fc:	84b6                	mv	s1,a3
   1b0fe:	67bc                	ld	a5,72(a5)
   1b100:	c18d                	beqz	a1,1b122 <_wcrtomb_r+0x34>
   1b102:	cf89                	beqz	a5,1b11c <_wcrtomb_r+0x2e>
   1b104:	73fc                	ld	a5,224(a5)
   1b106:	86a6                	mv	a3,s1
   1b108:	8522                	mv	a0,s0
   1b10a:	9782                	jalr	a5
   1b10c:	57fd                	li	a5,-1
   1b10e:	02f50463          	beq	a0,a5,1b136 <_wcrtomb_r+0x48>
   1b112:	70a2                	ld	ra,40(sp)
   1b114:	7402                	ld	s0,32(sp)
   1b116:	64e2                	ld	s1,24(sp)
   1b118:	6145                	addi	sp,sp,48
   1b11a:	8082                	ret
   1b11c:	57018793          	addi	a5,gp,1392 # 1f500 <__global_locale>
   1b120:	b7d5                	j	1b104 <_wcrtomb_r+0x16>
   1b122:	c785                	beqz	a5,1b14a <_wcrtomb_r+0x5c>
   1b124:	73fc                	ld	a5,224(a5)
   1b126:	86a6                	mv	a3,s1
   1b128:	4601                	li	a2,0
   1b12a:	858a                	mv	a1,sp
   1b12c:	8522                	mv	a0,s0
   1b12e:	9782                	jalr	a5
   1b130:	57fd                	li	a5,-1
   1b132:	fef510e3          	bne	a0,a5,1b112 <_wcrtomb_r+0x24>
   1b136:	0004a023          	sw	zero,0(s1)
   1b13a:	08a00793          	li	a5,138
   1b13e:	c01c                	sw	a5,0(s0)
   1b140:	70a2                	ld	ra,40(sp)
   1b142:	7402                	ld	s0,32(sp)
   1b144:	64e2                	ld	s1,24(sp)
   1b146:	6145                	addi	sp,sp,48
   1b148:	8082                	ret
   1b14a:	57018793          	addi	a5,gp,1392 # 1f500 <__global_locale>
   1b14e:	bfd9                	j	1b124 <_wcrtomb_r+0x36>

000000000001b150 <wcrtomb>:
   1b150:	7179                	addi	sp,sp,-48
   1b152:	f022                	sd	s0,32(sp)
   1b154:	7581b403          	ld	s0,1880(gp) # 1f6e8 <_impure_ptr>
   1b158:	ec26                	sd	s1,24(sp)
   1b15a:	f406                	sd	ra,40(sp)
   1b15c:	84b2                	mv	s1,a2
   1b15e:	643c                	ld	a5,72(s0)
   1b160:	c11d                	beqz	a0,1b186 <wcrtomb+0x36>
   1b162:	cf99                	beqz	a5,1b180 <wcrtomb+0x30>
   1b164:	73fc                	ld	a5,224(a5)
   1b166:	862e                	mv	a2,a1
   1b168:	86a6                	mv	a3,s1
   1b16a:	85aa                	mv	a1,a0
   1b16c:	8522                	mv	a0,s0
   1b16e:	9782                	jalr	a5
   1b170:	57fd                	li	a5,-1
   1b172:	02f50463          	beq	a0,a5,1b19a <wcrtomb+0x4a>
   1b176:	70a2                	ld	ra,40(sp)
   1b178:	7402                	ld	s0,32(sp)
   1b17a:	64e2                	ld	s1,24(sp)
   1b17c:	6145                	addi	sp,sp,48
   1b17e:	8082                	ret
   1b180:	57018793          	addi	a5,gp,1392 # 1f500 <__global_locale>
   1b184:	b7c5                	j	1b164 <wcrtomb+0x14>
   1b186:	c785                	beqz	a5,1b1ae <wcrtomb+0x5e>
   1b188:	73fc                	ld	a5,224(a5)
   1b18a:	86a6                	mv	a3,s1
   1b18c:	4601                	li	a2,0
   1b18e:	858a                	mv	a1,sp
   1b190:	8522                	mv	a0,s0
   1b192:	9782                	jalr	a5
   1b194:	57fd                	li	a5,-1
   1b196:	fef510e3          	bne	a0,a5,1b176 <wcrtomb+0x26>
   1b19a:	0004a023          	sw	zero,0(s1)
   1b19e:	08a00793          	li	a5,138
   1b1a2:	c01c                	sw	a5,0(s0)
   1b1a4:	70a2                	ld	ra,40(sp)
   1b1a6:	7402                	ld	s0,32(sp)
   1b1a8:	64e2                	ld	s1,24(sp)
   1b1aa:	6145                	addi	sp,sp,48
   1b1ac:	8082                	ret
   1b1ae:	57018793          	addi	a5,gp,1392 # 1f500 <__global_locale>
   1b1b2:	bfd9                	j	1b188 <wcrtomb+0x38>

000000000001b1b4 <_close>:
   1b1b4:	4581                	li	a1,0
   1b1b6:	4601                	li	a2,0
   1b1b8:	4681                	li	a3,0
   1b1ba:	4701                	li	a4,0
   1b1bc:	4781                	li	a5,0
   1b1be:	03900893          	li	a7,57
   1b1c2:	00000073          	ecall
   1b1c6:	00054463          	bltz	a0,1b1ce <_close+0x1a>
   1b1ca:	2501                	sext.w	a0,a0
   1b1cc:	8082                	ret
   1b1ce:	1141                	addi	sp,sp,-16
   1b1d0:	e022                	sd	s0,0(sp)
   1b1d2:	e406                	sd	ra,8(sp)
   1b1d4:	842a                	mv	s0,a0
   1b1d6:	264000ef          	jal	ra,1b43a <__errno>
   1b1da:	408007bb          	negw	a5,s0
   1b1de:	60a2                	ld	ra,8(sp)
   1b1e0:	6402                	ld	s0,0(sp)
   1b1e2:	c11c                	sw	a5,0(a0)
   1b1e4:	557d                	li	a0,-1
   1b1e6:	0141                	addi	sp,sp,16
   1b1e8:	8082                	ret

000000000001b1ea <_exit>:
   1b1ea:	4581                	li	a1,0
   1b1ec:	4601                	li	a2,0
   1b1ee:	4681                	li	a3,0
   1b1f0:	4701                	li	a4,0
   1b1f2:	4781                	li	a5,0
   1b1f4:	05d00893          	li	a7,93
   1b1f8:	00000073          	ecall
   1b1fc:	00054363          	bltz	a0,1b202 <_exit+0x18>
   1b200:	a001                	j	1b200 <_exit+0x16>
   1b202:	1141                	addi	sp,sp,-16
   1b204:	e022                	sd	s0,0(sp)
   1b206:	842a                	mv	s0,a0
   1b208:	e406                	sd	ra,8(sp)
   1b20a:	4080043b          	negw	s0,s0
   1b20e:	22c000ef          	jal	ra,1b43a <__errno>
   1b212:	c100                	sw	s0,0(a0)
   1b214:	a001                	j	1b214 <_exit+0x2a>

000000000001b216 <_fstat>:
   1b216:	7135                	addi	sp,sp,-160
   1b218:	e526                	sd	s1,136(sp)
   1b21a:	ed06                	sd	ra,152(sp)
   1b21c:	84ae                	mv	s1,a1
   1b21e:	e922                	sd	s0,144(sp)
   1b220:	4601                	li	a2,0
   1b222:	858a                	mv	a1,sp
   1b224:	4681                	li	a3,0
   1b226:	4701                	li	a4,0
   1b228:	4781                	li	a5,0
   1b22a:	05000893          	li	a7,80
   1b22e:	00000073          	ecall
   1b232:	842a                	mv	s0,a0
   1b234:	00054e63          	bltz	a0,1b250 <_fstat+0x3a>
   1b238:	0005041b          	sext.w	s0,a0
   1b23c:	8526                	mv	a0,s1
   1b23e:	858a                	mv	a1,sp
   1b240:	1a0000ef          	jal	ra,1b3e0 <_conv_stat>
   1b244:	8522                	mv	a0,s0
   1b246:	60ea                	ld	ra,152(sp)
   1b248:	644a                	ld	s0,144(sp)
   1b24a:	64aa                	ld	s1,136(sp)
   1b24c:	610d                	addi	sp,sp,160
   1b24e:	8082                	ret
   1b250:	4080043b          	negw	s0,s0
   1b254:	1e6000ef          	jal	ra,1b43a <__errno>
   1b258:	c100                	sw	s0,0(a0)
   1b25a:	547d                	li	s0,-1
   1b25c:	b7c5                	j	1b23c <_fstat+0x26>

000000000001b25e <_isatty>:
   1b25e:	7119                	addi	sp,sp,-128
   1b260:	002c                	addi	a1,sp,8
   1b262:	fc86                	sd	ra,120(sp)
   1b264:	fb3ff0ef          	jal	ra,1b216 <_fstat>
   1b268:	57fd                	li	a5,-1
   1b26a:	00f50963          	beq	a0,a5,1b27c <_isatty+0x1e>
   1b26e:	4532                	lw	a0,12(sp)
   1b270:	70e6                	ld	ra,120(sp)
   1b272:	40d5551b          	sraiw	a0,a0,0xd
   1b276:	8905                	andi	a0,a0,1
   1b278:	6109                	addi	sp,sp,128
   1b27a:	8082                	ret
   1b27c:	70e6                	ld	ra,120(sp)
   1b27e:	4501                	li	a0,0
   1b280:	6109                	addi	sp,sp,128
   1b282:	8082                	ret

000000000001b284 <_lseek>:
   1b284:	1141                	addi	sp,sp,-16
   1b286:	e406                	sd	ra,8(sp)
   1b288:	e022                	sd	s0,0(sp)
   1b28a:	4681                	li	a3,0
   1b28c:	4701                	li	a4,0
   1b28e:	4781                	li	a5,0
   1b290:	03e00893          	li	a7,62
   1b294:	00000073          	ecall
   1b298:	842a                	mv	s0,a0
   1b29a:	00054763          	bltz	a0,1b2a8 <_lseek+0x24>
   1b29e:	8522                	mv	a0,s0
   1b2a0:	60a2                	ld	ra,8(sp)
   1b2a2:	6402                	ld	s0,0(sp)
   1b2a4:	0141                	addi	sp,sp,16
   1b2a6:	8082                	ret
   1b2a8:	4080043b          	negw	s0,s0
   1b2ac:	18e000ef          	jal	ra,1b43a <__errno>
   1b2b0:	c100                	sw	s0,0(a0)
   1b2b2:	547d                	li	s0,-1
   1b2b4:	b7ed                	j	1b29e <_lseek+0x1a>

000000000001b2b6 <_open>:
   1b2b6:	4681                	li	a3,0
   1b2b8:	4701                	li	a4,0
   1b2ba:	4781                	li	a5,0
   1b2bc:	40000893          	li	a7,1024
   1b2c0:	00000073          	ecall
   1b2c4:	00054463          	bltz	a0,1b2cc <_open+0x16>
   1b2c8:	2501                	sext.w	a0,a0
   1b2ca:	8082                	ret
   1b2cc:	1141                	addi	sp,sp,-16
   1b2ce:	e022                	sd	s0,0(sp)
   1b2d0:	e406                	sd	ra,8(sp)
   1b2d2:	842a                	mv	s0,a0
   1b2d4:	166000ef          	jal	ra,1b43a <__errno>
   1b2d8:	408007bb          	negw	a5,s0
   1b2dc:	60a2                	ld	ra,8(sp)
   1b2de:	6402                	ld	s0,0(sp)
   1b2e0:	c11c                	sw	a5,0(a0)
   1b2e2:	557d                	li	a0,-1
   1b2e4:	0141                	addi	sp,sp,16
   1b2e6:	8082                	ret

000000000001b2e8 <_read>:
   1b2e8:	1141                	addi	sp,sp,-16
   1b2ea:	e406                	sd	ra,8(sp)
   1b2ec:	e022                	sd	s0,0(sp)
   1b2ee:	4681                	li	a3,0
   1b2f0:	4701                	li	a4,0
   1b2f2:	4781                	li	a5,0
   1b2f4:	03f00893          	li	a7,63
   1b2f8:	00000073          	ecall
   1b2fc:	842a                	mv	s0,a0
   1b2fe:	00054763          	bltz	a0,1b30c <_read+0x24>
   1b302:	8522                	mv	a0,s0
   1b304:	60a2                	ld	ra,8(sp)
   1b306:	6402                	ld	s0,0(sp)
   1b308:	0141                	addi	sp,sp,16
   1b30a:	8082                	ret
   1b30c:	4080043b          	negw	s0,s0
   1b310:	12a000ef          	jal	ra,1b43a <__errno>
   1b314:	c100                	sw	s0,0(a0)
   1b316:	547d                	li	s0,-1
   1b318:	b7ed                	j	1b302 <_read+0x1a>

000000000001b31a <_sbrk>:
   1b31a:	7179                	addi	sp,sp,-48
   1b31c:	e84a                	sd	s2,16(sp)
   1b31e:	7901b783          	ld	a5,1936(gp) # 1f720 <heap_end.1888>
   1b322:	ec26                	sd	s1,24(sp)
   1b324:	f406                	sd	ra,40(sp)
   1b326:	f022                	sd	s0,32(sp)
   1b328:	84aa                	mv	s1,a0
   1b32a:	ef99                	bnez	a5,1b348 <_sbrk+0x2e>
   1b32c:	4501                	li	a0,0
   1b32e:	4581                	li	a1,0
   1b330:	4601                	li	a2,0
   1b332:	4681                	li	a3,0
   1b334:	4701                	li	a4,0
   1b336:	0d600893          	li	a7,214
   1b33a:	00000073          	ecall
   1b33e:	87aa                	mv	a5,a0
   1b340:	04054763          	bltz	a0,1b38e <_sbrk+0x74>
   1b344:	78a1b823          	sd	a0,1936(gp) # 1f720 <heap_end.1888>
   1b348:	00f48533          	add	a0,s1,a5
   1b34c:	4581                	li	a1,0
   1b34e:	4601                	li	a2,0
   1b350:	4681                	li	a3,0
   1b352:	4701                	li	a4,0
   1b354:	4781                	li	a5,0
   1b356:	0d600893          	li	a7,214
   1b35a:	00000073          	ecall
   1b35e:	842a                	mv	s0,a0
   1b360:	04054063          	bltz	a0,1b3a0 <_sbrk+0x86>
   1b364:	7901b783          	ld	a5,1936(gp) # 1f720 <heap_end.1888>
   1b368:	557d                	li	a0,-1
   1b36a:	94be                	add	s1,s1,a5
   1b36c:	00848863          	beq	s1,s0,1b37c <_sbrk+0x62>
   1b370:	70a2                	ld	ra,40(sp)
   1b372:	7402                	ld	s0,32(sp)
   1b374:	64e2                	ld	s1,24(sp)
   1b376:	6942                	ld	s2,16(sp)
   1b378:	6145                	addi	sp,sp,48
   1b37a:	8082                	ret
   1b37c:	7881b823          	sd	s0,1936(gp) # 1f720 <heap_end.1888>
   1b380:	70a2                	ld	ra,40(sp)
   1b382:	7402                	ld	s0,32(sp)
   1b384:	64e2                	ld	s1,24(sp)
   1b386:	6942                	ld	s2,16(sp)
   1b388:	853e                	mv	a0,a5
   1b38a:	6145                	addi	sp,sp,48
   1b38c:	8082                	ret
   1b38e:	e42a                	sd	a0,8(sp)
   1b390:	0aa000ef          	jal	ra,1b43a <__errno>
   1b394:	67a2                	ld	a5,8(sp)
   1b396:	40f007bb          	negw	a5,a5
   1b39a:	c11c                	sw	a5,0(a0)
   1b39c:	557d                	li	a0,-1
   1b39e:	bfc9                	j	1b370 <_sbrk+0x56>
   1b3a0:	4080043b          	negw	s0,s0
   1b3a4:	096000ef          	jal	ra,1b43a <__errno>
   1b3a8:	c100                	sw	s0,0(a0)
   1b3aa:	547d                	li	s0,-1
   1b3ac:	bf65                	j	1b364 <_sbrk+0x4a>

000000000001b3ae <_write>:
   1b3ae:	1141                	addi	sp,sp,-16
   1b3b0:	e406                	sd	ra,8(sp)
   1b3b2:	e022                	sd	s0,0(sp)
   1b3b4:	4681                	li	a3,0
   1b3b6:	4701                	li	a4,0
   1b3b8:	4781                	li	a5,0
   1b3ba:	04000893          	li	a7,64
   1b3be:	00000073          	ecall
   1b3c2:	842a                	mv	s0,a0
   1b3c4:	00054763          	bltz	a0,1b3d2 <_write+0x24>
   1b3c8:	8522                	mv	a0,s0
   1b3ca:	60a2                	ld	ra,8(sp)
   1b3cc:	6402                	ld	s0,0(sp)
   1b3ce:	0141                	addi	sp,sp,16
   1b3d0:	8082                	ret
   1b3d2:	4080043b          	negw	s0,s0
   1b3d6:	064000ef          	jal	ra,1b43a <__errno>
   1b3da:	c100                	sw	s0,0(a0)
   1b3dc:	547d                	li	s0,-1
   1b3de:	b7ed                	j	1b3c8 <_write+0x1a>

000000000001b3e0 <_conv_stat>:
   1b3e0:	0005b383          	ld	t2,0(a1)
   1b3e4:	0085b283          	ld	t0,8(a1)
   1b3e8:	0105af83          	lw	t6,16(a1)
   1b3ec:	0145af03          	lw	t5,20(a1)
   1b3f0:	0185ae83          	lw	t4,24(a1)
   1b3f4:	01c5ae03          	lw	t3,28(a1)
   1b3f8:	0205b303          	ld	t1,32(a1)
   1b3fc:	0305b883          	ld	a7,48(a1)
   1b400:	0405b803          	ld	a6,64(a1)
   1b404:	5d90                	lw	a2,56(a1)
   1b406:	65b4                	ld	a3,72(a1)
   1b408:	6db8                	ld	a4,88(a1)
   1b40a:	75bc                	ld	a5,104(a1)
   1b40c:	00751023          	sh	t2,0(a0)
   1b410:	00551123          	sh	t0,2(a0)
   1b414:	01f52223          	sw	t6,4(a0)
   1b418:	01e51423          	sh	t5,8(a0)
   1b41c:	01d51523          	sh	t4,10(a0)
   1b420:	01c51623          	sh	t3,12(a0)
   1b424:	00651723          	sh	t1,14(a0)
   1b428:	01153823          	sd	a7,16(a0)
   1b42c:	05053823          	sd	a6,80(a0)
   1b430:	e530                	sd	a2,72(a0)
   1b432:	ed14                	sd	a3,24(a0)
   1b434:	f518                	sd	a4,40(a0)
   1b436:	fd1c                	sd	a5,56(a0)
   1b438:	8082                	ret

000000000001b43a <__errno>:
   1b43a:	7581b503          	ld	a0,1880(gp) # 1f6e8 <_impure_ptr>
   1b43e:	8082                	ret

000000000001b440 <__eqtf2>:
   1b440:	002027f3          	frrm	a5
   1b444:	6721                	lui	a4,0x8
   1b446:	0305d893          	srli	a7,a1,0x30
   1b44a:	177d                	addi	a4,a4,-1
   1b44c:	57fd                	li	a5,-1
   1b44e:	83c1                	srli	a5,a5,0x10
   1b450:	0306d313          	srli	t1,a3,0x30
   1b454:	00e8f8b3          	and	a7,a7,a4
   1b458:	00f5f833          	and	a6,a1,a5
   1b45c:	00e37333          	and	t1,t1,a4
   1b460:	8ff5                	and	a5,a5,a3
   1b462:	91fd                	srli	a1,a1,0x3f
   1b464:	92fd                	srli	a3,a3,0x3f
   1b466:	00e89963          	bne	a7,a4,1b478 <__eqtf2+0x38>
   1b46a:	00a86733          	or	a4,a6,a0
   1b46e:	e739                	bnez	a4,1b4bc <__eqtf2+0x7c>
   1b470:	4705                	li	a4,1
   1b472:	03131763          	bne	t1,a7,1b4a0 <__eqtf2+0x60>
   1b476:	a019                	j	1b47c <__eqtf2+0x3c>
   1b478:	00e31563          	bne	t1,a4,1b482 <__eqtf2+0x42>
   1b47c:	00c7e733          	or	a4,a5,a2
   1b480:	e71d                	bnez	a4,1b4ae <__eqtf2+0x6e>
   1b482:	4705                	li	a4,1
   1b484:	00689e63          	bne	a7,t1,1b4a0 <__eqtf2+0x60>
   1b488:	00f81c63          	bne	a6,a5,1b4a0 <__eqtf2+0x60>
   1b48c:	00c51a63          	bne	a0,a2,1b4a0 <__eqtf2+0x60>
   1b490:	00d58a63          	beq	a1,a3,1b4a4 <__eqtf2+0x64>
   1b494:	00089663          	bnez	a7,1b4a0 <__eqtf2+0x60>
   1b498:	00a86733          	or	a4,a6,a0
   1b49c:	00e03733          	snez	a4,a4
   1b4a0:	853a                	mv	a0,a4
   1b4a2:	8082                	ret
   1b4a4:	4701                	li	a4,0
   1b4a6:	bfed                	j	1b4a0 <__eqtf2+0x60>
   1b4a8:	00186073          	csrsi	fflags,16
   1b4ac:	a02d                	j	1b4d6 <__eqtf2+0x96>
   1b4ae:	6721                	lui	a4,0x8
   1b4b0:	177d                	addi	a4,a4,-1
   1b4b2:	02e89063          	bne	a7,a4,1b4d2 <__eqtf2+0x92>
   1b4b6:	00a86733          	or	a4,a6,a0
   1b4ba:	cf01                	beqz	a4,1b4d2 <__eqtf2+0x92>
   1b4bc:	02f85813          	srli	a6,a6,0x2f
   1b4c0:	fe0804e3          	beqz	a6,1b4a8 <__eqtf2+0x68>
   1b4c4:	6721                	lui	a4,0x8
   1b4c6:	177d                	addi	a4,a4,-1
   1b4c8:	4505                	li	a0,1
   1b4ca:	00e31863          	bne	t1,a4,1b4da <__eqtf2+0x9a>
   1b4ce:	8e5d                	or	a2,a2,a5
   1b4d0:	c609                	beqz	a2,1b4da <__eqtf2+0x9a>
   1b4d2:	93bd                	srli	a5,a5,0x2f
   1b4d4:	dbf1                	beqz	a5,1b4a8 <__eqtf2+0x68>
   1b4d6:	4505                	li	a0,1
   1b4d8:	8082                	ret
   1b4da:	8082                	ret

000000000001b4dc <__getf2>:
   1b4dc:	002027f3          	frrm	a5
   1b4e0:	68a1                	lui	a7,0x8
   1b4e2:	0305d813          	srli	a6,a1,0x30
   1b4e6:	18fd                	addi	a7,a7,-1
   1b4e8:	57fd                	li	a5,-1
   1b4ea:	83c1                	srli	a5,a5,0x10
   1b4ec:	0306d713          	srli	a4,a3,0x30
   1b4f0:	01187833          	and	a6,a6,a7
   1b4f4:	00f5f333          	and	t1,a1,a5
   1b4f8:	01177733          	and	a4,a4,a7
   1b4fc:	8ff5                	and	a5,a5,a3
   1b4fe:	91fd                	srli	a1,a1,0x3f
   1b500:	92fd                	srli	a3,a3,0x3f
   1b502:	01181a63          	bne	a6,a7,1b516 <__getf2+0x3a>
   1b506:	00a368b3          	or	a7,t1,a0
   1b50a:	06088b63          	beqz	a7,1b580 <__getf2+0xa4>
   1b50e:	00186073          	csrsi	fflags,16
   1b512:	55f9                	li	a1,-2
   1b514:	a835                	j	1b550 <__getf2+0x74>
   1b516:	01171663          	bne	a4,a7,1b522 <__getf2+0x46>
   1b51a:	00c7e8b3          	or	a7,a5,a2
   1b51e:	fe0898e3          	bnez	a7,1b50e <__getf2+0x32>
   1b522:	06081163          	bnez	a6,1b584 <__getf2+0xa8>
   1b526:	00a368b3          	or	a7,t1,a0
   1b52a:	0018b893          	seqz	a7,a7
   1b52e:	e709                	bnez	a4,1b538 <__getf2+0x5c>
   1b530:	00c7ee33          	or	t3,a5,a2
   1b534:	040e0063          	beqz	t3,1b574 <__getf2+0x98>
   1b538:	00089963          	bnez	a7,1b54a <__getf2+0x6e>
   1b53c:	00d59463          	bne	a1,a3,1b544 <__getf2+0x68>
   1b540:	01075a63          	bge	a4,a6,1b554 <__getf2+0x78>
   1b544:	c595                	beqz	a1,1b570 <__getf2+0x94>
   1b546:	55fd                	li	a1,-1
   1b548:	a021                	j	1b550 <__getf2+0x74>
   1b54a:	55fd                	li	a1,-1
   1b54c:	c291                	beqz	a3,1b550 <__getf2+0x74>
   1b54e:	85b6                	mv	a1,a3
   1b550:	852e                	mv	a0,a1
   1b552:	8082                	ret
   1b554:	00e85463          	bge	a6,a4,1b55c <__getf2+0x80>
   1b558:	fde5                	bnez	a1,1b550 <__getf2+0x74>
   1b55a:	b7f5                	j	1b546 <__getf2+0x6a>
   1b55c:	fe67e4e3          	bltu	a5,t1,1b544 <__getf2+0x68>
   1b560:	00f31d63          	bne	t1,a5,1b57a <__getf2+0x9e>
   1b564:	fea660e3          	bltu	a2,a0,1b544 <__getf2+0x68>
   1b568:	fec568e3          	bltu	a0,a2,1b558 <__getf2+0x7c>
   1b56c:	4581                	li	a1,0
   1b56e:	b7cd                	j	1b550 <__getf2+0x74>
   1b570:	4585                	li	a1,1
   1b572:	bff9                	j	1b550 <__getf2+0x74>
   1b574:	fe089ce3          	bnez	a7,1b56c <__getf2+0x90>
   1b578:	b7f1                	j	1b544 <__getf2+0x68>
   1b57a:	fcf36fe3          	bltu	t1,a5,1b558 <__getf2+0x7c>
   1b57e:	b7fd                	j	1b56c <__getf2+0x90>
   1b580:	f9070de3          	beq	a4,a6,1b51a <__getf2+0x3e>
   1b584:	ff45                	bnez	a4,1b53c <__getf2+0x60>
   1b586:	4881                	li	a7,0
   1b588:	b765                	j	1b530 <__getf2+0x54>

000000000001b58a <__letf2>:
   1b58a:	002027f3          	frrm	a5
   1b58e:	68a1                	lui	a7,0x8
   1b590:	0305d813          	srli	a6,a1,0x30
   1b594:	18fd                	addi	a7,a7,-1
   1b596:	57fd                	li	a5,-1
   1b598:	83c1                	srli	a5,a5,0x10
   1b59a:	0306d713          	srli	a4,a3,0x30
   1b59e:	01187833          	and	a6,a6,a7
   1b5a2:	00f5f333          	and	t1,a1,a5
   1b5a6:	01177733          	and	a4,a4,a7
   1b5aa:	8ff5                	and	a5,a5,a3
   1b5ac:	91fd                	srli	a1,a1,0x3f
   1b5ae:	92fd                	srli	a3,a3,0x3f
   1b5b0:	01181a63          	bne	a6,a7,1b5c4 <__letf2+0x3a>
   1b5b4:	00a368b3          	or	a7,t1,a0
   1b5b8:	06088b63          	beqz	a7,1b62e <__letf2+0xa4>
   1b5bc:	00186073          	csrsi	fflags,16
   1b5c0:	4589                	li	a1,2
   1b5c2:	a835                	j	1b5fe <__letf2+0x74>
   1b5c4:	01171663          	bne	a4,a7,1b5d0 <__letf2+0x46>
   1b5c8:	00c7e8b3          	or	a7,a5,a2
   1b5cc:	fe0898e3          	bnez	a7,1b5bc <__letf2+0x32>
   1b5d0:	06081163          	bnez	a6,1b632 <__letf2+0xa8>
   1b5d4:	00a368b3          	or	a7,t1,a0
   1b5d8:	0018b893          	seqz	a7,a7
   1b5dc:	e709                	bnez	a4,1b5e6 <__letf2+0x5c>
   1b5de:	00c7ee33          	or	t3,a5,a2
   1b5e2:	040e0063          	beqz	t3,1b622 <__letf2+0x98>
   1b5e6:	00089963          	bnez	a7,1b5f8 <__letf2+0x6e>
   1b5ea:	00d59463          	bne	a1,a3,1b5f2 <__letf2+0x68>
   1b5ee:	01075a63          	bge	a4,a6,1b602 <__letf2+0x78>
   1b5f2:	c595                	beqz	a1,1b61e <__letf2+0x94>
   1b5f4:	55fd                	li	a1,-1
   1b5f6:	a021                	j	1b5fe <__letf2+0x74>
   1b5f8:	55fd                	li	a1,-1
   1b5fa:	c291                	beqz	a3,1b5fe <__letf2+0x74>
   1b5fc:	85b6                	mv	a1,a3
   1b5fe:	852e                	mv	a0,a1
   1b600:	8082                	ret
   1b602:	00e85463          	bge	a6,a4,1b60a <__letf2+0x80>
   1b606:	fde5                	bnez	a1,1b5fe <__letf2+0x74>
   1b608:	b7f5                	j	1b5f4 <__letf2+0x6a>
   1b60a:	fe67e4e3          	bltu	a5,t1,1b5f2 <__letf2+0x68>
   1b60e:	00f31d63          	bne	t1,a5,1b628 <__letf2+0x9e>
   1b612:	fea660e3          	bltu	a2,a0,1b5f2 <__letf2+0x68>
   1b616:	fec568e3          	bltu	a0,a2,1b606 <__letf2+0x7c>
   1b61a:	4581                	li	a1,0
   1b61c:	b7cd                	j	1b5fe <__letf2+0x74>
   1b61e:	4585                	li	a1,1
   1b620:	bff9                	j	1b5fe <__letf2+0x74>
   1b622:	fe089ce3          	bnez	a7,1b61a <__letf2+0x90>
   1b626:	b7f1                	j	1b5f2 <__letf2+0x68>
   1b628:	fcf36fe3          	bltu	t1,a5,1b606 <__letf2+0x7c>
   1b62c:	b7fd                	j	1b61a <__letf2+0x90>
   1b62e:	f9070de3          	beq	a4,a6,1b5c8 <__letf2+0x3e>
   1b632:	ff45                	bnez	a4,1b5ea <__letf2+0x60>
   1b634:	4881                	li	a7,0
   1b636:	b765                	j	1b5de <__letf2+0x54>

000000000001b638 <__multf3>:
   1b638:	711d                	addi	sp,sp,-96
   1b63a:	f05a                	sd	s6,32(sp)
   1b63c:	e466                	sd	s9,8(sp)
   1b63e:	ec86                	sd	ra,88(sp)
   1b640:	e8a2                	sd	s0,80(sp)
   1b642:	e4a6                	sd	s1,72(sp)
   1b644:	e0ca                	sd	s2,64(sp)
   1b646:	fc4e                	sd	s3,56(sp)
   1b648:	f852                	sd	s4,48(sp)
   1b64a:	f456                	sd	s5,40(sp)
   1b64c:	ec5e                	sd	s7,24(sp)
   1b64e:	e862                	sd	s8,16(sp)
   1b650:	8cb2                	mv	s9,a2
   1b652:	8b36                	mv	s6,a3
   1b654:	002029f3          	frrm	s3
   1b658:	6721                	lui	a4,0x8
   1b65a:	0305da93          	srli	s5,a1,0x30
   1b65e:	177d                	addi	a4,a4,-1
   1b660:	01059913          	slli	s2,a1,0x10
   1b664:	00eaf7b3          	and	a5,s5,a4
   1b668:	2981                	sext.w	s3,s3
   1b66a:	01095913          	srli	s2,s2,0x10
   1b66e:	03f5db93          	srli	s7,a1,0x3f
   1b672:	c79d                	beqz	a5,1b6a0 <__multf3+0x68>
   1b674:	00078a9b          	sext.w	s5,a5
   1b678:	8a2a                	mv	s4,a0
   1b67a:	08ea8463          	beq	s5,a4,1b702 <__multf3+0xca>
   1b67e:	090e                	slli	s2,s2,0x3
   1b680:	03d55713          	srli	a4,a0,0x3d
   1b684:	01276733          	or	a4,a4,s2
   1b688:	7af1                	lui	s5,0xffffc
   1b68a:	4905                	li	s2,1
   1b68c:	194e                	slli	s2,s2,0x33
   1b68e:	0a85                	addi	s5,s5,1
   1b690:	01276933          	or	s2,a4,s2
   1b694:	00351a13          	slli	s4,a0,0x3
   1b698:	9abe                	add	s5,s5,a5
   1b69a:	4c01                	li	s8,0
   1b69c:	4481                	li	s1,0
   1b69e:	a89d                	j	1b714 <__multf3+0xdc>
   1b6a0:	00a967b3          	or	a5,s2,a0
   1b6a4:	842a                	mv	s0,a0
   1b6a6:	cbe1                	beqz	a5,1b776 <__multf3+0x13e>
   1b6a8:	04090163          	beqz	s2,1b6ea <__multf3+0xb2>
   1b6ac:	854a                	mv	a0,s2
   1b6ae:	180010ef          	jal	ra,1c82e <__clzdi2>
   1b6b2:	2501                	sext.w	a0,a0
   1b6b4:	ff150713          	addi	a4,a0,-15
   1b6b8:	03c00693          	li	a3,60
   1b6bc:	0007079b          	sext.w	a5,a4
   1b6c0:	02e6cb63          	blt	a3,a4,1b6f6 <__multf3+0xbe>
   1b6c4:	03d00713          	li	a4,61
   1b6c8:	00378a1b          	addiw	s4,a5,3
   1b6cc:	40f707bb          	subw	a5,a4,a5
   1b6d0:	01491933          	sll	s2,s2,s4
   1b6d4:	00f457b3          	srl	a5,s0,a5
   1b6d8:	0127e933          	or	s2,a5,s2
   1b6dc:	01441a33          	sll	s4,s0,s4
   1b6e0:	7af1                	lui	s5,0xffffc
   1b6e2:	0ac5                	addi	s5,s5,17
   1b6e4:	40aa8ab3          	sub	s5,s5,a0
   1b6e8:	bf4d                	j	1b69a <__multf3+0x62>
   1b6ea:	144010ef          	jal	ra,1c82e <__clzdi2>
   1b6ee:	2501                	sext.w	a0,a0
   1b6f0:	04050513          	addi	a0,a0,64
   1b6f4:	b7c1                	j	1b6b4 <__multf3+0x7c>
   1b6f6:	fc37891b          	addiw	s2,a5,-61
   1b6fa:	01241933          	sll	s2,s0,s2
   1b6fe:	4a01                	li	s4,0
   1b700:	b7c5                	j	1b6e0 <__multf3+0xa8>
   1b702:	00a967b3          	or	a5,s2,a0
   1b706:	cfad                	beqz	a5,1b780 <__multf3+0x148>
   1b708:	01091793          	slli	a5,s2,0x10
   1b70c:	4c0d                	li	s8,3
   1b70e:	44c1                	li	s1,16
   1b710:	f807c6e3          	bltz	a5,1b69c <__multf3+0x64>
   1b714:	6621                	lui	a2,0x8
   1b716:	030b5513          	srli	a0,s6,0x30
   1b71a:	167d                	addi	a2,a2,-1
   1b71c:	010b1413          	slli	s0,s6,0x10
   1b720:	00c57733          	and	a4,a0,a2
   1b724:	87e6                	mv	a5,s9
   1b726:	8041                	srli	s0,s0,0x10
   1b728:	03fb5b13          	srli	s6,s6,0x3f
   1b72c:	cf31                	beqz	a4,1b788 <__multf3+0x150>
   1b72e:	0007051b          	sext.w	a0,a4
   1b732:	0ac50a63          	beq	a0,a2,1b7e6 <__multf3+0x1ae>
   1b736:	040e                	slli	s0,s0,0x3
   1b738:	03dcd693          	srli	a3,s9,0x3d
   1b73c:	8ec1                	or	a3,a3,s0
   1b73e:	7571                	lui	a0,0xffffc
   1b740:	4405                	li	s0,1
   1b742:	144e                	slli	s0,s0,0x33
   1b744:	0505                	addi	a0,a0,1
   1b746:	8c55                	or	s0,s0,a3
   1b748:	003c9793          	slli	a5,s9,0x3
   1b74c:	953a                	add	a0,a0,a4
   1b74e:	4701                	li	a4,0
   1b750:	002c1693          	slli	a3,s8,0x2
   1b754:	8ed9                	or	a3,a3,a4
   1b756:	9aaa                	add	s5,s5,a0
   1b758:	16fd                	addi	a3,a3,-1
   1b75a:	45b9                	li	a1,14
   1b75c:	016bc633          	xor	a2,s7,s6
   1b760:	001a8813          	addi	a6,s5,1 # ffffffffffffc001 <__BSS_END__+0xfffffffffffdc871>
   1b764:	0ed5e563          	bltu	a1,a3,1b84e <__multf3+0x216>
   1b768:	65f5                	lui	a1,0x1d
   1b76a:	068a                	slli	a3,a3,0x2
   1b76c:	44858593          	addi	a1,a1,1096 # 1d448 <zeroes.4512+0x10>
   1b770:	96ae                	add	a3,a3,a1
   1b772:	4294                	lw	a3,0(a3)
   1b774:	8682                	jr	a3
   1b776:	4901                	li	s2,0
   1b778:	4a01                	li	s4,0
   1b77a:	4a81                	li	s5,0
   1b77c:	4c05                	li	s8,1
   1b77e:	bf39                	j	1b69c <__multf3+0x64>
   1b780:	4901                	li	s2,0
   1b782:	4a01                	li	s4,0
   1b784:	4c09                	li	s8,2
   1b786:	bf19                	j	1b69c <__multf3+0x64>
   1b788:	019467b3          	or	a5,s0,s9
   1b78c:	c7bd                	beqz	a5,1b7fa <__multf3+0x1c2>
   1b78e:	cc1d                	beqz	s0,1b7cc <__multf3+0x194>
   1b790:	8522                	mv	a0,s0
   1b792:	09c010ef          	jal	ra,1c82e <__clzdi2>
   1b796:	2501                	sext.w	a0,a0
   1b798:	ff150793          	addi	a5,a0,-15 # ffffffffffffbff1 <__BSS_END__+0xfffffffffffdc861>
   1b79c:	03c00693          	li	a3,60
   1b7a0:	0007871b          	sext.w	a4,a5
   1b7a4:	02f6cb63          	blt	a3,a5,1b7da <__multf3+0x1a2>
   1b7a8:	03d00693          	li	a3,61
   1b7ac:	0037079b          	addiw	a5,a4,3
   1b7b0:	40e6873b          	subw	a4,a3,a4
   1b7b4:	00f41433          	sll	s0,s0,a5
   1b7b8:	00ecd733          	srl	a4,s9,a4
   1b7bc:	8c59                	or	s0,s0,a4
   1b7be:	00fc97b3          	sll	a5,s9,a5
   1b7c2:	7771                	lui	a4,0xffffc
   1b7c4:	0745                	addi	a4,a4,17
   1b7c6:	40a70533          	sub	a0,a4,a0
   1b7ca:	b751                	j	1b74e <__multf3+0x116>
   1b7cc:	8566                	mv	a0,s9
   1b7ce:	060010ef          	jal	ra,1c82e <__clzdi2>
   1b7d2:	2501                	sext.w	a0,a0
   1b7d4:	04050513          	addi	a0,a0,64
   1b7d8:	b7c1                	j	1b798 <__multf3+0x160>
   1b7da:	fc37041b          	addiw	s0,a4,-61
   1b7de:	008c9433          	sll	s0,s9,s0
   1b7e2:	4781                	li	a5,0
   1b7e4:	bff9                	j	1b7c2 <__multf3+0x18a>
   1b7e6:	01946733          	or	a4,s0,s9
   1b7ea:	cf09                	beqz	a4,1b804 <__multf3+0x1cc>
   1b7ec:	01041713          	slli	a4,s0,0x10
   1b7f0:	00074e63          	bltz	a4,1b80c <__multf3+0x1d4>
   1b7f4:	470d                	li	a4,3
   1b7f6:	44c1                	li	s1,16
   1b7f8:	bfa1                	j	1b750 <__multf3+0x118>
   1b7fa:	4401                	li	s0,0
   1b7fc:	4781                	li	a5,0
   1b7fe:	4501                	li	a0,0
   1b800:	4705                	li	a4,1
   1b802:	b7b9                	j	1b750 <__multf3+0x118>
   1b804:	4401                	li	s0,0
   1b806:	4781                	li	a5,0
   1b808:	4709                	li	a4,2
   1b80a:	b799                	j	1b750 <__multf3+0x118>
   1b80c:	470d                	li	a4,3
   1b80e:	b789                	j	1b750 <__multf3+0x118>
   1b810:	4405                	li	s0,1
   1b812:	6721                	lui	a4,0x8
   1b814:	143e                	slli	s0,s0,0x2f
   1b816:	4501                	li	a0,0
   1b818:	177d                	addi	a4,a4,-1
   1b81a:	4601                	li	a2,0
   1b81c:	44c1                	li	s1,16
   1b81e:	0442                	slli	s0,s0,0x10
   1b820:	1746                	slli	a4,a4,0x31
   1b822:	8305                	srli	a4,a4,0x1
   1b824:	8041                	srli	s0,s0,0x10
   1b826:	03f61593          	slli	a1,a2,0x3f
   1b82a:	8c59                	or	s0,s0,a4
   1b82c:	8dc1                	or	a1,a1,s0
   1b82e:	c099                	beqz	s1,1b834 <__multf3+0x1fc>
   1b830:	0014a073          	csrs	fflags,s1
   1b834:	60e6                	ld	ra,88(sp)
   1b836:	6446                	ld	s0,80(sp)
   1b838:	64a6                	ld	s1,72(sp)
   1b83a:	6906                	ld	s2,64(sp)
   1b83c:	79e2                	ld	s3,56(sp)
   1b83e:	7a42                	ld	s4,48(sp)
   1b840:	7aa2                	ld	s5,40(sp)
   1b842:	7b02                	ld	s6,32(sp)
   1b844:	6be2                	ld	s7,24(sp)
   1b846:	6c42                	ld	s8,16(sp)
   1b848:	6ca2                	ld	s9,8(sp)
   1b84a:	6125                	addi	sp,sp,96
   1b84c:	8082                	ret
   1b84e:	557d                	li	a0,-1
   1b850:	9101                	srli	a0,a0,0x20
   1b852:	014903b3          	add	t2,s2,s4
   1b856:	00878fb3          	add	t6,a5,s0
   1b85a:	020a5e93          	srli	t4,s4,0x20
   1b85e:	0207d693          	srli	a3,a5,0x20
   1b862:	0143bf33          	sltu	t5,t2,s4
   1b866:	00ffb2b3          	sltu	t0,t6,a5
   1b86a:	00aa7a33          	and	s4,s4,a0
   1b86e:	8fe9                	and	a5,a5,a0
   1b870:	03478533          	mul	a0,a5,s4
   1b874:	000f0e1b          	sext.w	t3,t5
   1b878:	0002831b          	sext.w	t1,t0
   1b87c:	02fe87b3          	mul	a5,t4,a5
   1b880:	02de8733          	mul	a4,t4,a3
   1b884:	034686b3          	mul	a3,a3,s4
   1b888:	02055a13          	srli	s4,a0,0x20
   1b88c:	96be                	add	a3,a3,a5
   1b88e:	9a36                	add	s4,s4,a3
   1b890:	00fa7563          	bgeu	s4,a5,1b89a <__multf3+0x262>
   1b894:	4785                	li	a5,1
   1b896:	1782                	slli	a5,a5,0x20
   1b898:	973e                	add	a4,a4,a5
   1b89a:	020a5e93          	srli	t4,s4,0x20
   1b89e:	9eba                	add	t4,t4,a4
   1b8a0:	577d                	li	a4,-1
   1b8a2:	9301                	srli	a4,a4,0x20
   1b8a4:	00ea75b3          	and	a1,s4,a4
   1b8a8:	00e3f6b3          	and	a3,t2,a4
   1b8ac:	8d79                	and	a0,a0,a4
   1b8ae:	0203d893          	srli	a7,t2,0x20
   1b8b2:	020fd793          	srli	a5,t6,0x20
   1b8b6:	00eff733          	and	a4,t6,a4
   1b8ba:	1582                	slli	a1,a1,0x20
   1b8bc:	95aa                	add	a1,a1,a0
   1b8be:	02f88b33          	mul	s6,a7,a5
   1b8c2:	02e68533          	mul	a0,a3,a4
   1b8c6:	02d787b3          	mul	a5,a5,a3
   1b8ca:	02e88733          	mul	a4,a7,a4
   1b8ce:	00e786b3          	add	a3,a5,a4
   1b8d2:	02055793          	srli	a5,a0,0x20
   1b8d6:	97b6                	add	a5,a5,a3
   1b8d8:	00e7f563          	bgeu	a5,a4,1b8e2 <__multf3+0x2aa>
   1b8dc:	4705                	li	a4,1
   1b8de:	1702                	slli	a4,a4,0x20
   1b8e0:	9b3a                	add	s6,s6,a4
   1b8e2:	577d                	li	a4,-1
   1b8e4:	9301                	srli	a4,a4,0x20
   1b8e6:	00e7f6b3          	and	a3,a5,a4
   1b8ea:	02045b93          	srli	s7,s0,0x20
   1b8ee:	8d79                	and	a0,a0,a4
   1b8f0:	0207da13          	srli	s4,a5,0x20
   1b8f4:	02095793          	srli	a5,s2,0x20
   1b8f8:	00e97933          	and	s2,s2,a4
   1b8fc:	8f61                	and	a4,a4,s0
   1b8fe:	02e788b3          	mul	a7,a5,a4
   1b902:	1682                	slli	a3,a3,0x20
   1b904:	9536                	add	a0,a0,a3
   1b906:	03270433          	mul	s0,a4,s2
   1b90a:	037787b3          	mul	a5,a5,s7
   1b90e:	032b8bb3          	mul	s7,s7,s2
   1b912:	02045913          	srli	s2,s0,0x20
   1b916:	9bc6                	add	s7,s7,a7
   1b918:	995e                	add	s2,s2,s7
   1b91a:	01197563          	bgeu	s2,a7,1b924 <__multf3+0x2ec>
   1b91e:	4705                	li	a4,1
   1b920:	1702                	slli	a4,a4,0x20
   1b922:	97ba                	add	a5,a5,a4
   1b924:	02095693          	srli	a3,s2,0x20
   1b928:	97b6                	add	a5,a5,a3
   1b92a:	56fd                	li	a3,-1
   1b92c:	9281                	srli	a3,a3,0x20
   1b92e:	8c75                	and	s0,s0,a3
   1b930:	00d97733          	and	a4,s2,a3
   1b934:	01d506b3          	add	a3,a0,t4
   1b938:	01d6b533          	sltu	a0,a3,t4
   1b93c:	00aa08b3          	add	a7,s4,a0
   1b940:	40600333          	neg	t1,t1
   1b944:	98da                	add	a7,a7,s6
   1b946:	007373b3          	and	t2,t1,t2
   1b94a:	1702                	slli	a4,a4,0x20
   1b94c:	93c6                	add	t2,t2,a7
   1b94e:	00a8b533          	sltu	a0,a7,a0
   1b952:	41c00e33          	neg	t3,t3
   1b956:	9722                	add	a4,a4,s0
   1b958:	005f7433          	and	s0,t5,t0
   1b95c:	0113b8b3          	sltu	a7,t2,a7
   1b960:	01fe7fb3          	and	t6,t3,t6
   1b964:	942a                	add	s0,s0,a0
   1b966:	9f9e                	add	t6,t6,t2
   1b968:	9446                	add	s0,s0,a7
   1b96a:	40b688b3          	sub	a7,a3,a1
   1b96e:	41df8533          	sub	a0,t6,t4
   1b972:	0116be33          	sltu	t3,a3,a7
   1b976:	007fb3b3          	sltu	t2,t6,t2
   1b97a:	00afb333          	sltu	t1,t6,a0
   1b97e:	941e                	add	s0,s0,t2
   1b980:	41c50533          	sub	a0,a0,t3
   1b984:	4e01                	li	t3,0
   1b986:	0116f663          	bgeu	a3,a7,1b992 <__multf3+0x35a>
   1b98a:	41fe8fb3          	sub	t6,t4,t6
   1b98e:	001fbe13          	seqz	t3,t6
   1b992:	006e6fb3          	or	t6,t3,t1
   1b996:	40e88333          	sub	t1,a7,a4
   1b99a:	40f506b3          	sub	a3,a0,a5
   1b99e:	943e                	add	s0,s0,a5
   1b9a0:	0068b7b3          	sltu	a5,a7,t1
   1b9a4:	00d53533          	sltu	a0,a0,a3
   1b9a8:	40f707b3          	sub	a5,a4,a5
   1b9ac:	4e01                	li	t3,0
   1b9ae:	0068f463          	bgeu	a7,t1,1b9b6 <__multf3+0x37e>
   1b9b2:	0016be13          	seqz	t3,a3
   1b9b6:	96be                	add	a3,a3,a5
   1b9b8:	00e6b733          	sltu	a4,a3,a4
   1b9bc:	943a                	add	s0,s0,a4
   1b9be:	00ae6533          	or	a0,t3,a0
   1b9c2:	41f40433          	sub	s0,s0,t6
   1b9c6:	8c09                	sub	s0,s0,a0
   1b9c8:	0336d793          	srli	a5,a3,0x33
   1b9cc:	0436                	slli	s0,s0,0xd
   1b9ce:	8c5d                	or	s0,s0,a5
   1b9d0:	00d31793          	slli	a5,t1,0xd
   1b9d4:	8fcd                	or	a5,a5,a1
   1b9d6:	00f037b3          	snez	a5,a5
   1b9da:	03335513          	srli	a0,t1,0x33
   1b9de:	8fc9                	or	a5,a5,a0
   1b9e0:	06b6                	slli	a3,a3,0xd
   1b9e2:	00b41713          	slli	a4,s0,0xb
   1b9e6:	8fd5                	or	a5,a5,a3
   1b9e8:	06075a63          	bgez	a4,1ba5c <__multf3+0x424>
   1b9ec:	0017d713          	srli	a4,a5,0x1
   1b9f0:	8b85                	andi	a5,a5,1
   1b9f2:	03f41513          	slli	a0,s0,0x3f
   1b9f6:	8fd9                	or	a5,a5,a4
   1b9f8:	8fc9                	or	a5,a5,a0
   1b9fa:	8005                	srli	s0,s0,0x1
   1b9fc:	6711                	lui	a4,0x4
   1b9fe:	177d                	addi	a4,a4,-1
   1ba00:	9742                	add	a4,a4,a6
   1ba02:	0ce05263          	blez	a4,1bac6 <__multf3+0x48e>
   1ba06:	0077f693          	andi	a3,a5,7
   1ba0a:	c2a5                	beqz	a3,1ba6a <__multf3+0x432>
   1ba0c:	4689                	li	a3,2
   1ba0e:	0014e493          	ori	s1,s1,1
   1ba12:	04d98b63          	beq	s3,a3,1ba68 <__multf3+0x430>
   1ba16:	468d                	li	a3,3
   1ba18:	04d98463          	beq	s3,a3,1ba60 <__multf3+0x428>
   1ba1c:	04099763          	bnez	s3,1ba6a <__multf3+0x432>
   1ba20:	00f7f693          	andi	a3,a5,15
   1ba24:	4591                	li	a1,4
   1ba26:	04b68263          	beq	a3,a1,1ba6a <__multf3+0x432>
   1ba2a:	00478693          	addi	a3,a5,4
   1ba2e:	00f6b7b3          	sltu	a5,a3,a5
   1ba32:	943e                	add	s0,s0,a5
   1ba34:	87b6                	mv	a5,a3
   1ba36:	a815                	j	1ba6a <__multf3+0x432>
   1ba38:	865e                	mv	a2,s7
   1ba3a:	844a                	mv	s0,s2
   1ba3c:	87d2                	mv	a5,s4
   1ba3e:	8762                	mv	a4,s8
   1ba40:	4689                	li	a3,2
   1ba42:	1ed70063          	beq	a4,a3,1bc22 <__multf3+0x5ea>
   1ba46:	468d                	li	a3,3
   1ba48:	1ed70263          	beq	a4,a3,1bc2c <__multf3+0x5f4>
   1ba4c:	4685                	li	a3,1
   1ba4e:	fad717e3          	bne	a4,a3,1b9fc <__multf3+0x3c4>
   1ba52:	4401                	li	s0,0
   1ba54:	4501                	li	a0,0
   1ba56:	a2c9                	j	1bc18 <__multf3+0x5e0>
   1ba58:	865a                	mv	a2,s6
   1ba5a:	b7dd                	j	1ba40 <__multf3+0x408>
   1ba5c:	8856                	mv	a6,s5
   1ba5e:	bf79                	j	1b9fc <__multf3+0x3c4>
   1ba60:	e609                	bnez	a2,1ba6a <__multf3+0x432>
   1ba62:	00878693          	addi	a3,a5,8
   1ba66:	b7e1                	j	1ba2e <__multf3+0x3f6>
   1ba68:	fe6d                	bnez	a2,1ba62 <__multf3+0x42a>
   1ba6a:	00b41693          	slli	a3,s0,0xb
   1ba6e:	0006d863          	bgez	a3,1ba7e <__multf3+0x446>
   1ba72:	577d                	li	a4,-1
   1ba74:	1752                	slli	a4,a4,0x34
   1ba76:	177d                	addi	a4,a4,-1
   1ba78:	8c79                	and	s0,s0,a4
   1ba7a:	6711                	lui	a4,0x4
   1ba7c:	9742                	add	a4,a4,a6
   1ba7e:	66a1                	lui	a3,0x8
   1ba80:	ffe68593          	addi	a1,a3,-2 # 7ffe <register_fini-0x80b2>
   1ba84:	00e5c963          	blt	a1,a4,1ba96 <__multf3+0x45e>
   1ba88:	0037d513          	srli	a0,a5,0x3
   1ba8c:	03d41793          	slli	a5,s0,0x3d
   1ba90:	8d5d                	or	a0,a0,a5
   1ba92:	800d                	srli	s0,s0,0x3
   1ba94:	b369                	j	1b81e <__multf3+0x1e6>
   1ba96:	4789                	li	a5,2
   1ba98:	02f98263          	beq	s3,a5,1babc <__multf3+0x484>
   1ba9c:	478d                	li	a5,3
   1ba9e:	fff68713          	addi	a4,a3,-1
   1baa2:	00f98a63          	beq	s3,a5,1bab6 <__multf3+0x47e>
   1baa6:	00098963          	beqz	s3,1bab8 <__multf3+0x480>
   1baaa:	557d                	li	a0,-1
   1baac:	872e                	mv	a4,a1
   1baae:	0054e493          	ori	s1,s1,5
   1bab2:	842a                	mv	s0,a0
   1bab4:	b3ad                	j	1b81e <__multf3+0x1e6>
   1bab6:	fa75                	bnez	a2,1baaa <__multf3+0x472>
   1bab8:	4501                	li	a0,0
   1baba:	bfd5                	j	1baae <__multf3+0x476>
   1babc:	d67d                	beqz	a2,1baaa <__multf3+0x472>
   1babe:	4501                	li	a0,0
   1bac0:	fff68713          	addi	a4,a3,-1
   1bac4:	b7ed                	j	1baae <__multf3+0x476>
   1bac6:	4685                	li	a3,1
   1bac8:	e731                	bnez	a4,1bb14 <__multf3+0x4dc>
   1baca:	0077f593          	andi	a1,a5,7
   1bace:	86a2                	mv	a3,s0
   1bad0:	cd95                	beqz	a1,1bb0c <__multf3+0x4d4>
   1bad2:	4689                	li	a3,2
   1bad4:	0014e493          	ori	s1,s1,1
   1bad8:	02d98863          	beq	s3,a3,1bb08 <__multf3+0x4d0>
   1badc:	468d                	li	a3,3
   1bade:	02d98063          	beq	s3,a3,1bafe <__multf3+0x4c6>
   1bae2:	86a2                	mv	a3,s0
   1bae4:	02099463          	bnez	s3,1bb0c <__multf3+0x4d4>
   1bae8:	00f7f593          	andi	a1,a5,15
   1baec:	4511                	li	a0,4
   1baee:	00a58f63          	beq	a1,a0,1bb0c <__multf3+0x4d4>
   1baf2:	ffc7b693          	sltiu	a3,a5,-4
   1baf6:	0016c693          	xori	a3,a3,1
   1bafa:	96a2                	add	a3,a3,s0
   1bafc:	a801                	j	1bb0c <__multf3+0x4d4>
   1bafe:	86a2                	mv	a3,s0
   1bb00:	e611                	bnez	a2,1bb0c <__multf3+0x4d4>
   1bb02:	ff87b693          	sltiu	a3,a5,-8
   1bb06:	bfc5                	j	1baf6 <__multf3+0x4be>
   1bb08:	86a2                	mv	a3,s0
   1bb0a:	fe65                	bnez	a2,1bb02 <__multf3+0x4ca>
   1bb0c:	92d1                	srli	a3,a3,0x34
   1bb0e:	0016c693          	xori	a3,a3,1
   1bb12:	8a85                	andi	a3,a3,1
   1bb14:	4805                	li	a6,1
   1bb16:	40e80833          	sub	a6,a6,a4
   1bb1a:	07400713          	li	a4,116
   1bb1e:	0d074663          	blt	a4,a6,1bbea <__multf3+0x5b2>
   1bb22:	03f00593          	li	a1,63
   1bb26:	0008071b          	sext.w	a4,a6
   1bb2a:	0505cb63          	blt	a1,a6,1bb80 <__multf3+0x548>
   1bb2e:	04000593          	li	a1,64
   1bb32:	9d99                	subw	a1,a1,a4
   1bb34:	00b41533          	sll	a0,s0,a1
   1bb38:	00e7d833          	srl	a6,a5,a4
   1bb3c:	00b797b3          	sll	a5,a5,a1
   1bb40:	01056533          	or	a0,a0,a6
   1bb44:	00f037b3          	snez	a5,a5
   1bb48:	8d5d                	or	a0,a0,a5
   1bb4a:	00e45433          	srl	s0,s0,a4
   1bb4e:	00757793          	andi	a5,a0,7
   1bb52:	c3ad                	beqz	a5,1bbb4 <__multf3+0x57c>
   1bb54:	4789                	li	a5,2
   1bb56:	0014e493          	ori	s1,s1,1
   1bb5a:	04f98c63          	beq	s3,a5,1bbb2 <__multf3+0x57a>
   1bb5e:	478d                	li	a5,3
   1bb60:	04f98563          	beq	s3,a5,1bbaa <__multf3+0x572>
   1bb64:	04099863          	bnez	s3,1bbb4 <__multf3+0x57c>
   1bb68:	00f57793          	andi	a5,a0,15
   1bb6c:	4711                	li	a4,4
   1bb6e:	04e78363          	beq	a5,a4,1bbb4 <__multf3+0x57c>
   1bb72:	00450793          	addi	a5,a0,4
   1bb76:	00a7b533          	sltu	a0,a5,a0
   1bb7a:	942a                	add	s0,s0,a0
   1bb7c:	853e                	mv	a0,a5
   1bb7e:	a81d                	j	1bbb4 <__multf3+0x57c>
   1bb80:	fc07051b          	addiw	a0,a4,-64
   1bb84:	04000893          	li	a7,64
   1bb88:	00a45533          	srl	a0,s0,a0
   1bb8c:	4581                	li	a1,0
   1bb8e:	01180863          	beq	a6,a7,1bb9e <__multf3+0x566>
   1bb92:	08000593          	li	a1,128
   1bb96:	40e5873b          	subw	a4,a1,a4
   1bb9a:	00e415b3          	sll	a1,s0,a4
   1bb9e:	8fcd                	or	a5,a5,a1
   1bba0:	00f037b3          	snez	a5,a5
   1bba4:	8d5d                	or	a0,a0,a5
   1bba6:	4401                	li	s0,0
   1bba8:	b75d                	j	1bb4e <__multf3+0x516>
   1bbaa:	e609                	bnez	a2,1bbb4 <__multf3+0x57c>
   1bbac:	00850793          	addi	a5,a0,8
   1bbb0:	b7d9                	j	1bb76 <__multf3+0x53e>
   1bbb2:	fe6d                	bnez	a2,1bbac <__multf3+0x574>
   1bbb4:	00c41793          	slli	a5,s0,0xc
   1bbb8:	0007dc63          	bgez	a5,1bbd0 <__multf3+0x598>
   1bbbc:	0014e493          	ori	s1,s1,1
   1bbc0:	4401                	li	s0,0
   1bbc2:	4501                	li	a0,0
   1bbc4:	4705                	li	a4,1
   1bbc6:	c4068ce3          	beqz	a3,1b81e <__multf3+0x1e6>
   1bbca:	0024e493          	ori	s1,s1,2
   1bbce:	b981                	j	1b81e <__multf3+0x1e6>
   1bbd0:	03d41793          	slli	a5,s0,0x3d
   1bbd4:	810d                	srli	a0,a0,0x3
   1bbd6:	8d5d                	or	a0,a0,a5
   1bbd8:	800d                	srli	s0,s0,0x3
   1bbda:	4701                	li	a4,0
   1bbdc:	c40681e3          	beqz	a3,1b81e <__multf3+0x1e6>
   1bbe0:	0014f793          	andi	a5,s1,1
   1bbe4:	c2078de3          	beqz	a5,1b81e <__multf3+0x1e6>
   1bbe8:	b7cd                	j	1bbca <__multf3+0x592>
   1bbea:	0087e533          	or	a0,a5,s0
   1bbee:	c115                	beqz	a0,1bc12 <__multf3+0x5da>
   1bbf0:	4789                	li	a5,2
   1bbf2:	0014e493          	ori	s1,s1,1
   1bbf6:	02f98363          	beq	s3,a5,1bc1c <__multf3+0x5e4>
   1bbfa:	478d                	li	a5,3
   1bbfc:	00f98763          	beq	s3,a5,1bc0a <__multf3+0x5d2>
   1bc00:	4795                	li	a5,5
   1bc02:	00098663          	beqz	s3,1bc0e <__multf3+0x5d6>
   1bc06:	4785                	li	a5,1
   1bc08:	a019                	j	1bc0e <__multf3+0x5d6>
   1bc0a:	47a5                	li	a5,9
   1bc0c:	fe6d                	bnez	a2,1bc06 <__multf3+0x5ce>
   1bc0e:	0037d513          	srli	a0,a5,0x3
   1bc12:	0024e493          	ori	s1,s1,2
   1bc16:	4401                	li	s0,0
   1bc18:	4701                	li	a4,0
   1bc1a:	b111                	j	1b81e <__multf3+0x1e6>
   1bc1c:	47a5                	li	a5,9
   1bc1e:	fa65                	bnez	a2,1bc0e <__multf3+0x5d6>
   1bc20:	b7dd                	j	1bc06 <__multf3+0x5ce>
   1bc22:	6721                	lui	a4,0x8
   1bc24:	4401                	li	s0,0
   1bc26:	4501                	li	a0,0
   1bc28:	177d                	addi	a4,a4,-1
   1bc2a:	bed5                	j	1b81e <__multf3+0x1e6>
   1bc2c:	4405                	li	s0,1
   1bc2e:	6721                	lui	a4,0x8
   1bc30:	143e                	slli	s0,s0,0x2f
   1bc32:	4501                	li	a0,0
   1bc34:	177d                	addi	a4,a4,-1
   1bc36:	4601                	li	a2,0
   1bc38:	b6dd                	j	1b81e <__multf3+0x1e6>

000000000001bc3a <__subtf3>:
   1bc3a:	7179                	addi	sp,sp,-48
   1bc3c:	f406                	sd	ra,40(sp)
   1bc3e:	f022                	sd	s0,32(sp)
   1bc40:	ec26                	sd	s1,24(sp)
   1bc42:	e84a                	sd	s2,16(sp)
   1bc44:	e44e                	sd	s3,8(sp)
   1bc46:	e052                	sd	s4,0(sp)
   1bc48:	002024f3          	frrm	s1
   1bc4c:	5ffd                	li	t6,-1
   1bc4e:	010fdf93          	srli	t6,t6,0x10
   1bc52:	6f21                	lui	t5,0x8
   1bc54:	0305d893          	srli	a7,a1,0x30
   1bc58:	1f7d                	addi	t5,t5,-1
   1bc5a:	0306d813          	srli	a6,a3,0x30
   1bc5e:	03f5d413          	srli	s0,a1,0x3f
   1bc62:	03f6d313          	srli	t1,a3,0x3f
   1bc66:	01f5f5b3          	and	a1,a1,t6
   1bc6a:	01f6f6b3          	and	a3,a3,t6
   1bc6e:	03d55793          	srli	a5,a0,0x3d
   1bc72:	01e8f8b3          	and	a7,a7,t5
   1bc76:	058e                	slli	a1,a1,0x3
   1bc78:	00351e93          	slli	t4,a0,0x3
   1bc7c:	068e                	slli	a3,a3,0x3
   1bc7e:	03d65513          	srli	a0,a2,0x3d
   1bc82:	01e87833          	and	a6,a6,t5
   1bc86:	2481                	sext.w	s1,s1
   1bc88:	89c6                	mv	s3,a7
   1bc8a:	8ddd                	or	a1,a1,a5
   1bc8c:	8ec9                	or	a3,a3,a0
   1bc8e:	00361e13          	slli	t3,a2,0x3
   1bc92:	01e81563          	bne	a6,t5,1bc9c <__subtf3+0x62>
   1bc96:	01c6e7b3          	or	a5,a3,t3
   1bc9a:	e399                	bnez	a5,1bca0 <__subtf3+0x66>
   1bc9c:	00134313          	xori	t1,t1,1
   1bca0:	410887bb          	subw	a5,a7,a6
   1bca4:	6521                	lui	a0,0x8
   1bca6:	0007871b          	sext.w	a4,a5
   1bcaa:	fff50613          	addi	a2,a0,-1 # 7fff <register_fini-0x80b1>
   1bcae:	30831663          	bne	t1,s0,1bfba <__subtf3+0x380>
   1bcb2:	0ee05e63          	blez	a4,1bdae <__subtf3+0x174>
   1bcb6:	08081263          	bnez	a6,1bd3a <__subtf3+0x100>
   1bcba:	01c6e733          	or	a4,a3,t3
   1bcbe:	ef19                	bnez	a4,1bcdc <__subtf3+0xa2>
   1bcc0:	6ec89963          	bne	a7,a2,1c3b2 <__subtf3+0x778>
   1bcc4:	01d5ee33          	or	t3,a1,t4
   1bcc8:	720e0663          	beqz	t3,1c3f4 <__subtf3+0x7ba>
   1bccc:	00d59793          	slli	a5,a1,0xd
   1bcd0:	86ae                	mv	a3,a1
   1bcd2:	8e76                	mv	t3,t4
   1bcd4:	0407c663          	bltz	a5,1bd20 <__subtf3+0xe6>
   1bcd8:	47c1                	li	a5,16
   1bcda:	aac5                	j	1beca <__subtf3+0x290>
   1bcdc:	fff7871b          	addiw	a4,a5,-1
   1bce0:	e331                	bnez	a4,1bd24 <__subtf3+0xea>
   1bce2:	9e76                	add	t3,t3,t4
   1bce4:	96ae                	add	a3,a3,a1
   1bce6:	01de3eb3          	sltu	t4,t3,t4
   1bcea:	96f6                	add	a3,a3,t4
   1bcec:	00c69793          	slli	a5,a3,0xc
   1bcf0:	6a07dc63          	bgez	a5,1c3a8 <__subtf3+0x76e>
   1bcf4:	67a1                	lui	a5,0x8
   1bcf6:	0985                	addi	s3,s3,1
   1bcf8:	fff78713          	addi	a4,a5,-1 # 7fff <register_fini-0x80b1>
   1bcfc:	28e98c63          	beq	s3,a4,1bf94 <__subtf3+0x35a>
   1bd00:	557d                	li	a0,-1
   1bd02:	154e                	slli	a0,a0,0x33
   1bd04:	157d                	addi	a0,a0,-1
   1bd06:	8d75                	and	a0,a0,a3
   1bd08:	001e5593          	srli	a1,t3,0x1
   1bd0c:	001e7e13          	andi	t3,t3,1
   1bd10:	03f51693          	slli	a3,a0,0x3f
   1bd14:	01c5ee33          	or	t3,a1,t3
   1bd18:	01c6ee33          	or	t3,a3,t3
   1bd1c:	00155693          	srli	a3,a0,0x1
   1bd20:	4701                	li	a4,0
   1bd22:	a415                	j	1bf46 <__subtf3+0x30c>
   1bd24:	02c89063          	bne	a7,a2,1bd44 <__subtf3+0x10a>
   1bd28:	01d5ee33          	or	t3,a1,t4
   1bd2c:	6c0e0463          	beqz	t3,1c3f4 <__subtf3+0x7ba>
   1bd30:	00d59793          	slli	a5,a1,0xd
   1bd34:	86ae                	mv	a3,a1
   1bd36:	8e76                	mv	t3,t4
   1bd38:	a851                	j	1bdcc <__subtf3+0x192>
   1bd3a:	fec887e3          	beq	a7,a2,1bd28 <__subtf3+0xee>
   1bd3e:	4785                	li	a5,1
   1bd40:	17ce                	slli	a5,a5,0x33
   1bd42:	8edd                	or	a3,a3,a5
   1bd44:	07400793          	li	a5,116
   1bd48:	04e7ce63          	blt	a5,a4,1bda4 <__subtf3+0x16a>
   1bd4c:	03f00793          	li	a5,63
   1bd50:	02e7c363          	blt	a5,a4,1bd76 <__subtf3+0x13c>
   1bd54:	04000613          	li	a2,64
   1bd58:	9e19                	subw	a2,a2,a4
   1bd5a:	00c697b3          	sll	a5,a3,a2
   1bd5e:	00ee5533          	srl	a0,t3,a4
   1bd62:	00ce1e33          	sll	t3,t3,a2
   1bd66:	8fc9                	or	a5,a5,a0
   1bd68:	01c03e33          	snez	t3,t3
   1bd6c:	01c7ee33          	or	t3,a5,t3
   1bd70:	00e6d6b3          	srl	a3,a3,a4
   1bd74:	b7bd                	j	1bce2 <__subtf3+0xa8>
   1bd76:	fc07079b          	addiw	a5,a4,-64
   1bd7a:	04000513          	li	a0,64
   1bd7e:	00f6d7b3          	srl	a5,a3,a5
   1bd82:	4601                	li	a2,0
   1bd84:	00a70863          	beq	a4,a0,1bd94 <__subtf3+0x15a>
   1bd88:	08000613          	li	a2,128
   1bd8c:	40e6073b          	subw	a4,a2,a4
   1bd90:	00e69633          	sll	a2,a3,a4
   1bd94:	01c66e33          	or	t3,a2,t3
   1bd98:	01c03e33          	snez	t3,t3
   1bd9c:	01c7ee33          	or	t3,a5,t3
   1bda0:	4681                	li	a3,0
   1bda2:	b781                	j	1bce2 <__subtf3+0xa8>
   1bda4:	01c6ee33          	or	t3,a3,t3
   1bda8:	01c03e33          	snez	t3,t3
   1bdac:	bfd5                	j	1bda0 <__subtf3+0x166>
   1bdae:	cf69                	beqz	a4,1be88 <__subtf3+0x24e>
   1bdb0:	08089063          	bnez	a7,1be30 <__subtf3+0x1f6>
   1bdb4:	01d5e533          	or	a0,a1,t4
   1bdb8:	ed11                	bnez	a0,1bdd4 <__subtf3+0x19a>
   1bdba:	89c2                	mv	s3,a6
   1bdbc:	5ec81663          	bne	a6,a2,1c3a8 <__subtf3+0x76e>
   1bdc0:	01c6e7b3          	or	a5,a3,t3
   1bdc4:	62078063          	beqz	a5,1c3e4 <__subtf3+0x7aa>
   1bdc8:	00d69793          	slli	a5,a3,0xd
   1bdcc:	4701                	li	a4,0
   1bdce:	1607cc63          	bltz	a5,1bf46 <__subtf3+0x30c>
   1bdd2:	b719                	j	1bcd8 <__subtf3+0x9e>
   1bdd4:	557d                	li	a0,-1
   1bdd6:	00a71a63          	bne	a4,a0,1bdea <__subtf3+0x1b0>
   1bdda:	9ef2                	add	t4,t4,t3
   1bddc:	96ae                	add	a3,a3,a1
   1bdde:	01cebe33          	sltu	t3,t4,t3
   1bde2:	96f2                	add	a3,a3,t3
   1bde4:	8e76                	mv	t3,t4
   1bde6:	89c2                	mv	s3,a6
   1bde8:	b711                	j	1bcec <__subtf3+0xb2>
   1bdea:	04c80563          	beq	a6,a2,1be34 <__subtf3+0x1fa>
   1bdee:	fff7c793          	not	a5,a5
   1bdf2:	2781                	sext.w	a5,a5
   1bdf4:	07400713          	li	a4,116
   1bdf8:	08f74363          	blt	a4,a5,1be7e <__subtf3+0x244>
   1bdfc:	03f00713          	li	a4,63
   1be00:	04f74863          	blt	a4,a5,1be50 <__subtf3+0x216>
   1be04:	04000513          	li	a0,64
   1be08:	9d1d                	subw	a0,a0,a5
   1be0a:	00fed633          	srl	a2,t4,a5
   1be0e:	00a59733          	sll	a4,a1,a0
   1be12:	00ae9eb3          	sll	t4,t4,a0
   1be16:	8f51                	or	a4,a4,a2
   1be18:	01d03eb3          	snez	t4,t4
   1be1c:	01d76eb3          	or	t4,a4,t4
   1be20:	00f5d7b3          	srl	a5,a1,a5
   1be24:	9ef2                	add	t4,t4,t3
   1be26:	97b6                	add	a5,a5,a3
   1be28:	01ceb6b3          	sltu	a3,t4,t3
   1be2c:	96be                	add	a3,a3,a5
   1be2e:	bf5d                	j	1bde4 <__subtf3+0x1aa>
   1be30:	00c81a63          	bne	a6,a2,1be44 <__subtf3+0x20a>
   1be34:	01c6e7b3          	or	a5,a3,t3
   1be38:	5a078a63          	beqz	a5,1c3ec <__subtf3+0x7b2>
   1be3c:	00d69793          	slli	a5,a3,0xd
   1be40:	89c2                	mv	s3,a6
   1be42:	b769                	j	1bdcc <__subtf3+0x192>
   1be44:	4705                	li	a4,1
   1be46:	174e                	slli	a4,a4,0x33
   1be48:	40f007bb          	negw	a5,a5
   1be4c:	8dd9                	or	a1,a1,a4
   1be4e:	b75d                	j	1bdf4 <__subtf3+0x1ba>
   1be50:	fc07871b          	addiw	a4,a5,-64
   1be54:	04000613          	li	a2,64
   1be58:	00e5d733          	srl	a4,a1,a4
   1be5c:	4501                	li	a0,0
   1be5e:	00c78863          	beq	a5,a2,1be6e <__subtf3+0x234>
   1be62:	08000513          	li	a0,128
   1be66:	40f507bb          	subw	a5,a0,a5
   1be6a:	00f59533          	sll	a0,a1,a5
   1be6e:	01d56eb3          	or	t4,a0,t4
   1be72:	01d03eb3          	snez	t4,t4
   1be76:	01d76eb3          	or	t4,a4,t4
   1be7a:	4781                	li	a5,0
   1be7c:	b765                	j	1be24 <__subtf3+0x1ea>
   1be7e:	01d5e7b3          	or	a5,a1,t4
   1be82:	00f03eb3          	snez	t4,a5
   1be86:	bfd5                	j	1be7a <__subtf3+0x240>
   1be88:	00188313          	addi	t1,a7,1 # 8001 <register_fini-0x80af>
   1be8c:	ffe50793          	addi	a5,a0,-2
   1be90:	00f37533          	and	a0,t1,a5
   1be94:	e559                	bnez	a0,1bf22 <__subtf3+0x2e8>
   1be96:	01d5e533          	or	a0,a1,t4
   1be9a:	04089063          	bnez	a7,1beda <__subtf3+0x2a0>
   1be9e:	50050763          	beqz	a0,1c3ac <__subtf3+0x772>
   1bea2:	01c6e7b3          	or	a5,a3,t3
   1bea6:	2c078563          	beqz	a5,1c170 <__subtf3+0x536>
   1beaa:	9e76                	add	t3,t3,t4
   1beac:	01de37b3          	sltu	a5,t3,t4
   1beb0:	96ae                	add	a3,a3,a1
   1beb2:	00f685b3          	add	a1,a3,a5
   1beb6:	00c59793          	slli	a5,a1,0xc
   1beba:	4e07da63          	bgez	a5,1c3ae <__subtf3+0x774>
   1bebe:	56fd                	li	a3,-1
   1bec0:	16ce                	slli	a3,a3,0x33
   1bec2:	16fd                	addi	a3,a3,-1
   1bec4:	8eed                	and	a3,a3,a1
   1bec6:	4781                	li	a5,0
   1bec8:	4985                	li	s3,1
   1beca:	007e7613          	andi	a2,t3,7
   1bece:	ee49                	bnez	a2,1bf68 <__subtf3+0x32e>
   1bed0:	38070263          	beqz	a4,1c254 <__subtf3+0x61a>
   1bed4:	0017f713          	andi	a4,a5,1
   1bed8:	ab2d                	j	1c412 <__subtf3+0x7d8>
   1beda:	02c89f63          	bne	a7,a2,1bf18 <__subtf3+0x2de>
   1bede:	56050863          	beqz	a0,1c44e <__subtf3+0x814>
   1bee2:	0325d793          	srli	a5,a1,0x32
   1bee6:	8b85                	andi	a5,a5,1
   1bee8:	0017b793          	seqz	a5,a5
   1beec:	0792                	slli	a5,a5,0x4
   1beee:	01181c63          	bne	a6,a7,1bf06 <__subtf3+0x2cc>
   1bef2:	01c6e633          	or	a2,a3,t3
   1bef6:	54060963          	beqz	a2,1c448 <__subtf3+0x80e>
   1befa:	00d69613          	slli	a2,a3,0xd
   1befe:	00064363          	bltz	a2,1bf04 <__subtf3+0x2ca>
   1bf02:	47c1                	li	a5,16
   1bf04:	c519                	beqz	a0,1bf12 <__subtf3+0x2d8>
   1bf06:	01c6e6b3          	or	a3,a3,t3
   1bf0a:	32069f63          	bnez	a3,1c248 <__subtf3+0x60e>
   1bf0e:	86ae                	mv	a3,a1
   1bf10:	8e76                	mv	t3,t4
   1bf12:	69a1                	lui	s3,0x8
   1bf14:	19fd                	addi	s3,s3,-1
   1bf16:	bf55                	j	1beca <__subtf3+0x290>
   1bf18:	4781                	li	a5,0
   1bf1a:	fec815e3          	bne	a6,a2,1bf04 <__subtf3+0x2ca>
   1bf1e:	4781                	li	a5,0
   1bf20:	bfc9                	j	1bef2 <__subtf3+0x2b8>
   1bf22:	02c30463          	beq	t1,a2,1bf4a <__subtf3+0x310>
   1bf26:	9e76                	add	t3,t3,t4
   1bf28:	00d587b3          	add	a5,a1,a3
   1bf2c:	01de36b3          	sltu	a3,t3,t4
   1bf30:	00d78eb3          	add	t4,a5,a3
   1bf34:	03fe9693          	slli	a3,t4,0x3f
   1bf38:	001e5e13          	srli	t3,t3,0x1
   1bf3c:	01c6ee33          	or	t3,a3,t3
   1bf40:	899a                	mv	s3,t1
   1bf42:	001ed693          	srli	a3,t4,0x1
   1bf46:	4781                	li	a5,0
   1bf48:	b749                	j	1beca <__subtf3+0x290>
   1bf4a:	c489                	beqz	s1,1bf54 <__subtf3+0x31a>
   1bf4c:	468d                	li	a3,3
   1bf4e:	00d49563          	bne	s1,a3,1bf58 <__subtf3+0x31e>
   1bf52:	e419                	bnez	s0,1bf60 <__subtf3+0x326>
   1bf54:	899a                	mv	s3,t1
   1bf56:	a0a1                	j	1bf9e <__subtf3+0x364>
   1bf58:	4689                	li	a3,2
   1bf5a:	00d49363          	bne	s1,a3,1bf60 <__subtf3+0x326>
   1bf5e:	f87d                	bnez	s0,1bf54 <__subtf3+0x31a>
   1bf60:	56fd                	li	a3,-1
   1bf62:	5e7d                	li	t3,-1
   1bf64:	89be                	mv	s3,a5
   1bf66:	4795                	li	a5,5
   1bf68:	4609                	li	a2,2
   1bf6a:	0017e793          	ori	a5,a5,1
   1bf6e:	4ac48163          	beq	s1,a2,1c410 <__subtf3+0x7d6>
   1bf72:	460d                	li	a2,3
   1bf74:	48c48a63          	beq	s1,a2,1c408 <__subtf3+0x7ce>
   1bf78:	48049d63          	bnez	s1,1c412 <__subtf3+0x7d8>
   1bf7c:	00fe7613          	andi	a2,t3,15
   1bf80:	4591                	li	a1,4
   1bf82:	48b60863          	beq	a2,a1,1c412 <__subtf3+0x7d8>
   1bf86:	004e0593          	addi	a1,t3,4
   1bf8a:	01c5be33          	sltu	t3,a1,t3
   1bf8e:	96f2                	add	a3,a3,t3
   1bf90:	8e2e                	mv	t3,a1
   1bf92:	a141                	j	1c412 <__subtf3+0x7d8>
   1bf94:	c489                	beqz	s1,1bf9e <__subtf3+0x364>
   1bf96:	470d                	li	a4,3
   1bf98:	00e49763          	bne	s1,a4,1bfa6 <__subtf3+0x36c>
   1bf9c:	e809                	bnez	s0,1bfae <__subtf3+0x374>
   1bf9e:	4681                	li	a3,0
   1bfa0:	4e01                	li	t3,0
   1bfa2:	4795                	li	a5,5
   1bfa4:	ac45                	j	1c254 <__subtf3+0x61a>
   1bfa6:	4709                	li	a4,2
   1bfa8:	00e49363          	bne	s1,a4,1bfae <__subtf3+0x374>
   1bfac:	f86d                	bnez	s0,1bf9e <__subtf3+0x364>
   1bfae:	56fd                	li	a3,-1
   1bfb0:	5e7d                	li	t3,-1
   1bfb2:	ffe78993          	addi	s3,a5,-2
   1bfb6:	4701                	li	a4,0
   1bfb8:	b77d                	j	1bf66 <__subtf3+0x32c>
   1bfba:	0ae05a63          	blez	a4,1c06e <__subtf3+0x434>
   1bfbe:	06081663          	bnez	a6,1c02a <__subtf3+0x3f0>
   1bfc2:	01c6e733          	or	a4,a3,t3
   1bfc6:	ce070de3          	beqz	a4,1bcc0 <__subtf3+0x86>
   1bfca:	fff7871b          	addiw	a4,a5,-1
   1bfce:	e31d                	bnez	a4,1bff4 <__subtf3+0x3ba>
   1bfd0:	41ce8e33          	sub	t3,t4,t3
   1bfd4:	40d586b3          	sub	a3,a1,a3
   1bfd8:	01cebeb3          	sltu	t4,t4,t3
   1bfdc:	41d686b3          	sub	a3,a3,t4
   1bfe0:	00c69793          	slli	a5,a3,0xc
   1bfe4:	3c07d263          	bgez	a5,1c3a8 <__subtf3+0x76e>
   1bfe8:	00d69913          	slli	s2,a3,0xd
   1bfec:	00d95913          	srli	s2,s2,0xd
   1bff0:	8a72                	mv	s4,t3
   1bff2:	acdd                	j	1c2e8 <__subtf3+0x6ae>
   1bff4:	d2c88ae3          	beq	a7,a2,1bd28 <__subtf3+0xee>
   1bff8:	07400793          	li	a5,116
   1bffc:	06e7c463          	blt	a5,a4,1c064 <__subtf3+0x42a>
   1c000:	03f00793          	li	a5,63
   1c004:	02e7c963          	blt	a5,a4,1c036 <__subtf3+0x3fc>
   1c008:	04000613          	li	a2,64
   1c00c:	9e19                	subw	a2,a2,a4
   1c00e:	00c697b3          	sll	a5,a3,a2
   1c012:	00ee5533          	srl	a0,t3,a4
   1c016:	00ce1e33          	sll	t3,t3,a2
   1c01a:	8fc9                	or	a5,a5,a0
   1c01c:	01c03e33          	snez	t3,t3
   1c020:	01c7ee33          	or	t3,a5,t3
   1c024:	00e6d6b3          	srl	a3,a3,a4
   1c028:	b765                	j	1bfd0 <__subtf3+0x396>
   1c02a:	cec88fe3          	beq	a7,a2,1bd28 <__subtf3+0xee>
   1c02e:	4785                	li	a5,1
   1c030:	17ce                	slli	a5,a5,0x33
   1c032:	8edd                	or	a3,a3,a5
   1c034:	b7d1                	j	1bff8 <__subtf3+0x3be>
   1c036:	fc07079b          	addiw	a5,a4,-64
   1c03a:	04000513          	li	a0,64
   1c03e:	00f6d7b3          	srl	a5,a3,a5
   1c042:	4601                	li	a2,0
   1c044:	00a70863          	beq	a4,a0,1c054 <__subtf3+0x41a>
   1c048:	08000613          	li	a2,128
   1c04c:	40e6073b          	subw	a4,a2,a4
   1c050:	00e69633          	sll	a2,a3,a4
   1c054:	01c66e33          	or	t3,a2,t3
   1c058:	01c03e33          	snez	t3,t3
   1c05c:	01c7ee33          	or	t3,a5,t3
   1c060:	4681                	li	a3,0
   1c062:	b7bd                	j	1bfd0 <__subtf3+0x396>
   1c064:	01c6ee33          	or	t3,a3,t3
   1c068:	01c03e33          	snez	t3,t3
   1c06c:	bfd5                	j	1c060 <__subtf3+0x426>
   1c06e:	cb69                	beqz	a4,1c140 <__subtf3+0x506>
   1c070:	08089463          	bnez	a7,1c0f8 <__subtf3+0x4be>
   1c074:	01d5e533          	or	a0,a1,t4
   1c078:	ed01                	bnez	a0,1c090 <__subtf3+0x456>
   1c07a:	32c81f63          	bne	a6,a2,1c3b8 <__subtf3+0x77e>
   1c07e:	01c6e7b3          	or	a5,a3,t3
   1c082:	36078b63          	beqz	a5,1c3f8 <__subtf3+0x7be>
   1c086:	00d69793          	slli	a5,a3,0xd
   1c08a:	89c2                	mv	s3,a6
   1c08c:	841a                	mv	s0,t1
   1c08e:	bb3d                	j	1bdcc <__subtf3+0x192>
   1c090:	557d                	li	a0,-1
   1c092:	00a71d63          	bne	a4,a0,1c0ac <__subtf3+0x472>
   1c096:	41de0eb3          	sub	t4,t3,t4
   1c09a:	8e8d                	sub	a3,a3,a1
   1c09c:	01de3e33          	sltu	t3,t3,t4
   1c0a0:	41c686b3          	sub	a3,a3,t3
   1c0a4:	8e76                	mv	t3,t4
   1c0a6:	89c2                	mv	s3,a6
   1c0a8:	841a                	mv	s0,t1
   1c0aa:	bf1d                	j	1bfe0 <__subtf3+0x3a6>
   1c0ac:	fcc809e3          	beq	a6,a2,1c07e <__subtf3+0x444>
   1c0b0:	fff7c793          	not	a5,a5
   1c0b4:	2781                	sext.w	a5,a5
   1c0b6:	07400713          	li	a4,116
   1c0ba:	06f74e63          	blt	a4,a5,1c136 <__subtf3+0x4fc>
   1c0be:	03f00713          	li	a4,63
   1c0c2:	04f74363          	blt	a4,a5,1c108 <__subtf3+0x4ce>
   1c0c6:	04000513          	li	a0,64
   1c0ca:	9d1d                	subw	a0,a0,a5
   1c0cc:	00fed633          	srl	a2,t4,a5
   1c0d0:	00a59733          	sll	a4,a1,a0
   1c0d4:	00ae9eb3          	sll	t4,t4,a0
   1c0d8:	8f51                	or	a4,a4,a2
   1c0da:	01d03eb3          	snez	t4,t4
   1c0de:	01d76eb3          	or	t4,a4,t4
   1c0e2:	00f5d7b3          	srl	a5,a1,a5
   1c0e6:	41de0eb3          	sub	t4,t3,t4
   1c0ea:	40f687b3          	sub	a5,a3,a5
   1c0ee:	01de36b3          	sltu	a3,t3,t4
   1c0f2:	40d786b3          	sub	a3,a5,a3
   1c0f6:	b77d                	j	1c0a4 <__subtf3+0x46a>
   1c0f8:	f8c803e3          	beq	a6,a2,1c07e <__subtf3+0x444>
   1c0fc:	4705                	li	a4,1
   1c0fe:	174e                	slli	a4,a4,0x33
   1c100:	40f007bb          	negw	a5,a5
   1c104:	8dd9                	or	a1,a1,a4
   1c106:	bf45                	j	1c0b6 <__subtf3+0x47c>
   1c108:	fc07871b          	addiw	a4,a5,-64
   1c10c:	04000613          	li	a2,64
   1c110:	00e5d733          	srl	a4,a1,a4
   1c114:	4501                	li	a0,0
   1c116:	00c78863          	beq	a5,a2,1c126 <__subtf3+0x4ec>
   1c11a:	08000513          	li	a0,128
   1c11e:	40f507bb          	subw	a5,a0,a5
   1c122:	00f59533          	sll	a0,a1,a5
   1c126:	01d56eb3          	or	t4,a0,t4
   1c12a:	01d03eb3          	snez	t4,t4
   1c12e:	01d76eb3          	or	t4,a4,t4
   1c132:	4781                	li	a5,0
   1c134:	bf4d                	j	1c0e6 <__subtf3+0x4ac>
   1c136:	01d5e7b3          	or	a5,a1,t4
   1c13a:	00f03eb3          	snez	t4,a5
   1c13e:	bfd5                	j	1c132 <__subtf3+0x4f8>
   1c140:	00188f13          	addi	t5,a7,1
   1c144:	ffe50793          	addi	a5,a0,-2
   1c148:	00ff77b3          	and	a5,t5,a5
   1c14c:	16079963          	bnez	a5,1c2be <__subtf3+0x684>
   1c150:	01d5ef33          	or	t5,a1,t4
   1c154:	01c6e533          	or	a0,a3,t3
   1c158:	0a089263          	bnez	a7,1c1fc <__subtf3+0x5c2>
   1c15c:	060f1063          	bnez	t5,1c1bc <__subtf3+0x582>
   1c160:	24051f63          	bnez	a0,1c3be <__subtf3+0x784>
   1c164:	ffe48413          	addi	s0,s1,-2
   1c168:	00143413          	seqz	s0,s0
   1c16c:	4581                	li	a1,0
   1c16e:	4e81                	li	t4,0
   1c170:	00beee33          	or	t3,t4,a1
   1c174:	280e0763          	beqz	t3,1c402 <__subtf3+0x7c8>
   1c178:	001e9613          	slli	a2,t4,0x1
   1c17c:	03fed793          	srli	a5,t4,0x3f
   1c180:	00159713          	slli	a4,a1,0x1
   1c184:	00767693          	andi	a3,a2,7
   1c188:	973e                	add	a4,a4,a5
   1c18a:	4781                	li	a5,0
   1c18c:	c285                	beqz	a3,1c1ac <__subtf3+0x572>
   1c18e:	4789                	li	a5,2
   1c190:	24f48663          	beq	s1,a5,1c3dc <__subtf3+0x7a2>
   1c194:	478d                	li	a5,3
   1c196:	22f48a63          	beq	s1,a5,1c3ca <__subtf3+0x790>
   1c19a:	4785                	li	a5,1
   1c19c:	e881                	bnez	s1,1c1ac <__subtf3+0x572>
   1c19e:	00f67693          	andi	a3,a2,15
   1c1a2:	4511                	li	a0,4
   1c1a4:	ffc63613          	sltiu	a2,a2,-4
   1c1a8:	22a69663          	bne	a3,a0,1c3d4 <__subtf3+0x79a>
   1c1ac:	9351                	srli	a4,a4,0x34
   1c1ae:	00174713          	xori	a4,a4,1
   1c1b2:	8b05                	andi	a4,a4,1
   1c1b4:	86ae                	mv	a3,a1
   1c1b6:	8e76                	mv	t3,t4
   1c1b8:	4981                	li	s3,0
   1c1ba:	bb01                	j	1beca <__subtf3+0x290>
   1c1bc:	d955                	beqz	a0,1c170 <__subtf3+0x536>
   1c1be:	41ce8733          	sub	a4,t4,t3
   1c1c2:	00eeb633          	sltu	a2,t4,a4
   1c1c6:	40d587b3          	sub	a5,a1,a3
   1c1ca:	8f91                	sub	a5,a5,a2
   1c1cc:	00c79613          	slli	a2,a5,0xc
   1c1d0:	00065c63          	bgez	a2,1c1e8 <__subtf3+0x5ae>
   1c1d4:	41de0eb3          	sub	t4,t3,t4
   1c1d8:	40b687b3          	sub	a5,a3,a1
   1c1dc:	01de36b3          	sltu	a3,t3,t4
   1c1e0:	40d785b3          	sub	a1,a5,a3
   1c1e4:	841a                	mv	s0,t1
   1c1e6:	b769                	j	1c170 <__subtf3+0x536>
   1c1e8:	00f76eb3          	or	t4,a4,a5
   1c1ec:	1c0e9c63          	bnez	t4,1c3c4 <__subtf3+0x78a>
   1c1f0:	ffe48413          	addi	s0,s1,-2
   1c1f4:	00143413          	seqz	s0,s0
   1c1f8:	4581                	li	a1,0
   1c1fa:	bf9d                	j	1c170 <__subtf3+0x536>
   1c1fc:	02c89f63          	bne	a7,a2,1c23a <__subtf3+0x600>
   1c200:	240f0063          	beqz	t5,1c440 <__subtf3+0x806>
   1c204:	0325d793          	srli	a5,a1,0x32
   1c208:	8b85                	andi	a5,a5,1
   1c20a:	0017b793          	seqz	a5,a5
   1c20e:	0792                	slli	a5,a5,0x4
   1c210:	03181a63          	bne	a6,a7,1c244 <__subtf3+0x60a>
   1c214:	c511                	beqz	a0,1c220 <__subtf3+0x5e6>
   1c216:	00d69613          	slli	a2,a3,0xd
   1c21a:	00064363          	bltz	a2,1c220 <__subtf3+0x5e6>
   1c21e:	47c1                	li	a5,16
   1c220:	020f1263          	bnez	t5,1c244 <__subtf3+0x60a>
   1c224:	841a                	mv	s0,t1
   1c226:	ce0516e3          	bnez	a0,1bf12 <__subtf3+0x2d8>
   1c22a:	4685                	li	a3,1
   1c22c:	69a1                	lui	s3,0x8
   1c22e:	4e01                	li	t3,0
   1c230:	4401                	li	s0,0
   1c232:	16ca                	slli	a3,a3,0x32
   1c234:	19fd                	addi	s3,s3,-1
   1c236:	47c1                	li	a5,16
   1c238:	a831                	j	1c254 <__subtf3+0x61a>
   1c23a:	4781                	li	a5,0
   1c23c:	fec812e3          	bne	a6,a2,1c220 <__subtf3+0x5e6>
   1c240:	4781                	li	a5,0
   1c242:	bfc9                	j	1c214 <__subtf3+0x5da>
   1c244:	cc0505e3          	beqz	a0,1bf0e <__subtf3+0x2d4>
   1c248:	4685                	li	a3,1
   1c24a:	69a1                	lui	s3,0x8
   1c24c:	4401                	li	s0,0
   1c24e:	16ca                	slli	a3,a3,0x32
   1c250:	4e01                	li	t3,0
   1c252:	19fd                	addi	s3,s3,-1
   1c254:	00c69713          	slli	a4,a3,0xc
   1c258:	00075c63          	bgez	a4,1c270 <__subtf3+0x636>
   1c25c:	6721                	lui	a4,0x8
   1c25e:	0985                	addi	s3,s3,1
   1c260:	fff70613          	addi	a2,a4,-1 # 7fff <register_fini-0x80b1>
   1c264:	1ac98c63          	beq	s3,a2,1c41c <__subtf3+0x7e2>
   1c268:	577d                	li	a4,-1
   1c26a:	174e                	slli	a4,a4,0x33
   1c26c:	177d                	addi	a4,a4,-1
   1c26e:	8ef9                	and	a3,a3,a4
   1c270:	6721                	lui	a4,0x8
   1c272:	03d69513          	slli	a0,a3,0x3d
   1c276:	003e5e13          	srli	t3,t3,0x3
   1c27a:	177d                	addi	a4,a4,-1
   1c27c:	01c56533          	or	a0,a0,t3
   1c280:	828d                	srli	a3,a3,0x3
   1c282:	00e99963          	bne	s3,a4,1c294 <__subtf3+0x65a>
   1c286:	8d55                	or	a0,a0,a3
   1c288:	4681                	li	a3,0
   1c28a:	c509                	beqz	a0,1c294 <__subtf3+0x65a>
   1c28c:	4685                	li	a3,1
   1c28e:	16be                	slli	a3,a3,0x2f
   1c290:	4501                	li	a0,0
   1c292:	4401                	li	s0,0
   1c294:	06c2                	slli	a3,a3,0x10
   1c296:	19c6                	slli	s3,s3,0x31
   1c298:	0019d993          	srli	s3,s3,0x1
   1c29c:	82c1                	srli	a3,a3,0x10
   1c29e:	03f41593          	slli	a1,s0,0x3f
   1c2a2:	0136e6b3          	or	a3,a3,s3
   1c2a6:	8dd5                	or	a1,a1,a3
   1c2a8:	c399                	beqz	a5,1c2ae <__subtf3+0x674>
   1c2aa:	0017a073          	csrs	fflags,a5
   1c2ae:	70a2                	ld	ra,40(sp)
   1c2b0:	7402                	ld	s0,32(sp)
   1c2b2:	64e2                	ld	s1,24(sp)
   1c2b4:	6942                	ld	s2,16(sp)
   1c2b6:	69a2                	ld	s3,8(sp)
   1c2b8:	6a02                	ld	s4,0(sp)
   1c2ba:	6145                	addi	sp,sp,48
   1c2bc:	8082                	ret
   1c2be:	41ce8a33          	sub	s4,t4,t3
   1c2c2:	40d58933          	sub	s2,a1,a3
   1c2c6:	014eb733          	sltu	a4,t4,s4
   1c2ca:	40e90933          	sub	s2,s2,a4
   1c2ce:	00c91793          	slli	a5,s2,0xc
   1c2d2:	0607df63          	bgez	a5,1c350 <__subtf3+0x716>
   1c2d6:	41de0a33          	sub	s4,t3,t4
   1c2da:	40b687b3          	sub	a5,a3,a1
   1c2de:	014e36b3          	sltu	a3,t3,s4
   1c2e2:	40d78933          	sub	s2,a5,a3
   1c2e6:	841a                	mv	s0,t1
   1c2e8:	06090963          	beqz	s2,1c35a <__subtf3+0x720>
   1c2ec:	854a                	mv	a0,s2
   1c2ee:	540000ef          	jal	ra,1c82e <__clzdi2>
   1c2f2:	2501                	sext.w	a0,a0
   1c2f4:	ff45061b          	addiw	a2,a0,-12
   1c2f8:	03f00793          	li	a5,63
   1c2fc:	8eb2                	mv	t4,a2
   1c2fe:	06c7c463          	blt	a5,a2,1c366 <__subtf3+0x72c>
   1c302:	04000693          	li	a3,64
   1c306:	9e91                	subw	a3,a3,a2
   1c308:	00c91933          	sll	s2,s2,a2
   1c30c:	00da56b3          	srl	a3,s4,a3
   1c310:	0126e733          	or	a4,a3,s2
   1c314:	00ca1e33          	sll	t3,s4,a2
   1c318:	09364263          	blt	a2,s3,1c39c <__subtf3+0x762>
   1c31c:	413e89bb          	subw	s3,t4,s3
   1c320:	0019879b          	addiw	a5,s3,1
   1c324:	03f00613          	li	a2,63
   1c328:	04f64563          	blt	a2,a5,1c372 <__subtf3+0x738>
   1c32c:	04000613          	li	a2,64
   1c330:	9e1d                	subw	a2,a2,a5
   1c332:	00c71eb3          	sll	t4,a4,a2
   1c336:	00fe56b3          	srl	a3,t3,a5
   1c33a:	00ce1633          	sll	a2,t3,a2
   1c33e:	00dee6b3          	or	a3,t4,a3
   1c342:	00c03633          	snez	a2,a2
   1c346:	00c6eeb3          	or	t4,a3,a2
   1c34a:	00f755b3          	srl	a1,a4,a5
   1c34e:	b50d                	j	1c170 <__subtf3+0x536>
   1c350:	012a6eb3          	or	t4,s4,s2
   1c354:	f80e9ae3          	bnez	t4,1c2e8 <__subtf3+0x6ae>
   1c358:	bd61                	j	1c1f0 <__subtf3+0x5b6>
   1c35a:	8552                	mv	a0,s4
   1c35c:	4d2000ef          	jal	ra,1c82e <__clzdi2>
   1c360:	0405051b          	addiw	a0,a0,64
   1c364:	bf41                	j	1c2f4 <__subtf3+0x6ba>
   1c366:	fb45069b          	addiw	a3,a0,-76
   1c36a:	00da1733          	sll	a4,s4,a3
   1c36e:	4e01                	li	t3,0
   1c370:	b765                	j	1c318 <__subtf3+0x6de>
   1c372:	fc198e9b          	addiw	t4,s3,-63
   1c376:	04000593          	li	a1,64
   1c37a:	01d75eb3          	srl	t4,a4,t4
   1c37e:	4601                	li	a2,0
   1c380:	00b78763          	beq	a5,a1,1c38e <__subtf3+0x754>
   1c384:	08000613          	li	a2,128
   1c388:	9e1d                	subw	a2,a2,a5
   1c38a:	00c71633          	sll	a2,a4,a2
   1c38e:	00ce6633          	or	a2,t3,a2
   1c392:	00c03633          	snez	a2,a2
   1c396:	00ceeeb3          	or	t4,t4,a2
   1c39a:	bdb9                	j	1c1f8 <__subtf3+0x5be>
   1c39c:	56fd                	li	a3,-1
   1c39e:	16ce                	slli	a3,a3,0x33
   1c3a0:	16fd                	addi	a3,a3,-1
   1c3a2:	40c989b3          	sub	s3,s3,a2
   1c3a6:	8ef9                	and	a3,a3,a4
   1c3a8:	96099ce3          	bnez	s3,1bd20 <__subtf3+0xe6>
   1c3ac:	85b6                	mv	a1,a3
   1c3ae:	8ef2                	mv	t4,t3
   1c3b0:	b3c1                	j	1c170 <__subtf3+0x536>
   1c3b2:	86ae                	mv	a3,a1
   1c3b4:	8e76                	mv	t3,t4
   1c3b6:	bfcd                	j	1c3a8 <__subtf3+0x76e>
   1c3b8:	89c2                	mv	s3,a6
   1c3ba:	841a                	mv	s0,t1
   1c3bc:	b7f5                	j	1c3a8 <__subtf3+0x76e>
   1c3be:	85b6                	mv	a1,a3
   1c3c0:	8ef2                	mv	t4,t3
   1c3c2:	b50d                	j	1c1e4 <__subtf3+0x5aa>
   1c3c4:	85be                	mv	a1,a5
   1c3c6:	8eba                	mv	t4,a4
   1c3c8:	b365                	j	1c170 <__subtf3+0x536>
   1c3ca:	4785                	li	a5,1
   1c3cc:	de0410e3          	bnez	s0,1c1ac <__subtf3+0x572>
   1c3d0:	ff863613          	sltiu	a2,a2,-8
   1c3d4:	00164613          	xori	a2,a2,1
   1c3d8:	9732                	add	a4,a4,a2
   1c3da:	bbc9                	j	1c1ac <__subtf3+0x572>
   1c3dc:	4785                	li	a5,1
   1c3de:	dc0407e3          	beqz	s0,1c1ac <__subtf3+0x572>
   1c3e2:	b7fd                	j	1c3d0 <__subtf3+0x796>
   1c3e4:	4681                	li	a3,0
   1c3e6:	4e01                	li	t3,0
   1c3e8:	4781                	li	a5,0
   1c3ea:	b5ad                	j	1c254 <__subtf3+0x61a>
   1c3ec:	4681                	li	a3,0
   1c3ee:	4e01                	li	t3,0
   1c3f0:	89c2                	mv	s3,a6
   1c3f2:	bfdd                	j	1c3e8 <__subtf3+0x7ae>
   1c3f4:	4681                	li	a3,0
   1c3f6:	bfcd                	j	1c3e8 <__subtf3+0x7ae>
   1c3f8:	4681                	li	a3,0
   1c3fa:	4e01                	li	t3,0
   1c3fc:	89c2                	mv	s3,a6
   1c3fe:	841a                	mv	s0,t1
   1c400:	b7e5                	j	1c3e8 <__subtf3+0x7ae>
   1c402:	4681                	li	a3,0
   1c404:	4981                	li	s3,0
   1c406:	b7cd                	j	1c3e8 <__subtf3+0x7ae>
   1c408:	e409                	bnez	s0,1c412 <__subtf3+0x7d8>
   1c40a:	008e0593          	addi	a1,t3,8
   1c40e:	beb5                	j	1bf8a <__subtf3+0x350>
   1c410:	fc6d                	bnez	s0,1c40a <__subtf3+0x7d0>
   1c412:	e40701e3          	beqz	a4,1c254 <__subtf3+0x61a>
   1c416:	0027e793          	ori	a5,a5,2
   1c41a:	bd2d                	j	1c254 <__subtf3+0x61a>
   1c41c:	4e01                	li	t3,0
   1c41e:	cc89                	beqz	s1,1c438 <__subtf3+0x7fe>
   1c420:	468d                	li	a3,3
   1c422:	00d49763          	bne	s1,a3,1c430 <__subtf3+0x7f6>
   1c426:	c809                	beqz	s0,1c438 <__subtf3+0x7fe>
   1c428:	5e7d                	li	t3,-1
   1c42a:	ffe70993          	addi	s3,a4,-2 # 7ffe <register_fini-0x80b2>
   1c42e:	a029                	j	1c438 <__subtf3+0x7fe>
   1c430:	4689                	li	a3,2
   1c432:	fed49be3          	bne	s1,a3,1c428 <__subtf3+0x7ee>
   1c436:	d86d                	beqz	s0,1c428 <__subtf3+0x7ee>
   1c438:	0057e793          	ori	a5,a5,5
   1c43c:	86f2                	mv	a3,t3
   1c43e:	bd0d                	j	1c270 <__subtf3+0x636>
   1c440:	4781                	li	a5,0
   1c442:	df1811e3          	bne	a6,a7,1c224 <__subtf3+0x5ea>
   1c446:	bbed                	j	1c240 <__subtf3+0x606>
   1c448:	ac0505e3          	beqz	a0,1bf12 <__subtf3+0x2d8>
   1c44c:	b4c9                	j	1bf0e <__subtf3+0x2d4>
   1c44e:	af181ce3          	bne	a6,a7,1bf46 <__subtf3+0x30c>
   1c452:	b4f1                	j	1bf1e <__subtf3+0x2e4>

000000000001c454 <__fixtfsi>:
   1c454:	002027f3          	frrm	a5
   1c458:	6611                	lui	a2,0x4
   1c45a:	00159693          	slli	a3,a1,0x1
   1c45e:	01059793          	slli	a5,a1,0x10
   1c462:	92c5                	srli	a3,a3,0x31
   1c464:	ffe60713          	addi	a4,a2,-2 # 3ffe <register_fini-0xc0b2>
   1c468:	83c1                	srli	a5,a5,0x10
   1c46a:	91fd                	srli	a1,a1,0x3f
   1c46c:	00d74863          	blt	a4,a3,1c47c <__fixtfsi+0x28>
   1c470:	e6a5                	bnez	a3,1c4d8 <__fixtfsi+0x84>
   1c472:	8fc9                	or	a5,a5,a0
   1c474:	4701                	li	a4,0
   1c476:	efb9                	bnez	a5,1c4d4 <__fixtfsi+0x80>
   1c478:	853a                	mv	a0,a4
   1c47a:	8082                	ret
   1c47c:	01d60713          	addi	a4,a2,29
   1c480:	02d75363          	bge	a4,a3,1c4a6 <__fixtfsi+0x52>
   1c484:	80000737          	lui	a4,0x80000
   1c488:	fff74713          	not	a4,a4
   1c48c:	9f2d                	addw	a4,a4,a1
   1c48e:	c5b9                	beqz	a1,1c4dc <__fixtfsi+0x88>
   1c490:	01e60593          	addi	a1,a2,30
   1c494:	4641                	li	a2,16
   1c496:	04b69463          	bne	a3,a1,1c4de <__fixtfsi+0x8a>
   1c49a:	0117d693          	srli	a3,a5,0x11
   1c49e:	e2a1                	bnez	a3,1c4de <__fixtfsi+0x8a>
   1c4a0:	17be                	slli	a5,a5,0x2f
   1c4a2:	8fc9                	or	a5,a5,a0
   1c4a4:	bfc9                	j	1c476 <__fixtfsi+0x22>
   1c4a6:	4705                	li	a4,1
   1c4a8:	1742                	slli	a4,a4,0x30
   1c4aa:	8fd9                	or	a5,a5,a4
   1c4ac:	7771                	lui	a4,0xffffc
   1c4ae:	2681                	sext.w	a3,a3
   1c4b0:	2745                	addiw	a4,a4,17
   1c4b2:	9f35                	addw	a4,a4,a3
   1c4b4:	00e79733          	sll	a4,a5,a4
   1c4b8:	8d59                	or	a0,a0,a4
   1c4ba:	6711                	lui	a4,0x4
   1c4bc:	02f7071b          	addiw	a4,a4,47
   1c4c0:	40d706bb          	subw	a3,a4,a3
   1c4c4:	00d7d7b3          	srl	a5,a5,a3
   1c4c8:	0007871b          	sext.w	a4,a5
   1c4cc:	c199                	beqz	a1,1c4d2 <__fixtfsi+0x7e>
   1c4ce:	40e0073b          	negw	a4,a4
   1c4d2:	d15d                	beqz	a0,1c478 <__fixtfsi+0x24>
   1c4d4:	4605                	li	a2,1
   1c4d6:	a021                	j	1c4de <__fixtfsi+0x8a>
   1c4d8:	4701                	li	a4,0
   1c4da:	bfed                	j	1c4d4 <__fixtfsi+0x80>
   1c4dc:	4641                	li	a2,16
   1c4de:	00162073          	csrs	fflags,a2
   1c4e2:	bf59                	j	1c478 <__fixtfsi+0x24>

000000000001c4e4 <__floatsitf>:
   1c4e4:	1101                	addi	sp,sp,-32
   1c4e6:	ec06                	sd	ra,24(sp)
   1c4e8:	e822                	sd	s0,16(sp)
   1c4ea:	e426                	sd	s1,8(sp)
   1c4ec:	c539                	beqz	a0,1c53a <__floatsitf+0x56>
   1c4ee:	0005079b          	sext.w	a5,a0
   1c4f2:	03f55493          	srli	s1,a0,0x3f
   1c4f6:	00055463          	bgez	a0,1c4fe <__floatsitf+0x1a>
   1c4fa:	40f007bb          	negw	a5,a5
   1c4fe:	02079413          	slli	s0,a5,0x20
   1c502:	9001                	srli	s0,s0,0x20
   1c504:	8522                	mv	a0,s0
   1c506:	328000ef          	jal	ra,1c82e <__clzdi2>
   1c50a:	6711                	lui	a4,0x4
   1c50c:	03e7079b          	addiw	a5,a4,62
   1c510:	40a785bb          	subw	a1,a5,a0
   1c514:	02f7071b          	addiw	a4,a4,47
   1c518:	40b7053b          	subw	a0,a4,a1
   1c51c:	00a41533          	sll	a0,s0,a0
   1c520:	60e2                	ld	ra,24(sp)
   1c522:	6442                	ld	s0,16(sp)
   1c524:	0542                	slli	a0,a0,0x10
   1c526:	15c6                	slli	a1,a1,0x31
   1c528:	8141                	srli	a0,a0,0x10
   1c52a:	8185                	srli	a1,a1,0x1
   1c52c:	14fe                	slli	s1,s1,0x3f
   1c52e:	8dc9                	or	a1,a1,a0
   1c530:	8dc5                	or	a1,a1,s1
   1c532:	4501                	li	a0,0
   1c534:	64a2                	ld	s1,8(sp)
   1c536:	6105                	addi	sp,sp,32
   1c538:	8082                	ret
   1c53a:	4501                	li	a0,0
   1c53c:	4581                	li	a1,0
   1c53e:	4481                	li	s1,0
   1c540:	b7c5                	j	1c520 <__floatsitf+0x3c>

000000000001c542 <__extenddftf2>:
   1c542:	1101                	addi	sp,sp,-32
   1c544:	ec06                	sd	ra,24(sp)
   1c546:	e822                	sd	s0,16(sp)
   1c548:	e426                	sd	s1,8(sp)
   1c54a:	e20505d3          	fmv.x.d	a1,fa0
   1c54e:	002027f3          	frrm	a5
   1c552:	0345d513          	srli	a0,a1,0x34
   1c556:	7ff57513          	andi	a0,a0,2047
   1c55a:	00150713          	addi	a4,a0,1
   1c55e:	00c59413          	slli	s0,a1,0xc
   1c562:	7fe77713          	andi	a4,a4,2046
   1c566:	8031                	srli	s0,s0,0xc
   1c568:	03f5d493          	srli	s1,a1,0x3f
   1c56c:	cb11                	beqz	a4,1c580 <__extenddftf2+0x3e>
   1c56e:	6711                	lui	a4,0x4
   1c570:	c0070713          	addi	a4,a4,-1024 # 3c00 <register_fini-0xc4b0>
   1c574:	00445793          	srli	a5,s0,0x4
   1c578:	953a                	add	a0,a0,a4
   1c57a:	1472                	slli	s0,s0,0x3c
   1c57c:	4701                	li	a4,0
   1c57e:	a8b9                	j	1c5dc <__extenddftf2+0x9a>
   1c580:	ed1d                	bnez	a0,1c5be <__extenddftf2+0x7c>
   1c582:	4781                	li	a5,0
   1c584:	dc65                	beqz	s0,1c57c <__extenddftf2+0x3a>
   1c586:	8522                	mv	a0,s0
   1c588:	2a6000ef          	jal	ra,1c82e <__clzdi2>
   1c58c:	0005071b          	sext.w	a4,a0
   1c590:	47b9                	li	a5,14
   1c592:	02e7c063          	blt	a5,a4,1c5b2 <__extenddftf2+0x70>
   1c596:	47bd                	li	a5,15
   1c598:	9f89                	subw	a5,a5,a0
   1c59a:	0315071b          	addiw	a4,a0,49
   1c59e:	00f457b3          	srl	a5,s0,a5
   1c5a2:	00e41433          	sll	s0,s0,a4
   1c5a6:	6711                	lui	a4,0x4
   1c5a8:	c0c7071b          	addiw	a4,a4,-1012
   1c5ac:	40a7053b          	subw	a0,a4,a0
   1c5b0:	b7f1                	j	1c57c <__extenddftf2+0x3a>
   1c5b2:	ff15079b          	addiw	a5,a0,-15
   1c5b6:	00f417b3          	sll	a5,s0,a5
   1c5ba:	4401                	li	s0,0
   1c5bc:	b7ed                	j	1c5a6 <__extenddftf2+0x64>
   1c5be:	c021                	beqz	s0,1c5fe <__extenddftf2+0xbc>
   1c5c0:	4685                	li	a3,1
   1c5c2:	03369713          	slli	a4,a3,0x33
   1c5c6:	8f61                	and	a4,a4,s0
   1c5c8:	00445793          	srli	a5,s0,0x4
   1c5cc:	00173713          	seqz	a4,a4
   1c5d0:	16be                	slli	a3,a3,0x2f
   1c5d2:	6521                	lui	a0,0x8
   1c5d4:	0712                	slli	a4,a4,0x4
   1c5d6:	8fd5                	or	a5,a5,a3
   1c5d8:	1472                	slli	s0,s0,0x3c
   1c5da:	157d                	addi	a0,a0,-1
   1c5dc:	07c2                	slli	a5,a5,0x10
   1c5de:	1546                	slli	a0,a0,0x31
   1c5e0:	8105                	srli	a0,a0,0x1
   1c5e2:	83c1                	srli	a5,a5,0x10
   1c5e4:	03f49593          	slli	a1,s1,0x3f
   1c5e8:	8fc9                	or	a5,a5,a0
   1c5ea:	8ddd                	or	a1,a1,a5
   1c5ec:	c319                	beqz	a4,1c5f2 <__extenddftf2+0xb0>
   1c5ee:	00172073          	csrs	fflags,a4
   1c5f2:	8522                	mv	a0,s0
   1c5f4:	60e2                	ld	ra,24(sp)
   1c5f6:	6442                	ld	s0,16(sp)
   1c5f8:	64a2                	ld	s1,8(sp)
   1c5fa:	6105                	addi	sp,sp,32
   1c5fc:	8082                	ret
   1c5fe:	6521                	lui	a0,0x8
   1c600:	4781                	li	a5,0
   1c602:	157d                	addi	a0,a0,-1
   1c604:	bfa5                	j	1c57c <__extenddftf2+0x3a>

000000000001c606 <__trunctfdf2>:
   1c606:	00202673          	frrm	a2
   1c60a:	68a1                	lui	a7,0x8
   1c60c:	0305d713          	srli	a4,a1,0x30
   1c610:	fff88813          	addi	a6,a7,-1 # 7fff <register_fini-0x80b1>
   1c614:	03f5d693          	srli	a3,a1,0x3f
   1c618:	05c2                	slli	a1,a1,0x10
   1c61a:	00d5d793          	srli	a5,a1,0xd
   1c61e:	01077733          	and	a4,a4,a6
   1c622:	03d55593          	srli	a1,a0,0x3d
   1c626:	8ddd                	or	a1,a1,a5
   1c628:	18f9                	addi	a7,a7,-2
   1c62a:	00170793          	addi	a5,a4,1 # 4001 <register_fini-0xc0af>
   1c62e:	0117f8b3          	and	a7,a5,a7
   1c632:	2601                	sext.w	a2,a2
   1c634:	00351e93          	slli	t4,a0,0x3
   1c638:	16088c63          	beqz	a7,1c7b0 <__trunctfdf2+0x1aa>
   1c63c:	78f1                	lui	a7,0xffffc
   1c63e:	40088893          	addi	a7,a7,1024 # ffffffffffffc400 <__BSS_END__+0xfffffffffffdcc70>
   1c642:	98ba                	add	a7,a7,a4
   1c644:	7fe00793          	li	a5,2046
   1c648:	0917dc63          	bge	a5,a7,1c6e0 <__trunctfdf2+0xda>
   1c64c:	c229                	beqz	a2,1c68e <__trunctfdf2+0x88>
   1c64e:	478d                	li	a5,3
   1c650:	02f61b63          	bne	a2,a5,1c686 <__trunctfdf2+0x80>
   1c654:	ce8d                	beqz	a3,1c68e <__trunctfdf2+0x88>
   1c656:	57fd                	li	a5,-1
   1c658:	7fe00893          	li	a7,2046
   1c65c:	4701                	li	a4,0
   1c65e:	4315                	li	t1,5
   1c660:	4589                	li	a1,2
   1c662:	00136313          	ori	t1,t1,1
   1c666:	1ab60063          	beq	a2,a1,1c806 <__trunctfdf2+0x200>
   1c66a:	458d                	li	a1,3
   1c66c:	18b60963          	beq	a2,a1,1c7fe <__trunctfdf2+0x1f8>
   1c670:	e619                	bnez	a2,1c67e <__trunctfdf2+0x78>
   1c672:	00f7f593          	andi	a1,a5,15
   1c676:	4511                	li	a0,4
   1c678:	00a58363          	beq	a1,a0,1c67e <__trunctfdf2+0x78>
   1c67c:	0791                	addi	a5,a5,4
   1c67e:	cf01                	beqz	a4,1c696 <__trunctfdf2+0x90>
   1c680:	00236313          	ori	t1,t1,2
   1c684:	a809                	j	1c696 <__trunctfdf2+0x90>
   1c686:	4789                	li	a5,2
   1c688:	fcf617e3          	bne	a2,a5,1c656 <__trunctfdf2+0x50>
   1c68c:	d6e9                	beqz	a3,1c656 <__trunctfdf2+0x50>
   1c68e:	4781                	li	a5,0
   1c690:	7ff00893          	li	a7,2047
   1c694:	4315                	li	t1,5
   1c696:	00879713          	slli	a4,a5,0x8
   1c69a:	00075b63          	bgez	a4,1c6b0 <__trunctfdf2+0xaa>
   1c69e:	0885                	addi	a7,a7,1
   1c6a0:	7ff00713          	li	a4,2047
   1c6a4:	16e88463          	beq	a7,a4,1c80c <__trunctfdf2+0x206>
   1c6a8:	567d                	li	a2,-1
   1c6aa:	165e                	slli	a2,a2,0x37
   1c6ac:	167d                	addi	a2,a2,-1
   1c6ae:	8ff1                	and	a5,a5,a2
   1c6b0:	7ff00713          	li	a4,2047
   1c6b4:	838d                	srli	a5,a5,0x3
   1c6b6:	00e89663          	bne	a7,a4,1c6c2 <__trunctfdf2+0xbc>
   1c6ba:	c781                	beqz	a5,1c6c2 <__trunctfdf2+0xbc>
   1c6bc:	4785                	li	a5,1
   1c6be:	17ce                	slli	a5,a5,0x33
   1c6c0:	4681                	li	a3,0
   1c6c2:	07b2                	slli	a5,a5,0xc
   1c6c4:	7ff8f713          	andi	a4,a7,2047
   1c6c8:	1752                	slli	a4,a4,0x34
   1c6ca:	83b1                	srli	a5,a5,0xc
   1c6cc:	16fe                	slli	a3,a3,0x3f
   1c6ce:	8fd9                	or	a5,a5,a4
   1c6d0:	8fd5                	or	a5,a5,a3
   1c6d2:	00030463          	beqz	t1,1c6da <__trunctfdf2+0xd4>
   1c6d6:	00132073          	csrs	fflags,t1
   1c6da:	f2078553          	fmv.d.x	fa0,a5
   1c6de:	8082                	ret
   1c6e0:	0b104363          	bgtz	a7,1c786 <__trunctfdf2+0x180>
   1c6e4:	fcc00793          	li	a5,-52
   1c6e8:	0ef8cf63          	blt	a7,a5,1c7e6 <__trunctfdf2+0x1e0>
   1c6ec:	4785                	li	a5,1
   1c6ee:	17ce                	slli	a5,a5,0x33
   1c6f0:	03d00e13          	li	t3,61
   1c6f4:	8ddd                	or	a1,a1,a5
   1c6f6:	411e0e33          	sub	t3,t3,a7
   1c6fa:	03f00793          	li	a5,63
   1c6fe:	2881                	sext.w	a7,a7
   1c700:	05c7ce63          	blt	a5,t3,1c75c <__trunctfdf2+0x156>
   1c704:	0038851b          	addiw	a0,a7,3
   1c708:	03d00713          	li	a4,61
   1c70c:	4117073b          	subw	a4,a4,a7
   1c710:	00ae97b3          	sll	a5,t4,a0
   1c714:	00eed733          	srl	a4,t4,a4
   1c718:	00f037b3          	snez	a5,a5
   1c71c:	8fd9                	or	a5,a5,a4
   1c71e:	00a595b3          	sll	a1,a1,a0
   1c722:	8fcd                	or	a5,a5,a1
   1c724:	4881                	li	a7,0
   1c726:	cbf1                	beqz	a5,1c7fa <__trunctfdf2+0x1f4>
   1c728:	00179713          	slli	a4,a5,0x1
   1c72c:	00777593          	andi	a1,a4,7
   1c730:	4301                	li	t1,0
   1c732:	cd99                	beqz	a1,1c750 <__trunctfdf2+0x14a>
   1c734:	4589                	li	a1,2
   1c736:	0ab60d63          	beq	a2,a1,1c7f0 <__trunctfdf2+0x1ea>
   1c73a:	458d                	li	a1,3
   1c73c:	4305                	li	t1,1
   1c73e:	0ab60663          	beq	a2,a1,1c7ea <__trunctfdf2+0x1e4>
   1c742:	e619                	bnez	a2,1c750 <__trunctfdf2+0x14a>
   1c744:	00f77593          	andi	a1,a4,15
   1c748:	4511                	li	a0,4
   1c74a:	00a58363          	beq	a1,a0,1c750 <__trunctfdf2+0x14a>
   1c74e:	0711                	addi	a4,a4,4
   1c750:	9361                	srli	a4,a4,0x38
   1c752:	00174713          	xori	a4,a4,1
   1c756:	8b05                	andi	a4,a4,1
   1c758:	4881                	li	a7,0
   1c75a:	a091                	j	1c79e <__trunctfdf2+0x198>
   1c75c:	5375                	li	t1,-3
   1c75e:	4113033b          	subw	t1,t1,a7
   1c762:	04000793          	li	a5,64
   1c766:	0065d333          	srl	t1,a1,t1
   1c76a:	4801                	li	a6,0
   1c76c:	00fe0663          	beq	t3,a5,1c778 <__trunctfdf2+0x172>
   1c770:	0438871b          	addiw	a4,a7,67
   1c774:	00e59833          	sll	a6,a1,a4
   1c778:	01d86833          	or	a6,a6,t4
   1c77c:	01003833          	snez	a6,a6
   1c780:	010367b3          	or	a5,t1,a6
   1c784:	b745                	j	1c724 <__trunctfdf2+0x11e>
   1c786:	00751793          	slli	a5,a0,0x7
   1c78a:	00f037b3          	snez	a5,a5
   1c78e:	03ced813          	srli	a6,t4,0x3c
   1c792:	0107e7b3          	or	a5,a5,a6
   1c796:	0592                	slli	a1,a1,0x4
   1c798:	8fcd                	or	a5,a5,a1
   1c79a:	4701                	li	a4,0
   1c79c:	4301                	li	t1,0
   1c79e:	0077f593          	andi	a1,a5,7
   1c7a2:	ea059fe3          	bnez	a1,1c660 <__trunctfdf2+0x5a>
   1c7a6:	ee0708e3          	beqz	a4,1c696 <__trunctfdf2+0x90>
   1c7aa:	00137713          	andi	a4,t1,1
   1c7ae:	bdc1                	j	1c67e <__trunctfdf2+0x78>
   1c7b0:	01d5e7b3          	or	a5,a1,t4
   1c7b4:	e701                	bnez	a4,1c7bc <__trunctfdf2+0x1b6>
   1c7b6:	00f037b3          	snez	a5,a5
   1c7ba:	b7ad                	j	1c724 <__trunctfdf2+0x11e>
   1c7bc:	cf8d                	beqz	a5,1c7f6 <__trunctfdf2+0x1f0>
   1c7be:	4301                	li	t1,0
   1c7c0:	01071763          	bne	a4,a6,1c7ce <__trunctfdf2+0x1c8>
   1c7c4:	0325d313          	srli	t1,a1,0x32
   1c7c8:	00133313          	seqz	t1,t1
   1c7cc:	0312                	slli	t1,t1,0x4
   1c7ce:	03ced793          	srli	a5,t4,0x3c
   1c7d2:	0592                	slli	a1,a1,0x4
   1c7d4:	8ddd                	or	a1,a1,a5
   1c7d6:	4785                	li	a5,1
   1c7d8:	99e1                	andi	a1,a1,-8
   1c7da:	17da                	slli	a5,a5,0x36
   1c7dc:	8fcd                	or	a5,a5,a1
   1c7de:	7ff00893          	li	a7,2047
   1c7e2:	4701                	li	a4,0
   1c7e4:	bf6d                	j	1c79e <__trunctfdf2+0x198>
   1c7e6:	4785                	li	a5,1
   1c7e8:	b781                	j	1c728 <__trunctfdf2+0x122>
   1c7ea:	f2bd                	bnez	a3,1c750 <__trunctfdf2+0x14a>
   1c7ec:	0721                	addi	a4,a4,8
   1c7ee:	b78d                	j	1c750 <__trunctfdf2+0x14a>
   1c7f0:	4305                	li	t1,1
   1c7f2:	deb9                	beqz	a3,1c750 <__trunctfdf2+0x14a>
   1c7f4:	bfe5                	j	1c7ec <__trunctfdf2+0x1e6>
   1c7f6:	7ff00893          	li	a7,2047
   1c7fa:	4301                	li	t1,0
   1c7fc:	bd69                	j	1c696 <__trunctfdf2+0x90>
   1c7fe:	e80690e3          	bnez	a3,1c67e <__trunctfdf2+0x78>
   1c802:	07a1                	addi	a5,a5,8
   1c804:	bdad                	j	1c67e <__trunctfdf2+0x78>
   1c806:	e6068ce3          	beqz	a3,1c67e <__trunctfdf2+0x78>
   1c80a:	bfe5                	j	1c802 <__trunctfdf2+0x1fc>
   1c80c:	4781                	li	a5,0
   1c80e:	ce09                	beqz	a2,1c828 <__trunctfdf2+0x222>
   1c810:	470d                	li	a4,3
   1c812:	00e61763          	bne	a2,a4,1c820 <__trunctfdf2+0x21a>
   1c816:	ca89                	beqz	a3,1c828 <__trunctfdf2+0x222>
   1c818:	57fd                	li	a5,-1
   1c81a:	7fe00893          	li	a7,2046
   1c81e:	a029                	j	1c828 <__trunctfdf2+0x222>
   1c820:	4709                	li	a4,2
   1c822:	fee61be3          	bne	a2,a4,1c818 <__trunctfdf2+0x212>
   1c826:	daed                	beqz	a3,1c818 <__trunctfdf2+0x212>
   1c828:	00536313          	ori	t1,t1,5
   1c82c:	b551                	j	1c6b0 <__trunctfdf2+0xaa>

000000000001c82e <__clzdi2>:
   1c82e:	03800793          	li	a5,56
   1c832:	00f55733          	srl	a4,a0,a5
   1c836:	0ff77713          	andi	a4,a4,255
   1c83a:	e319                	bnez	a4,1c840 <__clzdi2+0x12>
   1c83c:	17e1                	addi	a5,a5,-8
   1c83e:	fbf5                	bnez	a5,1c832 <__clzdi2+0x4>
   1c840:	04000713          	li	a4,64
   1c844:	8f1d                	sub	a4,a4,a5
   1c846:	00f557b3          	srl	a5,a0,a5
   1c84a:	6575                	lui	a0,0x1d
   1c84c:	48850513          	addi	a0,a0,1160 # 1d488 <__clz_tab>
   1c850:	97aa                	add	a5,a5,a0
   1c852:	0007c503          	lbu	a0,0(a5)
   1c856:	40a7053b          	subw	a0,a4,a0
   1c85a:	8082                	ret
