
/opt/riscv/rv64gc/riscv64-unknown-elf/bin/pk:     file format elf64-littleriscv


Disassembly of section .text:

0000000080000000 <_ftext>:
    80000000:	1f80006f          	j	800001f8 <do_reset>

0000000080000004 <trap_vector>:
    80000004:	34011173          	csrrw	sp,mscratch,sp
    80000008:	1a010863          	beqz	sp,800001b8 <restore_regs+0x80>
    8000000c:	04a13823          	sd	a0,80(sp)
    80000010:	04b13c23          	sd	a1,88(sp)
    80000014:	342025f3          	csrr	a1,mcause
    80000018:	0805d263          	bgez	a1,8000009c <trap_vector+0x98>
    8000001c:	00159593          	slli	a1,a1,0x1
    80000020:	00e00513          	li	a0,14
    80000024:	02b51263          	bne	a0,a1,80000048 <trap_vector+0x44>
    80000028:	08000513          	li	a0,128
    8000002c:	30453073          	csrc	mie,a0
    80000030:	02000513          	li	a0,32
    80000034:	34452073          	csrs	mip,a0
    80000038:	05013503          	ld	a0,80(sp)
    8000003c:	05813583          	ld	a1,88(sp)
    80000040:	34011173          	csrrw	sp,mscratch,sp
    80000044:	30200073          	mret
    80000048:	00600513          	li	a0,6
    8000004c:	18b51263          	bne	a0,a1,800001d0 <restore_regs+0x98>
    80000050:	10013503          	ld	a0,256(sp)
    80000054:	00052023          	sw	zero,0(a0)
    80000058:	0ff0000f          	fence
    8000005c:	10810513          	addi	a0,sp,264
    80000060:	0805252f          	amoswap.w	a0,zero,(a0)
    80000064:	00157593          	andi	a1,a0,1
    80000068:	00058463          	beqz	a1,80000070 <trap_vector+0x6c>
    8000006c:	34416073          	csrsi	mip,2
    80000070:	00257593          	andi	a1,a0,2
    80000074:	00058463          	beqz	a1,8000007c <trap_vector+0x78>
    80000078:	0000100f          	fence.i
    8000007c:	00457593          	andi	a1,a0,4
    80000080:	00058463          	beqz	a1,80000088 <trap_vector+0x84>
    80000084:	12000073          	sfence.vma
    80000088:	00857593          	andi	a1,a0,8
    8000008c:	00058663          	beqz	a1,80000098 <trap_vector+0x94>
    80000090:	10500073          	wfi
    80000094:	ff5ff06f          	j	80000088 <trap_vector+0x84>
    80000098:	fa1ff06f          	j	80000038 <trap_vector+0x34>
    8000009c:	00113423          	sd	ra,8(sp)
    800000a0:	00313c23          	sd	gp,24(sp)
    800000a4:	02413023          	sd	tp,32(sp)
    800000a8:	02513423          	sd	t0,40(sp)
    800000ac:	0000b297          	auipc	t0,0xb
    800000b0:	02613823          	sd	t1,48(sp)
    800000b4:	00259313          	slli	t1,a1,0x2
    800000b8:	02713c23          	sd	t2,56(sp)
    800000bc:	00628333          	add	t1,t0,t1
    800000c0:	04813023          	sd	s0,64(sp)
    800000c4:	35436303          	lwu	t1,852(t1)
    800000c8:	04913423          	sd	s1,72(sp)
    800000cc:	00010513          	mv	a0,sp
    800000d0:	06c13023          	sd	a2,96(sp)
    800000d4:	34102673          	csrr	a2,mepc
    800000d8:	06d13423          	sd	a3,104(sp)
    800000dc:	340012f3          	csrrw	t0,mscratch,zero
    800000e0:	06e13823          	sd	a4,112(sp)
    800000e4:	06f13c23          	sd	a5,120(sp)
    800000e8:	09013023          	sd	a6,128(sp)
    800000ec:	09113423          	sd	a7,136(sp)
    800000f0:	09213823          	sd	s2,144(sp)
    800000f4:	09313c23          	sd	s3,152(sp)
    800000f8:	0b413023          	sd	s4,160(sp)
    800000fc:	0b513423          	sd	s5,168(sp)
    80000100:	0b613823          	sd	s6,176(sp)
    80000104:	0b713c23          	sd	s7,184(sp)
    80000108:	0d813023          	sd	s8,192(sp)
    8000010c:	0d913423          	sd	s9,200(sp)
    80000110:	0da13823          	sd	s10,208(sp)
    80000114:	0db13c23          	sd	s11,216(sp)
    80000118:	0fc13023          	sd	t3,224(sp)
    8000011c:	0fd13423          	sd	t4,232(sp)
    80000120:	0fe13823          	sd	t5,240(sp)
    80000124:	0ff13c23          	sd	t6,248(sp)
    80000128:	00513823          	sd	t0,16(sp)
    8000012c:	00013023          	sd	zero,0(sp)
    80000130:	000300e7          	jalr	t1

0000000080000134 <restore_mscratch>:
    80000134:	34011073          	csrw	mscratch,sp

0000000080000138 <restore_regs>:
    80000138:	00813083          	ld	ra,8(sp)
    8000013c:	01813183          	ld	gp,24(sp)
    80000140:	02013203          	ld	tp,32(sp)
    80000144:	02813283          	ld	t0,40(sp)
    80000148:	03013303          	ld	t1,48(sp)
    8000014c:	03813383          	ld	t2,56(sp)
    80000150:	04013403          	ld	s0,64(sp)
    80000154:	04813483          	ld	s1,72(sp)
    80000158:	05013503          	ld	a0,80(sp)
    8000015c:	05813583          	ld	a1,88(sp)
    80000160:	06013603          	ld	a2,96(sp)
    80000164:	06813683          	ld	a3,104(sp)
    80000168:	07013703          	ld	a4,112(sp)
    8000016c:	07813783          	ld	a5,120(sp)
    80000170:	08013803          	ld	a6,128(sp)
    80000174:	08813883          	ld	a7,136(sp)
    80000178:	09013903          	ld	s2,144(sp)
    8000017c:	09813983          	ld	s3,152(sp)
    80000180:	0a013a03          	ld	s4,160(sp)
    80000184:	0a813a83          	ld	s5,168(sp)
    80000188:	0b013b03          	ld	s6,176(sp)
    8000018c:	0b813b83          	ld	s7,184(sp)
    80000190:	0c013c03          	ld	s8,192(sp)
    80000194:	0c813c83          	ld	s9,200(sp)
    80000198:	0d013d03          	ld	s10,208(sp)
    8000019c:	0d813d83          	ld	s11,216(sp)
    800001a0:	0e013e03          	ld	t3,224(sp)
    800001a4:	0e813e83          	ld	t4,232(sp)
    800001a8:	0f013f03          	ld	t5,240(sp)
    800001ac:	0f813f83          	ld	t6,248(sp)
    800001b0:	01013103          	ld	sp,16(sp)
    800001b4:	30200073          	mret
    800001b8:	34002173          	csrr	sp,mscratch
    800001bc:	f0010113          	addi	sp,sp,-256
    800001c0:	04a13823          	sd	a0,80(sp)
    800001c4:	04b13c23          	sd	a1,88(sp)
    800001c8:	00d00593          	li	a1,13
    800001cc:	ed1ff06f          	j	8000009c <trap_vector+0x98>
    800001d0:	00000593          	li	a1,0
    800001d4:	ec9ff06f          	j	8000009c <trap_vector+0x98>

00000000800001d8 <__redirect_trap>:
    800001d8:	000012b7          	lui	t0,0x1
    800001dc:	00510133          	add	sp,sp,t0
    800001e0:	405002b3          	neg	t0,t0
    800001e4:	00517133          	and	sp,sp,t0
    800001e8:	ec010113          	addi	sp,sp,-320
    800001ec:	f49ff06f          	j	80000134 <restore_mscratch>

00000000800001f0 <__trap_from_machine_mode>:
    800001f0:	57c020ef          	jal	ra,8000276c <trap_from_machine_mode>
    800001f4:	f45ff06f          	j	80000138 <restore_regs>

00000000800001f8 <do_reset>:
    800001f8:	00000093          	li	ra,0
    800001fc:	00000113          	li	sp,0
    80000200:	00000193          	li	gp,0
    80000204:	00000213          	li	tp,0
    80000208:	00000293          	li	t0,0
    8000020c:	00000313          	li	t1,0
    80000210:	00000393          	li	t2,0
    80000214:	00000413          	li	s0,0
    80000218:	00000493          	li	s1,0
    8000021c:	00000613          	li	a2,0
    80000220:	00000693          	li	a3,0
    80000224:	00000713          	li	a4,0
    80000228:	00000793          	li	a5,0
    8000022c:	00000813          	li	a6,0
    80000230:	00000893          	li	a7,0
    80000234:	00000913          	li	s2,0
    80000238:	00000993          	li	s3,0
    8000023c:	00000a13          	li	s4,0
    80000240:	00000a93          	li	s5,0
    80000244:	00000b13          	li	s6,0
    80000248:	00000b93          	li	s7,0
    8000024c:	00000c13          	li	s8,0
    80000250:	00000c93          	li	s9,0
    80000254:	00000d13          	li	s10,0
    80000258:	00000d93          	li	s11,0
    8000025c:	00000e13          	li	t3,0
    80000260:	00000e93          	li	t4,0
    80000264:	00000f13          	li	t5,0
    80000268:	00000f93          	li	t6,0
    8000026c:	34001073          	csrw	mscratch,zero
    80000270:	00000297          	auipc	t0,0x0
    80000274:	d9428293          	addi	t0,t0,-620 # 80000004 <trap_vector>
    80000278:	30529073          	csrw	mtvec,t0
    8000027c:	30502373          	csrr	t1,mtvec
    80000280:	00629063          	bne	t0,t1,80000280 <do_reset+0x88>
    80000284:	0000e117          	auipc	sp,0xe
    80000288:	c3c10113          	addi	sp,sp,-964 # 8000dec0 <stacks+0xec0>
    8000028c:	f14026f3          	csrr	a3,mhartid
    80000290:	00c69613          	slli	a2,a3,0xc
    80000294:	00c10133          	add	sp,sp,a2
    80000298:	00069463          	bnez	a3,800002a0 <do_reset+0xa8>
    8000029c:	7b00206f          	j	80002a4c <init_first_hart>
    800002a0:	00800613          	li	a2,8
    800002a4:	30461073          	csrw	mie,a2
    800002a8:	10500073          	wfi
    800002ac:	00015717          	auipc	a4,0x15
    800002b0:	dac70713          	addi	a4,a4,-596 # 80015058 <disabled_hart_mask>
    800002b4:	00073703          	ld	a4,0(a4)
    800002b8:	00d75733          	srl	a4,a4,a3
    800002bc:	00177713          	andi	a4,a4,1
    800002c0:	fe0714e3          	bnez	a4,800002a8 <do_reset+0xb0>
    800002c4:	34402673          	csrr	a2,mip
    800002c8:	00867613          	andi	a2,a2,8
    800002cc:	fc060ee3          	beqz	a2,800002a8 <do_reset+0xb0>
    800002d0:	0ff0000f          	fence
    800002d4:	00800613          	li	a2,8
    800002d8:	00c6f463          	bgeu	a3,a2,800002e0 <do_reset+0xe8>
    800002dc:	0670206f          	j	80002b42 <init_other_hart>
    800002e0:	10500073          	wfi
    800002e4:	fc5ff06f          	j	800002a8 <do_reset+0xb0>

00000000800002e8 <rest_of_boot_loader>:
    800002e8:	711d                	addi	sp,sp,-96
    800002ea:	e8a2                	sd	s0,80(sp)
    800002ec:	fc4e                	sd	s3,56(sp)
    800002ee:	ec86                	sd	ra,88(sp)
    800002f0:	e4a6                	sd	s1,72(sp)
    800002f2:	e0ca                	sd	s2,64(sp)
    800002f4:	f852                	sd	s4,48(sp)
    800002f6:	f456                	sd	s5,40(sp)
    800002f8:	f05a                	sd	s6,32(sp)
    800002fa:	ec5e                	sd	s7,24(sp)
    800002fc:	800007b7          	lui	a5,0x80000
    80000300:	86010113          	addi	sp,sp,-1952
    80000304:	1b00                	addi	s0,sp,432
    80000306:	fff7c793          	not	a5,a5
    8000030a:	89aa                	mv	s3,a0
    8000030c:	85a2                	mv	a1,s0
    8000030e:	0087e863          	bltu	a5,s0,8000031e <rest_of_boot_loader+0x36>
    80000312:	00015797          	auipc	a5,0x15
    80000316:	dbe78793          	addi	a5,a5,-578 # 800150d0 <first_free_paddr>
    8000031a:	638c                	ld	a1,0(a5)
    8000031c:	95a2                	add	a1,a1,s0
    8000031e:	4881                	li	a7,0
    80000320:	4801                	li	a6,0
    80000322:	4781                	li	a5,0
    80000324:	4701                	li	a4,0
    80000326:	4681                	li	a3,0
    80000328:	20000613          	li	a2,512
    8000032c:	7db00513          	li	a0,2011
    80000330:	676000ef          	jal	ra,800009a6 <frontend_syscall>
    80000334:	20051463          	bnez	a0,8000053c <rest_of_boot_loader+0x254>
    80000338:	77da                	ld	a5,432(sp)
    8000033a:	4705                	li	a4,1
    8000033c:	1ef77863          	bgeu	a4,a5,8000052c <rest_of_boot_loader+0x244>
    80000340:	671e                	ld	a4,448(sp)
    80000342:	02d00693          	li	a3,45
    80000346:	00074603          	lbu	a2,0(a4)
    8000034a:	04d61c63          	bne	a2,a3,800003a2 <rest_of_boot_loader+0xba>
    8000034e:	03b4                	addi	a3,sp,456
    80000350:	4905                	li	s2,1
    80000352:	07000313          	li	t1,112
    80000356:	07300893          	li	a7,115
    8000035a:	4805                	li	a6,1
    8000035c:	02d00513          	li	a0,45
    80000360:	a831                	j	8000037c <rest_of_boot_loader+0x94>
    80000362:	0000b717          	auipc	a4,0xb
    80000366:	10072123          	sw	zero,258(a4) # 8000b464 <demand_paging>
    8000036a:	0905                	addi	s2,s2,1
    8000036c:	03278563          	beq	a5,s2,80000396 <rest_of_boot_loader+0xae>
    80000370:	6298                	ld	a4,0(a3)
    80000372:	06a1                	addi	a3,a3,8
    80000374:	00074603          	lbu	a2,0(a4)
    80000378:	02a61663          	bne	a2,a0,800003a4 <rest_of_boot_loader+0xbc>
    8000037c:	00174583          	lbu	a1,1(a4)
    80000380:	fe6581e3          	beq	a1,t1,80000362 <rest_of_boot_loader+0x7a>
    80000384:	1b159663          	bne	a1,a7,80000530 <rest_of_boot_loader+0x248>
    80000388:	00015717          	auipc	a4,0x15
    8000038c:	d3073c23          	sd	a6,-712(a4) # 800150c0 <current+0x60>
    80000390:	0905                	addi	s2,s2,1
    80000392:	fd279fe3          	bne	a5,s2,80000370 <rest_of_boot_loader+0x88>
    80000396:	00009517          	auipc	a0,0x9
    8000039a:	d5250513          	addi	a0,a0,-686 # 800090e8 <softfloat_countLeadingZeros8+0x180>
    8000039e:	22f000ef          	jal	ra,80000dcc <do_panic>
    800003a2:	4905                	li	s2,1
    800003a4:	00391593          	slli	a1,s2,0x3
    800003a8:	8722                	mv	a4,s0
    800003aa:	86ca                	mv	a3,s2
    800003ac:	00b70633          	add	a2,a4,a1
    800003b0:	6610                	ld	a2,8(a2)
    800003b2:	0721                	addi	a4,a4,8
    800003b4:	0685                	addi	a3,a3,1
    800003b6:	fec73c23          	sd	a2,-8(a4)
    800003ba:	fef6e9e3          	bltu	a3,a5,800003ac <rest_of_boot_loader+0xc4>
    800003be:	41278933          	sub	s2,a5,s2
    800003c2:	fc090ae3          	beqz	s2,80000396 <rest_of_boot_loader+0xae>
    800003c6:	755a                	ld	a0,432(sp)
    800003c8:	00015a97          	auipc	s5,0x15
    800003cc:	c98a8a93          	addi	s5,s5,-872 # 80015060 <current>
    800003d0:	1f1c                	addi	a5,sp,944
    800003d2:	85d6                	mv	a1,s5
    800003d4:	00015717          	auipc	a4,0x15
    800003d8:	c8f73e23          	sd	a5,-868(a4) # 80015070 <current+0x10>
    800003dc:	40000793          	li	a5,1024
    800003e0:	00015717          	auipc	a4,0x15
    800003e4:	c8f73c23          	sd	a5,-872(a4) # 80015078 <current+0x18>
    800003e8:	6c2000ef          	jal	ra,80000aaa <load_elf>
    800003ec:	018ab783          	ld	a5,24(s5)
    800003f0:	050ab483          	ld	s1,80(s5)
    800003f4:	010ab583          	ld	a1,16(s5)
    800003f8:	863e                	mv	a2,a5
    800003fa:	8c9d                	sub	s1,s1,a5
    800003fc:	8526                	mv	a0,s1
    800003fe:	00391a13          	slli	s4,s2,0x3
    80000402:	573070ef          	jal	ra,80008174 <memcpy>
    80000406:	01440bb3          	add	s7,s0,s4
    8000040a:	00015797          	auipc	a5,0x15
    8000040e:	c697b323          	sd	s1,-922(a5) # 80015070 <current+0x10>
    80000412:	00043b03          	ld	s6,0(s0)
    80000416:	0421                	addi	s0,s0,8
    80000418:	855a                	mv	a0,s6
    8000041a:	5ef070ef          	jal	ra,80008208 <strlen>
    8000041e:	00150613          	addi	a2,a0,1
    80000422:	8c91                	sub	s1,s1,a2
    80000424:	85da                	mv	a1,s6
    80000426:	8526                	mv	a0,s1
    80000428:	54d070ef          	jal	ra,80008174 <memcpy>
    8000042c:	fe943c23          	sd	s1,-8(s0)
    80000430:	fe8b91e3          	bne	s7,s0,80000412 <rest_of_boot_loader+0x12a>
    80000434:	010ab783          	ld	a5,16(s5)
    80000438:	028ab603          	ld	a2,40(s5)
    8000043c:	004aa683          	lw	a3,4(s5)
    80000440:	000aa703          	lw	a4,0(s5)
    80000444:	e0be                	sd	a5,64(sp)
    80000446:	4799                	li	a5,6
    80000448:	e4be                	sd	a5,72(sp)
    8000044a:	6785                	lui	a5,0x1
    8000044c:	98e1                	andi	s1,s1,-8
    8000044e:	e8be                	sd	a5,80(sp)
    80000450:	098a0413          	addi	s0,s4,152
    80000454:	47dd                	li	a5,23
    80000456:	e832                	sd	a2,16(sp)
    80000458:	f036                	sd	a3,32(sp)
    8000045a:	f83a                	sd	a4,48(sp)
    8000045c:	4691                	li	a3,4
    8000045e:	470d                	li	a4,3
    80000460:	ecbe                	sd	a5,88(sp)
    80000462:	40848433          	sub	s0,s1,s0
    80000466:	47e5                	li	a5,25
    80000468:	45a5                	li	a1,9
    8000046a:	4615                	li	a2,5
    8000046c:	9841                	andi	s0,s0,-16
    8000046e:	f436                	sd	a3,40(sp)
    80000470:	fc3a                	sd	a4,56(sp)
    80000472:	f4be                	sd	a5,104(sp)
    80000474:	e42e                	sd	a1,8(sp)
    80000476:	ec32                	sd	a2,24(sp)
    80000478:	f082                	sd	zero,96(sp)
    8000047a:	f8a6                	sd	s1,112(sp)
    8000047c:	fc82                	sd	zero,120(sp)
    8000047e:	e102                	sd	zero,128(sp)
    80000480:	01243023          	sd	s2,0(s0)
    80000484:	00840693          	addi	a3,s0,8
    80000488:	4701                	li	a4,0
    8000048a:	4781                	li	a5,0
    8000048c:	7b010613          	addi	a2,sp,1968
    80000490:	078e                	slli	a5,a5,0x3
    80000492:	97b2                	add	a5,a5,a2
    80000494:	a007b603          	ld	a2,-1536(a5) # a00 <_ftext-0x7ffff600>
    80000498:	2705                	addiw	a4,a4,1
    8000049a:	02071793          	slli	a5,a4,0x20
    8000049e:	e290                	sd	a2,0(a3)
    800004a0:	9381                	srli	a5,a5,0x20
    800004a2:	8636                	mv	a2,a3
    800004a4:	06a1                	addi	a3,a3,8
    800004a6:	ff27e3e3          	bltu	a5,s2,8000048c <rest_of_boot_loader+0x1a4>
    800004aa:	0006b023          	sd	zero,0(a3)
    800004ae:	00063823          	sd	zero,16(a2)
    800004b2:	01860793          	addi	a5,a2,24
    800004b6:	0038                	addi	a4,sp,8
    800004b8:	09860613          	addi	a2,a2,152
    800004bc:	6314                	ld	a3,0(a4)
    800004be:	07c1                	addi	a5,a5,16
    800004c0:	0741                	addi	a4,a4,16
    800004c2:	fed7b823          	sd	a3,-16(a5)
    800004c6:	ff873683          	ld	a3,-8(a4)
    800004ca:	fed7bc23          	sd	a3,-8(a5)
    800004ce:	fec797e3          	bne	a5,a2,800004bc <rest_of_boot_loader+0x1d4>
    800004d2:	060ab783          	ld	a5,96(s5)
    800004d6:	c39d                	beqz	a5,800004fc <rest_of_boot_loader+0x214>
    800004d8:	c01027f3          	rdtime	a5
    800004dc:	00015717          	auipc	a4,0x15
    800004e0:	bcf73e23          	sd	a5,-1060(a4) # 800150b8 <current+0x58>
    800004e4:	c00027f3          	rdcycle	a5
    800004e8:	00015717          	auipc	a4,0x15
    800004ec:	bcf73c23          	sd	a5,-1064(a4) # 800150c0 <current+0x60>
    800004f0:	c02027f3          	rdinstret	a5
    800004f4:	00015717          	auipc	a4,0x15
    800004f8:	bcf73a23          	sd	a5,-1068(a4) # 800150c8 <current+0x68>
    800004fc:	12800613          	li	a2,296
    80000500:	4581                	li	a1,0
    80000502:	0128                	addi	a0,sp,136
    80000504:	028ab483          	ld	s1,40(s5)
    80000508:	4bb070ef          	jal	ra,800081c2 <memset>
    8000050c:	100027f3          	csrr	a5,sstatus
    80000510:	edd7f793          	andi	a5,a5,-291
    80000514:	0207e793          	ori	a5,a5,32
    80000518:	e73e                	sd	a5,392(sp)
    8000051a:	ed22                	sd	s0,152(sp)
    8000051c:	eb26                	sd	s1,400(sp)
    8000051e:	0000100f          	fence.i
    80000522:	14099073          	csrw	sscratch,s3
    80000526:	0128                	addi	a0,sp,136
    80000528:	37c010ef          	jal	ra,800018a4 <start_user>
    8000052c:	4905                	li	s2,1
    8000052e:	bd41                	j	800003be <rest_of_boot_loader+0xd6>
    80000530:	00009517          	auipc	a0,0x9
    80000534:	b9850513          	addi	a0,a0,-1128 # 800090c8 <softfloat_countLeadingZeros8+0x160>
    80000538:	095000ef          	jal	ra,80000dcc <do_panic>
    8000053c:	00009517          	auipc	a0,0x9
    80000540:	b8450513          	addi	a0,a0,-1148 # 800090c0 <softfloat_countLeadingZeros8+0x158>
    80000544:	0ad000ef          	jal	ra,80000df0 <kassert_fail>

0000000080000548 <boot_loader>:
    80000548:	1141                	addi	sp,sp,-16
    8000054a:	e406                	sd	ra,8(sp)
    8000054c:	00001797          	auipc	a5,0x1
    80000550:	2d878793          	addi	a5,a5,728 # 80001824 <trap_entry>
    80000554:	10579073          	csrw	stvec,a5
    80000558:	14005073          	csrwi	sscratch,0
    8000055c:	10405073          	csrwi	sie,0
    80000560:	000467b7          	lui	a5,0x46
    80000564:	1007a7f3          	csrrs	a5,sstatus,a5
    80000568:	104000ef          	jal	ra,8000066c <file_init>
    8000056c:	194010ef          	jal	ra,80001700 <pk_vm_init>
    80000570:	85aa                	mv	a1,a0
    80000572:	4601                	li	a2,0
    80000574:	00000517          	auipc	a0,0x0
    80000578:	d7450513          	addi	a0,a0,-652 # 800002e8 <rest_of_boot_loader>
    8000057c:	602020ef          	jal	ra,80002b7e <enter_supervisor_mode>

0000000080000580 <boot_other_hart>:
    80000580:	10500073          	wfi
    80000584:	bff5                	j	80000580 <boot_other_hart>

0000000080000586 <file_get_free>:
    80000586:	0000b517          	auipc	a0,0xb
    8000058a:	a7a50513          	addi	a0,a0,-1414 # 8000b000 <files>
    8000058e:	4689                	li	a3,2
    80000590:	0000b717          	auipc	a4,0xb
    80000594:	e7070713          	addi	a4,a4,-400 # 8000b400 <trap_table>
    80000598:	a021                	j	800005a0 <file_get_free+0x1a>
    8000059a:	0521                	addi	a0,a0,8
    8000059c:	02e50363          	beq	a0,a4,800005c2 <file_get_free+0x3c>
    800005a0:	415c                	lw	a5,4(a0)
    800005a2:	2781                	sext.w	a5,a5
    800005a4:	fbfd                	bnez	a5,8000059a <file_get_free+0x14>
    800005a6:	00450613          	addi	a2,a0,4
    800005aa:	0f50000f          	fence	iorw,ow
    800005ae:	140627af          	lr.w.aq	a5,(a2)
    800005b2:	00079563          	bnez	a5,800005bc <file_get_free+0x36>
    800005b6:	1cd625af          	sc.w.aq	a1,a3,(a2)
    800005ba:	f9f5                	bnez	a1,800005ae <file_get_free+0x28>
    800005bc:	2781                	sext.w	a5,a5
    800005be:	fff1                	bnez	a5,8000059a <file_get_free+0x14>
    800005c0:	8082                	ret
    800005c2:	4501                	li	a0,0
    800005c4:	8082                	ret

00000000800005c6 <file_incref>:
    800005c6:	4705                	li	a4,1
    800005c8:	00450693          	addi	a3,a0,4
    800005cc:	0f50000f          	fence	iorw,ow
    800005d0:	04e6a7af          	amoadd.w.aq	a5,a4,(a3)
    800005d4:	2781                	sext.w	a5,a5
    800005d6:	c391                	beqz	a5,800005da <file_incref+0x14>
    800005d8:	8082                	ret
    800005da:	1141                	addi	sp,sp,-16
    800005dc:	00009517          	auipc	a0,0x9
    800005e0:	b2c50513          	addi	a0,a0,-1236 # 80009108 <softfloat_countLeadingZeros8+0x1a0>
    800005e4:	e406                	sd	ra,8(sp)
    800005e6:	00b000ef          	jal	ra,80000df0 <kassert_fail>

00000000800005ea <file_decref>:
    800005ea:	577d                	li	a4,-1
    800005ec:	00450693          	addi	a3,a0,4
    800005f0:	0f50000f          	fence	iorw,ow
    800005f4:	04e6a7af          	amoadd.w.aq	a5,a4,(a3)
    800005f8:	2781                	sext.w	a5,a5
    800005fa:	4709                	li	a4,2
    800005fc:	00e78363          	beq	a5,a4,80000602 <file_decref+0x18>
    80000600:	8082                	ret
    80000602:	410c                	lw	a1,0(a0)
    80000604:	0ff0000f          	fence
    80000608:	4881                	li	a7,0
    8000060a:	00052223          	sw	zero,4(a0)
    8000060e:	4801                	li	a6,0
    80000610:	4781                	li	a5,0
    80000612:	4701                	li	a4,0
    80000614:	4681                	li	a3,0
    80000616:	4601                	li	a2,0
    80000618:	03900513          	li	a0,57
    8000061c:	38a0006f          	j	800009a6 <frontend_syscall>

0000000080000620 <file_dup>:
    80000620:	1141                	addi	sp,sp,-16
    80000622:	e022                	sd	s0,0(sp)
    80000624:	e406                	sd	ra,8(sp)
    80000626:	0000c797          	auipc	a5,0xc
    8000062a:	9da78793          	addi	a5,a5,-1574 # 8000c000 <fds>
    8000062e:	4401                	li	s0,0
    80000630:	08000693          	li	a3,128
    80000634:	a029                	j	8000063e <file_dup+0x1e>
    80000636:	2405                	addiw	s0,s0,1
    80000638:	07a1                	addi	a5,a5,8
    8000063a:	02d40363          	beq	s0,a3,80000660 <file_dup+0x40>
    8000063e:	0f50000f          	fence	iorw,ow
    80000642:	1407b72f          	lr.d.aq	a4,(a5)
    80000646:	00071563          	bnez	a4,80000650 <file_dup+0x30>
    8000064a:	1ca7b62f          	sc.d.aq	a2,a0,(a5)
    8000064e:	fa75                	bnez	a2,80000642 <file_dup+0x22>
    80000650:	f37d                	bnez	a4,80000636 <file_dup+0x16>
    80000652:	f75ff0ef          	jal	ra,800005c6 <file_incref>
    80000656:	8522                	mv	a0,s0
    80000658:	60a2                	ld	ra,8(sp)
    8000065a:	6402                	ld	s0,0(sp)
    8000065c:	0141                	addi	sp,sp,16
    8000065e:	8082                	ret
    80000660:	547d                	li	s0,-1
    80000662:	8522                	mv	a0,s0
    80000664:	60a2                	ld	ra,8(sp)
    80000666:	6402                	ld	s0,0(sp)
    80000668:	0141                	addi	sp,sp,16
    8000066a:	8082                	ret

000000008000066c <file_init>:
    8000066c:	1101                	addi	sp,sp,-32
    8000066e:	e822                	sd	s0,16(sp)
    80000670:	e426                	sd	s1,8(sp)
    80000672:	ec06                	sd	ra,24(sp)
    80000674:	4401                	li	s0,0
    80000676:	448d                	li	s1,3
    80000678:	f0fff0ef          	jal	ra,80000586 <file_get_free>
    8000067c:	c100                	sw	s0,0(a0)
    8000067e:	2405                	addiw	s0,s0,1
    80000680:	fa1ff0ef          	jal	ra,80000620 <file_dup>
    80000684:	fe941ae3          	bne	s0,s1,80000678 <file_init+0xc>
    80000688:	60e2                	ld	ra,24(sp)
    8000068a:	6442                	ld	s0,16(sp)
    8000068c:	64a2                	ld	s1,8(sp)
    8000068e:	6105                	addi	sp,sp,32
    80000690:	8082                	ret

0000000080000692 <file_get>:
    80000692:	07f00793          	li	a5,127
    80000696:	02a7ee63          	bltu	a5,a0,800006d2 <file_get+0x40>
    8000069a:	050e                	slli	a0,a0,0x3
    8000069c:	0000c797          	auipc	a5,0xc
    800006a0:	96478793          	addi	a5,a5,-1692 # 8000c000 <fds>
    800006a4:	953e                	add	a0,a0,a5
    800006a6:	6108                	ld	a0,0(a0)
    800006a8:	e105                	bnez	a0,800006c8 <file_get+0x36>
    800006aa:	a025                	j	800006d2 <file_get+0x40>
    800006ac:	00450613          	addi	a2,a0,4
    800006b0:	0f50000f          	fence	iorw,ow
    800006b4:	1406272f          	lr.w.aq	a4,(a2)
    800006b8:	00f71563          	bne	a4,a5,800006c2 <file_get+0x30>
    800006bc:	1cd625af          	sc.w.aq	a1,a3,(a2)
    800006c0:	f9f5                	bnez	a1,800006b4 <file_get+0x22>
    800006c2:	2701                	sext.w	a4,a4
    800006c4:	00e78963          	beq	a5,a4,800006d6 <file_get+0x44>
    800006c8:	415c                	lw	a5,4(a0)
    800006ca:	2781                	sext.w	a5,a5
    800006cc:	0017869b          	addiw	a3,a5,1
    800006d0:	fff1                	bnez	a5,800006ac <file_get+0x1a>
    800006d2:	4501                	li	a0,0
    800006d4:	8082                	ret
    800006d6:	8082                	ret

00000000800006d8 <file_openat>:
    800006d8:	7179                	addi	sp,sp,-48
    800006da:	f022                	sd	s0,32(sp)
    800006dc:	e84a                	sd	s2,16(sp)
    800006de:	e44e                	sd	s3,8(sp)
    800006e0:	e052                	sd	s4,0(sp)
    800006e2:	f406                	sd	ra,40(sp)
    800006e4:	ec26                	sd	s1,24(sp)
    800006e6:	892a                	mv	s2,a0
    800006e8:	842e                	mv	s0,a1
    800006ea:	89b2                	mv	s3,a2
    800006ec:	8a36                	mv	s4,a3
    800006ee:	e99ff0ef          	jal	ra,80000586 <file_get_free>
    800006f2:	c12d                	beqz	a0,80000754 <file_openat+0x7c>
    800006f4:	84aa                	mv	s1,a0
    800006f6:	8522                	mv	a0,s0
    800006f8:	311070ef          	jal	ra,80008208 <strlen>
    800006fc:	800007b7          	lui	a5,0x80000
    80000700:	fff7c793          	not	a5,a5
    80000704:	8622                	mv	a2,s0
    80000706:	00150693          	addi	a3,a0,1
    8000070a:	0287f863          	bgeu	a5,s0,8000073a <file_openat+0x62>
    8000070e:	4881                	li	a7,0
    80000710:	4801                	li	a6,0
    80000712:	87d2                	mv	a5,s4
    80000714:	874e                	mv	a4,s3
    80000716:	85ca                	mv	a1,s2
    80000718:	03800513          	li	a0,56
    8000071c:	28a000ef          	jal	ra,800009a6 <frontend_syscall>
    80000720:	842a                	mv	s0,a0
    80000722:	02054463          	bltz	a0,8000074a <file_openat+0x72>
    80000726:	c088                	sw	a0,0(s1)
    80000728:	70a2                	ld	ra,40(sp)
    8000072a:	7402                	ld	s0,32(sp)
    8000072c:	8526                	mv	a0,s1
    8000072e:	6942                	ld	s2,16(sp)
    80000730:	64e2                	ld	s1,24(sp)
    80000732:	69a2                	ld	s3,8(sp)
    80000734:	6a02                	ld	s4,0(sp)
    80000736:	6145                	addi	sp,sp,48
    80000738:	8082                	ret
    8000073a:	00015797          	auipc	a5,0x15
    8000073e:	99678793          	addi	a5,a5,-1642 # 800150d0 <first_free_paddr>
    80000742:	639c                	ld	a5,0(a5)
    80000744:	00f40633          	add	a2,s0,a5
    80000748:	b7d9                	j	8000070e <file_openat+0x36>
    8000074a:	8526                	mv	a0,s1
    8000074c:	e9fff0ef          	jal	ra,800005ea <file_decref>
    80000750:	84a2                	mv	s1,s0
    80000752:	bfd9                	j	80000728 <file_openat+0x50>
    80000754:	54d1                	li	s1,-12
    80000756:	bfc9                	j	80000728 <file_openat+0x50>

0000000080000758 <file_open>:
    80000758:	86b2                	mv	a3,a2
    8000075a:	862e                	mv	a2,a1
    8000075c:	85aa                	mv	a1,a0
    8000075e:	f9c00513          	li	a0,-100
    80000762:	f77ff06f          	j	800006d8 <file_openat>

0000000080000766 <fd_close>:
    80000766:	1101                	addi	sp,sp,-32
    80000768:	e426                	sd	s1,8(sp)
    8000076a:	ec06                	sd	ra,24(sp)
    8000076c:	e822                	sd	s0,16(sp)
    8000076e:	84aa                	mv	s1,a0
    80000770:	f23ff0ef          	jal	ra,80000692 <file_get>
    80000774:	cd15                	beqz	a0,800007b0 <fd_close+0x4a>
    80000776:	048e                	slli	s1,s1,0x3
    80000778:	0000c797          	auipc	a5,0xc
    8000077c:	88878793          	addi	a5,a5,-1912 # 8000c000 <fds>
    80000780:	842a                	mv	s0,a0
    80000782:	97a6                	add	a5,a5,s1
    80000784:	0f50000f          	fence	iorw,ow
    80000788:	1407b4af          	lr.d.aq	s1,(a5)
    8000078c:	00a49563          	bne	s1,a0,80000796 <fd_close+0x30>
    80000790:	1c07b72f          	sc.d.aq	a4,zero,(a5)
    80000794:	fb75                	bnez	a4,80000788 <fd_close+0x22>
    80000796:	e55ff0ef          	jal	ra,800005ea <file_decref>
    8000079a:	00941b63          	bne	s0,s1,800007b0 <fd_close+0x4a>
    8000079e:	8522                	mv	a0,s0
    800007a0:	e4bff0ef          	jal	ra,800005ea <file_decref>
    800007a4:	4501                	li	a0,0
    800007a6:	60e2                	ld	ra,24(sp)
    800007a8:	6442                	ld	s0,16(sp)
    800007aa:	64a2                	ld	s1,8(sp)
    800007ac:	6105                	addi	sp,sp,32
    800007ae:	8082                	ret
    800007b0:	557d                	li	a0,-1
    800007b2:	bfd5                	j	800007a6 <fd_close+0x40>

00000000800007b4 <file_read>:
    800007b4:	1101                	addi	sp,sp,-32
    800007b6:	e822                	sd	s0,16(sp)
    800007b8:	e426                	sd	s1,8(sp)
    800007ba:	842e                	mv	s0,a1
    800007bc:	84b2                	mv	s1,a2
    800007be:	e04a                	sd	s2,0(sp)
    800007c0:	4609                	li	a2,2
    800007c2:	892a                	mv	s2,a0
    800007c4:	85a6                	mv	a1,s1
    800007c6:	8522                	mv	a0,s0
    800007c8:	ec06                	sd	ra,24(sp)
    800007ca:	711000ef          	jal	ra,800016da <populate_mapping>
    800007ce:	800007b7          	lui	a5,0x80000
    800007d2:	fff7c793          	not	a5,a5
    800007d6:	8622                	mv	a2,s0
    800007d8:	00092583          	lw	a1,0(s2)
    800007dc:	0087e963          	bltu	a5,s0,800007ee <file_read+0x3a>
    800007e0:	00015797          	auipc	a5,0x15
    800007e4:	8f078793          	addi	a5,a5,-1808 # 800150d0 <first_free_paddr>
    800007e8:	639c                	ld	a5,0(a5)
    800007ea:	00f40633          	add	a2,s0,a5
    800007ee:	6442                	ld	s0,16(sp)
    800007f0:	60e2                	ld	ra,24(sp)
    800007f2:	6902                	ld	s2,0(sp)
    800007f4:	86a6                	mv	a3,s1
    800007f6:	64a2                	ld	s1,8(sp)
    800007f8:	4881                	li	a7,0
    800007fa:	4801                	li	a6,0
    800007fc:	4781                	li	a5,0
    800007fe:	4701                	li	a4,0
    80000800:	03f00513          	li	a0,63
    80000804:	6105                	addi	sp,sp,32
    80000806:	1a00006f          	j	800009a6 <frontend_syscall>

000000008000080a <file_pread>:
    8000080a:	7179                	addi	sp,sp,-48
    8000080c:	f022                	sd	s0,32(sp)
    8000080e:	ec26                	sd	s1,24(sp)
    80000810:	842e                	mv	s0,a1
    80000812:	84b2                	mv	s1,a2
    80000814:	e44e                	sd	s3,8(sp)
    80000816:	4609                	li	a2,2
    80000818:	89aa                	mv	s3,a0
    8000081a:	85a6                	mv	a1,s1
    8000081c:	8522                	mv	a0,s0
    8000081e:	e84a                	sd	s2,16(sp)
    80000820:	f406                	sd	ra,40(sp)
    80000822:	8936                	mv	s2,a3
    80000824:	6b7000ef          	jal	ra,800016da <populate_mapping>
    80000828:	800007b7          	lui	a5,0x80000
    8000082c:	fff7c793          	not	a5,a5
    80000830:	8622                	mv	a2,s0
    80000832:	0009a583          	lw	a1,0(s3)
    80000836:	0087e963          	bltu	a5,s0,80000848 <file_pread+0x3e>
    8000083a:	00015797          	auipc	a5,0x15
    8000083e:	89678793          	addi	a5,a5,-1898 # 800150d0 <first_free_paddr>
    80000842:	639c                	ld	a5,0(a5)
    80000844:	00f40633          	add	a2,s0,a5
    80000848:	7402                	ld	s0,32(sp)
    8000084a:	70a2                	ld	ra,40(sp)
    8000084c:	69a2                	ld	s3,8(sp)
    8000084e:	874a                	mv	a4,s2
    80000850:	86a6                	mv	a3,s1
    80000852:	6942                	ld	s2,16(sp)
    80000854:	64e2                	ld	s1,24(sp)
    80000856:	4881                	li	a7,0
    80000858:	4801                	li	a6,0
    8000085a:	4781                	li	a5,0
    8000085c:	04300513          	li	a0,67
    80000860:	6145                	addi	sp,sp,48
    80000862:	1440006f          	j	800009a6 <frontend_syscall>

0000000080000866 <file_write>:
    80000866:	1101                	addi	sp,sp,-32
    80000868:	e822                	sd	s0,16(sp)
    8000086a:	e426                	sd	s1,8(sp)
    8000086c:	842e                	mv	s0,a1
    8000086e:	84b2                	mv	s1,a2
    80000870:	e04a                	sd	s2,0(sp)
    80000872:	4605                	li	a2,1
    80000874:	892a                	mv	s2,a0
    80000876:	85a6                	mv	a1,s1
    80000878:	8522                	mv	a0,s0
    8000087a:	ec06                	sd	ra,24(sp)
    8000087c:	65f000ef          	jal	ra,800016da <populate_mapping>
    80000880:	800007b7          	lui	a5,0x80000
    80000884:	fff7c793          	not	a5,a5
    80000888:	8622                	mv	a2,s0
    8000088a:	00092583          	lw	a1,0(s2)
    8000088e:	0087e963          	bltu	a5,s0,800008a0 <file_write+0x3a>
    80000892:	00015797          	auipc	a5,0x15
    80000896:	83e78793          	addi	a5,a5,-1986 # 800150d0 <first_free_paddr>
    8000089a:	639c                	ld	a5,0(a5)
    8000089c:	00f40633          	add	a2,s0,a5
    800008a0:	6442                	ld	s0,16(sp)
    800008a2:	60e2                	ld	ra,24(sp)
    800008a4:	6902                	ld	s2,0(sp)
    800008a6:	86a6                	mv	a3,s1
    800008a8:	64a2                	ld	s1,8(sp)
    800008aa:	4881                	li	a7,0
    800008ac:	4801                	li	a6,0
    800008ae:	4781                	li	a5,0
    800008b0:	4701                	li	a4,0
    800008b2:	04000513          	li	a0,64
    800008b6:	6105                	addi	sp,sp,32
    800008b8:	0ee0006f          	j	800009a6 <frontend_syscall>

00000000800008bc <file_pwrite>:
    800008bc:	7179                	addi	sp,sp,-48
    800008be:	f022                	sd	s0,32(sp)
    800008c0:	ec26                	sd	s1,24(sp)
    800008c2:	842e                	mv	s0,a1
    800008c4:	84b2                	mv	s1,a2
    800008c6:	e44e                	sd	s3,8(sp)
    800008c8:	4605                	li	a2,1
    800008ca:	89aa                	mv	s3,a0
    800008cc:	85a6                	mv	a1,s1
    800008ce:	8522                	mv	a0,s0
    800008d0:	e84a                	sd	s2,16(sp)
    800008d2:	f406                	sd	ra,40(sp)
    800008d4:	8936                	mv	s2,a3
    800008d6:	605000ef          	jal	ra,800016da <populate_mapping>
    800008da:	800007b7          	lui	a5,0x80000
    800008de:	fff7c793          	not	a5,a5
    800008e2:	8622                	mv	a2,s0
    800008e4:	0009a583          	lw	a1,0(s3)
    800008e8:	0087e963          	bltu	a5,s0,800008fa <file_pwrite+0x3e>
    800008ec:	00014797          	auipc	a5,0x14
    800008f0:	7e478793          	addi	a5,a5,2020 # 800150d0 <first_free_paddr>
    800008f4:	639c                	ld	a5,0(a5)
    800008f6:	00f40633          	add	a2,s0,a5
    800008fa:	7402                	ld	s0,32(sp)
    800008fc:	70a2                	ld	ra,40(sp)
    800008fe:	69a2                	ld	s3,8(sp)
    80000900:	874a                	mv	a4,s2
    80000902:	86a6                	mv	a3,s1
    80000904:	6942                	ld	s2,16(sp)
    80000906:	64e2                	ld	s1,24(sp)
    80000908:	4881                	li	a7,0
    8000090a:	4801                	li	a6,0
    8000090c:	4781                	li	a5,0
    8000090e:	04400513          	li	a0,68
    80000912:	6145                	addi	sp,sp,48
    80000914:	0920006f          	j	800009a6 <frontend_syscall>

0000000080000918 <file_stat>:
    80000918:	7135                	addi	sp,sp,-160
    8000091a:	800007b7          	lui	a5,0x80000
    8000091e:	e922                	sd	s0,144(sp)
    80000920:	e14a                	sd	s2,128(sp)
    80000922:	840a                	mv	s0,sp
    80000924:	ed06                	sd	ra,152(sp)
    80000926:	e526                	sd	s1,136(sp)
    80000928:	fff7c793          	not	a5,a5
    8000092c:	892e                	mv	s2,a1
    8000092e:	8622                	mv	a2,s0
    80000930:	410c                	lw	a1,0(a0)
    80000932:	0087e863          	bltu	a5,s0,80000942 <file_stat+0x2a>
    80000936:	00014797          	auipc	a5,0x14
    8000093a:	79a78793          	addi	a5,a5,1946 # 800150d0 <first_free_paddr>
    8000093e:	6390                	ld	a2,0(a5)
    80000940:	9622                	add	a2,a2,s0
    80000942:	4881                	li	a7,0
    80000944:	4801                	li	a6,0
    80000946:	4781                	li	a5,0
    80000948:	4701                	li	a4,0
    8000094a:	4681                	li	a3,0
    8000094c:	05000513          	li	a0,80
    80000950:	056000ef          	jal	ra,800009a6 <frontend_syscall>
    80000954:	84aa                	mv	s1,a0
    80000956:	85a2                	mv	a1,s0
    80000958:	854a                	mv	a0,s2
    8000095a:	0f6000ef          	jal	ra,80000a50 <copy_stat>
    8000095e:	60ea                	ld	ra,152(sp)
    80000960:	644a                	ld	s0,144(sp)
    80000962:	0004851b          	sext.w	a0,s1
    80000966:	690a                	ld	s2,128(sp)
    80000968:	64aa                	ld	s1,136(sp)
    8000096a:	610d                	addi	sp,sp,160
    8000096c:	8082                	ret

000000008000096e <file_truncate>:
    8000096e:	862e                	mv	a2,a1
    80000970:	410c                	lw	a1,0(a0)
    80000972:	1141                	addi	sp,sp,-16
    80000974:	4881                	li	a7,0
    80000976:	4801                	li	a6,0
    80000978:	4781                	li	a5,0
    8000097a:	4701                	li	a4,0
    8000097c:	4681                	li	a3,0
    8000097e:	02e00513          	li	a0,46
    80000982:	e406                	sd	ra,8(sp)
    80000984:	022000ef          	jal	ra,800009a6 <frontend_syscall>
    80000988:	60a2                	ld	ra,8(sp)
    8000098a:	2501                	sext.w	a0,a0
    8000098c:	0141                	addi	sp,sp,16
    8000098e:	8082                	ret

0000000080000990 <file_lseek>:
    80000990:	86b2                	mv	a3,a2
    80000992:	862e                	mv	a2,a1
    80000994:	410c                	lw	a1,0(a0)
    80000996:	4881                	li	a7,0
    80000998:	4801                	li	a6,0
    8000099a:	4781                	li	a5,0
    8000099c:	4701                	li	a4,0
    8000099e:	03e00513          	li	a0,62
    800009a2:	0040006f          	j	800009a6 <frontend_syscall>

00000000800009a6 <frontend_syscall>:
    800009a6:	1141                	addi	sp,sp,-16
    800009a8:	e406                	sd	ra,8(sp)
    800009aa:	e022                	sd	s0,0(sp)
    800009ac:	00014317          	auipc	t1,0x14
    800009b0:	67430313          	addi	t1,t1,1652 # 80015020 <lock.2343>
    800009b4:	5efd                	li	t4,-1
    800009b6:	00032e03          	lw	t3,0(t1)
    800009ba:	2e01                	sext.w	t3,t3
    800009bc:	fe0e1de3          	bnez	t3,800009b6 <frontend_syscall+0x10>
    800009c0:	8e76                	mv	t3,t4
    800009c2:	0dc32e2f          	amoswap.w.aq	t3,t3,(t1)
    800009c6:	2e01                	sext.w	t3,t3
    800009c8:	0ff0000f          	fence
    800009cc:	fe0e15e3          	bnez	t3,800009b6 <frontend_syscall+0x10>
    800009d0:	0000c417          	auipc	s0,0xc
    800009d4:	a2a43823          	sd	a0,-1488(s0) # 8000c400 <magic_mem.2342>
    800009d8:	0000c517          	auipc	a0,0xc
    800009dc:	a2b53823          	sd	a1,-1488(a0) # 8000c408 <magic_mem.2342+0x8>
    800009e0:	0000c597          	auipc	a1,0xc
    800009e4:	a2c5b823          	sd	a2,-1488(a1) # 8000c410 <magic_mem.2342+0x10>
    800009e8:	0000c617          	auipc	a2,0xc
    800009ec:	a2d63823          	sd	a3,-1488(a2) # 8000c418 <magic_mem.2342+0x18>
    800009f0:	0000c697          	auipc	a3,0xc
    800009f4:	a2e6b823          	sd	a4,-1488(a3) # 8000c420 <magic_mem.2342+0x20>
    800009f8:	0000c717          	auipc	a4,0xc
    800009fc:	a2f73823          	sd	a5,-1488(a4) # 8000c428 <magic_mem.2342+0x28>
    80000a00:	0000c417          	auipc	s0,0xc
    80000a04:	a0040413          	addi	s0,s0,-1536 # 8000c400 <magic_mem.2342>
    80000a08:	0000c797          	auipc	a5,0xc
    80000a0c:	a307b423          	sd	a6,-1496(a5) # 8000c430 <magic_mem.2342+0x30>
    80000a10:	8522                	mv	a0,s0
    80000a12:	0000c797          	auipc	a5,0xc
    80000a16:	a317b323          	sd	a7,-1498(a5) # 8000c438 <magic_mem.2342+0x38>
    80000a1a:	330020ef          	jal	ra,80002d4a <htif_syscall>
    80000a1e:	6008                	ld	a0,0(s0)
    80000a20:	0ff0000f          	fence
    80000a24:	60a2                	ld	ra,8(sp)
    80000a26:	6402                	ld	s0,0(sp)
    80000a28:	00014797          	auipc	a5,0x14
    80000a2c:	5e07ac23          	sw	zero,1528(a5) # 80015020 <lock.2343>
    80000a30:	0141                	addi	sp,sp,16
    80000a32:	8082                	ret

0000000080000a34 <shutdown>:
    80000a34:	1141                	addi	sp,sp,-16
    80000a36:	85aa                	mv	a1,a0
    80000a38:	4881                	li	a7,0
    80000a3a:	4801                	li	a6,0
    80000a3c:	4781                	li	a5,0
    80000a3e:	4701                	li	a4,0
    80000a40:	4681                	li	a3,0
    80000a42:	4601                	li	a2,0
    80000a44:	05d00513          	li	a0,93
    80000a48:	e406                	sd	ra,8(sp)
    80000a4a:	f5dff0ef          	jal	ra,800009a6 <frontend_syscall>
    80000a4e:	a001                	j	80000a4e <shutdown+0x1a>

0000000080000a50 <copy_stat>:
    80000a50:	0005b383          	ld	t2,0(a1)
    80000a54:	0085b283          	ld	t0,8(a1)
    80000a58:	0105af83          	lw	t6,16(a1)
    80000a5c:	0145af03          	lw	t5,20(a1)
    80000a60:	0185ae83          	lw	t4,24(a1)
    80000a64:	01c5ae03          	lw	t3,28(a1)
    80000a68:	0205b303          	ld	t1,32(a1)
    80000a6c:	0305b883          	ld	a7,48(a1)
    80000a70:	0385e803          	lwu	a6,56(a1)
    80000a74:	61b0                	ld	a2,64(a1)
    80000a76:	65b4                	ld	a3,72(a1)
    80000a78:	6db8                	ld	a4,88(a1)
    80000a7a:	75bc                	ld	a5,104(a1)
    80000a7c:	00751023          	sh	t2,0(a0)
    80000a80:	00551123          	sh	t0,2(a0)
    80000a84:	01f52223          	sw	t6,4(a0)
    80000a88:	01e51423          	sh	t5,8(a0)
    80000a8c:	01d51523          	sh	t4,10(a0)
    80000a90:	01c51623          	sh	t3,12(a0)
    80000a94:	00651723          	sh	t1,14(a0)
    80000a98:	01153823          	sd	a7,16(a0)
    80000a9c:	05053423          	sd	a6,72(a0)
    80000aa0:	e930                	sd	a2,80(a0)
    80000aa2:	ed14                	sd	a3,24(a0)
    80000aa4:	f518                	sd	a4,40(a0)
    80000aa6:	fd1c                	sd	a5,56(a0)
    80000aa8:	8082                	ret

0000000080000aaa <load_elf>:
    80000aaa:	7131                	addi	sp,sp,-192
    80000aac:	ed4e                	sd	s3,152(sp)
    80000aae:	4601                	li	a2,0
    80000ab0:	89ae                	mv	s3,a1
    80000ab2:	4581                	li	a1,0
    80000ab4:	fd06                	sd	ra,184(sp)
    80000ab6:	f922                	sd	s0,176(sp)
    80000ab8:	f526                	sd	s1,168(sp)
    80000aba:	f14a                	sd	s2,160(sp)
    80000abc:	e952                	sd	s4,144(sp)
    80000abe:	e556                	sd	s5,136(sp)
    80000ac0:	e15a                	sd	s6,128(sp)
    80000ac2:	fcde                	sd	s7,120(sp)
    80000ac4:	f8e2                	sd	s8,112(sp)
    80000ac6:	f4e6                	sd	s9,104(sp)
    80000ac8:	f0ea                	sd	s10,96(sp)
    80000aca:	ecee                	sd	s11,88(sp)
    80000acc:	e42a                	sd	a0,8(sp)
    80000ace:	c8bff0ef          	jal	ra,80000758 <file_open>
    80000ad2:	77fd                	lui	a5,0xfffff
    80000ad4:	18f57463          	bgeu	a0,a5,80000c5c <load_elf+0x1b2>
    80000ad8:	4681                	li	a3,0
    80000ada:	04000613          	li	a2,64
    80000ade:	080c                	addi	a1,sp,16
    80000ae0:	8aaa                	mv	s5,a0
    80000ae2:	d29ff0ef          	jal	ra,8000080a <file_pread>
    80000ae6:	03f00793          	li	a5,63
    80000aea:	16a7d963          	bge	a5,a0,80000c5c <load_elf+0x1b2>
    80000aee:	67c2                	ld	a5,16(sp)
    80000af0:	464c4737          	lui	a4,0x464c4
    80000af4:	57f70713          	addi	a4,a4,1407 # 464c457f <_ftext-0x39b3ba81>
    80000af8:	02079693          	slli	a3,a5,0x20
    80000afc:	9281                	srli	a3,a3,0x20
    80000afe:	54fd                	li	s1,-1
    80000b00:	14e69e63          	bne	a3,a4,80000c5c <load_elf+0x1b2>
    80000b04:	0000b717          	auipc	a4,0xb
    80000b08:	93c70713          	addi	a4,a4,-1732 # 8000b440 <trap_table+0x40>
    80000b0c:	6318                	ld	a4,0(a4)
    80000b0e:	0184d693          	srli	a3,s1,0x18
    80000b12:	8ff5                	and	a5,a5,a3
    80000b14:	18e79563          	bne	a5,a4,80000c9e <load_elf+0x1f4>
    80000b18:	04815783          	lhu	a5,72(sp)
    80000b1c:	0189b703          	ld	a4,24(s3)
    80000b20:	00379413          	slli	s0,a5,0x3
    80000b24:	8c1d                	sub	s0,s0,a5
    80000b26:	040e                	slli	s0,s0,0x3
    80000b28:	12876a63          	bltu	a4,s0,80000c5c <load_elf+0x1b2>
    80000b2c:	76c2                	ld	a3,48(sp)
    80000b2e:	0109b583          	ld	a1,16(s3)
    80000b32:	8622                	mv	a2,s0
    80000b34:	8556                	mv	a0,s5
    80000b36:	cd5ff0ef          	jal	ra,8000080a <file_pread>
    80000b3a:	12854163          	blt	a0,s0,80000c5c <load_elf+0x1b2>
    80000b3e:	02015a03          	lhu	s4,32(sp)
    80000b42:	04815683          	lhu	a3,72(sp)
    80000b46:	7722                	ld	a4,40(sp)
    80000b48:	1a75                	addi	s4,s4,-3
    80000b4a:	001a3a13          	seqz	s4,s4
    80000b4e:	0a32                	slli	s4,s4,0xc
    80000b50:	0006879b          	sext.w	a5,a3
    80000b54:	9752                	add	a4,a4,s4
    80000b56:	03800613          	li	a2,56
    80000b5a:	00f9a223          	sw	a5,4(s3)
    80000b5e:	00c9a023          	sw	a2,0(s3)
    80000b62:	02e9b423          	sd	a4,40(s3)
    80000b66:	37fd                	addiw	a5,a5,-1
    80000b68:	0109b583          	ld	a1,16(s3)
    80000b6c:	10978763          	beq	a5,s1,80000c7a <load_elf+0x1d0>
    80000b70:	fff6871b          	addiw	a4,a3,-1
    80000b74:	02071613          	slli	a2,a4,0x20
    80000b78:	00369893          	slli	a7,a3,0x3
    80000b7c:	9201                	srli	a2,a2,0x20
    80000b7e:	40d888b3          	sub	a7,a7,a3
    80000b82:	00379413          	slli	s0,a5,0x3
    80000b86:	088e                	slli	a7,a7,0x3
    80000b88:	00361713          	slli	a4,a2,0x3
    80000b8c:	8c1d                	sub	s0,s0,a5
    80000b8e:	f9088893          	addi	a7,a7,-112
    80000b92:	8f11                	sub	a4,a4,a2
    80000b94:	040e                	slli	s0,s0,0x3
    80000b96:	98ae                	add	a7,a7,a1
    80000b98:	070e                	slli	a4,a4,0x3
    80000b9a:	6b21                	lui	s6,0x8
    80000b9c:	6b85                	lui	s7,0x1
    80000b9e:	942e                	add	s0,s0,a1
    80000ba0:	40e88c33          	sub	s8,a7,a4
    80000ba4:	4d05                	li	s10,1
    80000ba6:	0b49                	addi	s6,s6,18
    80000ba8:	a029                	j	80000bb2 <load_elf+0x108>
    80000baa:	fc840413          	addi	s0,s0,-56
    80000bae:	0d840663          	beq	s0,s8,80000c7a <load_elf+0x1d0>
    80000bb2:	401c                	lw	a5,0(s0)
    80000bb4:	ffa79be3          	bne	a5,s10,80000baa <load_elf+0x100>
    80000bb8:	741c                	ld	a5,40(s0)
    80000bba:	dbe5                	beqz	a5,80000baa <load_elf+0x100>
    80000bbc:	01043803          	ld	a6,16(s0)
    80000bc0:	0309b703          	ld	a4,48(s3)
    80000bc4:	6685                	lui	a3,0x1
    80000bc6:	01480933          	add	s2,a6,s4
    80000bca:	16fd                	addi	a3,a3,-1
    80000bcc:	97ca                	add	a5,a5,s2
    80000bce:	00d87cb3          	and	s9,a6,a3
    80000bd2:	00f77463          	bgeu	a4,a5,80000bda <load_elf+0x130>
    80000bd6:	02f9b823          	sd	a5,48(s3)
    80000bda:	86da                	mv	a3,s6
    80000bdc:	000c9363          	bnez	s9,80000be2 <load_elf+0x138>
    80000be0:	46c9                	li	a3,18
    80000be2:	4058                	lw	a4,4(s0)
    80000be4:	641c                	ld	a5,8(s0)
    80000be6:	700c                	ld	a1,32(s0)
    80000be8:	0007061b          	sext.w	a2,a4
    80000bec:	0026149b          	slliw	s1,a2,0x2
    80000bf0:	0027571b          	srliw	a4,a4,0x2
    80000bf4:	8891                	andi	s1,s1,4
    80000bf6:	8b05                	andi	a4,a4,1
    80000bf8:	8f45                	or	a4,a4,s1
    80000bfa:	00267493          	andi	s1,a2,2
    80000bfe:	41990db3          	sub	s11,s2,s9
    80000c02:	8cd9                	or	s1,s1,a4
    80000c04:	419787b3          	sub	a5,a5,s9
    80000c08:	8756                	mv	a4,s5
    80000c0a:	0024e613          	ori	a2,s1,2
    80000c0e:	95e6                	add	a1,a1,s9
    80000c10:	856e                	mv	a0,s11
    80000c12:	4e0000ef          	jal	ra,800010f2 <__do_mmap>
    80000c16:	04ad9363          	bne	s11,a0,80000c5c <load_elf+0x1b2>
    80000c1a:	8666                	mv	a2,s9
    80000c1c:	4581                	li	a1,0
    80000c1e:	5a4070ef          	jal	ra,800081c2 <memset>
    80000c22:	0024f793          	andi	a5,s1,2
    80000c26:	c3b1                	beqz	a5,80000c6a <load_elf+0x1c0>
    80000c28:	701c                	ld	a5,32(s0)
    80000c2a:	740c                	ld	a1,40(s0)
    80000c2c:	419b8733          	sub	a4,s7,s9
    80000c30:	17fd                	addi	a5,a5,-1
    80000c32:	01978833          	add	a6,a5,s9
    80000c36:	77fd                	lui	a5,0xfffff
    80000c38:	00f87833          	and	a6,a6,a5
    80000c3c:	983a                	add	a6,a6,a4
    80000c3e:	f6b876e3          	bgeu	a6,a1,80000baa <load_elf+0x100>
    80000c42:	9942                	add	s2,s2,a6
    80000c44:	4781                	li	a5,0
    80000c46:	4701                	li	a4,0
    80000c48:	03200693          	li	a3,50
    80000c4c:	8626                	mv	a2,s1
    80000c4e:	410585b3          	sub	a1,a1,a6
    80000c52:	854a                	mv	a0,s2
    80000c54:	49e000ef          	jal	ra,800010f2 <__do_mmap>
    80000c58:	f4a909e3          	beq	s2,a0,80000baa <load_elf+0x100>
    80000c5c:	65a2                	ld	a1,8(sp)
    80000c5e:	00008517          	auipc	a0,0x8
    80000c62:	4fa50513          	addi	a0,a0,1274 # 80009158 <softfloat_countLeadingZeros8+0x1f0>
    80000c66:	166000ef          	jal	ra,80000dcc <do_panic>
    80000c6a:	700c                	ld	a1,32(s0)
    80000c6c:	8626                	mv	a2,s1
    80000c6e:	856e                	mv	a0,s11
    80000c70:	95e6                	add	a1,a1,s9
    80000c72:	049000ef          	jal	ra,800014ba <do_mprotect>
    80000c76:	d94d                	beqz	a0,80000c28 <load_elf+0x17e>
    80000c78:	b7d5                	j	80000c5c <load_elf+0x1b2>
    80000c7a:	8556                	mv	a0,s5
    80000c7c:	96fff0ef          	jal	ra,800005ea <file_decref>
    80000c80:	70ea                	ld	ra,184(sp)
    80000c82:	744a                	ld	s0,176(sp)
    80000c84:	74aa                	ld	s1,168(sp)
    80000c86:	790a                	ld	s2,160(sp)
    80000c88:	69ea                	ld	s3,152(sp)
    80000c8a:	6a4a                	ld	s4,144(sp)
    80000c8c:	6aaa                	ld	s5,136(sp)
    80000c8e:	6b0a                	ld	s6,128(sp)
    80000c90:	7be6                	ld	s7,120(sp)
    80000c92:	7c46                	ld	s8,112(sp)
    80000c94:	7ca6                	ld	s9,104(sp)
    80000c96:	7d06                	ld	s10,96(sp)
    80000c98:	6de6                	ld	s11,88(sp)
    80000c9a:	6129                	addi	sp,sp,192
    80000c9c:	8082                	ret
    80000c9e:	00008517          	auipc	a0,0x8
    80000ca2:	49a50513          	addi	a0,a0,1178 # 80009138 <softfloat_countLeadingZeros8+0x1d0>
    80000ca6:	00008697          	auipc	a3,0x8
    80000caa:	47268693          	addi	a3,a3,1138 # 80009118 <softfloat_countLeadingZeros8+0x1b0>
    80000cae:	02800613          	li	a2,40
    80000cb2:	00008597          	auipc	a1,0x8
    80000cb6:	47658593          	addi	a1,a1,1142 # 80009128 <softfloat_countLeadingZeros8+0x1c0>
    80000cba:	1e1010ef          	jal	ra,8000269a <printm>
    80000cbe:	6541                	lui	a0,0x10
    80000cc0:	157d                	addi	a0,a0,-1
    80000cc2:	24b010ef          	jal	ra,8000270c <poweroff>

0000000080000cc6 <vprintk>:
    80000cc6:	716d                	addi	sp,sp,-272
    80000cc8:	862a                	mv	a2,a0
    80000cca:	86ae                	mv	a3,a1
    80000ccc:	850a                	mv	a0,sp
    80000cce:	10000593          	li	a1,256
    80000cd2:	e606                	sd	ra,264(sp)
    80000cd4:	24c070ef          	jal	ra,80007f20 <vsnprintf>
    80000cd8:	0005071b          	sext.w	a4,a0
    80000cdc:	0ff00793          	li	a5,255
    80000ce0:	10000613          	li	a2,256
    80000ce4:	00e7e363          	bltu	a5,a4,80000cea <vprintk+0x24>
    80000ce8:	862a                	mv	a2,a0
    80000cea:	858a                	mv	a1,sp
    80000cec:	0000a517          	auipc	a0,0xa
    80000cf0:	32450513          	addi	a0,a0,804 # 8000b010 <files+0x10>
    80000cf4:	b73ff0ef          	jal	ra,80000866 <file_write>
    80000cf8:	60b2                	ld	ra,264(sp)
    80000cfa:	6151                	addi	sp,sp,272
    80000cfc:	8082                	ret

0000000080000cfe <printk>:
    80000cfe:	711d                	addi	sp,sp,-96
    80000d00:	02810313          	addi	t1,sp,40
    80000d04:	f42e                	sd	a1,40(sp)
    80000d06:	859a                	mv	a1,t1
    80000d08:	ec06                	sd	ra,24(sp)
    80000d0a:	f832                	sd	a2,48(sp)
    80000d0c:	fc36                	sd	a3,56(sp)
    80000d0e:	e0ba                	sd	a4,64(sp)
    80000d10:	e4be                	sd	a5,72(sp)
    80000d12:	e8c2                	sd	a6,80(sp)
    80000d14:	ecc6                	sd	a7,88(sp)
    80000d16:	e41a                	sd	t1,8(sp)
    80000d18:	fafff0ef          	jal	ra,80000cc6 <vprintk>
    80000d1c:	60e2                	ld	ra,24(sp)
    80000d1e:	6125                	addi	sp,sp,96
    80000d20:	8082                	ret

0000000080000d22 <dump_tf>:
    80000d22:	7139                	addi	sp,sp,-64
    80000d24:	f426                	sd	s1,40(sp)
    80000d26:	f04a                	sd	s2,32(sp)
    80000d28:	ec4e                	sd	s3,24(sp)
    80000d2a:	e852                	sd	s4,16(sp)
    80000d2c:	e456                	sd	s5,8(sp)
    80000d2e:	e05a                	sd	s6,0(sp)
    80000d30:	fc06                	sd	ra,56(sp)
    80000d32:	f822                	sd	s0,48(sp)
    80000d34:	00007a17          	auipc	s4,0x7
    80000d38:	584a0a13          	addi	s4,s4,1412 # 800082b8 <regnames.2671>
    80000d3c:	892a                	mv	s2,a0
    80000d3e:	00053023          	sd	zero,0(a0)
    80000d42:	8ad2                	mv	s5,s4
    80000d44:	02000493          	li	s1,32
    80000d48:	00008597          	auipc	a1,0x8
    80000d4c:	43058593          	addi	a1,a1,1072 # 80009178 <softfloat_countLeadingZeros8+0x210>
    80000d50:	4601                	li	a2,0
    80000d52:	00008997          	auipc	s3,0x8
    80000d56:	42e98993          	addi	s3,s3,1070 # 80009180 <softfloat_countLeadingZeros8+0x218>
    80000d5a:	10000b13          	li	s6,256
    80000d5e:	fe848413          	addi	s0,s1,-24
    80000d62:	02000693          	li	a3,32
    80000d66:	854e                	mv	a0,s3
    80000d68:	f97ff0ef          	jal	ra,80000cfe <printk>
    80000d6c:	008a0733          	add	a4,s4,s0
    80000d70:	008907b3          	add	a5,s2,s0
    80000d74:	0421                	addi	s0,s0,8
    80000d76:	630c                	ld	a1,0(a4)
    80000d78:	6390                	ld	a2,0(a5)
    80000d7a:	fe9414e3          	bne	s0,s1,80000d62 <dump_tf+0x40>
    80000d7e:	46a9                	li	a3,10
    80000d80:	854e                	mv	a0,s3
    80000d82:	f7dff0ef          	jal	ra,80000cfe <printk>
    80000d86:	020a8a93          	addi	s5,s5,32
    80000d8a:	01640a63          	beq	s0,s6,80000d9e <dump_tf+0x7c>
    80000d8e:	009907b3          	add	a5,s2,s1
    80000d92:	6390                	ld	a2,0(a5)
    80000d94:	000ab583          	ld	a1,0(s5)
    80000d98:	02048493          	addi	s1,s1,32
    80000d9c:	b7c9                	j	80000d5e <dump_tf+0x3c>
    80000d9e:	7442                	ld	s0,48(sp)
    80000da0:	10093703          	ld	a4,256(s2)
    80000da4:	12092683          	lw	a3,288(s2)
    80000da8:	11093603          	ld	a2,272(s2)
    80000dac:	10893583          	ld	a1,264(s2)
    80000db0:	70e2                	ld	ra,56(sp)
    80000db2:	74a2                	ld	s1,40(sp)
    80000db4:	7902                	ld	s2,32(sp)
    80000db6:	69e2                	ld	s3,24(sp)
    80000db8:	6a42                	ld	s4,16(sp)
    80000dba:	6aa2                	ld	s5,8(sp)
    80000dbc:	6b02                	ld	s6,0(sp)
    80000dbe:	00008517          	auipc	a0,0x8
    80000dc2:	3d250513          	addi	a0,a0,978 # 80009190 <softfloat_countLeadingZeros8+0x228>
    80000dc6:	6121                	addi	sp,sp,64
    80000dc8:	f37ff06f          	j	80000cfe <printk>

0000000080000dcc <do_panic>:
    80000dcc:	711d                	addi	sp,sp,-96
    80000dce:	02810313          	addi	t1,sp,40
    80000dd2:	f42e                	sd	a1,40(sp)
    80000dd4:	859a                	mv	a1,t1
    80000dd6:	ec06                	sd	ra,24(sp)
    80000dd8:	f832                	sd	a2,48(sp)
    80000dda:	fc36                	sd	a3,56(sp)
    80000ddc:	e0ba                	sd	a4,64(sp)
    80000dde:	e4be                	sd	a5,72(sp)
    80000de0:	e8c2                	sd	a6,80(sp)
    80000de2:	ecc6                	sd	a7,88(sp)
    80000de4:	e41a                	sd	t1,8(sp)
    80000de6:	ee1ff0ef          	jal	ra,80000cc6 <vprintk>
    80000dea:	557d                	li	a0,-1
    80000dec:	c49ff0ef          	jal	ra,80000a34 <shutdown>

0000000080000df0 <kassert_fail>:
    80000df0:	1141                	addi	sp,sp,-16
    80000df2:	862a                	mv	a2,a0
    80000df4:	8586                	mv	a1,ra
    80000df6:	00008517          	auipc	a0,0x8
    80000dfa:	3c250513          	addi	a0,a0,962 # 800091b8 <softfloat_countLeadingZeros8+0x250>
    80000dfe:	e406                	sd	ra,8(sp)
    80000e00:	fcdff0ef          	jal	ra,80000dcc <do_panic>

0000000080000e04 <__page_alloc>:
    80000e04:	00014797          	auipc	a5,0x14
    80000e08:	22c78793          	addi	a5,a5,556 # 80015030 <next_free_page>
    80000e0c:	00014717          	auipc	a4,0x14
    80000e10:	21c70713          	addi	a4,a4,540 # 80015028 <free_pages>
    80000e14:	639c                	ld	a5,0(a5)
    80000e16:	6318                	ld	a4,0(a4)
    80000e18:	1141                	addi	sp,sp,-16
    80000e1a:	e406                	sd	ra,8(sp)
    80000e1c:	02e78763          	beq	a5,a4,80000e4a <__page_alloc+0x46>
    80000e20:	00014717          	auipc	a4,0x14
    80000e24:	21870713          	addi	a4,a4,536 # 80015038 <first_free_page>
    80000e28:	6314                	ld	a3,0(a4)
    80000e2a:	00c79713          	slli	a4,a5,0xc
    80000e2e:	6605                	lui	a2,0x1
    80000e30:	9736                	add	a4,a4,a3
    80000e32:	0785                	addi	a5,a5,1
    80000e34:	853a                	mv	a0,a4
    80000e36:	4581                	li	a1,0
    80000e38:	00014717          	auipc	a4,0x14
    80000e3c:	1ef73c23          	sd	a5,504(a4) # 80015030 <next_free_page>
    80000e40:	382070ef          	jal	ra,800081c2 <memset>
    80000e44:	60a2                	ld	ra,8(sp)
    80000e46:	0141                	addi	sp,sp,16
    80000e48:	8082                	ret
    80000e4a:	00008517          	auipc	a0,0x8
    80000e4e:	48650513          	addi	a0,a0,1158 # 800092d0 <softfloat_countLeadingZeros8+0x368>
    80000e52:	f9fff0ef          	jal	ra,80000df0 <kassert_fail>

0000000080000e56 <__continue_walk_create>:
    80000e56:	1101                	addi	sp,sp,-32
    80000e58:	e822                	sd	s0,16(sp)
    80000e5a:	e426                	sd	s1,8(sp)
    80000e5c:	ec06                	sd	ra,24(sp)
    80000e5e:	84ae                	mv	s1,a1
    80000e60:	842a                	mv	s0,a0
    80000e62:	fa3ff0ef          	jal	ra,80000e04 <__page_alloc>
    80000e66:	8131                	srli	a0,a0,0xc
    80000e68:	052a                	slli	a0,a0,0xa
    80000e6a:	00156513          	ori	a0,a0,1
    80000e6e:	e088                	sd	a0,0(s1)
    80000e70:	8522                	mv	a0,s0
    80000e72:	6442                	ld	s0,16(sp)
    80000e74:	60e2                	ld	ra,24(sp)
    80000e76:	64a2                	ld	s1,8(sp)
    80000e78:	4585                	li	a1,1
    80000e7a:	6105                	addi	sp,sp,32
    80000e7c:	0040006f          	j	80000e80 <__walk_internal>

0000000080000e80 <__walk_internal>:
    80000e80:	00014797          	auipc	a5,0x14
    80000e84:	28078793          	addi	a5,a5,640 # 80015100 <root_page_table>
    80000e88:	01e55713          	srli	a4,a0,0x1e
    80000e8c:	639c                	ld	a5,0(a5)
    80000e8e:	1ff77713          	andi	a4,a4,511
    80000e92:	070e                	slli	a4,a4,0x3
    80000e94:	97ba                	add	a5,a5,a4
    80000e96:	6398                	ld	a4,0(a5)
    80000e98:	00177693          	andi	a3,a4,1
    80000e9c:	c695                	beqz	a3,80000ec8 <__walk_internal+0x48>
    80000e9e:	01555793          	srli	a5,a0,0x15
    80000ea2:	8329                	srli	a4,a4,0xa
    80000ea4:	1ff7f793          	andi	a5,a5,511
    80000ea8:	0732                	slli	a4,a4,0xc
    80000eaa:	078e                	slli	a5,a5,0x3
    80000eac:	97ba                	add	a5,a5,a4
    80000eae:	6398                	ld	a4,0(a5)
    80000eb0:	00177693          	andi	a3,a4,1
    80000eb4:	ca91                	beqz	a3,80000ec8 <__walk_internal+0x48>
    80000eb6:	8131                	srli	a0,a0,0xc
    80000eb8:	8329                	srli	a4,a4,0xa
    80000eba:	1ff57513          	andi	a0,a0,511
    80000ebe:	0732                	slli	a4,a4,0xc
    80000ec0:	050e                	slli	a0,a0,0x3
    80000ec2:	972a                	add	a4,a4,a0
    80000ec4:	853a                	mv	a0,a4
    80000ec6:	8082                	ret
    80000ec8:	4701                	li	a4,0
    80000eca:	dded                	beqz	a1,80000ec4 <__walk_internal+0x44>
    80000ecc:	85be                	mv	a1,a5
    80000ece:	f89ff06f          	j	80000e56 <__continue_walk_create>

0000000080000ed2 <__handle_page_fault>:
    80000ed2:	7179                	addi	sp,sp,-48
    80000ed4:	ec26                	sd	s1,24(sp)
    80000ed6:	74fd                	lui	s1,0xfffff
    80000ed8:	8ce9                	and	s1,s1,a0
    80000eda:	e84a                	sd	s2,16(sp)
    80000edc:	e44e                	sd	s3,8(sp)
    80000ede:	892a                	mv	s2,a0
    80000ee0:	89ae                	mv	s3,a1
    80000ee2:	8526                	mv	a0,s1
    80000ee4:	4581                	li	a1,0
    80000ee6:	f406                	sd	ra,40(sp)
    80000ee8:	f022                	sd	s0,32(sp)
    80000eea:	e052                	sd	s4,0(sp)
    80000eec:	f95ff0ef          	jal	ra,80000e80 <__walk_internal>
    80000ef0:	12050f63          	beqz	a0,8000102e <__handle_page_fault+0x15c>
    80000ef4:	6100                	ld	s0,0(a0)
    80000ef6:	8a2a                	mv	s4,a0
    80000ef8:	12040b63          	beqz	s0,8000102e <__handle_page_fault+0x15c>
    80000efc:	00014797          	auipc	a5,0x14
    80000f00:	16478793          	addi	a5,a5,356 # 80015060 <current>
    80000f04:	67b8                	ld	a4,72(a5)
    80000f06:	00148793          	addi	a5,s1,1 # fffffffffffff001 <_end+0xffffffff7ffe9001>
    80000f0a:	12f76263          	bltu	a4,a5,8000102e <__handle_page_fault+0x15c>
    80000f0e:	00147793          	andi	a5,s0,1
    80000f12:	ebc1                	bnez	a5,80000fa2 <__handle_page_fault+0xd0>
    80000f14:	00014797          	auipc	a5,0x14
    80000f18:	1bc78793          	addi	a5,a5,444 # 800150d0 <first_free_paddr>
    80000f1c:	639c                	ld	a5,0(a5)
    80000f1e:	00c95913          	srli	s2,s2,0xc
    80000f22:	83b1                	srli	a5,a5,0xc
    80000f24:	993e                	add	s2,s2,a5
    80000f26:	092a                	slli	s2,s2,0xa
    80000f28:	0c796793          	ori	a5,s2,199
    80000f2c:	e11c                	sd	a5,0(a0)
    80000f2e:	12000073          	sfence.vma
    80000f32:	6808                	ld	a0,16(s0)
    80000f34:	c16d                	beqz	a0,80001016 <__handle_page_fault+0x144>
    80000f36:	601c                	ld	a5,0(s0)
    80000f38:	6410                	ld	a2,8(s0)
    80000f3a:	6c14                	ld	a3,24(s0)
    80000f3c:	6705                	lui	a4,0x1
    80000f3e:	963e                	add	a2,a2,a5
    80000f40:	96a6                	add	a3,a3,s1
    80000f42:	8e05                	sub	a2,a2,s1
    80000f44:	8e9d                	sub	a3,a3,a5
    80000f46:	0ac76a63          	bltu	a4,a2,80000ffa <__handle_page_fault+0x128>
    80000f4a:	85a6                	mv	a1,s1
    80000f4c:	8bfff0ef          	jal	ra,8000080a <file_pread>
    80000f50:	0ea05163          	blez	a0,80001032 <__handle_page_fault+0x160>
    80000f54:	6605                	lui	a2,0x1
    80000f56:	0cc54663          	blt	a0,a2,80001022 <__handle_page_fault+0x150>
    80000f5a:	501c                	lw	a5,32(s0)
    80000f5c:	6808                	ld	a0,16(s0)
    80000f5e:	fff7871b          	addiw	a4,a5,-1
    80000f62:	d018                	sw	a4,32(s0)
    80000f64:	e701                	bnez	a4,80000f6c <__handle_page_fault+0x9a>
    80000f66:	c119                	beqz	a0,80000f6c <__handle_page_fault+0x9a>
    80000f68:	e82ff0ef          	jal	ra,800005ea <file_decref>
    80000f6c:	505c                	lw	a5,36(s0)
    80000f6e:	0027f713          	andi	a4,a5,2
    80000f72:	0047f693          	andi	a3,a5,4
    80000f76:	8b85                	andi	a5,a5,1
    80000f78:	2701                	sext.w	a4,a4
    80000f7a:	2681                	sext.w	a3,a3
    80000f7c:	e799                	bnez	a5,80000f8a <__handle_page_fault+0xb8>
    80000f7e:	e341                	bnez	a4,80000ffe <__handle_page_fault+0x12c>
    80000f80:	04800413          	li	s0,72
    80000f84:	ea89                	bnez	a3,80000f96 <__handle_page_fault+0xc4>
    80000f86:	4409                	li	s0,2
    80000f88:	a039                	j	80000f96 <__handle_page_fault+0xc4>
    80000f8a:	e341                	bnez	a4,8000100a <__handle_page_fault+0x138>
    80000f8c:	04a00413          	li	s0,74
    80000f90:	e299                	bnez	a3,80000f96 <__handle_page_fault+0xc4>
    80000f92:	04200413          	li	s0,66
    80000f96:	00896433          	or	s0,s2,s0
    80000f9a:	01146413          	ori	s0,s0,17
    80000f9e:	008a3023          	sd	s0,0(s4)
    80000fa2:	0029f793          	andi	a5,s3,2
    80000fa6:	0049f713          	andi	a4,s3,4
    80000faa:	0019f593          	andi	a1,s3,1
    80000fae:	2781                	sext.w	a5,a5
    80000fb0:	2701                	sext.w	a4,a4
    80000fb2:	c19d                	beqz	a1,80000fd8 <__handle_page_fault+0x106>
    80000fb4:	e3a1                	bnez	a5,80000ff4 <__handle_page_fault+0x122>
    80000fb6:	05b00793          	li	a5,91
    80000fba:	cb39                	beqz	a4,80001010 <__handle_page_fault+0x13e>
    80000fbc:	8c7d                	and	s0,s0,a5
    80000fbe:	06f41863          	bne	s0,a5,8000102e <__handle_page_fault+0x15c>
    80000fc2:	12000073          	sfence.vma
    80000fc6:	4501                	li	a0,0
    80000fc8:	70a2                	ld	ra,40(sp)
    80000fca:	7402                	ld	s0,32(sp)
    80000fcc:	64e2                	ld	s1,24(sp)
    80000fce:	6942                	ld	s2,16(sp)
    80000fd0:	69a2                	ld	s3,8(sp)
    80000fd2:	6a02                	ld	s4,0(sp)
    80000fd4:	6145                	addi	sp,sp,48
    80000fd6:	8082                	ret
    80000fd8:	e791                	bnez	a5,80000fe4 <__handle_page_fault+0x112>
    80000fda:	05900793          	li	a5,89
    80000fde:	ff79                	bnez	a4,80000fbc <__handle_page_fault+0xea>
    80000fe0:	47cd                	li	a5,19
    80000fe2:	bfe9                	j	80000fbc <__handle_page_fault+0xea>
    80000fe4:	08400693          	li	a3,132
    80000fe8:	0596e793          	ori	a5,a3,89
    80000fec:	fb61                	bnez	a4,80000fbc <__handle_page_fault+0xea>
    80000fee:	0116e793          	ori	a5,a3,17
    80000ff2:	b7e9                	j	80000fbc <__handle_page_fault+0xea>
    80000ff4:	0c600693          	li	a3,198
    80000ff8:	bfc5                	j	80000fe8 <__handle_page_fault+0x116>
    80000ffa:	6605                	lui	a2,0x1
    80000ffc:	b7b9                	j	80000f4a <__handle_page_fault+0x78>
    80000ffe:	08400413          	li	s0,132
    80001002:	dad1                	beqz	a3,80000f96 <__handle_page_fault+0xc4>
    80001004:	04846413          	ori	s0,s0,72
    80001008:	b779                	j	80000f96 <__handle_page_fault+0xc4>
    8000100a:	0c600413          	li	s0,198
    8000100e:	bfd5                	j	80001002 <__handle_page_fault+0x130>
    80001010:	05300793          	li	a5,83
    80001014:	b765                	j	80000fbc <__handle_page_fault+0xea>
    80001016:	6605                	lui	a2,0x1
    80001018:	4581                	li	a1,0
    8000101a:	8526                	mv	a0,s1
    8000101c:	1a6070ef          	jal	ra,800081c2 <memset>
    80001020:	bf2d                	j	80000f5a <__handle_page_fault+0x88>
    80001022:	8e09                	sub	a2,a2,a0
    80001024:	4581                	li	a1,0
    80001026:	9526                	add	a0,a0,s1
    80001028:	19a070ef          	jal	ra,800081c2 <memset>
    8000102c:	b73d                	j	80000f5a <__handle_page_fault+0x88>
    8000102e:	557d                	li	a0,-1
    80001030:	bf61                	j	80000fc8 <__handle_page_fault+0xf6>
    80001032:	00008517          	auipc	a0,0x8
    80001036:	2be50513          	addi	a0,a0,702 # 800092f0 <softfloat_countLeadingZeros8+0x388>
    8000103a:	db7ff0ef          	jal	ra,80000df0 <kassert_fail>

000000008000103e <__do_munmap>:
    8000103e:	7179                	addi	sp,sp,-48
    80001040:	e84a                	sd	s2,16(sp)
    80001042:	f406                	sd	ra,40(sp)
    80001044:	f022                	sd	s0,32(sp)
    80001046:	ec26                	sd	s1,24(sp)
    80001048:	e44e                	sd	s3,8(sp)
    8000104a:	00b50933          	add	s2,a0,a1
    8000104e:	03257d63          	bgeu	a0,s2,80001088 <__do_munmap+0x4a>
    80001052:	842a                	mv	s0,a0
    80001054:	6985                	lui	s3,0x1
    80001056:	8522                	mv	a0,s0
    80001058:	4581                	li	a1,0
    8000105a:	e27ff0ef          	jal	ra,80000e80 <__walk_internal>
    8000105e:	84aa                	mv	s1,a0
    80001060:	944e                	add	s0,s0,s3
    80001062:	c10d                	beqz	a0,80001084 <__do_munmap+0x46>
    80001064:	611c                	ld	a5,0(a0)
    80001066:	0017f713          	andi	a4,a5,1
    8000106a:	cf89                	beqz	a5,80001084 <__do_munmap+0x46>
    8000106c:	eb11                	bnez	a4,80001080 <__do_munmap+0x42>
    8000106e:	5398                	lw	a4,32(a5)
    80001070:	6b94                	ld	a3,16(a5)
    80001072:	377d                	addiw	a4,a4,-1
    80001074:	d398                	sw	a4,32(a5)
    80001076:	e709                	bnez	a4,80001080 <__do_munmap+0x42>
    80001078:	8536                	mv	a0,a3
    8000107a:	c299                	beqz	a3,80001080 <__do_munmap+0x42>
    8000107c:	d6eff0ef          	jal	ra,800005ea <file_decref>
    80001080:	0004b023          	sd	zero,0(s1)
    80001084:	fd2469e3          	bltu	s0,s2,80001056 <__do_munmap+0x18>
    80001088:	12000073          	sfence.vma
    8000108c:	70a2                	ld	ra,40(sp)
    8000108e:	7402                	ld	s0,32(sp)
    80001090:	64e2                	ld	s1,24(sp)
    80001092:	6942                	ld	s2,16(sp)
    80001094:	69a2                	ld	s3,8(sp)
    80001096:	6145                	addi	sp,sp,48
    80001098:	8082                	ret

000000008000109a <__valid_user_range>:
    8000109a:	95aa                	add	a1,a1,a0
    8000109c:	00a5ed63          	bltu	a1,a0,800010b6 <__valid_user_range+0x1c>
    800010a0:	00014797          	auipc	a5,0x14
    800010a4:	fc078793          	addi	a5,a5,-64 # 80015060 <current>
    800010a8:	67a8                	ld	a0,72(a5)
    800010aa:	00b53533          	sltu	a0,a0,a1
    800010ae:	00154513          	xori	a0,a0,1
    800010b2:	2501                	sext.w	a0,a0
    800010b4:	8082                	ret
    800010b6:	4501                	li	a0,0
    800010b8:	8082                	ret

00000000800010ba <handle_page_fault>:
    800010ba:	1141                	addi	sp,sp,-16
    800010bc:	e406                	sd	ra,8(sp)
    800010be:	00014797          	auipc	a5,0x14
    800010c2:	f8a78793          	addi	a5,a5,-118 # 80015048 <vm_lock>
    800010c6:	56fd                	li	a3,-1
    800010c8:	4398                	lw	a4,0(a5)
    800010ca:	2701                	sext.w	a4,a4
    800010cc:	ff75                	bnez	a4,800010c8 <handle_page_fault+0xe>
    800010ce:	8736                	mv	a4,a3
    800010d0:	0ce7a72f          	amoswap.w.aq	a4,a4,(a5)
    800010d4:	2701                	sext.w	a4,a4
    800010d6:	0ff0000f          	fence
    800010da:	f77d                	bnez	a4,800010c8 <handle_page_fault+0xe>
    800010dc:	df7ff0ef          	jal	ra,80000ed2 <__handle_page_fault>
    800010e0:	0ff0000f          	fence
    800010e4:	60a2                	ld	ra,8(sp)
    800010e6:	00014797          	auipc	a5,0x14
    800010ea:	f607a123          	sw	zero,-158(a5) # 80015048 <vm_lock>
    800010ee:	0141                	addi	sp,sp,16
    800010f0:	8082                	ret

00000000800010f2 <__do_mmap>:
    800010f2:	7159                	addi	sp,sp,-112
    800010f4:	fc56                	sd	s5,56(sp)
    800010f6:	8ab6                	mv	s5,a3
    800010f8:	fff58693          	addi	a3,a1,-1
    800010fc:	eca6                	sd	s1,88(sp)
    800010fe:	e8ca                	sd	s2,80(sp)
    80001100:	e0d2                	sd	s4,64(sp)
    80001102:	f85a                	sd	s6,48(sp)
    80001104:	f45e                	sd	s7,40(sp)
    80001106:	8b2e                	mv	s6,a1
    80001108:	82b1                	srli	a3,a3,0xc
    8000110a:	f486                	sd	ra,104(sp)
    8000110c:	f0a2                	sd	s0,96(sp)
    8000110e:	e4ce                	sd	s3,72(sp)
    80001110:	f062                	sd	s8,32(sp)
    80001112:	ec66                	sd	s9,24(sp)
    80001114:	e86a                	sd	s10,16(sp)
    80001116:	e46e                	sd	s11,8(sp)
    80001118:	010af593          	andi	a1,s5,16
    8000111c:	8a32                	mv	s4,a2
    8000111e:	84ba                	mv	s1,a4
    80001120:	893e                	mv	s2,a5
    80001122:	00168b93          	addi	s7,a3,1
    80001126:	10058663          	beqz	a1,80001232 <__do_mmap+0x140>
    8000112a:	03451793          	slli	a5,a0,0x34
    8000112e:	e3ed                	bnez	a5,80001210 <__do_mmap+0x11e>
    80001130:	00ab07b3          	add	a5,s6,a0
    80001134:	0ca7ee63          	bltu	a5,a0,80001210 <__do_mmap+0x11e>
    80001138:	00014717          	auipc	a4,0x14
    8000113c:	f2870713          	addi	a4,a4,-216 # 80015060 <current>
    80001140:	6738                	ld	a4,72(a4)
    80001142:	89aa                	mv	s3,a0
    80001144:	0cf76663          	bltu	a4,a5,80001210 <__do_mmap+0x11e>
    80001148:	00014417          	auipc	s0,0x14
    8000114c:	ef840413          	addi	s0,s0,-264 # 80015040 <vmrs>
    80001150:	601c                	ld	a5,0(s0)
    80001152:	2b81                	sext.w	s7,s7
    80001154:	12078d63          	beqz	a5,8000128e <__do_mmap+0x19c>
    80001158:	0ff0000f          	fence
    8000115c:	6000                	ld	s0,0(s0)
    8000115e:	6705                	lui	a4,0x1
    80001160:	1741                	addi	a4,a4,-16
    80001162:	501c                	lw	a5,32(s0)
    80001164:	9722                	add	a4,a4,s0
    80001166:	c799                	beqz	a5,80001174 <__do_mmap+0x82>
    80001168:	02840413          	addi	s0,s0,40
    8000116c:	0ae40263          	beq	s0,a4,80001210 <__do_mmap+0x11e>
    80001170:	501c                	lw	a5,32(s0)
    80001172:	fbfd                	bnez	a5,80001168 <__do_mmap+0x76>
    80001174:	c481                	beqz	s1,8000117c <__do_mmap+0x8a>
    80001176:	8526                	mv	a0,s1
    80001178:	c4eff0ef          	jal	ra,800005c6 <file_incref>
    8000117c:	01343023          	sd	s3,0(s0)
    80001180:	01643423          	sd	s6,8(s0)
    80001184:	e804                	sd	s1,16(s0)
    80001186:	01243c23          	sd	s2,24(s0)
    8000118a:	03742023          	sw	s7,32(s0)
    8000118e:	03442223          	sw	s4,36(s0)
    80001192:	cc3d                	beqz	s0,80001210 <__do_mmap+0x11e>
    80001194:	9b4e                	add	s6,s6,s3
    80001196:	84ce                	mv	s1,s3
    80001198:	0169e963          	bltu	s3,s6,800011aa <__do_mmap+0xb8>
    8000119c:	a89d                	j	80001212 <__do_mmap+0x120>
    8000119e:	6785                	lui	a5,0x1
    800011a0:	00893023          	sd	s0,0(s2)
    800011a4:	94be                	add	s1,s1,a5
    800011a6:	0364f563          	bgeu	s1,s6,800011d0 <__do_mmap+0xde>
    800011aa:	4585                	li	a1,1
    800011ac:	8526                	mv	a0,s1
    800011ae:	cd3ff0ef          	jal	ra,80000e80 <__walk_internal>
    800011b2:	892a                	mv	s2,a0
    800011b4:	10050e63          	beqz	a0,800012d0 <__do_mmap+0x1de>
    800011b8:	611c                	ld	a5,0(a0)
    800011ba:	d3f5                	beqz	a5,8000119e <__do_mmap+0xac>
    800011bc:	8526                	mv	a0,s1
    800011be:	6585                	lui	a1,0x1
    800011c0:	e7fff0ef          	jal	ra,8000103e <__do_munmap>
    800011c4:	6785                	lui	a5,0x1
    800011c6:	00893023          	sd	s0,0(s2)
    800011ca:	94be                	add	s1,s1,a5
    800011cc:	fd64efe3          	bltu	s1,s6,800011aa <__do_mmap+0xb8>
    800011d0:	0000a797          	auipc	a5,0xa
    800011d4:	29478793          	addi	a5,a5,660 # 8000b464 <demand_paging>
    800011d8:	439c                	lw	a5,0(a5)
    800011da:	844e                	mv	s0,s3
    800011dc:	c789                	beqz	a5,800011e6 <__do_mmap+0xf4>
    800011de:	030a9793          	slli	a5,s5,0x30
    800011e2:	0207d863          	bgez	a5,80001212 <__do_mmap+0x120>
    800011e6:	6485                	lui	s1,0x1
    800011e8:	a021                	j	800011f0 <__do_mmap+0xfe>
    800011ea:	9426                	add	s0,s0,s1
    800011ec:	03647363          	bgeu	s0,s6,80001212 <__do_mmap+0x120>
    800011f0:	85d2                	mv	a1,s4
    800011f2:	8522                	mv	a0,s0
    800011f4:	cdfff0ef          	jal	ra,80000ed2 <__handle_page_fault>
    800011f8:	d96d                	beqz	a0,800011ea <__do_mmap+0xf8>
    800011fa:	00008517          	auipc	a0,0x8
    800011fe:	10650513          	addi	a0,a0,262 # 80009300 <softfloat_countLeadingZeros8+0x398>
    80001202:	befff0ef          	jal	ra,80000df0 <kassert_fail>
    80001206:	99ea                	add	s3,s3,s10
    80001208:	07346863          	bltu	s0,s3,80001278 <__do_mmap+0x186>
    8000120c:	f2099ee3          	bnez	s3,80001148 <__do_mmap+0x56>
    80001210:	59fd                	li	s3,-1
    80001212:	70a6                	ld	ra,104(sp)
    80001214:	7406                	ld	s0,96(sp)
    80001216:	854e                	mv	a0,s3
    80001218:	64e6                	ld	s1,88(sp)
    8000121a:	6946                	ld	s2,80(sp)
    8000121c:	69a6                	ld	s3,72(sp)
    8000121e:	6a06                	ld	s4,64(sp)
    80001220:	7ae2                	ld	s5,56(sp)
    80001222:	7b42                	ld	s6,48(sp)
    80001224:	7ba2                	ld	s7,40(sp)
    80001226:	7c02                	ld	s8,32(sp)
    80001228:	6ce2                	ld	s9,24(sp)
    8000122a:	6d42                	ld	s10,16(sp)
    8000122c:	6da2                	ld	s11,8(sp)
    8000122e:	6165                	addi	sp,sp,112
    80001230:	8082                	ret
    80001232:	00014797          	auipc	a5,0x14
    80001236:	e2e78793          	addi	a5,a5,-466 # 80015060 <current>
    8000123a:	0487bc83          	ld	s9,72(a5)
    8000123e:	7f80                	ld	s0,56(a5)
    80001240:	00cb9c13          	slli	s8,s7,0xc
    80001244:	418c8cb3          	sub	s9,s9,s8
    80001248:	fc8ce4e3          	bltu	s9,s0,80001210 <__do_mmap+0x11e>
    8000124c:	7d7d                	lui	s10,0xfffff
    8000124e:	4581                	li	a1,0
    80001250:	8522                	mv	a0,s0
    80001252:	9c6a                	add	s8,s8,s10
    80001254:	6d85                	lui	s11,0x1
    80001256:	c2bff0ef          	jal	ra,80000e80 <__walk_internal>
    8000125a:	c919                	beqz	a0,80001270 <__do_mmap+0x17e>
    8000125c:	611c                	ld	a5,0(a0)
    8000125e:	cb89                	beqz	a5,80001270 <__do_mmap+0x17e>
    80001260:	946e                	add	s0,s0,s11
    80001262:	fa8ce7e3          	bltu	s9,s0,80001210 <__do_mmap+0x11e>
    80001266:	4581                	li	a1,0
    80001268:	8522                	mv	a0,s0
    8000126a:	c17ff0ef          	jal	ra,80000e80 <__walk_internal>
    8000126e:	f57d                	bnez	a0,8000125c <__do_mmap+0x16a>
    80001270:	008c09b3          	add	s3,s8,s0
    80001274:	f9347ce3          	bgeu	s0,s3,8000120c <__do_mmap+0x11a>
    80001278:	4581                	li	a1,0
    8000127a:	854e                	mv	a0,s3
    8000127c:	c05ff0ef          	jal	ra,80000e80 <__walk_internal>
    80001280:	d159                	beqz	a0,80001206 <__do_mmap+0x114>
    80001282:	611c                	ld	a5,0(a0)
    80001284:	d3c9                	beqz	a5,80001206 <__do_mmap+0x114>
    80001286:	ed3471e3          	bgeu	s0,s3,80001148 <__do_mmap+0x56>
    8000128a:	844e                	mv	s0,s3
    8000128c:	bfd1                	j	80001260 <__do_mmap+0x16e>
    8000128e:	00014717          	auipc	a4,0x14
    80001292:	dba70713          	addi	a4,a4,-582 # 80015048 <vm_lock>
    80001296:	56fd                	li	a3,-1
    80001298:	431c                	lw	a5,0(a4)
    8000129a:	2781                	sext.w	a5,a5
    8000129c:	fff5                	bnez	a5,80001298 <__do_mmap+0x1a6>
    8000129e:	87b6                	mv	a5,a3
    800012a0:	0cf727af          	amoswap.w.aq	a5,a5,(a4)
    800012a4:	2781                	sext.w	a5,a5
    800012a6:	0ff0000f          	fence
    800012aa:	f7fd                	bnez	a5,80001298 <__do_mmap+0x1a6>
    800012ac:	601c                	ld	a5,0(s0)
    800012ae:	cb81                	beqz	a5,800012be <__do_mmap+0x1cc>
    800012b0:	0ff0000f          	fence
    800012b4:	00014797          	auipc	a5,0x14
    800012b8:	d807aa23          	sw	zero,-620(a5) # 80015048 <vm_lock>
    800012bc:	bd71                	j	80001158 <__do_mmap+0x66>
    800012be:	b47ff0ef          	jal	ra,80000e04 <__page_alloc>
    800012c2:	0ff0000f          	fence
    800012c6:	00014797          	auipc	a5,0x14
    800012ca:	d6a7bd23          	sd	a0,-646(a5) # 80015040 <vmrs>
    800012ce:	b7cd                	j	800012b0 <__do_mmap+0x1be>
    800012d0:	00008517          	auipc	a0,0x8
    800012d4:	02850513          	addi	a0,a0,40 # 800092f8 <softfloat_countLeadingZeros8+0x390>
    800012d8:	b19ff0ef          	jal	ra,80000df0 <kassert_fail>

00000000800012dc <do_munmap>:
    800012dc:	1141                	addi	sp,sp,-16
    800012de:	e406                	sd	ra,8(sp)
    800012e0:	e022                	sd	s0,0(sp)
    800012e2:	03451793          	slli	a5,a0,0x34
    800012e6:	eba9                	bnez	a5,80001338 <do_munmap+0x5c>
    800012e8:	00b507b3          	add	a5,a0,a1
    800012ec:	5429                	li	s0,-22
    800012ee:	04a7e063          	bltu	a5,a0,8000132e <do_munmap+0x52>
    800012f2:	00014717          	auipc	a4,0x14
    800012f6:	d6e70713          	addi	a4,a4,-658 # 80015060 <current>
    800012fa:	6738                	ld	a4,72(a4)
    800012fc:	02f76963          	bltu	a4,a5,8000132e <do_munmap+0x52>
    80001300:	00014717          	auipc	a4,0x14
    80001304:	d4870713          	addi	a4,a4,-696 # 80015048 <vm_lock>
    80001308:	56fd                	li	a3,-1
    8000130a:	4300                	lw	s0,0(a4)
    8000130c:	2401                	sext.w	s0,s0
    8000130e:	fc75                	bnez	s0,8000130a <do_munmap+0x2e>
    80001310:	87b6                	mv	a5,a3
    80001312:	0cf727af          	amoswap.w.aq	a5,a5,(a4)
    80001316:	2781                	sext.w	a5,a5
    80001318:	0ff0000f          	fence
    8000131c:	f7fd                	bnez	a5,8000130a <do_munmap+0x2e>
    8000131e:	d21ff0ef          	jal	ra,8000103e <__do_munmap>
    80001322:	0ff0000f          	fence
    80001326:	00014797          	auipc	a5,0x14
    8000132a:	d207a123          	sw	zero,-734(a5) # 80015048 <vm_lock>
    8000132e:	8522                	mv	a0,s0
    80001330:	60a2                	ld	ra,8(sp)
    80001332:	6402                	ld	s0,0(sp)
    80001334:	0141                	addi	sp,sp,16
    80001336:	8082                	ret
    80001338:	5429                	li	s0,-22
    8000133a:	bfd5                	j	8000132e <do_munmap+0x52>

000000008000133c <do_mmap>:
    8000133c:	7139                	addi	sp,sp,-64
    8000133e:	f822                	sd	s0,48(sp)
    80001340:	fc06                	sd	ra,56(sp)
    80001342:	f426                	sd	s1,40(sp)
    80001344:	0026f813          	andi	a6,a3,2
    80001348:	5429                	li	s0,-22
    8000134a:	08080163          	beqz	a6,800013cc <do_mmap+0x90>
    8000134e:	cdbd                	beqz	a1,800013cc <do_mmap+0x90>
    80001350:	03479493          	slli	s1,a5,0x34
    80001354:	eca5                	bnez	s1,800013cc <do_mmap+0x90>
    80001356:	842a                	mv	s0,a0
    80001358:	0206f513          	andi	a0,a3,32
    8000135c:	ed35                	bnez	a0,800013d8 <do_mmap+0x9c>
    8000135e:	853a                	mv	a0,a4
    80001360:	ec3e                	sd	a5,24(sp)
    80001362:	e832                	sd	a2,16(sp)
    80001364:	e42e                	sd	a1,8(sp)
    80001366:	e036                	sd	a3,0(sp)
    80001368:	b2aff0ef          	jal	ra,80000692 <file_get>
    8000136c:	84aa                	mv	s1,a0
    8000136e:	6682                	ld	a3,0(sp)
    80001370:	65a2                	ld	a1,8(sp)
    80001372:	6642                	ld	a2,16(sp)
    80001374:	67e2                	ld	a5,24(sp)
    80001376:	c13d                	beqz	a0,800013dc <do_mmap+0xa0>
    80001378:	00014817          	auipc	a6,0x14
    8000137c:	cd080813          	addi	a6,a6,-816 # 80015048 <vm_lock>
    80001380:	557d                	li	a0,-1
    80001382:	00082703          	lw	a4,0(a6)
    80001386:	2701                	sext.w	a4,a4
    80001388:	ff6d                	bnez	a4,80001382 <do_mmap+0x46>
    8000138a:	872a                	mv	a4,a0
    8000138c:	0ce8272f          	amoswap.w.aq	a4,a4,(a6)
    80001390:	2701                	sext.w	a4,a4
    80001392:	0ff0000f          	fence
    80001396:	f775                	bnez	a4,80001382 <do_mmap+0x46>
    80001398:	8522                	mv	a0,s0
    8000139a:	8726                	mv	a4,s1
    8000139c:	d57ff0ef          	jal	ra,800010f2 <__do_mmap>
    800013a0:	00014797          	auipc	a5,0x14
    800013a4:	cc078793          	addi	a5,a5,-832 # 80015060 <current>
    800013a8:	63bc                	ld	a5,64(a5)
    800013aa:	842a                	mv	s0,a0
    800013ac:	00f57663          	bgeu	a0,a5,800013b8 <do_mmap+0x7c>
    800013b0:	00014797          	auipc	a5,0x14
    800013b4:	cea7b823          	sd	a0,-784(a5) # 800150a0 <current+0x40>
    800013b8:	0ff0000f          	fence
    800013bc:	00014797          	auipc	a5,0x14
    800013c0:	c807a623          	sw	zero,-884(a5) # 80015048 <vm_lock>
    800013c4:	c481                	beqz	s1,800013cc <do_mmap+0x90>
    800013c6:	8526                	mv	a0,s1
    800013c8:	a22ff0ef          	jal	ra,800005ea <file_decref>
    800013cc:	8522                	mv	a0,s0
    800013ce:	70e2                	ld	ra,56(sp)
    800013d0:	7442                	ld	s0,48(sp)
    800013d2:	74a2                	ld	s1,40(sp)
    800013d4:	6121                	addi	sp,sp,64
    800013d6:	8082                	ret
    800013d8:	4481                	li	s1,0
    800013da:	bf79                	j	80001378 <do_mmap+0x3c>
    800013dc:	545d                	li	s0,-9
    800013de:	b7fd                	j	800013cc <do_mmap+0x90>

00000000800013e0 <__do_brk>:
    800013e0:	1101                	addi	sp,sp,-32
    800013e2:	e04a                	sd	s2,0(sp)
    800013e4:	00014917          	auipc	s2,0x14
    800013e8:	c7c90913          	addi	s2,s2,-900 # 80015060 <current>
    800013ec:	03093783          	ld	a5,48(s2)
    800013f0:	e426                	sd	s1,8(sp)
    800013f2:	ec06                	sd	ra,24(sp)
    800013f4:	e822                	sd	s0,16(sp)
    800013f6:	84be                	mv	s1,a5
    800013f8:	00f56663          	bltu	a0,a5,80001404 <__do_brk+0x24>
    800013fc:	04093483          	ld	s1,64(s2)
    80001400:	04956363          	bltu	a0,s1,80001446 <__do_brk+0x66>
    80001404:	03893503          	ld	a0,56(s2)
    80001408:	e911                	bnez	a0,8000141c <__do_brk+0x3c>
    8000140a:	757d                	lui	a0,0xfffff
    8000140c:	17fd                	addi	a5,a5,-1
    8000140e:	8fe9                	and	a5,a5,a0
    80001410:	6505                	lui	a0,0x1
    80001412:	953e                	add	a0,a0,a5
    80001414:	00014797          	auipc	a5,0x14
    80001418:	c8a7b223          	sd	a0,-892(a5) # 80015098 <current+0x38>
    8000141c:	77fd                	lui	a5,0xfffff
    8000141e:	fff48413          	addi	s0,s1,-1 # fff <_ftext-0x7ffff001>
    80001422:	8c7d                	and	s0,s0,a5
    80001424:	6785                	lui	a5,0x1
    80001426:	943e                	add	s0,s0,a5
    80001428:	04a46463          	bltu	s0,a0,80001470 <__do_brk+0x90>
    8000142c:	00856f63          	bltu	a0,s0,8000144a <__do_brk+0x6a>
    80001430:	00014797          	auipc	a5,0x14
    80001434:	c687b423          	sd	s0,-920(a5) # 80015098 <current+0x38>
    80001438:	60e2                	ld	ra,24(sp)
    8000143a:	6442                	ld	s0,16(sp)
    8000143c:	8526                	mv	a0,s1
    8000143e:	6902                	ld	s2,0(sp)
    80001440:	64a2                	ld	s1,8(sp)
    80001442:	6105                	addi	sp,sp,32
    80001444:	8082                	ret
    80001446:	84aa                	mv	s1,a0
    80001448:	bf75                	j	80001404 <__do_brk+0x24>
    8000144a:	4781                	li	a5,0
    8000144c:	4701                	li	a4,0
    8000144e:	03200693          	li	a3,50
    80001452:	567d                	li	a2,-1
    80001454:	40a405b3          	sub	a1,s0,a0
    80001458:	c9bff0ef          	jal	ra,800010f2 <__do_mmap>
    8000145c:	03893783          	ld	a5,56(s2)
    80001460:	fcf508e3          	beq	a0,a5,80001430 <__do_brk+0x50>
    80001464:	00008517          	auipc	a0,0x8
    80001468:	ec450513          	addi	a0,a0,-316 # 80009328 <softfloat_countLeadingZeros8+0x3c0>
    8000146c:	985ff0ef          	jal	ra,80000df0 <kassert_fail>
    80001470:	408505b3          	sub	a1,a0,s0
    80001474:	8522                	mv	a0,s0
    80001476:	bc9ff0ef          	jal	ra,8000103e <__do_munmap>
    8000147a:	bf5d                	j	80001430 <__do_brk+0x50>

000000008000147c <do_brk>:
    8000147c:	1141                	addi	sp,sp,-16
    8000147e:	e406                	sd	ra,8(sp)
    80001480:	00014797          	auipc	a5,0x14
    80001484:	bc878793          	addi	a5,a5,-1080 # 80015048 <vm_lock>
    80001488:	56fd                	li	a3,-1
    8000148a:	4398                	lw	a4,0(a5)
    8000148c:	2701                	sext.w	a4,a4
    8000148e:	ff75                	bnez	a4,8000148a <do_brk+0xe>
    80001490:	8736                	mv	a4,a3
    80001492:	0ce7a72f          	amoswap.w.aq	a4,a4,(a5)
    80001496:	2701                	sext.w	a4,a4
    80001498:	0ff0000f          	fence
    8000149c:	f77d                	bnez	a4,8000148a <do_brk+0xe>
    8000149e:	f43ff0ef          	jal	ra,800013e0 <__do_brk>
    800014a2:	0ff0000f          	fence
    800014a6:	60a2                	ld	ra,8(sp)
    800014a8:	00014797          	auipc	a5,0x14
    800014ac:	ba07a023          	sw	zero,-1120(a5) # 80015048 <vm_lock>
    800014b0:	0141                	addi	sp,sp,16
    800014b2:	8082                	ret

00000000800014b4 <do_mremap>:
    800014b4:	fa800513          	li	a0,-88
    800014b8:	8082                	ret

00000000800014ba <do_mprotect>:
    800014ba:	715d                	addi	sp,sp,-80
    800014bc:	ec56                	sd	s5,24(sp)
    800014be:	03451a93          	slli	s5,a0,0x34
    800014c2:	e486                	sd	ra,72(sp)
    800014c4:	e0a2                	sd	s0,64(sp)
    800014c6:	fc26                	sd	s1,56(sp)
    800014c8:	f84a                	sd	s2,48(sp)
    800014ca:	f44e                	sd	s3,40(sp)
    800014cc:	f052                	sd	s4,32(sp)
    800014ce:	e85a                	sd	s6,16(sp)
    800014d0:	e45e                	sd	s7,8(sp)
    800014d2:	e062                	sd	s8,0(sp)
    800014d4:	034ada93          	srli	s5,s5,0x34
    800014d8:	120a9563          	bnez	s5,80001602 <do_mprotect+0x148>
    800014dc:	8c2a                	mv	s8,a0
    800014de:	8932                	mv	s2,a2
    800014e0:	00014717          	auipc	a4,0x14
    800014e4:	b6870713          	addi	a4,a4,-1176 # 80015048 <vm_lock>
    800014e8:	56fd                	li	a3,-1
    800014ea:	431c                	lw	a5,0(a4)
    800014ec:	2781                	sext.w	a5,a5
    800014ee:	fff5                	bnez	a5,800014ea <do_mprotect+0x30>
    800014f0:	87b6                	mv	a5,a3
    800014f2:	0cf727af          	amoswap.w.aq	a5,a5,(a4)
    800014f6:	2781                	sext.w	a5,a5
    800014f8:	0ff0000f          	fence
    800014fc:	f7fd                	bnez	a5,800014ea <do_mprotect+0x30>
    800014fe:	00bc09b3          	add	s3,s8,a1
    80001502:	093c7763          	bgeu	s8,s3,80001590 <do_mprotect+0xd6>
    80001506:	00197a13          	andi	s4,s2,1
    8000150a:	4b01                	li	s6,0
    8000150c:	0e0a1663          	bnez	s4,800015f8 <do_mprotect+0x13e>
    80001510:	00297413          	andi	s0,s2,2
    80001514:	00497493          	andi	s1,s2,4
    80001518:	084b6b93          	ori	s7,s6,132
    8000151c:	2401                	sext.w	s0,s0
    8000151e:	2481                	sext.w	s1,s1
    80001520:	0ccb6b13          	ori	s6,s6,204
    80001524:	a821                	j	8000153c <do_mprotect+0x82>
    80001526:	53d8                	lw	a4,36(a5)
    80001528:	00e966b3          	or	a3,s2,a4
    8000152c:	0ce69963          	bne	a3,a4,800015fe <do_mprotect+0x144>
    80001530:	0327a223          	sw	s2,36(a5)
    80001534:	6785                	lui	a5,0x1
    80001536:	9c3e                	add	s8,s8,a5
    80001538:	053c7c63          	bgeu	s8,s3,80001590 <do_mprotect+0xd6>
    8000153c:	4581                	li	a1,0
    8000153e:	8562                	mv	a0,s8
    80001540:	941ff0ef          	jal	ra,80000e80 <__walk_internal>
    80001544:	c169                	beqz	a0,80001606 <do_mprotect+0x14c>
    80001546:	611c                	ld	a5,0(a0)
    80001548:	cfdd                	beqz	a5,80001606 <do_mprotect+0x14c>
    8000154a:	0017f713          	andi	a4,a5,1
    8000154e:	df61                	beqz	a4,80001526 <do_mprotect+0x6c>
    80001550:	0107f713          	andi	a4,a5,16
    80001554:	c74d                	beqz	a4,800015fe <do_mprotect+0x144>
    80001556:	000a0563          	beqz	s4,80001560 <do_mprotect+0xa6>
    8000155a:	0027f713          	andi	a4,a5,2
    8000155e:	c345                	beqz	a4,800015fe <do_mprotect+0x144>
    80001560:	c401                	beqz	s0,80001568 <do_mprotect+0xae>
    80001562:	0047f713          	andi	a4,a5,4
    80001566:	cf41                	beqz	a4,800015fe <do_mprotect+0x144>
    80001568:	c481                	beqz	s1,80001570 <do_mprotect+0xb6>
    8000156a:	0087f713          	andi	a4,a5,8
    8000156e:	cb41                	beqz	a4,800015fe <do_mprotect+0x144>
    80001570:	040a1f63          	bnez	s4,800015ce <do_mprotect+0x114>
    80001574:	e039                	bnez	s0,800015ba <do_mprotect+0x100>
    80001576:	04800713          	li	a4,72
    8000157a:	c4bd                	beqz	s1,800015e8 <do_mprotect+0x12e>
    8000157c:	c007f793          	andi	a5,a5,-1024
    80001580:	8fd9                	or	a5,a5,a4
    80001582:	0117e793          	ori	a5,a5,17
    80001586:	e11c                	sd	a5,0(a0)
    80001588:	6785                	lui	a5,0x1
    8000158a:	9c3e                	add	s8,s8,a5
    8000158c:	fb3c68e3          	bltu	s8,s3,8000153c <do_mprotect+0x82>
    80001590:	0ff0000f          	fence
    80001594:	00014797          	auipc	a5,0x14
    80001598:	aa07aa23          	sw	zero,-1356(a5) # 80015048 <vm_lock>
    8000159c:	12000073          	sfence.vma
    800015a0:	60a6                	ld	ra,72(sp)
    800015a2:	6406                	ld	s0,64(sp)
    800015a4:	8556                	mv	a0,s5
    800015a6:	74e2                	ld	s1,56(sp)
    800015a8:	7942                	ld	s2,48(sp)
    800015aa:	79a2                	ld	s3,40(sp)
    800015ac:	7a02                	ld	s4,32(sp)
    800015ae:	6ae2                	ld	s5,24(sp)
    800015b0:	6b42                	ld	s6,16(sp)
    800015b2:	6ba2                	ld	s7,8(sp)
    800015b4:	6c02                	ld	s8,0(sp)
    800015b6:	6161                	addi	sp,sp,80
    800015b8:	8082                	ret
    800015ba:	875e                	mv	a4,s7
    800015bc:	d0e1                	beqz	s1,8000157c <do_mprotect+0xc2>
    800015be:	875a                	mv	a4,s6
    800015c0:	c007f793          	andi	a5,a5,-1024
    800015c4:	8fd9                	or	a5,a5,a4
    800015c6:	0117e793          	ori	a5,a5,17
    800015ca:	e11c                	sd	a5,0(a0)
    800015cc:	bf75                	j	80001588 <do_mprotect+0xce>
    800015ce:	f475                	bnez	s0,800015ba <do_mprotect+0x100>
    800015d0:	04a00713          	li	a4,74
    800015d4:	f4c5                	bnez	s1,8000157c <do_mprotect+0xc2>
    800015d6:	04200713          	li	a4,66
    800015da:	c007f793          	andi	a5,a5,-1024
    800015de:	8fd9                	or	a5,a5,a4
    800015e0:	0117e793          	ori	a5,a5,17
    800015e4:	e11c                	sd	a5,0(a0)
    800015e6:	b74d                	j	80001588 <do_mprotect+0xce>
    800015e8:	4709                	li	a4,2
    800015ea:	c007f793          	andi	a5,a5,-1024
    800015ee:	8fd9                	or	a5,a5,a4
    800015f0:	0117e793          	ori	a5,a5,17
    800015f4:	e11c                	sd	a5,0(a0)
    800015f6:	bf49                	j	80001588 <do_mprotect+0xce>
    800015f8:	04200b13          	li	s6,66
    800015fc:	bf11                	j	80001510 <do_mprotect+0x56>
    800015fe:	5acd                	li	s5,-13
    80001600:	bf41                	j	80001590 <do_mprotect+0xd6>
    80001602:	5aa9                	li	s5,-22
    80001604:	bf71                	j	800015a0 <do_mprotect+0xe6>
    80001606:	5ad1                	li	s5,-12
    80001608:	b761                	j	80001590 <do_mprotect+0xd6>

000000008000160a <__map_kernel_range>:
    8000160a:	715d                	addi	sp,sp,-80
    8000160c:	e0a2                	sd	s0,64(sp)
    8000160e:	fff60413          	addi	s0,a2,-1 # fff <_ftext-0x7ffff001>
    80001612:	767d                	lui	a2,0xfffff
    80001614:	8c71                	and	s0,s0,a2
    80001616:	6785                	lui	a5,0x1
    80001618:	943e                	add	s0,s0,a5
    8000161a:	f052                	sd	s4,32(sp)
    8000161c:	e486                	sd	ra,72(sp)
    8000161e:	fc26                	sd	s1,56(sp)
    80001620:	f84a                	sd	s2,48(sp)
    80001622:	f44e                	sd	s3,40(sp)
    80001624:	ec56                	sd	s5,24(sp)
    80001626:	e85a                	sd	s6,16(sp)
    80001628:	e45e                	sd	s7,8(sp)
    8000162a:	8031                	srli	s0,s0,0xc
    8000162c:	40a58a33          	sub	s4,a1,a0
    80001630:	cc2d                	beqz	s0,800016aa <__map_kernel_range+0xa0>
    80001632:	0016f993          	andi	s3,a3,1
    80001636:	8baa                	mv	s7,a0
    80001638:	4b01                	li	s6,0
    8000163a:	08099763          	bnez	s3,800016c8 <__map_kernel_range+0xbe>
    8000163e:	0026f913          	andi	s2,a3,2
    80001642:	0432                	slli	s0,s0,0xc
    80001644:	8a91                	andi	a3,a3,4
    80001646:	084b6a93          	ori	s5,s6,132
    8000164a:	945e                	add	s0,s0,s7
    8000164c:	2901                	sext.w	s2,s2
    8000164e:	0006849b          	sext.w	s1,a3
    80001652:	0ccb6b13          	ori	s6,s6,204
    80001656:	a005                	j	80001676 <__map_kernel_range+0x6c>
    80001658:	06091463          	bnez	s2,800016c0 <__map_kernel_range+0xb6>
    8000165c:	04800713          	li	a4,72
    80001660:	e091                	bnez	s1,80001664 <__map_kernel_range+0x5a>
    80001662:	4709                	li	a4,2
    80001664:	07aa                	slli	a5,a5,0xa
    80001666:	8fd9                	or	a5,a5,a4
    80001668:	0017e793          	ori	a5,a5,1
    8000166c:	e11c                	sd	a5,0(a0)
    8000166e:	6785                	lui	a5,0x1
    80001670:	9bbe                	add	s7,s7,a5
    80001672:	028b8c63          	beq	s7,s0,800016aa <__map_kernel_range+0xa0>
    80001676:	4585                	li	a1,1
    80001678:	855e                	mv	a0,s7
    8000167a:	807ff0ef          	jal	ra,80000e80 <__walk_internal>
    8000167e:	c921                	beqz	a0,800016ce <__map_kernel_range+0xc4>
    80001680:	017a07b3          	add	a5,s4,s7
    80001684:	83b1                	srli	a5,a5,0xc
    80001686:	fc0989e3          	beqz	s3,80001658 <__map_kernel_range+0x4e>
    8000168a:	02091b63          	bnez	s2,800016c0 <__map_kernel_range+0xb6>
    8000168e:	04a00713          	li	a4,74
    80001692:	f8e9                	bnez	s1,80001664 <__map_kernel_range+0x5a>
    80001694:	04200713          	li	a4,66
    80001698:	07aa                	slli	a5,a5,0xa
    8000169a:	8fd9                	or	a5,a5,a4
    8000169c:	0017e793          	ori	a5,a5,1
    800016a0:	e11c                	sd	a5,0(a0)
    800016a2:	6785                	lui	a5,0x1
    800016a4:	9bbe                	add	s7,s7,a5
    800016a6:	fc8b98e3          	bne	s7,s0,80001676 <__map_kernel_range+0x6c>
    800016aa:	60a6                	ld	ra,72(sp)
    800016ac:	6406                	ld	s0,64(sp)
    800016ae:	74e2                	ld	s1,56(sp)
    800016b0:	7942                	ld	s2,48(sp)
    800016b2:	79a2                	ld	s3,40(sp)
    800016b4:	7a02                	ld	s4,32(sp)
    800016b6:	6ae2                	ld	s5,24(sp)
    800016b8:	6b42                	ld	s6,16(sp)
    800016ba:	6ba2                	ld	s7,8(sp)
    800016bc:	6161                	addi	sp,sp,80
    800016be:	8082                	ret
    800016c0:	8756                	mv	a4,s5
    800016c2:	d0cd                	beqz	s1,80001664 <__map_kernel_range+0x5a>
    800016c4:	875a                	mv	a4,s6
    800016c6:	bf79                	j	80001664 <__map_kernel_range+0x5a>
    800016c8:	04200b13          	li	s6,66
    800016cc:	bf8d                	j	8000163e <__map_kernel_range+0x34>
    800016ce:	00008517          	auipc	a0,0x8
    800016d2:	c2a50513          	addi	a0,a0,-982 # 800092f8 <softfloat_countLeadingZeros8+0x390>
    800016d6:	f1aff0ef          	jal	ra,80000df0 <kassert_fail>

00000000800016da <populate_mapping>:
    800016da:	77fd                	lui	a5,0xfffff
    800016dc:	8a09                	andi	a2,a2,2
    800016de:	8fe9                	and	a5,a5,a0
    800016e0:	95aa                	add	a1,a1,a0
    800016e2:	2601                	sext.w	a2,a2
    800016e4:	6705                	lui	a4,0x1
    800016e6:	00b7f763          	bgeu	a5,a1,800016f4 <populate_mapping+0x1a>
    800016ea:	e611                	bnez	a2,800016f6 <populate_mapping+0x1c>
    800016ec:	4394                	lw	a3,0(a5)
    800016ee:	97ba                	add	a5,a5,a4
    800016f0:	feb7ede3          	bltu	a5,a1,800016ea <populate_mapping+0x10>
    800016f4:	8082                	ret
    800016f6:	0f50000f          	fence	iorw,ow
    800016fa:	0407a02f          	amoadd.w.aq	zero,zero,(a5)
    800016fe:	bfc5                	j	800016ee <populate_mapping+0x14>

0000000080001700 <pk_vm_init>:
    80001700:	7179                	addi	sp,sp,-48
    80001702:	e44e                	sd	s3,8(sp)
    80001704:	00014997          	auipc	s3,0x14
    80001708:	9e498993          	addi	s3,s3,-1564 # 800150e8 <mem_size>
    8000170c:	f022                	sd	s0,32(sp)
    8000170e:	0009b403          	ld	s0,0(s3)
    80001712:	4785                	li	a5,1
    80001714:	f406                	sd	ra,40(sp)
    80001716:	ec26                	sd	s1,24(sp)
    80001718:	e84a                	sd	s2,16(sp)
    8000171a:	07fe                	slli	a5,a5,0x1f
    8000171c:	0087f363          	bgeu	a5,s0,80001722 <pk_vm_init+0x22>
    80001720:	843e                	mv	s0,a5
    80001722:	00014797          	auipc	a5,0x14
    80001726:	9c87b323          	sd	s0,-1594(a5) # 800150e8 <mem_size>
    8000172a:	01445713          	srli	a4,s0,0x14
    8000172e:	47a1                	li	a5,8
    80001730:	00f77363          	bgeu	a4,a5,80001736 <pk_vm_init+0x36>
    80001734:	4721                	li	a4,8
    80001736:	76fd                	lui	a3,0xfffff
    80001738:	00015797          	auipc	a5,0x15
    8000173c:	8c778793          	addi	a5,a5,-1849 # 80015fff <hart_mask+0xec7>
    80001740:	8ff5                	and	a5,a5,a3
    80001742:	6685                	lui	a3,0x1
    80001744:	97b6                	add	a5,a5,a3
    80001746:	00c71693          	slli	a3,a4,0xc
    8000174a:	96be                	add	a3,a3,a5
    8000174c:	00014617          	auipc	a2,0x14
    80001750:	8ce63e23          	sd	a4,-1828(a2) # 80015028 <free_pages>
    80001754:	00014917          	auipc	s2,0x14
    80001758:	97c90913          	addi	s2,s2,-1668 # 800150d0 <first_free_paddr>
    8000175c:	00014717          	auipc	a4,0x14
    80001760:	8cf73e23          	sd	a5,-1828(a4) # 80015038 <first_free_page>
    80001764:	00014797          	auipc	a5,0x14
    80001768:	96d7b623          	sd	a3,-1684(a5) # 800150d0 <first_free_paddr>
    8000176c:	e98ff0ef          	jal	ra,80000e04 <__page_alloc>
    80001770:	00093783          	ld	a5,0(s2)
    80001774:	4485                	li	s1,1
    80001776:	01f49593          	slli	a1,s1,0x1f
    8000177a:	80000637          	lui	a2,0x80000
    8000177e:	00014717          	auipc	a4,0x14
    80001782:	98a73123          	sd	a0,-1662(a4) # 80015100 <root_page_table>
    80001786:	963e                	add	a2,a2,a5
    80001788:	852e                	mv	a0,a1
    8000178a:	469d                	li	a3,7
    8000178c:	e7fff0ef          	jal	ra,8000160a <__map_kernel_range>
    80001790:	0009b503          	ld	a0,0(s3)
    80001794:	00093703          	ld	a4,0(s2)
    80001798:	01f49793          	slli	a5,s1,0x1f
    8000179c:	953e                	add	a0,a0,a5
    8000179e:	8d19                	sub	a0,a0,a4
    800017a0:	00a7f363          	bgeu	a5,a0,800017a6 <pk_vm_init+0xa6>
    800017a4:	853e                	mv	a0,a5
    800017a6:	00014797          	auipc	a5,0x14
    800017aa:	8ea7bd23          	sd	a0,-1798(a5) # 800150a0 <current+0x40>
    800017ae:	00014797          	auipc	a5,0x14
    800017b2:	8ea7bd23          	sd	a0,-1798(a5) # 800150a8 <current+0x48>
    800017b6:	6785                	lui	a5,0x1
    800017b8:	8045                	srli	s0,s0,0x11
    800017ba:	80078793          	addi	a5,a5,-2048 # 800 <_ftext-0x7ffff800>
    800017be:	0087f363          	bgeu	a5,s0,800017c4 <pk_vm_init+0xc4>
    800017c2:	843e                	mv	s0,a5
    800017c4:	0432                	slli	s0,s0,0xc
    800017c6:	4701                	li	a4,0
    800017c8:	4781                	li	a5,0
    800017ca:	03200693          	li	a3,50
    800017ce:	461d                	li	a2,7
    800017d0:	85a2                	mv	a1,s0
    800017d2:	8d01                	sub	a0,a0,s0
    800017d4:	91fff0ef          	jal	ra,800010f2 <__do_mmap>
    800017d8:	577d                	li	a4,-1
    800017da:	02e50e63          	beq	a0,a4,80001816 <pk_vm_init+0x116>
    800017de:	942a                	add	s0,s0,a0
    800017e0:	00014797          	auipc	a5,0x14
    800017e4:	8c87b823          	sd	s0,-1840(a5) # 800150b0 <current+0x50>
    800017e8:	12000073          	sfence.vma
    800017ec:	00014797          	auipc	a5,0x14
    800017f0:	91478793          	addi	a5,a5,-1772 # 80015100 <root_page_table>
    800017f4:	639c                	ld	a5,0(a5)
    800017f6:	177e                	slli	a4,a4,0x3f
    800017f8:	83b1                	srli	a5,a5,0xc
    800017fa:	8fd9                	or	a5,a5,a4
    800017fc:	18079073          	csrw	satp,a5
    80001800:	e04ff0ef          	jal	ra,80000e04 <__page_alloc>
    80001804:	70a2                	ld	ra,40(sp)
    80001806:	7402                	ld	s0,32(sp)
    80001808:	6785                	lui	a5,0x1
    8000180a:	64e2                	ld	s1,24(sp)
    8000180c:	6942                	ld	s2,16(sp)
    8000180e:	69a2                	ld	s3,8(sp)
    80001810:	953e                	add	a0,a0,a5
    80001812:	6145                	addi	sp,sp,48
    80001814:	8082                	ret
    80001816:	00008517          	auipc	a0,0x8
    8000181a:	b8250513          	addi	a0,a0,-1150 # 80009398 <softfloat_countLeadingZeros8+0x430>
    8000181e:	dd2ff0ef          	jal	ra,80000df0 <kassert_fail>
	...

0000000080001824 <trap_entry>:
    80001824:	14011173          	csrrw	sp,sscratch,sp
    80001828:	00011463          	bnez	sp,80001830 <trap_entry+0xc>
    8000182c:	14002173          	csrr	sp,sscratch
    80001830:	7129                	addi	sp,sp,-320
    80001832:	e406                	sd	ra,8(sp)
    80001834:	ec0e                	sd	gp,24(sp)
    80001836:	f012                	sd	tp,32(sp)
    80001838:	f416                	sd	t0,40(sp)
    8000183a:	f81a                	sd	t1,48(sp)
    8000183c:	fc1e                	sd	t2,56(sp)
    8000183e:	e0a2                	sd	s0,64(sp)
    80001840:	e4a6                	sd	s1,72(sp)
    80001842:	e8aa                	sd	a0,80(sp)
    80001844:	ecae                	sd	a1,88(sp)
    80001846:	f0b2                	sd	a2,96(sp)
    80001848:	f4b6                	sd	a3,104(sp)
    8000184a:	f8ba                	sd	a4,112(sp)
    8000184c:	fcbe                	sd	a5,120(sp)
    8000184e:	e142                	sd	a6,128(sp)
    80001850:	e546                	sd	a7,136(sp)
    80001852:	e94a                	sd	s2,144(sp)
    80001854:	ed4e                	sd	s3,152(sp)
    80001856:	f152                	sd	s4,160(sp)
    80001858:	f556                	sd	s5,168(sp)
    8000185a:	f95a                	sd	s6,176(sp)
    8000185c:	fd5e                	sd	s7,184(sp)
    8000185e:	e1e2                	sd	s8,192(sp)
    80001860:	e5e6                	sd	s9,200(sp)
    80001862:	e9ea                	sd	s10,208(sp)
    80001864:	edee                	sd	s11,216(sp)
    80001866:	f1f2                	sd	t3,224(sp)
    80001868:	f5f6                	sd	t4,232(sp)
    8000186a:	f9fa                	sd	t5,240(sp)
    8000186c:	fdfe                	sd	t6,248(sp)
    8000186e:	140012f3          	csrrw	t0,sscratch,zero
    80001872:	10002473          	csrr	s0,sstatus
    80001876:	14102373          	csrr	t1,sepc
    8000187a:	143023f3          	csrr	t2,stval
    8000187e:	14202e73          	csrr	t3,scause
    80001882:	e816                	sd	t0,16(sp)
    80001884:	e222                	sd	s0,256(sp)
    80001886:	e61a                	sd	t1,264(sp)
    80001888:	ea1e                	sd	t2,272(sp)
    8000188a:	ee72                	sd	t3,280(sp)
    8000188c:	52fd                	li	t0,-1
    8000188e:	f216                	sd	t0,288(sp)
    80001890:	850a                	mv	a0,sp
    80001892:	264000ef          	jal	ra,80001af6 <handle_trap>
    80001896:	850a                	mv	a0,sp
    80001898:	10047413          	andi	s0,s0,256
    8000189c:	e401                	bnez	s0,800018a4 <start_user>
    8000189e:	6131                	addi	sp,sp,320
    800018a0:	14011073          	csrw	sscratch,sp

00000000800018a4 <start_user>:
    800018a4:	10053283          	ld	t0,256(a0)
    800018a8:	10853303          	ld	t1,264(a0)
    800018ac:	10029073          	csrw	sstatus,t0
    800018b0:	14131073          	csrw	sepc,t1
    800018b4:	00853083          	ld	ra,8(a0)
    800018b8:	01053103          	ld	sp,16(a0)
    800018bc:	01853183          	ld	gp,24(a0)
    800018c0:	02053203          	ld	tp,32(a0)
    800018c4:	02853283          	ld	t0,40(a0)
    800018c8:	03053303          	ld	t1,48(a0)
    800018cc:	03853383          	ld	t2,56(a0)
    800018d0:	6120                	ld	s0,64(a0)
    800018d2:	6524                	ld	s1,72(a0)
    800018d4:	6d2c                	ld	a1,88(a0)
    800018d6:	7130                	ld	a2,96(a0)
    800018d8:	7534                	ld	a3,104(a0)
    800018da:	7938                	ld	a4,112(a0)
    800018dc:	7d3c                	ld	a5,120(a0)
    800018de:	08053803          	ld	a6,128(a0)
    800018e2:	08853883          	ld	a7,136(a0)
    800018e6:	09053903          	ld	s2,144(a0)
    800018ea:	09853983          	ld	s3,152(a0)
    800018ee:	0a053a03          	ld	s4,160(a0)
    800018f2:	0a853a83          	ld	s5,168(a0)
    800018f6:	0b053b03          	ld	s6,176(a0)
    800018fa:	0b853b83          	ld	s7,184(a0)
    800018fe:	0c053c03          	ld	s8,192(a0)
    80001902:	0c853c83          	ld	s9,200(a0)
    80001906:	0d053d03          	ld	s10,208(a0)
    8000190a:	0d853d83          	ld	s11,216(a0)
    8000190e:	0e053e03          	ld	t3,224(a0)
    80001912:	0e853e83          	ld	t4,232(a0)
    80001916:	0f053f03          	ld	t5,240(a0)
    8000191a:	0f853f83          	ld	t6,248(a0)
    8000191e:	6928                	ld	a0,80(a0)
    80001920:	10200073          	sret
	...

0000000080001926 <segfault>:
    80001926:	1101                	addi	sp,sp,-32
    80001928:	e822                	sd	s0,16(sp)
    8000192a:	e426                	sd	s1,8(sp)
    8000192c:	e04a                	sd	s2,0(sp)
    8000192e:	84ae                	mv	s1,a1
    80001930:	892a                	mv	s2,a0
    80001932:	ec06                	sd	ra,24(sp)
    80001934:	8432                	mv	s0,a2
    80001936:	becff0ef          	jal	ra,80000d22 <dump_tf>
    8000193a:	10093783          	ld	a5,256(s2)
    8000193e:	00008597          	auipc	a1,0x8
    80001942:	a8258593          	addi	a1,a1,-1406 # 800093c0 <softfloat_countLeadingZeros8+0x458>
    80001946:	1007f793          	andi	a5,a5,256
    8000194a:	c789                	beqz	a5,80001954 <segfault+0x2e>
    8000194c:	00008597          	auipc	a1,0x8
    80001950:	a6c58593          	addi	a1,a1,-1428 # 800093b8 <softfloat_countLeadingZeros8+0x450>
    80001954:	86a6                	mv	a3,s1
    80001956:	8622                	mv	a2,s0
    80001958:	00008517          	auipc	a0,0x8
    8000195c:	a7050513          	addi	a0,a0,-1424 # 800093c8 <softfloat_countLeadingZeros8+0x460>
    80001960:	c6cff0ef          	jal	ra,80000dcc <do_panic>

0000000080001964 <handle_store_access_fault>:
    80001964:	1141                	addi	sp,sp,-16
    80001966:	e406                	sd	ra,8(sp)
    80001968:	bbaff0ef          	jal	ra,80000d22 <dump_tf>
    8000196c:	00008517          	auipc	a0,0x8
    80001970:	a7450513          	addi	a0,a0,-1420 # 800093e0 <softfloat_countLeadingZeros8+0x478>
    80001974:	c58ff0ef          	jal	ra,80000dcc <do_panic>

0000000080001978 <handle_misaligned_store>:
    80001978:	1141                	addi	sp,sp,-16
    8000197a:	e406                	sd	ra,8(sp)
    8000197c:	ba6ff0ef          	jal	ra,80000d22 <dump_tf>
    80001980:	00008517          	auipc	a0,0x8
    80001984:	a8050513          	addi	a0,a0,-1408 # 80009400 <softfloat_countLeadingZeros8+0x498>
    80001988:	c44ff0ef          	jal	ra,80000dcc <do_panic>

000000008000198c <handle_load_access_fault>:
    8000198c:	1141                	addi	sp,sp,-16
    8000198e:	e406                	sd	ra,8(sp)
    80001990:	b92ff0ef          	jal	ra,80000d22 <dump_tf>
    80001994:	00008517          	auipc	a0,0x8
    80001998:	a8450513          	addi	a0,a0,-1404 # 80009418 <softfloat_countLeadingZeros8+0x4b0>
    8000199c:	c30ff0ef          	jal	ra,80000dcc <do_panic>

00000000800019a0 <handle_misaligned_load>:
    800019a0:	1141                	addi	sp,sp,-16
    800019a2:	e406                	sd	ra,8(sp)
    800019a4:	b7eff0ef          	jal	ra,80000d22 <dump_tf>
    800019a8:	00008517          	auipc	a0,0x8
    800019ac:	a8850513          	addi	a0,a0,-1400 # 80009430 <softfloat_countLeadingZeros8+0x4c8>
    800019b0:	c1cff0ef          	jal	ra,80000dcc <do_panic>

00000000800019b4 <handle_illegal_instruction>:
    800019b4:	10853703          	ld	a4,264(a0)
    800019b8:	1141                	addi	sp,sp,-16
    800019ba:	e406                	sd	ra,8(sp)
    800019bc:	00075783          	lhu	a5,0(a4)
    800019c0:	468d                	li	a3,3
    800019c2:	12f53023          	sd	a5,288(a0)
    800019c6:	0037f613          	andi	a2,a5,3
    800019ca:	00d61863          	bne	a2,a3,800019da <handle_illegal_instruction+0x26>
    800019ce:	00275703          	lhu	a4,2(a4)
    800019d2:	0742                	slli	a4,a4,0x10
    800019d4:	8fd9                	or	a5,a5,a4
    800019d6:	12f53023          	sd	a5,288(a0)
    800019da:	b48ff0ef          	jal	ra,80000d22 <dump_tf>
    800019de:	00008517          	auipc	a0,0x8
    800019e2:	a6a50513          	addi	a0,a0,-1430 # 80009448 <softfloat_countLeadingZeros8+0x4e0>
    800019e6:	be6ff0ef          	jal	ra,80000dcc <do_panic>

00000000800019ea <handle_instruction_access_fault>:
    800019ea:	1141                	addi	sp,sp,-16
    800019ec:	e406                	sd	ra,8(sp)
    800019ee:	b34ff0ef          	jal	ra,80000d22 <dump_tf>
    800019f2:	00008517          	auipc	a0,0x8
    800019f6:	a7e50513          	addi	a0,a0,-1410 # 80009470 <softfloat_countLeadingZeros8+0x508>
    800019fa:	bd2ff0ef          	jal	ra,80000dcc <do_panic>

00000000800019fe <handle_misaligned_fetch>:
    800019fe:	1141                	addi	sp,sp,-16
    80001a00:	e406                	sd	ra,8(sp)
    80001a02:	b20ff0ef          	jal	ra,80000d22 <dump_tf>
    80001a06:	00008517          	auipc	a0,0x8
    80001a0a:	a8a50513          	addi	a0,a0,-1398 # 80009490 <softfloat_countLeadingZeros8+0x528>
    80001a0e:	bbeff0ef          	jal	ra,80000dcc <do_panic>

0000000080001a12 <handle_syscall>:
    80001a12:	1141                	addi	sp,sp,-16
    80001a14:	e022                	sd	s0,0(sp)
    80001a16:	7d3c                	ld	a5,120(a0)
    80001a18:	842a                	mv	s0,a0
    80001a1a:	08853803          	ld	a6,136(a0)
    80001a1e:	7938                	ld	a4,112(a0)
    80001a20:	7534                	ld	a3,104(a0)
    80001a22:	7130                	ld	a2,96(a0)
    80001a24:	6d2c                	ld	a1,88(a0)
    80001a26:	6928                	ld	a0,80(a0)
    80001a28:	e406                	sd	ra,8(sp)
    80001a2a:	287000ef          	jal	ra,800024b0 <do_syscall>
    80001a2e:	10843783          	ld	a5,264(s0)
    80001a32:	e828                	sd	a0,80(s0)
    80001a34:	60a2                	ld	ra,8(sp)
    80001a36:	0791                	addi	a5,a5,4
    80001a38:	10f43423          	sd	a5,264(s0)
    80001a3c:	6402                	ld	s0,0(sp)
    80001a3e:	0141                	addi	sp,sp,16
    80001a40:	8082                	ret

0000000080001a42 <handle_breakpoint>:
    80001a42:	1141                	addi	sp,sp,-16
    80001a44:	e406                	sd	ra,8(sp)
    80001a46:	e022                	sd	s0,0(sp)
    80001a48:	842a                	mv	s0,a0
    80001a4a:	ad8ff0ef          	jal	ra,80000d22 <dump_tf>
    80001a4e:	00008517          	auipc	a0,0x8
    80001a52:	a6250513          	addi	a0,a0,-1438 # 800094b0 <softfloat_countLeadingZeros8+0x548>
    80001a56:	aa8ff0ef          	jal	ra,80000cfe <printk>
    80001a5a:	10843783          	ld	a5,264(s0)
    80001a5e:	60a2                	ld	ra,8(sp)
    80001a60:	0791                	addi	a5,a5,4
    80001a62:	10f43423          	sd	a5,264(s0)
    80001a66:	6402                	ld	s0,0(sp)
    80001a68:	0141                	addi	sp,sp,16
    80001a6a:	8082                	ret

0000000080001a6c <handle_fault_store>:
    80001a6c:	1141                	addi	sp,sp,-16
    80001a6e:	e022                	sd	s0,0(sp)
    80001a70:	842a                	mv	s0,a0
    80001a72:	11053503          	ld	a0,272(a0)
    80001a76:	4589                	li	a1,2
    80001a78:	e406                	sd	ra,8(sp)
    80001a7a:	e40ff0ef          	jal	ra,800010ba <handle_page_fault>
    80001a7e:	e509                	bnez	a0,80001a88 <handle_fault_store+0x1c>
    80001a80:	60a2                	ld	ra,8(sp)
    80001a82:	6402                	ld	s0,0(sp)
    80001a84:	0141                	addi	sp,sp,16
    80001a86:	8082                	ret
    80001a88:	11043583          	ld	a1,272(s0)
    80001a8c:	00008617          	auipc	a2,0x8
    80001a90:	a3460613          	addi	a2,a2,-1484 # 800094c0 <softfloat_countLeadingZeros8+0x558>
    80001a94:	8522                	mv	a0,s0
    80001a96:	e91ff0ef          	jal	ra,80001926 <segfault>

0000000080001a9a <handle_fault_load>:
    80001a9a:	1141                	addi	sp,sp,-16
    80001a9c:	e022                	sd	s0,0(sp)
    80001a9e:	842a                	mv	s0,a0
    80001aa0:	11053503          	ld	a0,272(a0)
    80001aa4:	4585                	li	a1,1
    80001aa6:	e406                	sd	ra,8(sp)
    80001aa8:	e12ff0ef          	jal	ra,800010ba <handle_page_fault>
    80001aac:	e509                	bnez	a0,80001ab6 <handle_fault_load+0x1c>
    80001aae:	60a2                	ld	ra,8(sp)
    80001ab0:	6402                	ld	s0,0(sp)
    80001ab2:	0141                	addi	sp,sp,16
    80001ab4:	8082                	ret
    80001ab6:	11043583          	ld	a1,272(s0)
    80001aba:	00008617          	auipc	a2,0x8
    80001abe:	a0e60613          	addi	a2,a2,-1522 # 800094c8 <softfloat_countLeadingZeros8+0x560>
    80001ac2:	8522                	mv	a0,s0
    80001ac4:	e63ff0ef          	jal	ra,80001926 <segfault>

0000000080001ac8 <handle_fault_fetch>:
    80001ac8:	1141                	addi	sp,sp,-16
    80001aca:	e022                	sd	s0,0(sp)
    80001acc:	842a                	mv	s0,a0
    80001ace:	11053503          	ld	a0,272(a0)
    80001ad2:	4591                	li	a1,4
    80001ad4:	e406                	sd	ra,8(sp)
    80001ad6:	de4ff0ef          	jal	ra,800010ba <handle_page_fault>
    80001ada:	e509                	bnez	a0,80001ae4 <handle_fault_fetch+0x1c>
    80001adc:	60a2                	ld	ra,8(sp)
    80001ade:	6402                	ld	s0,0(sp)
    80001ae0:	0141                	addi	sp,sp,16
    80001ae2:	8082                	ret
    80001ae4:	11043583          	ld	a1,272(s0)
    80001ae8:	00008617          	auipc	a2,0x8
    80001aec:	9e860613          	addi	a2,a2,-1560 # 800094d0 <softfloat_countLeadingZeros8+0x568>
    80001af0:	8522                	mv	a0,s0
    80001af2:	e35ff0ef          	jal	ra,80001926 <segfault>

0000000080001af6 <handle_trap>:
    80001af6:	11853783          	ld	a5,280(a0)
    80001afa:	0207c063          	bltz	a5,80001b1a <handle_trap+0x24>
    80001afe:	473d                	li	a4,15
    80001b00:	02f74063          	blt	a4,a5,80001b20 <handle_trap+0x2a>
    80001b04:	078e                	slli	a5,a5,0x3
    80001b06:	00007717          	auipc	a4,0x7
    80001b0a:	8b270713          	addi	a4,a4,-1870 # 800083b8 <trap_handlers.2793>
    80001b0e:	97ba                	add	a5,a5,a4
    80001b10:	0007b303          	ld	t1,0(a5) # 1000 <_ftext-0x7ffff000>
    80001b14:	00030663          	beqz	t1,80001b20 <handle_trap+0x2a>
    80001b18:	8302                	jr	t1
    80001b1a:	144177f3          	csrrci	a5,sip,2
    80001b1e:	8082                	ret
    80001b20:	1141                	addi	sp,sp,-16
    80001b22:	00008517          	auipc	a0,0x8
    80001b26:	9b650513          	addi	a0,a0,-1610 # 800094d8 <softfloat_countLeadingZeros8+0x570>
    80001b2a:	e406                	sd	ra,8(sp)
    80001b2c:	ac4ff0ef          	jal	ra,80000df0 <kassert_fail>

0000000080001b30 <sys_getpid>:
    80001b30:	4501                	li	a0,0
    80001b32:	8082                	ret

0000000080001b34 <sys_time>:
    80001b34:	c00027f3          	rdcycle	a5
    80001b38:	3b9ad737          	lui	a4,0x3b9ad
    80001b3c:	a0070713          	addi	a4,a4,-1536 # 3b9aca00 <_ftext-0x44653600>
    80001b40:	02e7d7b3          	divu	a5,a5,a4
    80001b44:	c111                	beqz	a0,80001b48 <sys_time+0x14>
    80001b46:	e11c                	sd	a5,0(a0)
    80001b48:	853e                	mv	a0,a5
    80001b4a:	8082                	ret

0000000080001b4c <sys_times>:
    80001b4c:	87aa                	mv	a5,a0
    80001b4e:	c0002773          	rdcycle	a4
    80001b52:	3e800693          	li	a3,1000
    80001b56:	02d75733          	divu	a4,a4,a3
    80001b5a:	00053423          	sd	zero,8(a0)
    80001b5e:	00053823          	sd	zero,16(a0)
    80001b62:	00053c23          	sd	zero,24(a0)
    80001b66:	4501                	li	a0,0
    80001b68:	e398                	sd	a4,0(a5)
    80001b6a:	8082                	ret

0000000080001b6c <sys_gettimeofday>:
    80001b6c:	862a                	mv	a2,a0
    80001b6e:	c00027f3          	rdcycle	a5
    80001b72:	3b9ad737          	lui	a4,0x3b9ad
    80001b76:	a0070713          	addi	a4,a4,-1536 # 3b9aca00 <_ftext-0x44653600>
    80001b7a:	02e7f6b3          	remu	a3,a5,a4
    80001b7e:	4501                	li	a0,0
    80001b80:	02e7d7b3          	divu	a5,a5,a4
    80001b84:	3e800713          	li	a4,1000
    80001b88:	02e6d733          	divu	a4,a3,a4
    80001b8c:	e21c                	sd	a5,0(a2)
    80001b8e:	e618                	sd	a4,8(a2)
    80001b90:	8082                	ret

0000000080001b92 <sys_clock_gettime>:
    80001b92:	c00027f3          	rdcycle	a5
    80001b96:	3b9ad737          	lui	a4,0x3b9ad
    80001b9a:	a0070713          	addi	a4,a4,-1536 # 3b9aca00 <_ftext-0x44653600>
    80001b9e:	02e7d6b3          	divu	a3,a5,a4
    80001ba2:	4501                	li	a0,0
    80001ba4:	02e7f7b3          	remu	a5,a5,a4
    80001ba8:	e194                	sd	a3,0(a1)
    80001baa:	e59c                	sd	a5,8(a1)
    80001bac:	8082                	ret

0000000080001bae <sys_getdents>:
    80001bae:	4501                	li	a0,0
    80001bb0:	8082                	ret

0000000080001bb2 <sys_stub_nosys>:
    80001bb2:	fa800513          	li	a0,-88
    80001bb6:	8082                	ret

0000000080001bb8 <sys_exit>:
    80001bb8:	00013797          	auipc	a5,0x13
    80001bbc:	4a878793          	addi	a5,a5,1192 # 80015060 <current>
    80001bc0:	73b8                	ld	a4,96(a5)
    80001bc2:	1101                	addi	sp,sp,-32
    80001bc4:	e04a                	sd	s2,0(sp)
    80001bc6:	ec06                	sd	ra,24(sp)
    80001bc8:	e822                	sd	s0,16(sp)
    80001bca:	e426                	sd	s1,8(sp)
    80001bcc:	892a                	mv	s2,a0
    80001bce:	e701                	bnez	a4,80001bd6 <sys_exit+0x1e>
    80001bd0:	854a                	mv	a0,s2
    80001bd2:	e63fe0ef          	jal	ra,80000a34 <shutdown>
    80001bd6:	c01025f3          	rdtime	a1
    80001bda:	c00024f3          	rdcycle	s1
    80001bde:	8c99                	sub	s1,s1,a4
    80001be0:	c0202473          	rdinstret	s0
    80001be4:	6fb8                	ld	a4,88(a5)
    80001be6:	77bc                	ld	a5,104(a5)
    80001be8:	00008517          	auipc	a0,0x8
    80001bec:	93850513          	addi	a0,a0,-1736 # 80009520 <softfloat_countLeadingZeros8+0x5b8>
    80001bf0:	8d99                	sub	a1,a1,a4
    80001bf2:	8c1d                	sub	s0,s0,a5
    80001bf4:	90aff0ef          	jal	ra,80000cfe <printk>
    80001bf8:	85a6                	mv	a1,s1
    80001bfa:	00008517          	auipc	a0,0x8
    80001bfe:	93650513          	addi	a0,a0,-1738 # 80009530 <softfloat_countLeadingZeros8+0x5c8>
    80001c02:	8fcff0ef          	jal	ra,80000cfe <printk>
    80001c06:	85a2                	mv	a1,s0
    80001c08:	00008517          	auipc	a0,0x8
    80001c0c:	93850513          	addi	a0,a0,-1736 # 80009540 <softfloat_countLeadingZeros8+0x5d8>
    80001c10:	8eeff0ef          	jal	ra,80000cfe <printk>
    80001c14:	06400693          	li	a3,100
    80001c18:	47a9                	li	a5,10
    80001c1a:	02d486b3          	mul	a3,s1,a3
    80001c1e:	00145713          	srli	a4,s0,0x1
    80001c22:	00008517          	auipc	a0,0x8
    80001c26:	93650513          	addi	a0,a0,-1738 # 80009558 <softfloat_countLeadingZeros8+0x5f0>
    80001c2a:	02f48633          	mul	a2,s1,a5
    80001c2e:	96ba                	add	a3,a3,a4
    80001c30:	0286d6b3          	divu	a3,a3,s0
    80001c34:	02865633          	divu	a2,a2,s0
    80001c38:	02f6f6b3          	remu	a3,a3,a5
    80001c3c:	02f67633          	remu	a2,a2,a5
    80001c40:	0284d5b3          	divu	a1,s1,s0
    80001c44:	8baff0ef          	jal	ra,80000cfe <printk>
    80001c48:	b761                	j	80001bd0 <sys_exit+0x18>

0000000080001c4a <sys_read>:
    80001c4a:	1101                	addi	sp,sp,-32
    80001c4c:	e426                	sd	s1,8(sp)
    80001c4e:	e04a                	sd	s2,0(sp)
    80001c50:	ec06                	sd	ra,24(sp)
    80001c52:	e822                	sd	s0,16(sp)
    80001c54:	84ae                	mv	s1,a1
    80001c56:	8932                	mv	s2,a2
    80001c58:	a3bfe0ef          	jal	ra,80000692 <file_get>
    80001c5c:	c10d                	beqz	a0,80001c7e <sys_read+0x34>
    80001c5e:	85a6                	mv	a1,s1
    80001c60:	864a                	mv	a2,s2
    80001c62:	842a                	mv	s0,a0
    80001c64:	b51fe0ef          	jal	ra,800007b4 <file_read>
    80001c68:	84aa                	mv	s1,a0
    80001c6a:	8522                	mv	a0,s0
    80001c6c:	97ffe0ef          	jal	ra,800005ea <file_decref>
    80001c70:	60e2                	ld	ra,24(sp)
    80001c72:	6442                	ld	s0,16(sp)
    80001c74:	8526                	mv	a0,s1
    80001c76:	6902                	ld	s2,0(sp)
    80001c78:	64a2                	ld	s1,8(sp)
    80001c7a:	6105                	addi	sp,sp,32
    80001c7c:	8082                	ret
    80001c7e:	54dd                	li	s1,-9
    80001c80:	bfc5                	j	80001c70 <sys_read+0x26>

0000000080001c82 <sys_pread>:
    80001c82:	7179                	addi	sp,sp,-48
    80001c84:	ec26                	sd	s1,24(sp)
    80001c86:	e84a                	sd	s2,16(sp)
    80001c88:	e44e                	sd	s3,8(sp)
    80001c8a:	f406                	sd	ra,40(sp)
    80001c8c:	f022                	sd	s0,32(sp)
    80001c8e:	84ae                	mv	s1,a1
    80001c90:	8932                	mv	s2,a2
    80001c92:	89b6                	mv	s3,a3
    80001c94:	9fffe0ef          	jal	ra,80000692 <file_get>
    80001c98:	c11d                	beqz	a0,80001cbe <sys_pread+0x3c>
    80001c9a:	85a6                	mv	a1,s1
    80001c9c:	86ce                	mv	a3,s3
    80001c9e:	864a                	mv	a2,s2
    80001ca0:	842a                	mv	s0,a0
    80001ca2:	b69fe0ef          	jal	ra,8000080a <file_pread>
    80001ca6:	84aa                	mv	s1,a0
    80001ca8:	8522                	mv	a0,s0
    80001caa:	941fe0ef          	jal	ra,800005ea <file_decref>
    80001cae:	70a2                	ld	ra,40(sp)
    80001cb0:	7402                	ld	s0,32(sp)
    80001cb2:	8526                	mv	a0,s1
    80001cb4:	6942                	ld	s2,16(sp)
    80001cb6:	64e2                	ld	s1,24(sp)
    80001cb8:	69a2                	ld	s3,8(sp)
    80001cba:	6145                	addi	sp,sp,48
    80001cbc:	8082                	ret
    80001cbe:	54dd                	li	s1,-9
    80001cc0:	b7fd                	j	80001cae <sys_pread+0x2c>

0000000080001cc2 <sys_write>:
    80001cc2:	1101                	addi	sp,sp,-32
    80001cc4:	e426                	sd	s1,8(sp)
    80001cc6:	e04a                	sd	s2,0(sp)
    80001cc8:	ec06                	sd	ra,24(sp)
    80001cca:	e822                	sd	s0,16(sp)
    80001ccc:	84ae                	mv	s1,a1
    80001cce:	8932                	mv	s2,a2
    80001cd0:	9c3fe0ef          	jal	ra,80000692 <file_get>
    80001cd4:	c10d                	beqz	a0,80001cf6 <sys_write+0x34>
    80001cd6:	85a6                	mv	a1,s1
    80001cd8:	864a                	mv	a2,s2
    80001cda:	842a                	mv	s0,a0
    80001cdc:	b8bfe0ef          	jal	ra,80000866 <file_write>
    80001ce0:	84aa                	mv	s1,a0
    80001ce2:	8522                	mv	a0,s0
    80001ce4:	907fe0ef          	jal	ra,800005ea <file_decref>
    80001ce8:	60e2                	ld	ra,24(sp)
    80001cea:	6442                	ld	s0,16(sp)
    80001cec:	8526                	mv	a0,s1
    80001cee:	6902                	ld	s2,0(sp)
    80001cf0:	64a2                	ld	s1,8(sp)
    80001cf2:	6105                	addi	sp,sp,32
    80001cf4:	8082                	ret
    80001cf6:	54dd                	li	s1,-9
    80001cf8:	bfc5                	j	80001ce8 <sys_write+0x26>

0000000080001cfa <sys_writev>:
    80001cfa:	04c05d63          	blez	a2,80001d54 <sys_writev+0x5a>
    80001cfe:	7179                	addi	sp,sp,-48
    80001d00:	ec26                	sd	s1,24(sp)
    80001d02:	fff6049b          	addiw	s1,a2,-1
    80001d06:	1482                	slli	s1,s1,0x20
    80001d08:	80f1                	srli	s1,s1,0x1c
    80001d0a:	01058793          	addi	a5,a1,16
    80001d0e:	f022                	sd	s0,32(sp)
    80001d10:	e84a                	sd	s2,16(sp)
    80001d12:	e44e                	sd	s3,8(sp)
    80001d14:	f406                	sd	ra,40(sp)
    80001d16:	89aa                	mv	s3,a0
    80001d18:	842e                	mv	s0,a1
    80001d1a:	94be                	add	s1,s1,a5
    80001d1c:	4901                	li	s2,0
    80001d1e:	a021                	j	80001d26 <sys_writev+0x2c>
    80001d20:	992a                	add	s2,s2,a0
    80001d22:	02940163          	beq	s0,s1,80001d44 <sys_writev+0x4a>
    80001d26:	6410                	ld	a2,8(s0)
    80001d28:	600c                	ld	a1,0(s0)
    80001d2a:	854e                	mv	a0,s3
    80001d2c:	0441                	addi	s0,s0,16
    80001d2e:	f95ff0ef          	jal	ra,80001cc2 <sys_write>
    80001d32:	fe0557e3          	bgez	a0,80001d20 <sys_writev+0x26>
    80001d36:	70a2                	ld	ra,40(sp)
    80001d38:	7402                	ld	s0,32(sp)
    80001d3a:	64e2                	ld	s1,24(sp)
    80001d3c:	6942                	ld	s2,16(sp)
    80001d3e:	69a2                	ld	s3,8(sp)
    80001d40:	6145                	addi	sp,sp,48
    80001d42:	8082                	ret
    80001d44:	70a2                	ld	ra,40(sp)
    80001d46:	7402                	ld	s0,32(sp)
    80001d48:	854a                	mv	a0,s2
    80001d4a:	64e2                	ld	s1,24(sp)
    80001d4c:	6942                	ld	s2,16(sp)
    80001d4e:	69a2                	ld	s3,8(sp)
    80001d50:	6145                	addi	sp,sp,48
    80001d52:	8082                	ret
    80001d54:	4501                	li	a0,0
    80001d56:	8082                	ret

0000000080001d58 <sys_openat>:
    80001d58:	1101                	addi	sp,sp,-32
    80001d5a:	e822                	sd	s0,16(sp)
    80001d5c:	e426                	sd	s1,8(sp)
    80001d5e:	e04a                	sd	s2,0(sp)
    80001d60:	ec06                	sd	ra,24(sp)
    80001d62:	f9c00713          	li	a4,-100
    80001d66:	842e                	mv	s0,a1
    80001d68:	84b2                	mv	s1,a2
    80001d6a:	8936                	mv	s2,a3
    80001d6c:	04e50563          	beq	a0,a4,80001db6 <sys_openat+0x5e>
    80001d70:	923fe0ef          	jal	ra,80000692 <file_get>
    80001d74:	cd1d                	beqz	a0,80001db2 <sys_openat+0x5a>
    80001d76:	411c                	lw	a5,0(a0)
    80001d78:	577d                	li	a4,-1
    80001d7a:	02e78c63          	beq	a5,a4,80001db2 <sys_openat+0x5a>
    80001d7e:	85a2                	mv	a1,s0
    80001d80:	853e                	mv	a0,a5
    80001d82:	86ca                	mv	a3,s2
    80001d84:	8626                	mv	a2,s1
    80001d86:	953fe0ef          	jal	ra,800006d8 <file_openat>
    80001d8a:	77fd                	lui	a5,0xfffff
    80001d8c:	842a                	mv	s0,a0
    80001d8e:	00f56963          	bltu	a0,a5,80001da0 <sys_openat+0x48>
    80001d92:	2501                	sext.w	a0,a0
    80001d94:	60e2                	ld	ra,24(sp)
    80001d96:	6442                	ld	s0,16(sp)
    80001d98:	64a2                	ld	s1,8(sp)
    80001d9a:	6902                	ld	s2,0(sp)
    80001d9c:	6105                	addi	sp,sp,32
    80001d9e:	8082                	ret
    80001da0:	881fe0ef          	jal	ra,80000620 <file_dup>
    80001da4:	fe0558e3          	bgez	a0,80001d94 <sys_openat+0x3c>
    80001da8:	8522                	mv	a0,s0
    80001daa:	841fe0ef          	jal	ra,800005ea <file_decref>
    80001dae:	5551                	li	a0,-12
    80001db0:	b7d5                	j	80001d94 <sys_openat+0x3c>
    80001db2:	555d                	li	a0,-9
    80001db4:	b7c5                	j	80001d94 <sys_openat+0x3c>
    80001db6:	87aa                	mv	a5,a0
    80001db8:	b7d9                	j	80001d7e <sys_openat+0x26>

0000000080001dba <sys_open>:
    80001dba:	86b2                	mv	a3,a2
    80001dbc:	862e                	mv	a2,a1
    80001dbe:	85aa                	mv	a1,a0
    80001dc0:	f9c00513          	li	a0,-100
    80001dc4:	f95ff06f          	j	80001d58 <sys_openat>

0000000080001dc8 <sys_dup>:
    80001dc8:	1101                	addi	sp,sp,-32
    80001dca:	ec06                	sd	ra,24(sp)
    80001dcc:	e822                	sd	s0,16(sp)
    80001dce:	e426                	sd	s1,8(sp)
    80001dd0:	8c3fe0ef          	jal	ra,80000692 <file_get>
    80001dd4:	cd11                	beqz	a0,80001df0 <sys_dup+0x28>
    80001dd6:	842a                	mv	s0,a0
    80001dd8:	849fe0ef          	jal	ra,80000620 <file_dup>
    80001ddc:	84aa                	mv	s1,a0
    80001dde:	8522                	mv	a0,s0
    80001de0:	80bfe0ef          	jal	ra,800005ea <file_decref>
    80001de4:	60e2                	ld	ra,24(sp)
    80001de6:	6442                	ld	s0,16(sp)
    80001de8:	8526                	mv	a0,s1
    80001dea:	64a2                	ld	s1,8(sp)
    80001dec:	6105                	addi	sp,sp,32
    80001dee:	8082                	ret
    80001df0:	54dd                	li	s1,-9
    80001df2:	bfcd                	j	80001de4 <sys_dup+0x1c>

0000000080001df4 <sys_close>:
    80001df4:	1141                	addi	sp,sp,-16
    80001df6:	e406                	sd	ra,8(sp)
    80001df8:	96ffe0ef          	jal	ra,80000766 <fd_close>
    80001dfc:	00054563          	bltz	a0,80001e06 <sys_close+0x12>
    80001e00:	60a2                	ld	ra,8(sp)
    80001e02:	0141                	addi	sp,sp,16
    80001e04:	8082                	ret
    80001e06:	555d                	li	a0,-9
    80001e08:	bfe5                	j	80001e00 <sys_close+0xc>

0000000080001e0a <sys_renameat>:
    80001e0a:	7179                	addi	sp,sp,-48
    80001e0c:	f022                	sd	s0,32(sp)
    80001e0e:	ec26                	sd	s1,24(sp)
    80001e10:	e44e                	sd	s3,8(sp)
    80001e12:	e052                	sd	s4,0(sp)
    80001e14:	f406                	sd	ra,40(sp)
    80001e16:	e84a                	sd	s2,16(sp)
    80001e18:	f9c00413          	li	s0,-100
    80001e1c:	84ae                	mv	s1,a1
    80001e1e:	8a32                	mv	s4,a2
    80001e20:	89b6                	mv	s3,a3
    80001e22:	0a850463          	beq	a0,s0,80001eca <sys_renameat+0xc0>
    80001e26:	86dfe0ef          	jal	ra,80000692 <file_get>
    80001e2a:	c949                	beqz	a0,80001ebc <sys_renameat+0xb2>
    80001e2c:	00052903          	lw	s2,0(a0)
    80001e30:	0a8a0663          	beq	s4,s0,80001edc <sys_renameat+0xd2>
    80001e34:	8552                	mv	a0,s4
    80001e36:	85dfe0ef          	jal	ra,80000692 <file_get>
    80001e3a:	c551                	beqz	a0,80001ec6 <sys_renameat+0xbc>
    80001e3c:	57fd                	li	a5,-1
    80001e3e:	4118                	lw	a4,0(a0)
    80001e40:	08f90363          	beq	s2,a5,80001ec6 <sys_renameat+0xbc>
    80001e44:	57fd                	li	a5,-1
    80001e46:	08f70063          	beq	a4,a5,80001ec6 <sys_renameat+0xbc>
    80001e4a:	843a                	mv	s0,a4
    80001e4c:	8526                	mv	a0,s1
    80001e4e:	3ba060ef          	jal	ra,80008208 <strlen>
    80001e52:	00150a13          	addi	s4,a0,1
    80001e56:	854e                	mv	a0,s3
    80001e58:	3b0060ef          	jal	ra,80008208 <strlen>
    80001e5c:	80000737          	lui	a4,0x80000
    80001e60:	fff74713          	not	a4,a4
    80001e64:	8626                	mv	a2,s1
    80001e66:	00150813          	addi	a6,a0,1
    80001e6a:	00976963          	bltu	a4,s1,80001e7c <sys_renameat+0x72>
    80001e6e:	00013797          	auipc	a5,0x13
    80001e72:	26278793          	addi	a5,a5,610 # 800150d0 <first_free_paddr>
    80001e76:	639c                	ld	a5,0(a5)
    80001e78:	00f48633          	add	a2,s1,a5
    80001e7c:	80000737          	lui	a4,0x80000
    80001e80:	fff74713          	not	a4,a4
    80001e84:	87ce                	mv	a5,s3
    80001e86:	03377363          	bgeu	a4,s3,80001eac <sys_renameat+0xa2>
    80001e8a:	4881                	li	a7,0
    80001e8c:	8722                	mv	a4,s0
    80001e8e:	86d2                	mv	a3,s4
    80001e90:	85ca                	mv	a1,s2
    80001e92:	02600513          	li	a0,38
    80001e96:	b11fe0ef          	jal	ra,800009a6 <frontend_syscall>
    80001e9a:	2501                	sext.w	a0,a0
    80001e9c:	70a2                	ld	ra,40(sp)
    80001e9e:	7402                	ld	s0,32(sp)
    80001ea0:	64e2                	ld	s1,24(sp)
    80001ea2:	6942                	ld	s2,16(sp)
    80001ea4:	69a2                	ld	s3,8(sp)
    80001ea6:	6a02                	ld	s4,0(sp)
    80001ea8:	6145                	addi	sp,sp,48
    80001eaa:	8082                	ret
    80001eac:	00013717          	auipc	a4,0x13
    80001eb0:	22470713          	addi	a4,a4,548 # 800150d0 <first_free_paddr>
    80001eb4:	6318                	ld	a4,0(a4)
    80001eb6:	00e987b3          	add	a5,s3,a4
    80001eba:	bfc1                	j	80001e8a <sys_renameat+0x80>
    80001ebc:	008a0563          	beq	s4,s0,80001ec6 <sys_renameat+0xbc>
    80001ec0:	8552                	mv	a0,s4
    80001ec2:	fd0fe0ef          	jal	ra,80000692 <file_get>
    80001ec6:	555d                	li	a0,-9
    80001ec8:	bfd1                	j	80001e9c <sys_renameat+0x92>
    80001eca:	892a                	mv	s2,a0
    80001ecc:	00a60d63          	beq	a2,a0,80001ee6 <sys_renameat+0xdc>
    80001ed0:	8552                	mv	a0,s4
    80001ed2:	fc0fe0ef          	jal	ra,80000692 <file_get>
    80001ed6:	d965                	beqz	a0,80001ec6 <sys_renameat+0xbc>
    80001ed8:	4118                	lw	a4,0(a0)
    80001eda:	b7ad                	j	80001e44 <sys_renameat+0x3a>
    80001edc:	57fd                	li	a5,-1
    80001ede:	f6f917e3          	bne	s2,a5,80001e4c <sys_renameat+0x42>
    80001ee2:	555d                	li	a0,-9
    80001ee4:	bf65                	j	80001e9c <sys_renameat+0x92>
    80001ee6:	f9c00413          	li	s0,-100
    80001eea:	b78d                	j	80001e4c <sys_renameat+0x42>

0000000080001eec <sys_fcntl>:
    80001eec:	1101                	addi	sp,sp,-32
    80001eee:	e426                	sd	s1,8(sp)
    80001ef0:	e04a                	sd	s2,0(sp)
    80001ef2:	ec06                	sd	ra,24(sp)
    80001ef4:	e822                	sd	s0,16(sp)
    80001ef6:	84ae                	mv	s1,a1
    80001ef8:	8932                	mv	s2,a2
    80001efa:	f98fe0ef          	jal	ra,80000692 <file_get>
    80001efe:	c905                	beqz	a0,80001f2e <sys_fcntl+0x42>
    80001f00:	410c                	lw	a1,0(a0)
    80001f02:	842a                	mv	s0,a0
    80001f04:	8626                	mv	a2,s1
    80001f06:	4881                	li	a7,0
    80001f08:	4801                	li	a6,0
    80001f0a:	4781                	li	a5,0
    80001f0c:	4701                	li	a4,0
    80001f0e:	86ca                	mv	a3,s2
    80001f10:	4565                	li	a0,25
    80001f12:	a95fe0ef          	jal	ra,800009a6 <frontend_syscall>
    80001f16:	0005049b          	sext.w	s1,a0
    80001f1a:	8522                	mv	a0,s0
    80001f1c:	ecefe0ef          	jal	ra,800005ea <file_decref>
    80001f20:	60e2                	ld	ra,24(sp)
    80001f22:	6442                	ld	s0,16(sp)
    80001f24:	8526                	mv	a0,s1
    80001f26:	6902                	ld	s2,0(sp)
    80001f28:	64a2                	ld	s1,8(sp)
    80001f2a:	6105                	addi	sp,sp,32
    80001f2c:	8082                	ret
    80001f2e:	54dd                	li	s1,-9
    80001f30:	bfc5                	j	80001f20 <sys_fcntl+0x34>

0000000080001f32 <sys_faccessat>:
    80001f32:	1101                	addi	sp,sp,-32
    80001f34:	e822                	sd	s0,16(sp)
    80001f36:	e04a                	sd	s2,0(sp)
    80001f38:	ec06                	sd	ra,24(sp)
    80001f3a:	e426                	sd	s1,8(sp)
    80001f3c:	f9c00793          	li	a5,-100
    80001f40:	842e                	mv	s0,a1
    80001f42:	8932                	mv	s2,a2
    80001f44:	06f50263          	beq	a0,a5,80001fa8 <sys_faccessat+0x76>
    80001f48:	f4afe0ef          	jal	ra,80000692 <file_get>
    80001f4c:	c539                	beqz	a0,80001f9a <sys_faccessat+0x68>
    80001f4e:	410c                	lw	a1,0(a0)
    80001f50:	57fd                	li	a5,-1
    80001f52:	04f58463          	beq	a1,a5,80001f9a <sys_faccessat+0x68>
    80001f56:	84ae                	mv	s1,a1
    80001f58:	8522                	mv	a0,s0
    80001f5a:	2ae060ef          	jal	ra,80008208 <strlen>
    80001f5e:	800007b7          	lui	a5,0x80000
    80001f62:	fff7c793          	not	a5,a5
    80001f66:	8622                	mv	a2,s0
    80001f68:	00150693          	addi	a3,a0,1
    80001f6c:	0087e963          	bltu	a5,s0,80001f7e <sys_faccessat+0x4c>
    80001f70:	00013797          	auipc	a5,0x13
    80001f74:	16078793          	addi	a5,a5,352 # 800150d0 <first_free_paddr>
    80001f78:	639c                	ld	a5,0(a5)
    80001f7a:	00f40633          	add	a2,s0,a5
    80001f7e:	6442                	ld	s0,16(sp)
    80001f80:	60e2                	ld	ra,24(sp)
    80001f82:	874a                	mv	a4,s2
    80001f84:	85a6                	mv	a1,s1
    80001f86:	6902                	ld	s2,0(sp)
    80001f88:	64a2                	ld	s1,8(sp)
    80001f8a:	4881                	li	a7,0
    80001f8c:	4801                	li	a6,0
    80001f8e:	4781                	li	a5,0
    80001f90:	03000513          	li	a0,48
    80001f94:	6105                	addi	sp,sp,32
    80001f96:	a11fe06f          	j	800009a6 <frontend_syscall>
    80001f9a:	60e2                	ld	ra,24(sp)
    80001f9c:	6442                	ld	s0,16(sp)
    80001f9e:	64a2                	ld	s1,8(sp)
    80001fa0:	6902                	ld	s2,0(sp)
    80001fa2:	555d                	li	a0,-9
    80001fa4:	6105                	addi	sp,sp,32
    80001fa6:	8082                	ret
    80001fa8:	f9c00493          	li	s1,-100
    80001fac:	b775                	j	80001f58 <sys_faccessat+0x26>

0000000080001fae <sys_access>:
    80001fae:	862e                	mv	a2,a1
    80001fb0:	85aa                	mv	a1,a0
    80001fb2:	f9c00513          	li	a0,-100
    80001fb6:	f7dff06f          	j	80001f32 <sys_faccessat>

0000000080001fba <sys_linkat>:
    80001fba:	7139                	addi	sp,sp,-64
    80001fbc:	f426                	sd	s1,40(sp)
    80001fbe:	f04a                	sd	s2,32(sp)
    80001fc0:	ec4e                	sd	s3,24(sp)
    80001fc2:	e852                	sd	s4,16(sp)
    80001fc4:	e456                	sd	s5,8(sp)
    80001fc6:	fc06                	sd	ra,56(sp)
    80001fc8:	f822                	sd	s0,48(sp)
    80001fca:	f9c00493          	li	s1,-100
    80001fce:	892e                	mv	s2,a1
    80001fd0:	8ab2                	mv	s5,a2
    80001fd2:	89b6                	mv	s3,a3
    80001fd4:	8a3a                	mv	s4,a4
    80001fd6:	0a950963          	beq	a0,s1,80002088 <sys_linkat+0xce>
    80001fda:	eb8fe0ef          	jal	ra,80000692 <file_get>
    80001fde:	c551                	beqz	a0,8000206a <sys_linkat+0xb0>
    80001fe0:	4100                	lw	s0,0(a0)
    80001fe2:	0a9a8c63          	beq	s5,s1,8000209a <sys_linkat+0xe0>
    80001fe6:	8556                	mv	a0,s5
    80001fe8:	eaafe0ef          	jal	ra,80000692 <file_get>
    80001fec:	c541                	beqz	a0,80002074 <sys_linkat+0xba>
    80001fee:	57fd                	li	a5,-1
    80001ff0:	4118                	lw	a4,0(a0)
    80001ff2:	08f40163          	beq	s0,a5,80002074 <sys_linkat+0xba>
    80001ff6:	57fd                	li	a5,-1
    80001ff8:	06f70e63          	beq	a4,a5,80002074 <sys_linkat+0xba>
    80001ffc:	84ba                	mv	s1,a4
    80001ffe:	854a                	mv	a0,s2
    80002000:	208060ef          	jal	ra,80008208 <strlen>
    80002004:	00150a93          	addi	s5,a0,1
    80002008:	854e                	mv	a0,s3
    8000200a:	1fe060ef          	jal	ra,80008208 <strlen>
    8000200e:	80000737          	lui	a4,0x80000
    80002012:	fff74713          	not	a4,a4
    80002016:	864a                	mv	a2,s2
    80002018:	00150813          	addi	a6,a0,1
    8000201c:	01276963          	bltu	a4,s2,8000202e <sys_linkat+0x74>
    80002020:	00013797          	auipc	a5,0x13
    80002024:	0b078793          	addi	a5,a5,176 # 800150d0 <first_free_paddr>
    80002028:	639c                	ld	a5,0(a5)
    8000202a:	00f90633          	add	a2,s2,a5
    8000202e:	80000737          	lui	a4,0x80000
    80002032:	fff74713          	not	a4,a4
    80002036:	87ce                	mv	a5,s3
    80002038:	01376963          	bltu	a4,s3,8000204a <sys_linkat+0x90>
    8000203c:	00013717          	auipc	a4,0x13
    80002040:	09470713          	addi	a4,a4,148 # 800150d0 <first_free_paddr>
    80002044:	6318                	ld	a4,0(a4)
    80002046:	00e987b3          	add	a5,s3,a4
    8000204a:	85a2                	mv	a1,s0
    8000204c:	7442                	ld	s0,48(sp)
    8000204e:	70e2                	ld	ra,56(sp)
    80002050:	7902                	ld	s2,32(sp)
    80002052:	69e2                	ld	s3,24(sp)
    80002054:	88d2                	mv	a7,s4
    80002056:	8726                	mv	a4,s1
    80002058:	6a42                	ld	s4,16(sp)
    8000205a:	74a2                	ld	s1,40(sp)
    8000205c:	86d6                	mv	a3,s5
    8000205e:	6aa2                	ld	s5,8(sp)
    80002060:	02500513          	li	a0,37
    80002064:	6121                	addi	sp,sp,64
    80002066:	941fe06f          	j	800009a6 <frontend_syscall>
    8000206a:	009a8563          	beq	s5,s1,80002074 <sys_linkat+0xba>
    8000206e:	8556                	mv	a0,s5
    80002070:	e22fe0ef          	jal	ra,80000692 <file_get>
    80002074:	70e2                	ld	ra,56(sp)
    80002076:	7442                	ld	s0,48(sp)
    80002078:	74a2                	ld	s1,40(sp)
    8000207a:	7902                	ld	s2,32(sp)
    8000207c:	69e2                	ld	s3,24(sp)
    8000207e:	6a42                	ld	s4,16(sp)
    80002080:	6aa2                	ld	s5,8(sp)
    80002082:	555d                	li	a0,-9
    80002084:	6121                	addi	sp,sp,64
    80002086:	8082                	ret
    80002088:	842a                	mv	s0,a0
    8000208a:	00a60c63          	beq	a2,a0,800020a2 <sys_linkat+0xe8>
    8000208e:	8556                	mv	a0,s5
    80002090:	e02fe0ef          	jal	ra,80000692 <file_get>
    80002094:	d165                	beqz	a0,80002074 <sys_linkat+0xba>
    80002096:	4118                	lw	a4,0(a0)
    80002098:	bfb9                	j	80001ff6 <sys_linkat+0x3c>
    8000209a:	57fd                	li	a5,-1
    8000209c:	f6f411e3          	bne	s0,a5,80001ffe <sys_linkat+0x44>
    800020a0:	bfd1                	j	80002074 <sys_linkat+0xba>
    800020a2:	f9c00493          	li	s1,-100
    800020a6:	bfa1                	j	80001ffe <sys_linkat+0x44>

00000000800020a8 <sys_link>:
    800020a8:	86ae                	mv	a3,a1
    800020aa:	4701                	li	a4,0
    800020ac:	85aa                	mv	a1,a0
    800020ae:	f9c00613          	li	a2,-100
    800020b2:	f9c00513          	li	a0,-100
    800020b6:	f05ff06f          	j	80001fba <sys_linkat>

00000000800020ba <sys_unlinkat>:
    800020ba:	1101                	addi	sp,sp,-32
    800020bc:	e822                	sd	s0,16(sp)
    800020be:	e04a                	sd	s2,0(sp)
    800020c0:	ec06                	sd	ra,24(sp)
    800020c2:	e426                	sd	s1,8(sp)
    800020c4:	f9c00793          	li	a5,-100
    800020c8:	842e                	mv	s0,a1
    800020ca:	8932                	mv	s2,a2
    800020cc:	06f50263          	beq	a0,a5,80002130 <sys_unlinkat+0x76>
    800020d0:	dc2fe0ef          	jal	ra,80000692 <file_get>
    800020d4:	c539                	beqz	a0,80002122 <sys_unlinkat+0x68>
    800020d6:	410c                	lw	a1,0(a0)
    800020d8:	57fd                	li	a5,-1
    800020da:	04f58463          	beq	a1,a5,80002122 <sys_unlinkat+0x68>
    800020de:	84ae                	mv	s1,a1
    800020e0:	8522                	mv	a0,s0
    800020e2:	126060ef          	jal	ra,80008208 <strlen>
    800020e6:	800007b7          	lui	a5,0x80000
    800020ea:	fff7c793          	not	a5,a5
    800020ee:	8622                	mv	a2,s0
    800020f0:	00150693          	addi	a3,a0,1
    800020f4:	0087e963          	bltu	a5,s0,80002106 <sys_unlinkat+0x4c>
    800020f8:	00013797          	auipc	a5,0x13
    800020fc:	fd878793          	addi	a5,a5,-40 # 800150d0 <first_free_paddr>
    80002100:	639c                	ld	a5,0(a5)
    80002102:	00f40633          	add	a2,s0,a5
    80002106:	6442                	ld	s0,16(sp)
    80002108:	60e2                	ld	ra,24(sp)
    8000210a:	874a                	mv	a4,s2
    8000210c:	85a6                	mv	a1,s1
    8000210e:	6902                	ld	s2,0(sp)
    80002110:	64a2                	ld	s1,8(sp)
    80002112:	4881                	li	a7,0
    80002114:	4801                	li	a6,0
    80002116:	4781                	li	a5,0
    80002118:	02300513          	li	a0,35
    8000211c:	6105                	addi	sp,sp,32
    8000211e:	889fe06f          	j	800009a6 <frontend_syscall>
    80002122:	60e2                	ld	ra,24(sp)
    80002124:	6442                	ld	s0,16(sp)
    80002126:	64a2                	ld	s1,8(sp)
    80002128:	6902                	ld	s2,0(sp)
    8000212a:	555d                	li	a0,-9
    8000212c:	6105                	addi	sp,sp,32
    8000212e:	8082                	ret
    80002130:	f9c00493          	li	s1,-100
    80002134:	b775                	j	800020e0 <sys_unlinkat+0x26>

0000000080002136 <sys_unlink>:
    80002136:	85aa                	mv	a1,a0
    80002138:	4601                	li	a2,0
    8000213a:	f9c00513          	li	a0,-100
    8000213e:	f7dff06f          	j	800020ba <sys_unlinkat>

0000000080002142 <sys_mkdirat>:
    80002142:	1101                	addi	sp,sp,-32
    80002144:	e822                	sd	s0,16(sp)
    80002146:	e04a                	sd	s2,0(sp)
    80002148:	ec06                	sd	ra,24(sp)
    8000214a:	e426                	sd	s1,8(sp)
    8000214c:	f9c00793          	li	a5,-100
    80002150:	842e                	mv	s0,a1
    80002152:	8932                	mv	s2,a2
    80002154:	06f50263          	beq	a0,a5,800021b8 <sys_mkdirat+0x76>
    80002158:	d3afe0ef          	jal	ra,80000692 <file_get>
    8000215c:	c539                	beqz	a0,800021aa <sys_mkdirat+0x68>
    8000215e:	410c                	lw	a1,0(a0)
    80002160:	57fd                	li	a5,-1
    80002162:	04f58463          	beq	a1,a5,800021aa <sys_mkdirat+0x68>
    80002166:	84ae                	mv	s1,a1
    80002168:	8522                	mv	a0,s0
    8000216a:	09e060ef          	jal	ra,80008208 <strlen>
    8000216e:	800007b7          	lui	a5,0x80000
    80002172:	fff7c793          	not	a5,a5
    80002176:	8622                	mv	a2,s0
    80002178:	00150693          	addi	a3,a0,1
    8000217c:	0087e963          	bltu	a5,s0,8000218e <sys_mkdirat+0x4c>
    80002180:	00013797          	auipc	a5,0x13
    80002184:	f5078793          	addi	a5,a5,-176 # 800150d0 <first_free_paddr>
    80002188:	639c                	ld	a5,0(a5)
    8000218a:	00f40633          	add	a2,s0,a5
    8000218e:	6442                	ld	s0,16(sp)
    80002190:	60e2                	ld	ra,24(sp)
    80002192:	874a                	mv	a4,s2
    80002194:	85a6                	mv	a1,s1
    80002196:	6902                	ld	s2,0(sp)
    80002198:	64a2                	ld	s1,8(sp)
    8000219a:	4881                	li	a7,0
    8000219c:	4801                	li	a6,0
    8000219e:	4781                	li	a5,0
    800021a0:	02200513          	li	a0,34
    800021a4:	6105                	addi	sp,sp,32
    800021a6:	801fe06f          	j	800009a6 <frontend_syscall>
    800021aa:	60e2                	ld	ra,24(sp)
    800021ac:	6442                	ld	s0,16(sp)
    800021ae:	64a2                	ld	s1,8(sp)
    800021b0:	6902                	ld	s2,0(sp)
    800021b2:	555d                	li	a0,-9
    800021b4:	6105                	addi	sp,sp,32
    800021b6:	8082                	ret
    800021b8:	f9c00493          	li	s1,-100
    800021bc:	b775                	j	80002168 <sys_mkdirat+0x26>

00000000800021be <sys_mkdir>:
    800021be:	862e                	mv	a2,a1
    800021c0:	85aa                	mv	a1,a0
    800021c2:	f9c00513          	li	a0,-100
    800021c6:	f7dff06f          	j	80002142 <sys_mkdirat>

00000000800021ca <sys_chdir>:
    800021ca:	1141                	addi	sp,sp,-16
    800021cc:	800007b7          	lui	a5,0x80000
    800021d0:	e406                	sd	ra,8(sp)
    800021d2:	fff7c793          	not	a5,a5
    800021d6:	85aa                	mv	a1,a0
    800021d8:	00a7e963          	bltu	a5,a0,800021ea <sys_chdir+0x20>
    800021dc:	00013797          	auipc	a5,0x13
    800021e0:	ef478793          	addi	a5,a5,-268 # 800150d0 <first_free_paddr>
    800021e4:	639c                	ld	a5,0(a5)
    800021e6:	00f505b3          	add	a1,a0,a5
    800021ea:	4881                	li	a7,0
    800021ec:	4801                	li	a6,0
    800021ee:	4781                	li	a5,0
    800021f0:	4701                	li	a4,0
    800021f2:	4681                	li	a3,0
    800021f4:	4601                	li	a2,0
    800021f6:	03100513          	li	a0,49
    800021fa:	facfe0ef          	jal	ra,800009a6 <frontend_syscall>
    800021fe:	60a2                	ld	ra,8(sp)
    80002200:	2501                	sext.w	a0,a0
    80002202:	0141                	addi	sp,sp,16
    80002204:	8082                	ret

0000000080002206 <sys_fstat>:
    80002206:	1101                	addi	sp,sp,-32
    80002208:	e426                	sd	s1,8(sp)
    8000220a:	ec06                	sd	ra,24(sp)
    8000220c:	e822                	sd	s0,16(sp)
    8000220e:	84ae                	mv	s1,a1
    80002210:	c82fe0ef          	jal	ra,80000692 <file_get>
    80002214:	cd19                	beqz	a0,80002232 <sys_fstat+0x2c>
    80002216:	85a6                	mv	a1,s1
    80002218:	842a                	mv	s0,a0
    8000221a:	efefe0ef          	jal	ra,80000918 <file_stat>
    8000221e:	84aa                	mv	s1,a0
    80002220:	8522                	mv	a0,s0
    80002222:	bc8fe0ef          	jal	ra,800005ea <file_decref>
    80002226:	60e2                	ld	ra,24(sp)
    80002228:	6442                	ld	s0,16(sp)
    8000222a:	8526                	mv	a0,s1
    8000222c:	64a2                	ld	s1,8(sp)
    8000222e:	6105                	addi	sp,sp,32
    80002230:	8082                	ret
    80002232:	54dd                	li	s1,-9
    80002234:	bfcd                	j	80002226 <sys_fstat+0x20>

0000000080002236 <sys_ftruncate>:
    80002236:	1101                	addi	sp,sp,-32
    80002238:	e426                	sd	s1,8(sp)
    8000223a:	ec06                	sd	ra,24(sp)
    8000223c:	e822                	sd	s0,16(sp)
    8000223e:	84ae                	mv	s1,a1
    80002240:	c52fe0ef          	jal	ra,80000692 <file_get>
    80002244:	cd19                	beqz	a0,80002262 <sys_ftruncate+0x2c>
    80002246:	85a6                	mv	a1,s1
    80002248:	842a                	mv	s0,a0
    8000224a:	f24fe0ef          	jal	ra,8000096e <file_truncate>
    8000224e:	84aa                	mv	s1,a0
    80002250:	8522                	mv	a0,s0
    80002252:	b98fe0ef          	jal	ra,800005ea <file_decref>
    80002256:	60e2                	ld	ra,24(sp)
    80002258:	6442                	ld	s0,16(sp)
    8000225a:	8526                	mv	a0,s1
    8000225c:	64a2                	ld	s1,8(sp)
    8000225e:	6105                	addi	sp,sp,32
    80002260:	8082                	ret
    80002262:	54dd                	li	s1,-9
    80002264:	bfcd                	j	80002256 <sys_ftruncate+0x20>

0000000080002266 <sys_lseek>:
    80002266:	1101                	addi	sp,sp,-32
    80002268:	e426                	sd	s1,8(sp)
    8000226a:	e04a                	sd	s2,0(sp)
    8000226c:	ec06                	sd	ra,24(sp)
    8000226e:	e822                	sd	s0,16(sp)
    80002270:	84ae                	mv	s1,a1
    80002272:	8932                	mv	s2,a2
    80002274:	c1efe0ef          	jal	ra,80000692 <file_get>
    80002278:	c10d                	beqz	a0,8000229a <sys_lseek+0x34>
    8000227a:	85a6                	mv	a1,s1
    8000227c:	864a                	mv	a2,s2
    8000227e:	842a                	mv	s0,a0
    80002280:	f10fe0ef          	jal	ra,80000990 <file_lseek>
    80002284:	84aa                	mv	s1,a0
    80002286:	8522                	mv	a0,s0
    80002288:	b62fe0ef          	jal	ra,800005ea <file_decref>
    8000228c:	60e2                	ld	ra,24(sp)
    8000228e:	6442                	ld	s0,16(sp)
    80002290:	8526                	mv	a0,s1
    80002292:	6902                	ld	s2,0(sp)
    80002294:	64a2                	ld	s1,8(sp)
    80002296:	6105                	addi	sp,sp,32
    80002298:	8082                	ret
    8000229a:	54dd                	li	s1,-9
    8000229c:	bfc5                	j	8000228c <sys_lseek+0x26>

000000008000229e <sys_lstat>:
    8000229e:	7135                	addi	sp,sp,-160
    800022a0:	e922                	sd	s0,144(sp)
    800022a2:	e14a                	sd	s2,128(sp)
    800022a4:	842a                	mv	s0,a0
    800022a6:	892e                	mv	s2,a1
    800022a8:	ed06                	sd	ra,152(sp)
    800022aa:	e526                	sd	s1,136(sp)
    800022ac:	75d050ef          	jal	ra,80008208 <strlen>
    800022b0:	800007b7          	lui	a5,0x80000
    800022b4:	fff7c793          	not	a5,a5
    800022b8:	85a2                	mv	a1,s0
    800022ba:	00150613          	addi	a2,a0,1
    800022be:	0087e963          	bltu	a5,s0,800022d0 <sys_lstat+0x32>
    800022c2:	00013797          	auipc	a5,0x13
    800022c6:	e0e78793          	addi	a5,a5,-498 # 800150d0 <first_free_paddr>
    800022ca:	639c                	ld	a5,0(a5)
    800022cc:	00f405b3          	add	a1,s0,a5
    800022d0:	800007b7          	lui	a5,0x80000
    800022d4:	840a                	mv	s0,sp
    800022d6:	fff7c793          	not	a5,a5
    800022da:	86a2                	mv	a3,s0
    800022dc:	0087e863          	bltu	a5,s0,800022ec <sys_lstat+0x4e>
    800022e0:	00013797          	auipc	a5,0x13
    800022e4:	df078793          	addi	a5,a5,-528 # 800150d0 <first_free_paddr>
    800022e8:	6394                	ld	a3,0(a5)
    800022ea:	96a2                	add	a3,a3,s0
    800022ec:	4881                	li	a7,0
    800022ee:	4801                	li	a6,0
    800022f0:	4781                	li	a5,0
    800022f2:	4701                	li	a4,0
    800022f4:	40f00513          	li	a0,1039
    800022f8:	eaefe0ef          	jal	ra,800009a6 <frontend_syscall>
    800022fc:	84aa                	mv	s1,a0
    800022fe:	85a2                	mv	a1,s0
    80002300:	854a                	mv	a0,s2
    80002302:	f4efe0ef          	jal	ra,80000a50 <copy_stat>
    80002306:	60ea                	ld	ra,152(sp)
    80002308:	644a                	ld	s0,144(sp)
    8000230a:	8526                	mv	a0,s1
    8000230c:	690a                	ld	s2,128(sp)
    8000230e:	64aa                	ld	s1,136(sp)
    80002310:	610d                	addi	sp,sp,160
    80002312:	8082                	ret

0000000080002314 <sys_fstatat>:
    80002314:	7171                	addi	sp,sp,-176
    80002316:	f122                	sd	s0,160(sp)
    80002318:	e94a                	sd	s2,144(sp)
    8000231a:	e54e                	sd	s3,136(sp)
    8000231c:	f506                	sd	ra,168(sp)
    8000231e:	ed26                	sd	s1,152(sp)
    80002320:	f9c00793          	li	a5,-100
    80002324:	842e                	mv	s0,a1
    80002326:	8932                	mv	s2,a2
    80002328:	89b6                	mv	s3,a3
    8000232a:	08f50363          	beq	a0,a5,800023b0 <sys_fstatat+0x9c>
    8000232e:	b64fe0ef          	jal	ra,80000692 <file_get>
    80002332:	cd2d                	beqz	a0,800023ac <sys_fstatat+0x98>
    80002334:	410c                	lw	a1,0(a0)
    80002336:	57fd                	li	a5,-1
    80002338:	06f58a63          	beq	a1,a5,800023ac <sys_fstatat+0x98>
    8000233c:	84ae                	mv	s1,a1
    8000233e:	8522                	mv	a0,s0
    80002340:	6c9050ef          	jal	ra,80008208 <strlen>
    80002344:	800007b7          	lui	a5,0x80000
    80002348:	fff7c793          	not	a5,a5
    8000234c:	8622                	mv	a2,s0
    8000234e:	00150693          	addi	a3,a0,1
    80002352:	0087e963          	bltu	a5,s0,80002364 <sys_fstatat+0x50>
    80002356:	00013797          	auipc	a5,0x13
    8000235a:	d7a78793          	addi	a5,a5,-646 # 800150d0 <first_free_paddr>
    8000235e:	639c                	ld	a5,0(a5)
    80002360:	00f40633          	add	a2,s0,a5
    80002364:	800007b7          	lui	a5,0x80000
    80002368:	840a                	mv	s0,sp
    8000236a:	fff7c793          	not	a5,a5
    8000236e:	8722                	mv	a4,s0
    80002370:	0287f763          	bgeu	a5,s0,8000239e <sys_fstatat+0x8a>
    80002374:	85a6                	mv	a1,s1
    80002376:	4881                	li	a7,0
    80002378:	4801                	li	a6,0
    8000237a:	87ce                	mv	a5,s3
    8000237c:	04f00513          	li	a0,79
    80002380:	e26fe0ef          	jal	ra,800009a6 <frontend_syscall>
    80002384:	84aa                	mv	s1,a0
    80002386:	85a2                	mv	a1,s0
    80002388:	854a                	mv	a0,s2
    8000238a:	ec6fe0ef          	jal	ra,80000a50 <copy_stat>
    8000238e:	70aa                	ld	ra,168(sp)
    80002390:	740a                	ld	s0,160(sp)
    80002392:	8526                	mv	a0,s1
    80002394:	694a                	ld	s2,144(sp)
    80002396:	64ea                	ld	s1,152(sp)
    80002398:	69aa                	ld	s3,136(sp)
    8000239a:	614d                	addi	sp,sp,176
    8000239c:	8082                	ret
    8000239e:	00013797          	auipc	a5,0x13
    800023a2:	d3278793          	addi	a5,a5,-718 # 800150d0 <first_free_paddr>
    800023a6:	6398                	ld	a4,0(a5)
    800023a8:	9722                	add	a4,a4,s0
    800023aa:	b7e9                	j	80002374 <sys_fstatat+0x60>
    800023ac:	54dd                	li	s1,-9
    800023ae:	b7c5                	j	8000238e <sys_fstatat+0x7a>
    800023b0:	f9c00493          	li	s1,-100
    800023b4:	b769                	j	8000233e <sys_fstatat+0x2a>

00000000800023b6 <sys_stat>:
    800023b6:	862e                	mv	a2,a1
    800023b8:	4681                	li	a3,0
    800023ba:	85aa                	mv	a1,a0
    800023bc:	f9c00513          	li	a0,-100
    800023c0:	f55ff06f          	j	80002314 <sys_fstatat>

00000000800023c4 <sys_getcwd>:
    800023c4:	1101                	addi	sp,sp,-32
    800023c6:	4609                	li	a2,2
    800023c8:	e822                	sd	s0,16(sp)
    800023ca:	e426                	sd	s1,8(sp)
    800023cc:	842a                	mv	s0,a0
    800023ce:	84ae                	mv	s1,a1
    800023d0:	ec06                	sd	ra,24(sp)
    800023d2:	b08ff0ef          	jal	ra,800016da <populate_mapping>
    800023d6:	800007b7          	lui	a5,0x80000
    800023da:	fff7c793          	not	a5,a5
    800023de:	85a2                	mv	a1,s0
    800023e0:	0087e963          	bltu	a5,s0,800023f2 <sys_getcwd+0x2e>
    800023e4:	00013797          	auipc	a5,0x13
    800023e8:	cec78793          	addi	a5,a5,-788 # 800150d0 <first_free_paddr>
    800023ec:	639c                	ld	a5,0(a5)
    800023ee:	00f405b3          	add	a1,s0,a5
    800023f2:	6442                	ld	s0,16(sp)
    800023f4:	60e2                	ld	ra,24(sp)
    800023f6:	8626                	mv	a2,s1
    800023f8:	64a2                	ld	s1,8(sp)
    800023fa:	4881                	li	a7,0
    800023fc:	4801                	li	a6,0
    800023fe:	4781                	li	a5,0
    80002400:	4701                	li	a4,0
    80002402:	4681                	li	a3,0
    80002404:	4545                	li	a0,17
    80002406:	6105                	addi	sp,sp,32
    80002408:	d9efe06f          	j	800009a6 <frontend_syscall>

000000008000240c <sys_brk>:
    8000240c:	870ff06f          	j	8000147c <do_brk>

0000000080002410 <sys_uname>:
    80002410:	1141                	addi	sp,sp,-16
    80002412:	4635                	li	a2,13
    80002414:	00007597          	auipc	a1,0x7
    80002418:	15458593          	addi	a1,a1,340 # 80009568 <softfloat_countLeadingZeros8+0x600>
    8000241c:	e406                	sd	ra,8(sp)
    8000241e:	557050ef          	jal	ra,80008174 <memcpy>
    80002422:	00007797          	auipc	a5,0x7
    80002426:	15678793          	addi	a5,a5,342 # 80009578 <softfloat_countLeadingZeros8+0x610>
    8000242a:	872a                	mv	a4,a0
    8000242c:	0007c303          	lbu	t1,0(a5)
    80002430:	0037c503          	lbu	a0,3(a5)
    80002434:	0017c883          	lbu	a7,1(a5)
    80002438:	0027c803          	lbu	a6,2(a5)
    8000243c:	0047c583          	lbu	a1,4(a5)
    80002440:	0057c603          	lbu	a2,5(a5)
    80002444:	0067c683          	lbu	a3,6(a5)
    80002448:	08a702a3          	sb	a0,133(a4)
    8000244c:	040700a3          	sb	zero,65(a4)
    80002450:	08670123          	sb	t1,130(a4)
    80002454:	091701a3          	sb	a7,131(a4)
    80002458:	09070223          	sb	a6,132(a4)
    8000245c:	08b70323          	sb	a1,134(a4)
    80002460:	08c703a3          	sb	a2,135(a4)
    80002464:	08d70423          	sb	a3,136(a4)
    80002468:	0c0701a3          	sb	zero,195(a4)
    8000246c:	10070223          	sb	zero,260(a4)
    80002470:	140702a3          	sb	zero,325(a4)
    80002474:	60a2                	ld	ra,8(sp)
    80002476:	4501                	li	a0,0
    80002478:	0141                	addi	sp,sp,16
    8000247a:	8082                	ret

000000008000247c <sys_mmap>:
    8000247c:	ec1fe06f          	j	8000133c <do_mmap>

0000000080002480 <sys_munmap>:
    80002480:	e5dfe06f          	j	800012dc <do_munmap>

0000000080002484 <sys_mremap>:
    80002484:	830ff06f          	j	800014b4 <do_mremap>

0000000080002488 <sys_mprotect>:
    80002488:	832ff06f          	j	800014ba <do_mprotect>

000000008000248c <sys_rt_sigaction>:
    8000248c:	ce01                	beqz	a2,800024a4 <sys_rt_sigaction+0x18>
    8000248e:	1141                	addi	sp,sp,-16
    80002490:	8532                	mv	a0,a2
    80002492:	4581                	li	a1,0
    80002494:	4661                	li	a2,24
    80002496:	e406                	sd	ra,8(sp)
    80002498:	52b050ef          	jal	ra,800081c2 <memset>
    8000249c:	60a2                	ld	ra,8(sp)
    8000249e:	4501                	li	a0,0
    800024a0:	0141                	addi	sp,sp,16
    800024a2:	8082                	ret
    800024a4:	4501                	li	a0,0
    800024a6:	8082                	ret

00000000800024a8 <sys_stub_success>:
    800024a8:	4501                	li	a0,0
    800024aa:	8082                	ret

00000000800024ac <sys_getuid>:
    800024ac:	4501                	li	a0,0
    800024ae:	8082                	ret

00000000800024b0 <do_syscall>:
    800024b0:	10500893          	li	a7,261
    800024b4:	0108ee63          	bltu	a7,a6,800024d0 <do_syscall+0x20>
    800024b8:	00381313          	slli	t1,a6,0x3
    800024bc:	00006897          	auipc	a7,0x6
    800024c0:	0b488893          	addi	a7,a7,180 # 80008570 <syscall_table.3127>
    800024c4:	989a                	add	a7,a7,t1
    800024c6:	0008b303          	ld	t1,0(a7)
    800024ca:	02030263          	beqz	t1,800024ee <do_syscall+0x3e>
    800024ce:	8302                	jr	t1
    800024d0:	c0080893          	addi	a7,a6,-1024
    800024d4:	02600313          	li	t1,38
    800024d8:	01136b63          	bltu	t1,a7,800024ee <do_syscall+0x3e>
    800024dc:	00006317          	auipc	t1,0x6
    800024e0:	f5c30313          	addi	t1,t1,-164 # 80008438 <old_syscall_table.3128>
    800024e4:	088e                	slli	a7,a7,0x3
    800024e6:	989a                	add	a7,a7,t1
    800024e8:	0008b303          	ld	t1,0(a7)
    800024ec:	bff9                	j	800024ca <do_syscall+0x1a>
    800024ee:	1141                	addi	sp,sp,-16
    800024f0:	85c2                	mv	a1,a6
    800024f2:	00007517          	auipc	a0,0x7
    800024f6:	08e50513          	addi	a0,a0,142 # 80009580 <softfloat_countLeadingZeros8+0x618>
    800024fa:	e406                	sd	ra,8(sp)
    800024fc:	8d1fe0ef          	jal	ra,80000dcc <do_panic>

0000000080002500 <send_ipi_many>:
    80002500:	00013797          	auipc	a5,0x13
    80002504:	c3878793          	addi	a5,a5,-968 # 80015138 <hart_mask>
    80002508:	0007b803          	ld	a6,0(a5)
    8000250c:	cd01                	beqz	a0,80002524 <send_ipi_many+0x24>
    8000250e:	34102673          	csrr	a2,mepc
    80002512:	000207b7          	lui	a5,0x20
    80002516:	3007a6f3          	csrrs	a3,mstatus,a5
    8000251a:	6118                	ld	a4,0(a0)
    8000251c:	30069073          	csrw	mstatus,a3
    80002520:	00e87833          	and	a6,a6,a4
    80002524:	8742                	mv	a4,a6
    80002526:	4681                	li	a3,0
    80002528:	0c080c63          	beqz	a6,80002600 <send_ipi_many+0x100>
    8000252c:	6505                	lui	a0,0x1
    8000252e:	950a                	add	a0,a0,sp
    80002530:	77fd                	lui	a5,0xfffff
    80002532:	00013317          	auipc	t1,0x13
    80002536:	b2630313          	addi	t1,t1,-1242 # 80015058 <disabled_hart_mask>
    8000253a:	8d7d                	and	a0,a0,a5
    8000253c:	4e05                	li	t3,1
    8000253e:	f14028f3          	csrr	a7,mhartid
    80002542:	a021                	j	8000254a <send_ipi_many+0x4a>
    80002544:	8305                	srli	a4,a4,0x1
    80002546:	0685                	addi	a3,a3,1
    80002548:	cf0d                	beqz	a4,80002582 <send_ipi_many+0x82>
    8000254a:	00177793          	andi	a5,a4,1
    8000254e:	dbfd                	beqz	a5,80002544 <send_ipi_many+0x44>
    80002550:	00033603          	ld	a2,0(t1)
    80002554:	411687b3          	sub	a5,a3,a7
    80002558:	07b2                	slli	a5,a5,0xc
    8000255a:	40d65633          	sra	a2,a2,a3
    8000255e:	8a05                	andi	a2,a2,1
    80002560:	97aa                	add	a5,a5,a0
    80002562:	f26d                	bnez	a2,80002544 <send_ipi_many+0x44>
    80002564:	fc878613          	addi	a2,a5,-56 # ffffffffffffefc8 <_end+0xffffffff7ffe8fc8>
    80002568:	0f50000f          	fence	iorw,ow
    8000256c:	44b6202f          	amoor.w.aq	zero,a1,(a2)
    80002570:	0ff0000f          	fence
    80002574:	fc07b783          	ld	a5,-64(a5)
    80002578:	8305                	srli	a4,a4,0x1
    8000257a:	0685                	addi	a3,a3,1
    8000257c:	01c7a023          	sw	t3,0(a5)
    80002580:	f769                	bnez	a4,8000254a <send_ipi_many+0x4a>
    80002582:	4785                	li	a5,1
    80002584:	06f58e63          	beq	a1,a5,80002600 <send_ipi_many+0x100>
    80002588:	6505                	lui	a0,0x1
    8000258a:	950a                	add	a0,a0,sp
    8000258c:	77fd                	lui	a5,0xfffff
    8000258e:	f1402373          	csrr	t1,mhartid
    80002592:	4601                	li	a2,0
    80002594:	8d7d                	and	a0,a0,a5
    80002596:	4881                	li	a7,0
    80002598:	8e1a                	mv	t3,t1
    8000259a:	a031                	j	800025a6 <send_ipi_many+0xa6>
    8000259c:	00185813          	srli	a6,a6,0x1
    800025a0:	0705                	addi	a4,a4,1
    800025a2:	04080463          	beqz	a6,800025ea <send_ipi_many+0xea>
    800025a6:	00187793          	andi	a5,a6,1
    800025aa:	dbed                	beqz	a5,8000259c <send_ipi_many+0x9c>
    800025ac:	406707b3          	sub	a5,a4,t1
    800025b0:	07b2                	slli	a5,a5,0xc
    800025b2:	97aa                	add	a5,a5,a0
    800025b4:	fc07b783          	ld	a5,-64(a5) # ffffffffffffefc0 <_end+0xffffffff7ffe8fc0>
    800025b8:	439c                	lw	a5,0(a5)
    800025ba:	2781                	sext.w	a5,a5
    800025bc:	d3e5                	beqz	a5,8000259c <send_ipi_many+0x9c>
    800025be:	41c705b3          	sub	a1,a4,t3
    800025c2:	05b2                	slli	a1,a1,0xc
    800025c4:	95aa                	add	a1,a1,a0
    800025c6:	fc053683          	ld	a3,-64(a0) # fc0 <_ftext-0x7ffff040>
    800025ca:	87c6                	mv	a5,a7
    800025cc:	0cf6a7af          	amoswap.w.aq	a5,a5,(a3)
    800025d0:	fc05b683          	ld	a3,-64(a1)
    800025d4:	8fd1                	or	a5,a5,a2
    800025d6:	0007861b          	sext.w	a2,a5
    800025da:	429c                	lw	a5,0(a3)
    800025dc:	2781                	sext.w	a5,a5
    800025de:	f7e5                	bnez	a5,800025c6 <send_ipi_many+0xc6>
    800025e0:	00185813          	srli	a6,a6,0x1
    800025e4:	0705                	addi	a4,a4,1
    800025e6:	fc0810e3          	bnez	a6,800025a6 <send_ipi_many+0xa6>
    800025ea:	ca19                	beqz	a2,80002600 <send_ipi_many+0x100>
    800025ec:	6785                	lui	a5,0x1
    800025ee:	978a                	add	a5,a5,sp
    800025f0:	777d                	lui	a4,0xfffff
    800025f2:	8ff9                	and	a5,a5,a4
    800025f4:	fc07b783          	ld	a5,-64(a5) # fc0 <_ftext-0x7ffff040>
    800025f8:	c390                	sw	a2,0(a5)
    800025fa:	0ff0000f          	fence
    800025fe:	8082                	ret
    80002600:	8082                	ret

0000000080002602 <mcall_console_putchar>:
    80002602:	00013797          	auipc	a5,0x13
    80002606:	b1e78793          	addi	a5,a5,-1250 # 80015120 <uart>
    8000260a:	639c                	ld	a5,0(a5)
    8000260c:	1141                	addi	sp,sp,-16
    8000260e:	e406                	sd	ra,8(sp)
    80002610:	c799                	beqz	a5,8000261e <mcall_console_putchar+0x1c>
    80002612:	0fd000ef          	jal	ra,80002f0e <uart_putchar>
    80002616:	60a2                	ld	ra,8(sp)
    80002618:	4501                	li	a0,0
    8000261a:	0141                	addi	sp,sp,16
    8000261c:	8082                	ret
    8000261e:	00013797          	auipc	a5,0x13
    80002622:	b0a78793          	addi	a5,a5,-1270 # 80015128 <uart16550>
    80002626:	639c                	ld	a5,0(a5)
    80002628:	c799                	beqz	a5,80002636 <mcall_console_putchar+0x34>
    8000262a:	219000ef          	jal	ra,80003042 <uart16550_putchar>
    8000262e:	60a2                	ld	ra,8(sp)
    80002630:	4501                	li	a0,0
    80002632:	0141                	addi	sp,sp,16
    80002634:	8082                	ret
    80002636:	00013797          	auipc	a5,0x13
    8000263a:	ada78793          	addi	a5,a5,-1318 # 80015110 <htif>
    8000263e:	639c                	ld	a5,0(a5)
    80002640:	dbf9                	beqz	a5,80002616 <mcall_console_putchar+0x14>
    80002642:	77e000ef          	jal	ra,80002dc0 <htif_console_putchar>
    80002646:	bfc1                	j	80002616 <mcall_console_putchar+0x14>

0000000080002648 <putstring>:
    80002648:	1141                	addi	sp,sp,-16
    8000264a:	e022                	sd	s0,0(sp)
    8000264c:	e406                	sd	ra,8(sp)
    8000264e:	842a                	mv	s0,a0
    80002650:	00054503          	lbu	a0,0(a0)
    80002654:	c519                	beqz	a0,80002662 <putstring+0x1a>
    80002656:	0405                	addi	s0,s0,1
    80002658:	fabff0ef          	jal	ra,80002602 <mcall_console_putchar>
    8000265c:	00044503          	lbu	a0,0(s0)
    80002660:	f97d                	bnez	a0,80002656 <putstring+0xe>
    80002662:	60a2                	ld	ra,8(sp)
    80002664:	6402                	ld	s0,0(sp)
    80002666:	0141                	addi	sp,sp,16
    80002668:	8082                	ret

000000008000266a <vprintm>:
    8000266a:	716d                	addi	sp,sp,-272
    8000266c:	86ae                	mv	a3,a1
    8000266e:	862a                	mv	a2,a0
    80002670:	10000593          	li	a1,256
    80002674:	850a                	mv	a0,sp
    80002676:	e606                	sd	ra,264(sp)
    80002678:	e222                	sd	s0,256(sp)
    8000267a:	0a7050ef          	jal	ra,80007f20 <vsnprintf>
    8000267e:	00014503          	lbu	a0,0(sp)
    80002682:	c901                	beqz	a0,80002692 <vprintm+0x28>
    80002684:	840a                	mv	s0,sp
    80002686:	0405                	addi	s0,s0,1
    80002688:	f7bff0ef          	jal	ra,80002602 <mcall_console_putchar>
    8000268c:	00044503          	lbu	a0,0(s0)
    80002690:	f97d                	bnez	a0,80002686 <vprintm+0x1c>
    80002692:	60b2                	ld	ra,264(sp)
    80002694:	6412                	ld	s0,256(sp)
    80002696:	6151                	addi	sp,sp,272
    80002698:	8082                	ret

000000008000269a <printm>:
    8000269a:	711d                	addi	sp,sp,-96
    8000269c:	02810313          	addi	t1,sp,40
    800026a0:	f42e                	sd	a1,40(sp)
    800026a2:	859a                	mv	a1,t1
    800026a4:	ec06                	sd	ra,24(sp)
    800026a6:	f832                	sd	a2,48(sp)
    800026a8:	fc36                	sd	a3,56(sp)
    800026aa:	e0ba                	sd	a4,64(sp)
    800026ac:	e4be                	sd	a5,72(sp)
    800026ae:	e8c2                	sd	a6,80(sp)
    800026b0:	ecc6                	sd	a7,88(sp)
    800026b2:	e41a                	sd	t1,8(sp)
    800026b4:	fb7ff0ef          	jal	ra,8000266a <vprintm>
    800026b8:	60e2                	ld	ra,24(sp)
    800026ba:	6125                	addi	sp,sp,96
    800026bc:	8082                	ret

00000000800026be <redirect_trap>:
    800026be:	14361073          	csrw	stval,a2
    800026c2:	14151073          	csrw	sepc,a0
    800026c6:	342027f3          	csrr	a5,mcause
    800026ca:	14279073          	csrw	scause,a5
    800026ce:	105027f3          	csrr	a5,stvec
    800026d2:	34179073          	csrw	mepc,a5
    800026d6:	00459793          	slli	a5,a1,0x4
    800026da:	0035d713          	srli	a4,a1,0x3
    800026de:	10077713          	andi	a4,a4,256
    800026e2:	0207f793          	andi	a5,a5,32
    800026e6:	edd5f593          	andi	a1,a1,-291
    800026ea:	8fd9                	or	a5,a5,a4
    800026ec:	8fcd                	or	a5,a5,a1
    800026ee:	6585                	lui	a1,0x1
    800026f0:	80058593          	addi	a1,a1,-2048 # 800 <_ftext-0x7ffff800>
    800026f4:	8fcd                	or	a5,a5,a1
    800026f6:	30079073          	csrw	mstatus,a5
    800026fa:	adffd06f          	j	800001d8 <__redirect_trap>

00000000800026fe <pmp_trap>:
    800026fe:	8532                	mv	a0,a2
    80002700:	300025f3          	csrr	a1,mstatus
    80002704:	34302673          	csrr	a2,mtval
    80002708:	fb7ff06f          	j	800026be <redirect_trap>

000000008000270c <poweroff>:
    8000270c:	1141                	addi	sp,sp,-16
    8000270e:	e022                	sd	s0,0(sp)
    80002710:	842a                	mv	s0,a0
    80002712:	00007517          	auipc	a0,0x7
    80002716:	e8650513          	addi	a0,a0,-378 # 80009598 <softfloat_countLeadingZeros8+0x630>
    8000271a:	e406                	sd	ra,8(sp)
    8000271c:	f7fff0ef          	jal	ra,8000269a <printm>
    80002720:	8522                	mv	a0,s0
    80002722:	22b000ef          	jal	ra,8000314c <finisher_exit>
    80002726:	00013797          	auipc	a5,0x13
    8000272a:	9ea78793          	addi	a5,a5,-1558 # 80015110 <htif>
    8000272e:	639c                	ld	a5,0(a5)
    80002730:	c399                	beqz	a5,80002736 <poweroff+0x2a>
    80002732:	6f0000ef          	jal	ra,80002e22 <htif_poweroff>
    80002736:	45a1                	li	a1,8
    80002738:	4501                	li	a0,0
    8000273a:	dc7ff0ef          	jal	ra,80002500 <send_ipi_many>
    8000273e:	10500073          	wfi
    80002742:	bff5                	j	8000273e <poweroff+0x32>

0000000080002744 <bad_trap>:
    80002744:	1141                	addi	sp,sp,-16
    80002746:	e406                	sd	ra,8(sp)
    80002748:	8732                	mv	a4,a2
    8000274a:	342026f3          	csrr	a3,mcause
    8000274e:	00007517          	auipc	a0,0x7
    80002752:	e7250513          	addi	a0,a0,-398 # 800095c0 <softfloat_countLeadingZeros8+0x658>
    80002756:	4655                	li	a2,21
    80002758:	00007597          	auipc	a1,0x7
    8000275c:	e5058593          	addi	a1,a1,-432 # 800095a8 <softfloat_countLeadingZeros8+0x640>
    80002760:	f3bff0ef          	jal	ra,8000269a <printm>
    80002764:	6541                	lui	a0,0x10
    80002766:	157d                	addi	a0,a0,-1
    80002768:	fa5ff0ef          	jal	ra,8000270c <poweroff>

000000008000276c <trap_from_machine_mode>:
    8000276c:	1141                	addi	sp,sp,-16
    8000276e:	e406                	sd	ra,8(sp)
    80002770:	86aa                	mv	a3,a0
    80002772:	882e                	mv	a6,a1
    80002774:	88b2                	mv	a7,a2
    80002776:	34202773          	csrr	a4,mcause
    8000277a:	47bd                	li	a5,15
    8000277c:	02e7e863          	bltu	a5,a4,800027ac <trap_from_machine_mode+0x40>
    80002780:	4785                	li	a5,1
    80002782:	00e797b3          	sll	a5,a5,a4
    80002786:	6729                	lui	a4,0xa
    80002788:	0a270713          	addi	a4,a4,162 # a0a2 <_ftext-0x7fff5f5e>
    8000278c:	8ff9                	and	a5,a5,a4
    8000278e:	cf99                	beqz	a5,800027ac <trap_from_machine_mode+0x40>
    80002790:	300027f3          	csrr	a5,mstatus
    80002794:	02e79713          	slli	a4,a5,0x2e
    80002798:	00075d63          	bgez	a4,800027b2 <trap_from_machine_mode+0x46>
    8000279c:	34302673          	csrr	a2,mtval
    800027a0:	752c                	ld	a1,104(a0)
    800027a2:	60a2                	ld	ra,8(sp)
    800027a4:	7128                	ld	a0,96(a0)
    800027a6:	0141                	addi	sp,sp,16
    800027a8:	f17ff06f          	j	800026be <redirect_trap>
    800027ac:	8646                	mv	a2,a7
    800027ae:	85c2                	mv	a1,a6
    800027b0:	8536                	mv	a0,a3
    800027b2:	f93ff0ef          	jal	ra,80002744 <bad_trap>

00000000800027b6 <mcall_trap>:
    800027b6:	1141                	addi	sp,sp,-16
    800027b8:	e022                	sd	s0,0(sp)
    800027ba:	e406                	sd	ra,8(sp)
    800027bc:	842a                	mv	s0,a0
    800027be:	0611                	addi	a2,a2,4
    800027c0:	34161073          	csrw	mepc,a2
    800027c4:	655c                	ld	a5,136(a0)
    800027c6:	4721                	li	a4,8
    800027c8:	6928                	ld	a0,80(a0)
    800027ca:	0cf76063          	bltu	a4,a5,8000288a <mcall_trap+0xd4>
    800027ce:	00006617          	auipc	a2,0x6
    800027d2:	5d260613          	addi	a2,a2,1490 # 80008da0 <syscall_table.3127+0x830>
    800027d6:	00279693          	slli	a3,a5,0x2
    800027da:	96b2                	add	a3,a3,a2
    800027dc:	4298                	lw	a4,0(a3)
    800027de:	9732                	add	a4,a4,a2
    800027e0:	8702                	jr	a4
    800027e2:	4589                	li	a1,2
    800027e4:	d1dff0ef          	jal	ra,80002500 <send_ipi_many>
    800027e8:	4781                	li	a5,0
    800027ea:	e83c                	sd	a5,80(s0)
    800027ec:	60a2                	ld	ra,8(sp)
    800027ee:	6402                	ld	s0,0(sp)
    800027f0:	0141                	addi	sp,sp,16
    800027f2:	8082                	ret
    800027f4:	4591                	li	a1,4
    800027f6:	b7fd                	j	800027e4 <mcall_trap+0x2e>
    800027f8:	6705                	lui	a4,0x1
    800027fa:	970a                	add	a4,a4,sp
    800027fc:	76fd                	lui	a3,0xfffff
    800027fe:	8f75                	and	a4,a4,a3
    80002800:	fd073703          	ld	a4,-48(a4) # fd0 <_ftext-0x7ffff030>
    80002804:	e308                	sd	a0,0(a4)
    80002806:	02000713          	li	a4,32
    8000280a:	34473773          	csrrc	a4,mip,a4
    8000280e:	08000713          	li	a4,128
    80002812:	30472773          	csrrs	a4,mie,a4
    80002816:	e83c                	sd	a5,80(s0)
    80002818:	60a2                	ld	ra,8(sp)
    8000281a:	6402                	ld	s0,0(sp)
    8000281c:	0141                	addi	sp,sp,16
    8000281e:	8082                	ret
    80002820:	0ff57513          	andi	a0,a0,255
    80002824:	ddfff0ef          	jal	ra,80002602 <mcall_console_putchar>
    80002828:	87aa                	mv	a5,a0
    8000282a:	e83c                	sd	a5,80(s0)
    8000282c:	60a2                	ld	ra,8(sp)
    8000282e:	6402                	ld	s0,0(sp)
    80002830:	0141                	addi	sp,sp,16
    80002832:	8082                	ret
    80002834:	00013797          	auipc	a5,0x13
    80002838:	8ec78793          	addi	a5,a5,-1812 # 80015120 <uart>
    8000283c:	639c                	ld	a5,0(a5)
    8000283e:	e3b1                	bnez	a5,80002882 <mcall_trap+0xcc>
    80002840:	00013797          	auipc	a5,0x13
    80002844:	8e878793          	addi	a5,a5,-1816 # 80015128 <uart16550>
    80002848:	639c                	ld	a5,0(a5)
    8000284a:	e78d                	bnez	a5,80002874 <mcall_trap+0xbe>
    8000284c:	00013797          	auipc	a5,0x13
    80002850:	8c478793          	addi	a5,a5,-1852 # 80015110 <htif>
    80002854:	639c                	ld	a5,0(a5)
    80002856:	dbd1                	beqz	a5,800027ea <mcall_trap+0x34>
    80002858:	476000ef          	jal	ra,80002cce <htif_console_getchar>
    8000285c:	87aa                	mv	a5,a0
    8000285e:	b771                	j	800027ea <mcall_trap+0x34>
    80002860:	344177f3          	csrrci	a5,mip,2
    80002864:	8b89                	andi	a5,a5,2
    80002866:	e83c                	sd	a5,80(s0)
    80002868:	60a2                	ld	ra,8(sp)
    8000286a:	6402                	ld	s0,0(sp)
    8000286c:	0141                	addi	sp,sp,16
    8000286e:	8082                	ret
    80002870:	4585                	li	a1,1
    80002872:	bf8d                	j	800027e4 <mcall_trap+0x2e>
    80002874:	7e8000ef          	jal	ra,8000305c <uart16550_getchar>
    80002878:	87aa                	mv	a5,a0
    8000287a:	bf85                	j	800027ea <mcall_trap+0x34>
    8000287c:	4501                	li	a0,0
    8000287e:	e8fff0ef          	jal	ra,8000270c <poweroff>
    80002882:	6a4000ef          	jal	ra,80002f26 <uart_getchar>
    80002886:	87aa                	mv	a5,a0
    80002888:	b78d                	j	800027ea <mcall_trap+0x34>
    8000288a:	fa800793          	li	a5,-88
    8000288e:	bfb1                	j	800027ea <mcall_trap+0x34>

0000000080002890 <hart_init>:
    80002890:	1141                	addi	sp,sp,-16
    80002892:	301027f3          	csrr	a5,misa
    80002896:	e406                	sd	ra,8(sp)
    80002898:	0087f713          	andi	a4,a5,8
    8000289c:	ef4d                	bnez	a4,80002956 <hart_init+0xc6>
    8000289e:	0207f793          	andi	a5,a5,32
    800028a2:	ebd5                	bnez	a5,80002956 <hart_init+0xc6>
    800028a4:	301027f3          	csrr	a5,misa
    800028a8:	02d79713          	slli	a4,a5,0x2d
    800028ac:	00075563          	bgez	a4,800028b6 <hart_init+0x26>
    800028b0:	57fd                	li	a5,-1
    800028b2:	10679073          	csrw	scounteren,a5
    800028b6:	57fd                	li	a5,-1
    800028b8:	30679073          	csrw	mcounteren,a5
    800028bc:	30445073          	csrwi	mie,8
    800028c0:	301027f3          	csrr	a5,misa
    800028c4:	02d79713          	slli	a4,a5,0x2d
    800028c8:	00075463          	bgez	a4,800028d0 <hart_init+0x40>
    800028cc:	18005073          	csrwi	satp,0
    800028d0:	301027f3          	csrr	a5,misa
    800028d4:	0087f713          	andi	a4,a5,8
    800028d8:	e701                	bnez	a4,800028e0 <hart_init+0x50>
    800028da:	0207f793          	andi	a5,a5,32
    800028de:	c785                	beqz	a5,80002906 <hart_init+0x76>
    800028e0:	30002773          	csrr	a4,mstatus
    800028e4:	6799                	lui	a5,0x6
    800028e6:	8f7d                	and	a4,a4,a5
    800028e8:	10000693          	li	a3,256
    800028ec:	4781                	li	a5,0
    800028ee:	cb25                	beqz	a4,8000295e <hart_init+0xce>
    800028f0:	4501                	li	a0,0
    800028f2:	00001717          	auipc	a4,0x1
    800028f6:	973e                	add	a4,a4,a5
    800028f8:	9b8702e7          	jalr	t0,-1608(a4) # 800032aa <put_f32_reg>
    800028fc:	07a1                	addi	a5,a5,8
    800028fe:	fed799e3          	bne	a5,a3,800028f0 <hart_init+0x60>
    80002902:	00305073          	csrwi	fcsr,0
    80002906:	301027f3          	csrr	a5,misa
    8000290a:	02d79713          	slli	a4,a5,0x2d
    8000290e:	02075363          	bgez	a4,80002934 <hart_init+0xa4>
    80002912:	22200713          	li	a4,546
    80002916:	30371073          	csrw	mideleg,a4
    8000291a:	67ad                	lui	a5,0xb
    8000291c:	10978793          	addi	a5,a5,265 # b109 <_ftext-0x7fff4ef7>
    80002920:	30279073          	csrw	medeleg,a5
    80002924:	303026f3          	csrr	a3,mideleg
    80002928:	06e69a63          	bne	a3,a4,8000299c <hart_init+0x10c>
    8000292c:	30202773          	csrr	a4,medeleg
    80002930:	04f71b63          	bne	a4,a5,80002986 <hart_init+0xf6>
    80002934:	47fd                	li	a5,31
    80002936:	577d                	li	a4,-1
    80002938:	00000297          	auipc	t0,0x0
    8000293c:	01428293          	addi	t0,t0,20 # 8000294c <hart_init+0xbc>
    80002940:	305292f3          	csrrw	t0,mtvec,t0
    80002944:	3b071073          	csrw	pmpaddr0,a4
    80002948:	3a079073          	csrw	pmpcfg0,a5
    8000294c:	30529073          	csrw	mtvec,t0
    80002950:	60a2                	ld	ra,8(sp)
    80002952:	0141                	addi	sp,sp,16
    80002954:	8082                	ret
    80002956:	6799                	lui	a5,0x6
    80002958:	30079073          	csrw	mstatus,a5
    8000295c:	b7a1                	j	800028a4 <hart_init+0x14>
    8000295e:	00006517          	auipc	a0,0x6
    80002962:	7da50513          	addi	a0,a0,2010 # 80009138 <softfloat_countLeadingZeros8+0x1d0>
    80002966:	00007697          	auipc	a3,0x7
    8000296a:	c8a68693          	addi	a3,a3,-886 # 800095f0 <softfloat_countLeadingZeros8+0x688>
    8000296e:	04500613          	li	a2,69
    80002972:	00007597          	auipc	a1,0x7
    80002976:	c9e58593          	addi	a1,a1,-866 # 80009610 <softfloat_countLeadingZeros8+0x6a8>
    8000297a:	d21ff0ef          	jal	ra,8000269a <printm>
    8000297e:	6541                	lui	a0,0x10
    80002980:	157d                	addi	a0,a0,-1
    80002982:	d8bff0ef          	jal	ra,8000270c <poweroff>
    80002986:	00006517          	auipc	a0,0x6
    8000298a:	7b250513          	addi	a0,a0,1970 # 80009138 <softfloat_countLeadingZeros8+0x1d0>
    8000298e:	00007697          	auipc	a3,0x7
    80002992:	cba68693          	addi	a3,a3,-838 # 80009648 <softfloat_countLeadingZeros8+0x6e0>
    80002996:	03d00613          	li	a2,61
    8000299a:	bfe1                	j	80002972 <hart_init+0xe2>
    8000299c:	00006517          	auipc	a0,0x6
    800029a0:	79c50513          	addi	a0,a0,1948 # 80009138 <softfloat_countLeadingZeros8+0x1d0>
    800029a4:	00007697          	auipc	a3,0x7
    800029a8:	c8468693          	addi	a3,a3,-892 # 80009628 <softfloat_countLeadingZeros8+0x6c0>
    800029ac:	03c00613          	li	a2,60
    800029b0:	b7c9                	j	80002972 <hart_init+0xe2>

00000000800029b2 <hart_plic_init>:
    800029b2:	6605                	lui	a2,0x1
    800029b4:	960a                	add	a2,a2,sp
    800029b6:	77fd                	lui	a5,0xfffff
    800029b8:	8e7d                	and	a2,a2,a5
    800029ba:	fc063703          	ld	a4,-64(a2) # fc0 <_ftext-0x7ffff040>
    800029be:	fd063783          	ld	a5,-48(a2)
    800029c2:	00072023          	sw	zero,0(a4)
    800029c6:	577d                	li	a4,-1
    800029c8:	e398                	sd	a4,0(a5)
    800029ca:	34405073          	csrwi	mip,0
    800029ce:	00012797          	auipc	a5,0x12
    800029d2:	70a78793          	addi	a5,a5,1802 # 800150d8 <plic_ndevs>
    800029d6:	6394                	ld	a3,0(a5)
    800029d8:	ce9d                	beqz	a3,80002a16 <hart_plic_init+0x64>
    800029da:	03f68693          	addi	a3,a3,63
    800029de:	8299                	srli	a3,a3,0x6
    800029e0:	ce91                	beqz	a3,800029fc <hart_plic_init+0x4a>
    800029e2:	ff063583          	ld	a1,-16(a2)
    800029e6:	068e                	slli	a3,a3,0x3
    800029e8:	4781                	li	a5,0
    800029ea:	557d                	li	a0,-1
    800029ec:	c589                	beqz	a1,800029f6 <hart_plic_init+0x44>
    800029ee:	ff063703          	ld	a4,-16(a2)
    800029f2:	973e                	add	a4,a4,a5
    800029f4:	e308                	sd	a0,0(a4)
    800029f6:	07a1                	addi	a5,a5,8
    800029f8:	fed79ae3          	bne	a5,a3,800029ec <hart_plic_init+0x3a>
    800029fc:	6785                	lui	a5,0x1
    800029fe:	777d                	lui	a4,0xfffff
    80002a00:	978a                	add	a5,a5,sp
    80002a02:	8ff9                	and	a5,a5,a4
    80002a04:	fd87b703          	ld	a4,-40(a5) # fd8 <_ftext-0x7ffff028>
    80002a08:	fe87b783          	ld	a5,-24(a5)
    80002a0c:	4685                	li	a3,1
    80002a0e:	c314                	sw	a3,0(a4)
    80002a10:	c399                	beqz	a5,80002a16 <hart_plic_init+0x64>
    80002a12:	0007a023          	sw	zero,0(a5)
    80002a16:	8082                	ret

0000000080002a18 <hls_init>:
    80002a18:	f14027f3          	csrr	a5,mhartid
    80002a1c:	8d1d                	sub	a0,a0,a5
    80002a1e:	6785                	lui	a5,0x1
    80002a20:	978a                	add	a5,a5,sp
    80002a22:	777d                	lui	a4,0xfffff
    80002a24:	0532                	slli	a0,a0,0xc
    80002a26:	8ff9                	and	a5,a5,a4
    80002a28:	fc050513          	addi	a0,a0,-64
    80002a2c:	953e                	add	a0,a0,a5
    80002a2e:	00053023          	sd	zero,0(a0)
    80002a32:	00053423          	sd	zero,8(a0)
    80002a36:	00053823          	sd	zero,16(a0)
    80002a3a:	00053c23          	sd	zero,24(a0)
    80002a3e:	02053023          	sd	zero,32(a0)
    80002a42:	02053423          	sd	zero,40(a0)
    80002a46:	02053823          	sd	zero,48(a0)
    80002a4a:	8082                	ret

0000000080002a4c <init_first_hart>:
    80002a4c:	1141                	addi	sp,sp,-16
    80002a4e:	852e                	mv	a0,a1
    80002a50:	e406                	sd	ra,8(sp)
    80002a52:	e022                	sd	s0,0(sp)
    80002a54:	842e                	mv	s0,a1
    80002a56:	4ec000ef          	jal	ra,80002f42 <query_uart>
    80002a5a:	8522                	mv	a0,s0
    80002a5c:	61c000ef          	jal	ra,80003078 <query_uart16550>
    80002a60:	8522                	mv	a0,s0
    80002a62:	3d4000ef          	jal	ra,80002e36 <query_htif>
    80002a66:	00007517          	auipc	a0,0x7
    80002a6a:	c0250513          	addi	a0,a0,-1022 # 80009668 <softfloat_countLeadingZeros8+0x700>
    80002a6e:	c2dff0ef          	jal	ra,8000269a <printm>
    80002a72:	e1fff0ef          	jal	ra,80002890 <hart_init>
    80002a76:	4501                	li	a0,0
    80002a78:	fa1ff0ef          	jal	ra,80002a18 <hls_init>
    80002a7c:	8522                	mv	a0,s0
    80002a7e:	6f8000ef          	jal	ra,80003176 <query_finisher>
    80002a82:	8522                	mv	a0,s0
    80002a84:	6bb010ef          	jal	ra,8000493e <query_mem>
    80002a88:	8522                	mv	a0,s0
    80002a8a:	723010ef          	jal	ra,800049ac <query_harts>
    80002a8e:	8522                	mv	a0,s0
    80002a90:	79d010ef          	jal	ra,80004a2c <query_clint>
    80002a94:	8522                	mv	a0,s0
    80002a96:	7f9010ef          	jal	ra,80004a8e <query_plic>
    80002a9a:	8522                	mv	a0,s0
    80002a9c:	09c020ef          	jal	ra,80004b38 <query_chosen>
    80002aa0:	00012797          	auipc	a5,0x12
    80002aa4:	5b878793          	addi	a5,a5,1464 # 80015058 <disabled_hart_mask>
    80002aa8:	638c                	ld	a1,0(a5)
    80002aaa:	00012797          	auipc	a5,0x12
    80002aae:	68e78793          	addi	a5,a5,1678 # 80015138 <hart_mask>
    80002ab2:	639c                	ld	a5,0(a5)
    80002ab4:	fff5c593          	not	a1,a1
    80002ab8:	6605                	lui	a2,0x1
    80002aba:	960a                	add	a2,a2,sp
    80002abc:	8dfd                	and	a1,a1,a5
    80002abe:	77fd                	lui	a5,0xfffff
    80002ac0:	8e7d                	and	a2,a2,a5
    80002ac2:	4701                	li	a4,0
    80002ac4:	4885                	li	a7,1
    80002ac6:	4821                	li	a6,8
    80002ac8:	f1402573          	csrr	a0,mhartid
    80002acc:	40a707b3          	sub	a5,a4,a0
    80002ad0:	00e5d6b3          	srl	a3,a1,a4
    80002ad4:	07b2                	slli	a5,a5,0xc
    80002ad6:	8a85                	andi	a3,a3,1
    80002ad8:	97b2                	add	a5,a5,a2
    80002ada:	0705                	addi	a4,a4,1
    80002adc:	c689                	beqz	a3,80002ae6 <init_first_hart+0x9a>
    80002ade:	fc07b783          	ld	a5,-64(a5) # ffffffffffffefc0 <_end+0xffffffff7ffe8fc0>
    80002ae2:	0117a023          	sw	a7,0(a5)
    80002ae6:	ff0713e3          	bne	a4,a6,80002acc <init_first_hart+0x80>
    80002aea:	00012797          	auipc	a5,0x12
    80002aee:	5ee78793          	addi	a5,a5,1518 # 800150d8 <plic_ndevs>
    80002af2:	639c                	ld	a5,0(a5)
    80002af4:	c39d                	beqz	a5,80002b1a <init_first_hart+0xce>
    80002af6:	00012717          	auipc	a4,0x12
    80002afa:	5ea70713          	addi	a4,a4,1514 # 800150e0 <plic_priorities>
    80002afe:	6314                	ld	a3,0(a4)
    80002b00:	00279713          	slli	a4,a5,0x2
    80002b04:	4605                	li	a2,1
    80002b06:	00468793          	addi	a5,a3,4
    80002b0a:	96ba                	add	a3,a3,a4
    80002b0c:	a011                	j	80002b10 <init_first_hart+0xc4>
    80002b0e:	87ba                	mv	a5,a4
    80002b10:	c390                	sw	a2,0(a5)
    80002b12:	00478713          	addi	a4,a5,4
    80002b16:	fed79ce3          	bne	a5,a3,80002b0e <init_first_hart+0xc2>
    80002b1a:	e99ff0ef          	jal	ra,800029b2 <hart_plic_init>
    80002b1e:	00012797          	auipc	a5,0x12
    80002b22:	5ca78793          	addi	a5,a5,1482 # 800150e8 <mem_size>
    80002b26:	639c                	ld	a5,0(a5)
    80002b28:	ffe00737          	lui	a4,0xffe00
    80002b2c:	8522                	mv	a0,s0
    80002b2e:	6402                	ld	s0,0(sp)
    80002b30:	60a2                	ld	ra,8(sp)
    80002b32:	8ff9                	and	a5,a5,a4
    80002b34:	00012717          	auipc	a4,0x12
    80002b38:	5af73a23          	sd	a5,1460(a4) # 800150e8 <mem_size>
    80002b3c:	0141                	addi	sp,sp,16
    80002b3e:	a0bfd06f          	j	80000548 <boot_loader>

0000000080002b42 <init_other_hart>:
    80002b42:	1141                	addi	sp,sp,-16
    80002b44:	e406                	sd	ra,8(sp)
    80002b46:	e022                	sd	s0,0(sp)
    80002b48:	842e                	mv	s0,a1
    80002b4a:	d47ff0ef          	jal	ra,80002890 <hart_init>
    80002b4e:	e65ff0ef          	jal	ra,800029b2 <hart_plic_init>
    80002b52:	8522                	mv	a0,s0
    80002b54:	6402                	ld	s0,0(sp)
    80002b56:	60a2                	ld	ra,8(sp)
    80002b58:	0141                	addi	sp,sp,16
    80002b5a:	a27fd06f          	j	80000580 <boot_other_hart>

0000000080002b5e <setup_pmp>:
    80002b5e:	47fd                	li	a5,31
    80002b60:	577d                	li	a4,-1
    80002b62:	00000297          	auipc	t0,0x0
    80002b66:	01628293          	addi	t0,t0,22 # 80002b78 <setup_pmp+0x1a>
    80002b6a:	305292f3          	csrrw	t0,mtvec,t0
    80002b6e:	3b071073          	csrw	pmpaddr0,a4
    80002b72:	3a079073          	csrw	pmpcfg0,a5
    80002b76:	0001                	nop
    80002b78:	30529073          	csrw	mtvec,t0
    80002b7c:	8082                	ret

0000000080002b7e <enter_supervisor_mode>:
    80002b7e:	30002773          	csrr	a4,mstatus
    80002b82:	76f9                	lui	a3,0xffffe
    80002b84:	6785                	lui	a5,0x1
    80002b86:	77f68693          	addi	a3,a3,1919 # ffffffffffffe77f <_end+0xffffffff7ffe877f>
    80002b8a:	8f75                	and	a4,a4,a3
    80002b8c:	80078693          	addi	a3,a5,-2048 # 800 <_ftext-0x7ffff800>
    80002b90:	8f55                	or	a4,a4,a3
    80002b92:	30071073          	csrw	mstatus,a4
    80002b96:	777d                	lui	a4,0xfffff
    80002b98:	978a                	add	a5,a5,sp
    80002b9a:	8ff9                	and	a5,a5,a4
    80002b9c:	ec078793          	addi	a5,a5,-320
    80002ba0:	34079073          	csrw	mscratch,a5
    80002ba4:	34151073          	csrw	mepc,a0
    80002ba8:	852e                	mv	a0,a1
    80002baa:	85b2                	mv	a1,a2
    80002bac:	30200073          	mret

0000000080002bb0 <enter_machine_mode>:
    80002bb0:	1141                	addi	sp,sp,-16
    80002bb2:	872a                	mv	a4,a0
    80002bb4:	e406                	sd	ra,8(sp)
    80002bb6:	852e                	mv	a0,a1
    80002bb8:	300027f3          	csrr	a5,mstatus
    80002bbc:	f7f7f793          	andi	a5,a5,-129
    80002bc0:	30079073          	csrw	mstatus,a5
    80002bc4:	6785                	lui	a5,0x1
    80002bc6:	978a                	add	a5,a5,sp
    80002bc8:	76fd                	lui	a3,0xfffff
    80002bca:	8ff5                	and	a5,a5,a3
    80002bcc:	ec078793          	addi	a5,a5,-320 # ec0 <_ftext-0x7ffff140>
    80002bd0:	34079073          	csrw	mscratch,a5
    80002bd4:	85b2                	mv	a1,a2
    80002bd6:	9702                	jalr	a4
	...

0000000080002bda <htif_done>:
    80002bda:	419c                	lw	a5,0(a1)
    80002bdc:	c791                	beqz	a5,80002be8 <htif_done+0xe>
    80002bde:	4785                	li	a5,1
    80002be0:	00012717          	auipc	a4,0x12
    80002be4:	52f73823          	sd	a5,1328(a4) # 80015110 <htif>
    80002be8:	8082                	ret

0000000080002bea <htif_open>:
    80002bea:	00058023          	sb	zero,0(a1)
    80002bee:	000580a3          	sb	zero,1(a1)
    80002bf2:	00058123          	sb	zero,2(a1)
    80002bf6:	000581a3          	sb	zero,3(a1)
    80002bfa:	8082                	ret

0000000080002bfc <__check_fromhost>:
    80002bfc:	00007797          	auipc	a5,0x7
    80002c00:	40478793          	addi	a5,a5,1028 # 8000a000 <fromhost>
    80002c04:	639c                	ld	a5,0(a5)
    80002c06:	cf9d                	beqz	a5,80002c44 <__check_fromhost+0x48>
    80002c08:	1141                	addi	sp,sp,-16
    80002c0a:	00007717          	auipc	a4,0x7
    80002c0e:	3e073b23          	sd	zero,1014(a4) # 8000a000 <fromhost>
    80002c12:	e406                	sd	ra,8(sp)
    80002c14:	0387d693          	srli	a3,a5,0x38
    80002c18:	4705                	li	a4,1
    80002c1a:	02e69663          	bne	a3,a4,80002c46 <__check_fromhost+0x4a>
    80002c1e:	00879713          	slli	a4,a5,0x8
    80002c22:	9361                	srli	a4,a4,0x38
    80002c24:	c711                	beqz	a4,80002c30 <__check_fromhost+0x34>
    80002c26:	04d71363          	bne	a4,a3,80002c6c <__check_fromhost+0x70>
    80002c2a:	60a2                	ld	ra,8(sp)
    80002c2c:	0141                	addi	sp,sp,16
    80002c2e:	8082                	ret
    80002c30:	60a2                	ld	ra,8(sp)
    80002c32:	0ff7f793          	andi	a5,a5,255
    80002c36:	2785                	addiw	a5,a5,1
    80002c38:	00012717          	auipc	a4,0x12
    80002c3c:	4ef72023          	sw	a5,1248(a4) # 80015118 <htif_console_buf>
    80002c40:	0141                	addi	sp,sp,16
    80002c42:	8082                	ret
    80002c44:	8082                	ret
    80002c46:	00006517          	auipc	a0,0x6
    80002c4a:	4f250513          	addi	a0,a0,1266 # 80009138 <softfloat_countLeadingZeros8+0x1d0>
    80002c4e:	00007697          	auipc	a3,0x7
    80002c52:	a2a68693          	addi	a3,a3,-1494 # 80009678 <softfloat_countLeadingZeros8+0x710>
    80002c56:	467d                	li	a2,31
    80002c58:	00007597          	auipc	a1,0x7
    80002c5c:	a3858593          	addi	a1,a1,-1480 # 80009690 <softfloat_countLeadingZeros8+0x728>
    80002c60:	a3bff0ef          	jal	ra,8000269a <printm>
    80002c64:	6541                	lui	a0,0x10
    80002c66:	157d                	addi	a0,a0,-1
    80002c68:	aa5ff0ef          	jal	ra,8000270c <poweroff>
    80002c6c:	00006517          	auipc	a0,0x6
    80002c70:	4cc50513          	addi	a0,a0,1228 # 80009138 <softfloat_countLeadingZeros8+0x1d0>
    80002c74:	00006697          	auipc	a3,0x6
    80002c78:	6ac68693          	addi	a3,a3,1708 # 80009320 <softfloat_countLeadingZeros8+0x3b8>
    80002c7c:	02700613          	li	a2,39
    80002c80:	00007597          	auipc	a1,0x7
    80002c84:	a1058593          	addi	a1,a1,-1520 # 80009690 <softfloat_countLeadingZeros8+0x728>
    80002c88:	a13ff0ef          	jal	ra,8000269a <printm>
    80002c8c:	6541                	lui	a0,0x10
    80002c8e:	157d                	addi	a0,a0,-1
    80002c90:	a7dff0ef          	jal	ra,8000270c <poweroff>

0000000080002c94 <htif_prop>:
    80002c94:	1101                	addi	sp,sp,-32
    80002c96:	e822                	sd	s0,16(sp)
    80002c98:	842a                	mv	s0,a0
    80002c9a:	6508                	ld	a0,8(a0)
    80002c9c:	e426                	sd	s1,8(sp)
    80002c9e:	84ae                	mv	s1,a1
    80002ca0:	00007597          	auipc	a1,0x7
    80002ca4:	a0858593          	addi	a1,a1,-1528 # 800096a8 <softfloat_countLeadingZeros8+0x740>
    80002ca8:	ec06                	sd	ra,24(sp)
    80002caa:	578050ef          	jal	ra,80008222 <strcmp>
    80002cae:	e919                	bnez	a0,80002cc4 <htif_prop+0x30>
    80002cb0:	6808                	ld	a0,16(s0)
    80002cb2:	00007597          	auipc	a1,0x7
    80002cb6:	a0658593          	addi	a1,a1,-1530 # 800096b8 <softfloat_countLeadingZeros8+0x750>
    80002cba:	568050ef          	jal	ra,80008222 <strcmp>
    80002cbe:	e119                	bnez	a0,80002cc4 <htif_prop+0x30>
    80002cc0:	4785                	li	a5,1
    80002cc2:	c09c                	sw	a5,0(s1)
    80002cc4:	60e2                	ld	ra,24(sp)
    80002cc6:	6442                	ld	s0,16(sp)
    80002cc8:	64a2                	ld	s1,8(sp)
    80002cca:	6105                	addi	sp,sp,32
    80002ccc:	8082                	ret

0000000080002cce <htif_console_getchar>:
    80002cce:	1101                	addi	sp,sp,-32
    80002cd0:	e822                	sd	s0,16(sp)
    80002cd2:	ec06                	sd	ra,24(sp)
    80002cd4:	e426                	sd	s1,8(sp)
    80002cd6:	00012717          	auipc	a4,0x12
    80002cda:	37a70713          	addi	a4,a4,890 # 80015050 <htif_lock>
    80002cde:	547d                	li	s0,-1
    80002ce0:	431c                	lw	a5,0(a4)
    80002ce2:	2781                	sext.w	a5,a5
    80002ce4:	fff5                	bnez	a5,80002ce0 <htif_console_getchar+0x12>
    80002ce6:	87a2                	mv	a5,s0
    80002ce8:	0cf727af          	amoswap.w.aq	a5,a5,(a4)
    80002cec:	2781                	sext.w	a5,a5
    80002cee:	0ff0000f          	fence
    80002cf2:	f7fd                	bnez	a5,80002ce0 <htif_console_getchar+0x12>
    80002cf4:	f09ff0ef          	jal	ra,80002bfc <__check_fromhost>
    80002cf8:	00012797          	auipc	a5,0x12
    80002cfc:	42078793          	addi	a5,a5,1056 # 80015118 <htif_console_buf>
    80002d00:	4384                	lw	s1,0(a5)
    80002d02:	2481                	sext.w	s1,s1
    80002d04:	0204c663          	bltz	s1,80002d30 <htif_console_getchar+0x62>
    80002d08:	00012797          	auipc	a5,0x12
    80002d0c:	4087a823          	sw	s0,1040(a5) # 80015118 <htif_console_buf>
    80002d10:	00007417          	auipc	s0,0x7
    80002d14:	2f040413          	addi	s0,s0,752 # 8000a000 <fromhost>
    80002d18:	641c                	ld	a5,8(s0)
    80002d1a:	c789                	beqz	a5,80002d24 <htif_console_getchar+0x56>
    80002d1c:	ee1ff0ef          	jal	ra,80002bfc <__check_fromhost>
    80002d20:	641c                	ld	a5,8(s0)
    80002d22:	ffed                	bnez	a5,80002d1c <htif_console_getchar+0x4e>
    80002d24:	4785                	li	a5,1
    80002d26:	17e2                	slli	a5,a5,0x38
    80002d28:	00007717          	auipc	a4,0x7
    80002d2c:	2ef73023          	sd	a5,736(a4) # 8000a008 <tohost>
    80002d30:	0ff0000f          	fence
    80002d34:	60e2                	ld	ra,24(sp)
    80002d36:	6442                	ld	s0,16(sp)
    80002d38:	00012797          	auipc	a5,0x12
    80002d3c:	3007ac23          	sw	zero,792(a5) # 80015050 <htif_lock>
    80002d40:	fff4851b          	addiw	a0,s1,-1
    80002d44:	64a2                	ld	s1,8(sp)
    80002d46:	6105                	addi	sp,sp,32
    80002d48:	8082                	ret

0000000080002d4a <htif_syscall>:
    80002d4a:	1101                	addi	sp,sp,-32
    80002d4c:	e426                	sd	s1,8(sp)
    80002d4e:	ec06                	sd	ra,24(sp)
    80002d50:	e822                	sd	s0,16(sp)
    80002d52:	84aa                	mv	s1,a0
    80002d54:	00012797          	auipc	a5,0x12
    80002d58:	2fc78793          	addi	a5,a5,764 # 80015050 <htif_lock>
    80002d5c:	56fd                	li	a3,-1
    80002d5e:	4398                	lw	a4,0(a5)
    80002d60:	2701                	sext.w	a4,a4
    80002d62:	ff75                	bnez	a4,80002d5e <htif_syscall+0x14>
    80002d64:	8736                	mv	a4,a3
    80002d66:	0ce7a72f          	amoswap.w.aq	a4,a4,(a5)
    80002d6a:	2701                	sext.w	a4,a4
    80002d6c:	0ff0000f          	fence
    80002d70:	f77d                	bnez	a4,80002d5e <htif_syscall+0x14>
    80002d72:	00007417          	auipc	s0,0x7
    80002d76:	28e40413          	addi	s0,s0,654 # 8000a000 <fromhost>
    80002d7a:	641c                	ld	a5,8(s0)
    80002d7c:	c789                	beqz	a5,80002d86 <htif_syscall+0x3c>
    80002d7e:	e7fff0ef          	jal	ra,80002bfc <__check_fromhost>
    80002d82:	641c                	ld	a5,8(s0)
    80002d84:	ffed                	bnez	a5,80002d7e <htif_syscall+0x34>
    80002d86:	00007797          	auipc	a5,0x7
    80002d8a:	2897b123          	sd	s1,642(a5) # 8000a008 <tohost>
    80002d8e:	601c                	ld	a5,0(s0)
    80002d90:	dffd                	beqz	a5,80002d8e <htif_syscall+0x44>
    80002d92:	00879713          	slli	a4,a5,0x8
    80002d96:	8fd9                	or	a5,a5,a4
    80002d98:	93e1                	srli	a5,a5,0x38
    80002d9a:	c781                	beqz	a5,80002da2 <htif_syscall+0x58>
    80002d9c:	e61ff0ef          	jal	ra,80002bfc <__check_fromhost>
    80002da0:	b7fd                	j	80002d8e <htif_syscall+0x44>
    80002da2:	00007797          	auipc	a5,0x7
    80002da6:	2407bf23          	sd	zero,606(a5) # 8000a000 <fromhost>
    80002daa:	0ff0000f          	fence
    80002dae:	60e2                	ld	ra,24(sp)
    80002db0:	6442                	ld	s0,16(sp)
    80002db2:	00012797          	auipc	a5,0x12
    80002db6:	2807af23          	sw	zero,670(a5) # 80015050 <htif_lock>
    80002dba:	64a2                	ld	s1,8(sp)
    80002dbc:	6105                	addi	sp,sp,32
    80002dbe:	8082                	ret

0000000080002dc0 <htif_console_putchar>:
    80002dc0:	1101                	addi	sp,sp,-32
    80002dc2:	e426                	sd	s1,8(sp)
    80002dc4:	ec06                	sd	ra,24(sp)
    80002dc6:	e822                	sd	s0,16(sp)
    80002dc8:	84aa                	mv	s1,a0
    80002dca:	00012717          	auipc	a4,0x12
    80002dce:	28670713          	addi	a4,a4,646 # 80015050 <htif_lock>
    80002dd2:	56fd                	li	a3,-1
    80002dd4:	431c                	lw	a5,0(a4)
    80002dd6:	2781                	sext.w	a5,a5
    80002dd8:	fff5                	bnez	a5,80002dd4 <htif_console_putchar+0x14>
    80002dda:	87b6                	mv	a5,a3
    80002ddc:	0cf727af          	amoswap.w.aq	a5,a5,(a4)
    80002de0:	2781                	sext.w	a5,a5
    80002de2:	0ff0000f          	fence
    80002de6:	f7fd                	bnez	a5,80002dd4 <htif_console_putchar+0x14>
    80002de8:	00007417          	auipc	s0,0x7
    80002dec:	21840413          	addi	s0,s0,536 # 8000a000 <fromhost>
    80002df0:	641c                	ld	a5,8(s0)
    80002df2:	c789                	beqz	a5,80002dfc <htif_console_putchar+0x3c>
    80002df4:	e09ff0ef          	jal	ra,80002bfc <__check_fromhost>
    80002df8:	641c                	ld	a5,8(s0)
    80002dfa:	ffed                	bnez	a5,80002df4 <htif_console_putchar+0x34>
    80002dfc:	10100793          	li	a5,257
    80002e00:	17c2                	slli	a5,a5,0x30
    80002e02:	8cdd                	or	s1,s1,a5
    80002e04:	00007797          	auipc	a5,0x7
    80002e08:	2097b223          	sd	s1,516(a5) # 8000a008 <tohost>
    80002e0c:	0ff0000f          	fence
    80002e10:	60e2                	ld	ra,24(sp)
    80002e12:	6442                	ld	s0,16(sp)
    80002e14:	00012797          	auipc	a5,0x12
    80002e18:	2207ae23          	sw	zero,572(a5) # 80015050 <htif_lock>
    80002e1c:	64a2                	ld	s1,8(sp)
    80002e1e:	6105                	addi	sp,sp,32
    80002e20:	8082                	ret

0000000080002e22 <htif_poweroff>:
    80002e22:	4785                	li	a5,1
    80002e24:	00007717          	auipc	a4,0x7
    80002e28:	1c073e23          	sd	zero,476(a4) # 8000a000 <fromhost>
    80002e2c:	00007717          	auipc	a4,0x7
    80002e30:	1cf73e23          	sd	a5,476(a4) # 8000a008 <tohost>
    80002e34:	bfc5                	j	80002e24 <htif_poweroff+0x2>

0000000080002e36 <query_htif>:
    80002e36:	7139                	addi	sp,sp,-64
    80002e38:	00000797          	auipc	a5,0x0
    80002e3c:	db278793          	addi	a5,a5,-590 # 80002bea <htif_open>
    80002e40:	e43e                	sd	a5,8(sp)
    80002e42:	00000797          	auipc	a5,0x0
    80002e46:	e5278793          	addi	a5,a5,-430 # 80002c94 <htif_prop>
    80002e4a:	e83e                	sd	a5,16(sp)
    80002e4c:	002c                	addi	a1,sp,8
    80002e4e:	00000797          	auipc	a5,0x0
    80002e52:	d8c78793          	addi	a5,a5,-628 # 80002bda <htif_done>
    80002e56:	fc06                	sd	ra,56(sp)
    80002e58:	f002                	sd	zero,32(sp)
    80002e5a:	ec3e                	sd	a5,24(sp)
    80002e5c:	f40a                	sd	sp,40(sp)
    80002e5e:	624010ef          	jal	ra,80004482 <fdt_scan>
    80002e62:	70e2                	ld	ra,56(sp)
    80002e64:	6121                	addi	sp,sp,64
    80002e66:	8082                	ret

0000000080002e68 <uart_done>:
    80002e68:	419c                	lw	a5,0(a1)
    80002e6a:	cb89                	beqz	a5,80002e7c <uart_done+0x14>
    80002e6c:	659c                	ld	a5,8(a1)
    80002e6e:	c799                	beqz	a5,80002e7c <uart_done+0x14>
    80002e70:	00012717          	auipc	a4,0x12
    80002e74:	2b070713          	addi	a4,a4,688 # 80015120 <uart>
    80002e78:	6318                	ld	a4,0(a4)
    80002e7a:	c311                	beqz	a4,80002e7e <uart_done+0x16>
    80002e7c:	8082                	ret
    80002e7e:	4705                	li	a4,1
    80002e80:	c798                	sw	a4,8(a5)
    80002e82:	00012697          	auipc	a3,0x12
    80002e86:	28f6bf23          	sd	a5,670(a3) # 80015120 <uart>
    80002e8a:	c7d8                	sw	a4,12(a5)
    80002e8c:	8082                	ret

0000000080002e8e <uart_open>:
    80002e8e:	852e                	mv	a0,a1
    80002e90:	4641                	li	a2,16
    80002e92:	4581                	li	a1,0
    80002e94:	32e0506f          	j	800081c2 <memset>

0000000080002e98 <uart_prop>:
    80002e98:	1101                	addi	sp,sp,-32
    80002e9a:	e426                	sd	s1,8(sp)
    80002e9c:	6504                	ld	s1,8(a0)
    80002e9e:	e822                	sd	s0,16(sp)
    80002ea0:	e04a                	sd	s2,0(sp)
    80002ea2:	842a                	mv	s0,a0
    80002ea4:	892e                	mv	s2,a1
    80002ea6:	8526                	mv	a0,s1
    80002ea8:	00007597          	auipc	a1,0x7
    80002eac:	80058593          	addi	a1,a1,-2048 # 800096a8 <softfloat_countLeadingZeros8+0x740>
    80002eb0:	ec06                	sd	ra,24(sp)
    80002eb2:	370050ef          	jal	ra,80008222 <strcmp>
    80002eb6:	e909                	bnez	a0,80002ec8 <uart_prop+0x30>
    80002eb8:	6808                	ld	a0,16(s0)
    80002eba:	00007597          	auipc	a1,0x7
    80002ebe:	80e58593          	addi	a1,a1,-2034 # 800096c8 <softfloat_countLeadingZeros8+0x760>
    80002ec2:	360050ef          	jal	ra,80008222 <strcmp>
    80002ec6:	cd19                	beqz	a0,80002ee4 <uart_prop+0x4c>
    80002ec8:	00007597          	auipc	a1,0x7
    80002ecc:	81058593          	addi	a1,a1,-2032 # 800096d8 <softfloat_countLeadingZeros8+0x770>
    80002ed0:	8526                	mv	a0,s1
    80002ed2:	350050ef          	jal	ra,80008222 <strcmp>
    80002ed6:	c105                	beqz	a0,80002ef6 <uart_prop+0x5e>
    80002ed8:	60e2                	ld	ra,24(sp)
    80002eda:	6442                	ld	s0,16(sp)
    80002edc:	64a2                	ld	s1,8(sp)
    80002ede:	6902                	ld	s2,0(sp)
    80002ee0:	6105                	addi	sp,sp,32
    80002ee2:	8082                	ret
    80002ee4:	60e2                	ld	ra,24(sp)
    80002ee6:	6442                	ld	s0,16(sp)
    80002ee8:	4785                	li	a5,1
    80002eea:	00f92023          	sw	a5,0(s2)
    80002eee:	64a2                	ld	s1,8(sp)
    80002ef0:	6902                	ld	s2,0(sp)
    80002ef2:	6105                	addi	sp,sp,32
    80002ef4:	8082                	ret
    80002ef6:	601c                	ld	a5,0(s0)
    80002ef8:	680c                	ld	a1,16(s0)
    80002efa:	6442                	ld	s0,16(sp)
    80002efc:	60e2                	ld	ra,24(sp)
    80002efe:	64a2                	ld	s1,8(sp)
    80002f00:	00890613          	addi	a2,s2,8
    80002f04:	6388                	ld	a0,0(a5)
    80002f06:	6902                	ld	s2,0(sp)
    80002f08:	6105                	addi	sp,sp,32
    80002f0a:	6b20106f          	j	800045bc <fdt_get_address>

0000000080002f0e <uart_putchar>:
    80002f0e:	00012697          	auipc	a3,0x12
    80002f12:	21268693          	addi	a3,a3,530 # 80015120 <uart>
    80002f16:	629c                	ld	a5,0(a3)
    80002f18:	40a7a72f          	amoor.w	a4,a0,(a5)
    80002f1c:	02071793          	slli	a5,a4,0x20
    80002f20:	fe07cbe3          	bltz	a5,80002f16 <uart_putchar+0x8>
    80002f24:	8082                	ret

0000000080002f26 <uart_getchar>:
    80002f26:	00012797          	auipc	a5,0x12
    80002f2a:	1fa78793          	addi	a5,a5,506 # 80015120 <uart>
    80002f2e:	639c                	ld	a5,0(a5)
    80002f30:	43dc                	lw	a5,4(a5)
    80002f32:	2781                	sext.w	a5,a5
    80002f34:	0007851b          	sext.w	a0,a5
    80002f38:	0007c363          	bltz	a5,80002f3e <uart_getchar+0x18>
    80002f3c:	8082                	ret
    80002f3e:	557d                	li	a0,-1
    80002f40:	8082                	ret

0000000080002f42 <query_uart>:
    80002f42:	715d                	addi	sp,sp,-80
    80002f44:	00000797          	auipc	a5,0x0
    80002f48:	f4a78793          	addi	a5,a5,-182 # 80002e8e <uart_open>
    80002f4c:	ec3e                	sd	a5,24(sp)
    80002f4e:	00000797          	auipc	a5,0x0
    80002f52:	f4a78793          	addi	a5,a5,-182 # 80002e98 <uart_prop>
    80002f56:	f03e                	sd	a5,32(sp)
    80002f58:	00000797          	auipc	a5,0x0
    80002f5c:	f1078793          	addi	a5,a5,-240 # 80002e68 <uart_done>
    80002f60:	f43e                	sd	a5,40(sp)
    80002f62:	082c                	addi	a1,sp,24
    80002f64:	003c                	addi	a5,sp,8
    80002f66:	e486                	sd	ra,72(sp)
    80002f68:	f802                	sd	zero,48(sp)
    80002f6a:	fc3e                	sd	a5,56(sp)
    80002f6c:	516010ef          	jal	ra,80004482 <fdt_scan>
    80002f70:	60a6                	ld	ra,72(sp)
    80002f72:	6161                	addi	sp,sp,80
    80002f74:	8082                	ret

0000000080002f76 <uart16550_done>:
    80002f76:	419c                	lw	a5,0(a1)
    80002f78:	cb89                	beqz	a5,80002f8a <uart16550_done+0x14>
    80002f7a:	6598                	ld	a4,8(a1)
    80002f7c:	c719                	beqz	a4,80002f8a <uart16550_done+0x14>
    80002f7e:	00012797          	auipc	a5,0x12
    80002f82:	1aa78793          	addi	a5,a5,426 # 80015128 <uart16550>
    80002f86:	6394                	ld	a3,0(a5)
    80002f88:	c291                	beqz	a3,80002f8c <uart16550_done+0x16>
    80002f8a:	8082                	ret
    80002f8c:	00012697          	auipc	a3,0x12
    80002f90:	18e6be23          	sd	a4,412(a3) # 80015128 <uart16550>
    80002f94:	000700a3          	sb	zero,1(a4)
    80002f98:	6394                	ld	a3,0(a5)
    80002f9a:	f8000613          	li	a2,-128
    80002f9e:	470d                	li	a4,3
    80002fa0:	00c681a3          	sb	a2,3(a3)
    80002fa4:	6394                	ld	a3,0(a5)
    80002fa6:	00e68023          	sb	a4,0(a3)
    80002faa:	6394                	ld	a3,0(a5)
    80002fac:	000680a3          	sb	zero,1(a3)
    80002fb0:	6394                	ld	a3,0(a5)
    80002fb2:	00e681a3          	sb	a4,3(a3)
    80002fb6:	639c                	ld	a5,0(a5)
    80002fb8:	fc700713          	li	a4,-57
    80002fbc:	00e78123          	sb	a4,2(a5)
    80002fc0:	8082                	ret

0000000080002fc2 <uart16550_open>:
    80002fc2:	852e                	mv	a0,a1
    80002fc4:	4641                	li	a2,16
    80002fc6:	4581                	li	a1,0
    80002fc8:	1fa0506f          	j	800081c2 <memset>

0000000080002fcc <uart16550_prop>:
    80002fcc:	1101                	addi	sp,sp,-32
    80002fce:	e426                	sd	s1,8(sp)
    80002fd0:	6504                	ld	s1,8(a0)
    80002fd2:	e822                	sd	s0,16(sp)
    80002fd4:	e04a                	sd	s2,0(sp)
    80002fd6:	842a                	mv	s0,a0
    80002fd8:	892e                	mv	s2,a1
    80002fda:	8526                	mv	a0,s1
    80002fdc:	00006597          	auipc	a1,0x6
    80002fe0:	6cc58593          	addi	a1,a1,1740 # 800096a8 <softfloat_countLeadingZeros8+0x740>
    80002fe4:	ec06                	sd	ra,24(sp)
    80002fe6:	23c050ef          	jal	ra,80008222 <strcmp>
    80002fea:	e909                	bnez	a0,80002ffc <uart16550_prop+0x30>
    80002fec:	6808                	ld	a0,16(s0)
    80002fee:	00006597          	auipc	a1,0x6
    80002ff2:	6f258593          	addi	a1,a1,1778 # 800096e0 <softfloat_countLeadingZeros8+0x778>
    80002ff6:	22c050ef          	jal	ra,80008222 <strcmp>
    80002ffa:	cd19                	beqz	a0,80003018 <uart16550_prop+0x4c>
    80002ffc:	00006597          	auipc	a1,0x6
    80003000:	6dc58593          	addi	a1,a1,1756 # 800096d8 <softfloat_countLeadingZeros8+0x770>
    80003004:	8526                	mv	a0,s1
    80003006:	21c050ef          	jal	ra,80008222 <strcmp>
    8000300a:	c105                	beqz	a0,8000302a <uart16550_prop+0x5e>
    8000300c:	60e2                	ld	ra,24(sp)
    8000300e:	6442                	ld	s0,16(sp)
    80003010:	64a2                	ld	s1,8(sp)
    80003012:	6902                	ld	s2,0(sp)
    80003014:	6105                	addi	sp,sp,32
    80003016:	8082                	ret
    80003018:	60e2                	ld	ra,24(sp)
    8000301a:	6442                	ld	s0,16(sp)
    8000301c:	4785                	li	a5,1
    8000301e:	00f92023          	sw	a5,0(s2)
    80003022:	64a2                	ld	s1,8(sp)
    80003024:	6902                	ld	s2,0(sp)
    80003026:	6105                	addi	sp,sp,32
    80003028:	8082                	ret
    8000302a:	601c                	ld	a5,0(s0)
    8000302c:	680c                	ld	a1,16(s0)
    8000302e:	6442                	ld	s0,16(sp)
    80003030:	60e2                	ld	ra,24(sp)
    80003032:	64a2                	ld	s1,8(sp)
    80003034:	00890613          	addi	a2,s2,8
    80003038:	6388                	ld	a0,0(a5)
    8000303a:	6902                	ld	s2,0(sp)
    8000303c:	6105                	addi	sp,sp,32
    8000303e:	57e0106f          	j	800045bc <fdt_get_address>

0000000080003042 <uart16550_putchar>:
    80003042:	00012797          	auipc	a5,0x12
    80003046:	0e678793          	addi	a5,a5,230 # 80015128 <uart16550>
    8000304a:	6398                	ld	a4,0(a5)
    8000304c:	00574783          	lbu	a5,5(a4)
    80003050:	0207f793          	andi	a5,a5,32
    80003054:	dfe5                	beqz	a5,8000304c <uart16550_putchar+0xa>
    80003056:	00a70023          	sb	a0,0(a4)
    8000305a:	8082                	ret

000000008000305c <uart16550_getchar>:
    8000305c:	00012797          	auipc	a5,0x12
    80003060:	0cc78793          	addi	a5,a5,204 # 80015128 <uart16550>
    80003064:	6398                	ld	a4,0(a5)
    80003066:	00574783          	lbu	a5,5(a4)
    8000306a:	8b85                	andi	a5,a5,1
    8000306c:	c781                	beqz	a5,80003074 <uart16550_getchar+0x18>
    8000306e:	00074503          	lbu	a0,0(a4)
    80003072:	8082                	ret
    80003074:	557d                	li	a0,-1
    80003076:	8082                	ret

0000000080003078 <query_uart16550>:
    80003078:	715d                	addi	sp,sp,-80
    8000307a:	00000797          	auipc	a5,0x0
    8000307e:	f4878793          	addi	a5,a5,-184 # 80002fc2 <uart16550_open>
    80003082:	ec3e                	sd	a5,24(sp)
    80003084:	00000797          	auipc	a5,0x0
    80003088:	f4878793          	addi	a5,a5,-184 # 80002fcc <uart16550_prop>
    8000308c:	f03e                	sd	a5,32(sp)
    8000308e:	00000797          	auipc	a5,0x0
    80003092:	ee878793          	addi	a5,a5,-280 # 80002f76 <uart16550_done>
    80003096:	f43e                	sd	a5,40(sp)
    80003098:	082c                	addi	a1,sp,24
    8000309a:	003c                	addi	a5,sp,8
    8000309c:	e486                	sd	ra,72(sp)
    8000309e:	f802                	sd	zero,48(sp)
    800030a0:	fc3e                	sd	a5,56(sp)
    800030a2:	3e0010ef          	jal	ra,80004482 <fdt_scan>
    800030a6:	60a6                	ld	ra,72(sp)
    800030a8:	6161                	addi	sp,sp,80
    800030aa:	8082                	ret

00000000800030ac <finisher_done>:
    800030ac:	419c                	lw	a5,0(a1)
    800030ae:	cb89                	beqz	a5,800030c0 <finisher_done+0x14>
    800030b0:	659c                	ld	a5,8(a1)
    800030b2:	c799                	beqz	a5,800030c0 <finisher_done+0x14>
    800030b4:	00012717          	auipc	a4,0x12
    800030b8:	07c70713          	addi	a4,a4,124 # 80015130 <finisher>
    800030bc:	6318                	ld	a4,0(a4)
    800030be:	c311                	beqz	a4,800030c2 <finisher_done+0x16>
    800030c0:	8082                	ret
    800030c2:	00012717          	auipc	a4,0x12
    800030c6:	06f73723          	sd	a5,110(a4) # 80015130 <finisher>
    800030ca:	8082                	ret

00000000800030cc <finisher_open>:
    800030cc:	852e                	mv	a0,a1
    800030ce:	4641                	li	a2,16
    800030d0:	4581                	li	a1,0
    800030d2:	0f00506f          	j	800081c2 <memset>

00000000800030d6 <finisher_prop>:
    800030d6:	1101                	addi	sp,sp,-32
    800030d8:	e426                	sd	s1,8(sp)
    800030da:	6504                	ld	s1,8(a0)
    800030dc:	e822                	sd	s0,16(sp)
    800030de:	e04a                	sd	s2,0(sp)
    800030e0:	842a                	mv	s0,a0
    800030e2:	892e                	mv	s2,a1
    800030e4:	8526                	mv	a0,s1
    800030e6:	00006597          	auipc	a1,0x6
    800030ea:	5c258593          	addi	a1,a1,1474 # 800096a8 <softfloat_countLeadingZeros8+0x740>
    800030ee:	ec06                	sd	ra,24(sp)
    800030f0:	132050ef          	jal	ra,80008222 <strcmp>
    800030f4:	e909                	bnez	a0,80003106 <finisher_prop+0x30>
    800030f6:	6808                	ld	a0,16(s0)
    800030f8:	00006597          	auipc	a1,0x6
    800030fc:	5f858593          	addi	a1,a1,1528 # 800096f0 <softfloat_countLeadingZeros8+0x788>
    80003100:	122050ef          	jal	ra,80008222 <strcmp>
    80003104:	cd19                	beqz	a0,80003122 <finisher_prop+0x4c>
    80003106:	00006597          	auipc	a1,0x6
    8000310a:	5d258593          	addi	a1,a1,1490 # 800096d8 <softfloat_countLeadingZeros8+0x770>
    8000310e:	8526                	mv	a0,s1
    80003110:	112050ef          	jal	ra,80008222 <strcmp>
    80003114:	c105                	beqz	a0,80003134 <finisher_prop+0x5e>
    80003116:	60e2                	ld	ra,24(sp)
    80003118:	6442                	ld	s0,16(sp)
    8000311a:	64a2                	ld	s1,8(sp)
    8000311c:	6902                	ld	s2,0(sp)
    8000311e:	6105                	addi	sp,sp,32
    80003120:	8082                	ret
    80003122:	60e2                	ld	ra,24(sp)
    80003124:	6442                	ld	s0,16(sp)
    80003126:	4785                	li	a5,1
    80003128:	00f92023          	sw	a5,0(s2)
    8000312c:	64a2                	ld	s1,8(sp)
    8000312e:	6902                	ld	s2,0(sp)
    80003130:	6105                	addi	sp,sp,32
    80003132:	8082                	ret
    80003134:	601c                	ld	a5,0(s0)
    80003136:	680c                	ld	a1,16(s0)
    80003138:	6442                	ld	s0,16(sp)
    8000313a:	60e2                	ld	ra,24(sp)
    8000313c:	64a2                	ld	s1,8(sp)
    8000313e:	00890613          	addi	a2,s2,8
    80003142:	6388                	ld	a0,0(a5)
    80003144:	6902                	ld	s2,0(sp)
    80003146:	6105                	addi	sp,sp,32
    80003148:	4740106f          	j	800045bc <fdt_get_address>

000000008000314c <finisher_exit>:
    8000314c:	00012797          	auipc	a5,0x12
    80003150:	fe478793          	addi	a5,a5,-28 # 80015130 <finisher>
    80003154:	639c                	ld	a5,0(a5)
    80003156:	cf99                	beqz	a5,80003174 <finisher_exit+0x28>
    80003158:	e511                	bnez	a0,80003164 <finisher_exit+0x18>
    8000315a:	6715                	lui	a4,0x5
    8000315c:	5557071b          	addiw	a4,a4,1365
    80003160:	c398                	sw	a4,0(a5)
    80003162:	8082                	ret
    80003164:	670d                	lui	a4,0x3
    80003166:	0105151b          	slliw	a0,a0,0x10
    8000316a:	33370713          	addi	a4,a4,819 # 3333 <_ftext-0x7fffcccd>
    8000316e:	8d59                	or	a0,a0,a4
    80003170:	2501                	sext.w	a0,a0
    80003172:	c388                	sw	a0,0(a5)
    80003174:	8082                	ret

0000000080003176 <query_finisher>:
    80003176:	715d                	addi	sp,sp,-80
    80003178:	00000797          	auipc	a5,0x0
    8000317c:	f5478793          	addi	a5,a5,-172 # 800030cc <finisher_open>
    80003180:	ec3e                	sd	a5,24(sp)
    80003182:	00000797          	auipc	a5,0x0
    80003186:	f5478793          	addi	a5,a5,-172 # 800030d6 <finisher_prop>
    8000318a:	f03e                	sd	a5,32(sp)
    8000318c:	00000797          	auipc	a5,0x0
    80003190:	f2078793          	addi	a5,a5,-224 # 800030ac <finisher_done>
    80003194:	f43e                	sd	a5,40(sp)
    80003196:	082c                	addi	a1,sp,24
    80003198:	003c                	addi	a5,sp,8
    8000319a:	e486                	sd	ra,72(sp)
    8000319c:	f802                	sd	zero,48(sp)
    8000319e:	fc3e                	sd	a5,56(sp)
    800031a0:	2e2010ef          	jal	ra,80004482 <fdt_scan>
    800031a4:	60a6                	ld	ra,72(sp)
    800031a6:	6161                	addi	sp,sp,80
    800031a8:	8082                	ret

00000000800031aa <get_f32_reg>:
    800031aa:	e0000553          	fmv.x.w	a0,ft0
    800031ae:	00028067          	jr	t0
    800031b2:	e0008553          	fmv.x.w	a0,ft1
    800031b6:	00028067          	jr	t0
    800031ba:	e0010553          	fmv.x.w	a0,ft2
    800031be:	00028067          	jr	t0
    800031c2:	e0018553          	fmv.x.w	a0,ft3
    800031c6:	00028067          	jr	t0
    800031ca:	e0020553          	fmv.x.w	a0,ft4
    800031ce:	00028067          	jr	t0
    800031d2:	e0028553          	fmv.x.w	a0,ft5
    800031d6:	00028067          	jr	t0
    800031da:	e0030553          	fmv.x.w	a0,ft6
    800031de:	00028067          	jr	t0
    800031e2:	e0038553          	fmv.x.w	a0,ft7
    800031e6:	00028067          	jr	t0
    800031ea:	e0040553          	fmv.x.w	a0,fs0
    800031ee:	00028067          	jr	t0
    800031f2:	e0048553          	fmv.x.w	a0,fs1
    800031f6:	00028067          	jr	t0
    800031fa:	e0050553          	fmv.x.w	a0,fa0
    800031fe:	00028067          	jr	t0
    80003202:	e0058553          	fmv.x.w	a0,fa1
    80003206:	00028067          	jr	t0
    8000320a:	e0060553          	fmv.x.w	a0,fa2
    8000320e:	00028067          	jr	t0
    80003212:	e0068553          	fmv.x.w	a0,fa3
    80003216:	00028067          	jr	t0
    8000321a:	e0070553          	fmv.x.w	a0,fa4
    8000321e:	00028067          	jr	t0
    80003222:	e0078553          	fmv.x.w	a0,fa5
    80003226:	00028067          	jr	t0
    8000322a:	e0080553          	fmv.x.w	a0,fa6
    8000322e:	00028067          	jr	t0
    80003232:	e0088553          	fmv.x.w	a0,fa7
    80003236:	00028067          	jr	t0
    8000323a:	e0090553          	fmv.x.w	a0,fs2
    8000323e:	00028067          	jr	t0
    80003242:	e0098553          	fmv.x.w	a0,fs3
    80003246:	00028067          	jr	t0
    8000324a:	e00a0553          	fmv.x.w	a0,fs4
    8000324e:	00028067          	jr	t0
    80003252:	e00a8553          	fmv.x.w	a0,fs5
    80003256:	00028067          	jr	t0
    8000325a:	e00b0553          	fmv.x.w	a0,fs6
    8000325e:	00028067          	jr	t0
    80003262:	e00b8553          	fmv.x.w	a0,fs7
    80003266:	00028067          	jr	t0
    8000326a:	e00c0553          	fmv.x.w	a0,fs8
    8000326e:	00028067          	jr	t0
    80003272:	e00c8553          	fmv.x.w	a0,fs9
    80003276:	00028067          	jr	t0
    8000327a:	e00d0553          	fmv.x.w	a0,fs10
    8000327e:	00028067          	jr	t0
    80003282:	e00d8553          	fmv.x.w	a0,fs11
    80003286:	00028067          	jr	t0
    8000328a:	e00e0553          	fmv.x.w	a0,ft8
    8000328e:	00028067          	jr	t0
    80003292:	e00e8553          	fmv.x.w	a0,ft9
    80003296:	00028067          	jr	t0
    8000329a:	e00f0553          	fmv.x.w	a0,ft10
    8000329e:	00028067          	jr	t0
    800032a2:	e00f8553          	fmv.x.w	a0,ft11
    800032a6:	00028067          	jr	t0

00000000800032aa <put_f32_reg>:
    800032aa:	f0050053          	fmv.w.x	ft0,a0
    800032ae:	00028067          	jr	t0
    800032b2:	f00500d3          	fmv.w.x	ft1,a0
    800032b6:	00028067          	jr	t0
    800032ba:	f0050153          	fmv.w.x	ft2,a0
    800032be:	00028067          	jr	t0
    800032c2:	f00501d3          	fmv.w.x	ft3,a0
    800032c6:	00028067          	jr	t0
    800032ca:	f0050253          	fmv.w.x	ft4,a0
    800032ce:	00028067          	jr	t0
    800032d2:	f00502d3          	fmv.w.x	ft5,a0
    800032d6:	00028067          	jr	t0
    800032da:	f0050353          	fmv.w.x	ft6,a0
    800032de:	00028067          	jr	t0
    800032e2:	f00503d3          	fmv.w.x	ft7,a0
    800032e6:	00028067          	jr	t0
    800032ea:	f0050453          	fmv.w.x	fs0,a0
    800032ee:	00028067          	jr	t0
    800032f2:	f00504d3          	fmv.w.x	fs1,a0
    800032f6:	00028067          	jr	t0
    800032fa:	f0050553          	fmv.w.x	fa0,a0
    800032fe:	00028067          	jr	t0
    80003302:	f00505d3          	fmv.w.x	fa1,a0
    80003306:	00028067          	jr	t0
    8000330a:	f0050653          	fmv.w.x	fa2,a0
    8000330e:	00028067          	jr	t0
    80003312:	f00506d3          	fmv.w.x	fa3,a0
    80003316:	00028067          	jr	t0
    8000331a:	f0050753          	fmv.w.x	fa4,a0
    8000331e:	00028067          	jr	t0
    80003322:	f00507d3          	fmv.w.x	fa5,a0
    80003326:	00028067          	jr	t0
    8000332a:	f0050853          	fmv.w.x	fa6,a0
    8000332e:	00028067          	jr	t0
    80003332:	f00508d3          	fmv.w.x	fa7,a0
    80003336:	00028067          	jr	t0
    8000333a:	f0050953          	fmv.w.x	fs2,a0
    8000333e:	00028067          	jr	t0
    80003342:	f00509d3          	fmv.w.x	fs3,a0
    80003346:	00028067          	jr	t0
    8000334a:	f0050a53          	fmv.w.x	fs4,a0
    8000334e:	00028067          	jr	t0
    80003352:	f0050ad3          	fmv.w.x	fs5,a0
    80003356:	00028067          	jr	t0
    8000335a:	f0050b53          	fmv.w.x	fs6,a0
    8000335e:	00028067          	jr	t0
    80003362:	f0050bd3          	fmv.w.x	fs7,a0
    80003366:	00028067          	jr	t0
    8000336a:	f0050c53          	fmv.w.x	fs8,a0
    8000336e:	00028067          	jr	t0
    80003372:	f0050cd3          	fmv.w.x	fs9,a0
    80003376:	00028067          	jr	t0
    8000337a:	f0050d53          	fmv.w.x	fs10,a0
    8000337e:	00028067          	jr	t0
    80003382:	f0050dd3          	fmv.w.x	fs11,a0
    80003386:	00028067          	jr	t0
    8000338a:	f0050e53          	fmv.w.x	ft8,a0
    8000338e:	00028067          	jr	t0
    80003392:	f0050ed3          	fmv.w.x	ft9,a0
    80003396:	00028067          	jr	t0
    8000339a:	f0050f53          	fmv.w.x	ft10,a0
    8000339e:	00028067          	jr	t0
    800033a2:	f0050fd3          	fmv.w.x	ft11,a0
    800033a6:	00028067          	jr	t0

00000000800033aa <get_f64_reg>:
    800033aa:	e2000553          	fmv.x.d	a0,ft0
    800033ae:	00028067          	jr	t0
    800033b2:	e2008553          	fmv.x.d	a0,ft1
    800033b6:	00028067          	jr	t0
    800033ba:	e2010553          	fmv.x.d	a0,ft2
    800033be:	00028067          	jr	t0
    800033c2:	e2018553          	fmv.x.d	a0,ft3
    800033c6:	00028067          	jr	t0
    800033ca:	e2020553          	fmv.x.d	a0,ft4
    800033ce:	00028067          	jr	t0
    800033d2:	e2028553          	fmv.x.d	a0,ft5
    800033d6:	00028067          	jr	t0
    800033da:	e2030553          	fmv.x.d	a0,ft6
    800033de:	00028067          	jr	t0
    800033e2:	e2038553          	fmv.x.d	a0,ft7
    800033e6:	00028067          	jr	t0
    800033ea:	e2040553          	fmv.x.d	a0,fs0
    800033ee:	00028067          	jr	t0
    800033f2:	e2048553          	fmv.x.d	a0,fs1
    800033f6:	00028067          	jr	t0
    800033fa:	e2050553          	fmv.x.d	a0,fa0
    800033fe:	00028067          	jr	t0
    80003402:	e2058553          	fmv.x.d	a0,fa1
    80003406:	00028067          	jr	t0
    8000340a:	e2060553          	fmv.x.d	a0,fa2
    8000340e:	00028067          	jr	t0
    80003412:	e2068553          	fmv.x.d	a0,fa3
    80003416:	00028067          	jr	t0
    8000341a:	e2070553          	fmv.x.d	a0,fa4
    8000341e:	00028067          	jr	t0
    80003422:	e2078553          	fmv.x.d	a0,fa5
    80003426:	00028067          	jr	t0
    8000342a:	e2080553          	fmv.x.d	a0,fa6
    8000342e:	00028067          	jr	t0
    80003432:	e2088553          	fmv.x.d	a0,fa7
    80003436:	00028067          	jr	t0
    8000343a:	e2090553          	fmv.x.d	a0,fs2
    8000343e:	00028067          	jr	t0
    80003442:	e2098553          	fmv.x.d	a0,fs3
    80003446:	00028067          	jr	t0
    8000344a:	e20a0553          	fmv.x.d	a0,fs4
    8000344e:	00028067          	jr	t0
    80003452:	e20a8553          	fmv.x.d	a0,fs5
    80003456:	00028067          	jr	t0
    8000345a:	e20b0553          	fmv.x.d	a0,fs6
    8000345e:	00028067          	jr	t0
    80003462:	e20b8553          	fmv.x.d	a0,fs7
    80003466:	00028067          	jr	t0
    8000346a:	e20c0553          	fmv.x.d	a0,fs8
    8000346e:	00028067          	jr	t0
    80003472:	e20c8553          	fmv.x.d	a0,fs9
    80003476:	00028067          	jr	t0
    8000347a:	e20d0553          	fmv.x.d	a0,fs10
    8000347e:	00028067          	jr	t0
    80003482:	e20d8553          	fmv.x.d	a0,fs11
    80003486:	00028067          	jr	t0
    8000348a:	e20e0553          	fmv.x.d	a0,ft8
    8000348e:	00028067          	jr	t0
    80003492:	e20e8553          	fmv.x.d	a0,ft9
    80003496:	00028067          	jr	t0
    8000349a:	e20f0553          	fmv.x.d	a0,ft10
    8000349e:	00028067          	jr	t0
    800034a2:	e20f8553          	fmv.x.d	a0,ft11
    800034a6:	00028067          	jr	t0

00000000800034aa <put_f64_reg>:
    800034aa:	f2050053          	fmv.d.x	ft0,a0
    800034ae:	00028067          	jr	t0
    800034b2:	f20500d3          	fmv.d.x	ft1,a0
    800034b6:	00028067          	jr	t0
    800034ba:	f2050153          	fmv.d.x	ft2,a0
    800034be:	00028067          	jr	t0
    800034c2:	f20501d3          	fmv.d.x	ft3,a0
    800034c6:	00028067          	jr	t0
    800034ca:	f2050253          	fmv.d.x	ft4,a0
    800034ce:	00028067          	jr	t0
    800034d2:	f20502d3          	fmv.d.x	ft5,a0
    800034d6:	00028067          	jr	t0
    800034da:	f2050353          	fmv.d.x	ft6,a0
    800034de:	00028067          	jr	t0
    800034e2:	f20503d3          	fmv.d.x	ft7,a0
    800034e6:	00028067          	jr	t0
    800034ea:	f2050453          	fmv.d.x	fs0,a0
    800034ee:	00028067          	jr	t0
    800034f2:	f20504d3          	fmv.d.x	fs1,a0
    800034f6:	00028067          	jr	t0
    800034fa:	f2050553          	fmv.d.x	fa0,a0
    800034fe:	00028067          	jr	t0
    80003502:	f20505d3          	fmv.d.x	fa1,a0
    80003506:	00028067          	jr	t0
    8000350a:	f2050653          	fmv.d.x	fa2,a0
    8000350e:	00028067          	jr	t0
    80003512:	f20506d3          	fmv.d.x	fa3,a0
    80003516:	00028067          	jr	t0
    8000351a:	f2050753          	fmv.d.x	fa4,a0
    8000351e:	00028067          	jr	t0
    80003522:	f20507d3          	fmv.d.x	fa5,a0
    80003526:	00028067          	jr	t0
    8000352a:	f2050853          	fmv.d.x	fa6,a0
    8000352e:	00028067          	jr	t0
    80003532:	f20508d3          	fmv.d.x	fa7,a0
    80003536:	00028067          	jr	t0
    8000353a:	f2050953          	fmv.d.x	fs2,a0
    8000353e:	00028067          	jr	t0
    80003542:	f20509d3          	fmv.d.x	fs3,a0
    80003546:	00028067          	jr	t0
    8000354a:	f2050a53          	fmv.d.x	fs4,a0
    8000354e:	00028067          	jr	t0
    80003552:	f2050ad3          	fmv.d.x	fs5,a0
    80003556:	00028067          	jr	t0
    8000355a:	f2050b53          	fmv.d.x	fs6,a0
    8000355e:	00028067          	jr	t0
    80003562:	f2050bd3          	fmv.d.x	fs7,a0
    80003566:	00028067          	jr	t0
    8000356a:	f2050c53          	fmv.d.x	fs8,a0
    8000356e:	00028067          	jr	t0
    80003572:	f2050cd3          	fmv.d.x	fs9,a0
    80003576:	00028067          	jr	t0
    8000357a:	f2050d53          	fmv.d.x	fs10,a0
    8000357e:	00028067          	jr	t0
    80003582:	f2050dd3          	fmv.d.x	fs11,a0
    80003586:	00028067          	jr	t0
    8000358a:	f2050e53          	fmv.d.x	ft8,a0
    8000358e:	00028067          	jr	t0
    80003592:	f2050ed3          	fmv.d.x	ft9,a0
    80003596:	00028067          	jr	t0
    8000359a:	f2050f53          	fmv.d.x	ft10,a0
    8000359e:	00028067          	jr	t0
    800035a2:	f2050fd3          	fmv.d.x	ft11,a0
    800035a6:	00028067          	jr	t0

00000000800035aa <hart_open>:
    800035aa:	619c                	ld	a5,0(a1)
    800035ac:	c799                	beqz	a5,800035ba <hart_open+0x10>
    800035ae:	699c                	ld	a5,16(a1)
    800035b0:	c391                	beqz	a5,800035b4 <hart_open+0xa>
    800035b2:	8082                	ret
    800035b4:	0005bc23          	sd	zero,24(a1)
    800035b8:	8082                	ret
    800035ba:	57fd                	li	a5,-1
    800035bc:	c59c                	sw	a5,8(a1)
    800035be:	bfc5                	j	800035ae <hart_open+0x4>

00000000800035c0 <hart_close>:
    800035c0:	619c                	ld	a5,0(a1)
    800035c2:	00a78763          	beq	a5,a0,800035d0 <hart_close+0x10>
    800035c6:	699c                	ld	a5,16(a1)
    800035c8:	00a78963          	beq	a5,a0,800035da <hart_close+0x1a>
    800035cc:	4501                	li	a0,0
    800035ce:	8082                	ret
    800035d0:	699c                	ld	a5,16(a1)
    800035d2:	0005b023          	sd	zero,0(a1)
    800035d6:	fea79be3          	bne	a5,a0,800035cc <hart_close+0xc>
    800035da:	0005b823          	sd	zero,16(a1)
    800035de:	4501                	li	a0,0
    800035e0:	8082                	ret

00000000800035e2 <clint_open>:
    800035e2:	0005a023          	sw	zero,0(a1)
    800035e6:	0005b423          	sd	zero,8(a1)
    800035ea:	0005b823          	sd	zero,16(a1)
    800035ee:	8082                	ret

00000000800035f0 <plic_open>:
    800035f0:	0005a023          	sw	zero,0(a1)
    800035f4:	0005b423          	sd	zero,8(a1)
    800035f8:	0005b823          	sd	zero,16(a1)
    800035fc:	8082                	ret

00000000800035fe <plic_redact>:
    800035fe:	419c                	lw	a5,0(a1)
    80003600:	c3ad                	beqz	a5,80003662 <plic_redact+0x64>
    80003602:	4d9c                	lw	a5,24(a1)
    80003604:	4705                	li	a4,1
    80003606:	cdd8                	sw	a4,28(a1)
    80003608:	41f7d61b          	sraiw	a2,a5,0x1f
    8000360c:	01e6561b          	srliw	a2,a2,0x1e
    80003610:	9e3d                	addw	a2,a2,a5
    80003612:	4026561b          	sraiw	a2,a2,0x2
    80003616:	060a                	slli	a2,a2,0x2
    80003618:	6994                	ld	a3,16(a1)
    8000361a:	04c05463          	blez	a2,80003662 <plic_redact+0x64>
    8000361e:	ff010537          	lui	a0,0xff010
    80003622:	00ff05b7          	lui	a1,0xff0
    80003626:	9636                	add	a2,a2,a3
    80003628:	f0050513          	addi	a0,a0,-256 # ffffffffff00ff00 <_end+0xffffffff7eff9f00>
    8000362c:	0ff58593          	addi	a1,a1,255 # ff00ff <_ftext-0x7f00ff01>
    80003630:	482d                	li	a6,11
    80003632:	58fd                	li	a7,-1
    80003634:	42d8                	lw	a4,4(a3)
    80003636:	0087179b          	slliw	a5,a4,0x8
    8000363a:	0087571b          	srliw	a4,a4,0x8
    8000363e:	8f6d                	and	a4,a4,a1
    80003640:	8fe9                	and	a5,a5,a0
    80003642:	8fd9                	or	a5,a5,a4
    80003644:	0107971b          	slliw	a4,a5,0x10
    80003648:	0107d79b          	srliw	a5,a5,0x10
    8000364c:	8fd9                	or	a5,a5,a4
    8000364e:	2781                	sext.w	a5,a5
    80003650:	01079463          	bne	a5,a6,80003658 <plic_redact+0x5a>
    80003654:	0116a223          	sw	a7,4(a3)
    80003658:	06a1                	addi	a3,a3,8
    8000365a:	40d607b3          	sub	a5,a2,a3
    8000365e:	fcf04be3          	bgtz	a5,80003634 <plic_redact+0x36>
    80003662:	8082                	ret

0000000080003664 <compat_open>:
    80003664:	459c                	lw	a5,8(a1)
    80003666:	2785                	addiw	a5,a5,1
    80003668:	c59c                	sw	a5,8(a1)
    8000366a:	8082                	ret

000000008000366c <compat_close>:
    8000366c:	459c                	lw	a5,8(a1)
    8000366e:	45d8                	lw	a4,12(a1)
    80003670:	4501                	li	a0,0
    80003672:	fff7869b          	addiw	a3,a5,-1
    80003676:	c594                	sw	a3,8(a1)
    80003678:	00f70363          	beq	a4,a5,8000367e <compat_close+0x12>
    8000367c:	8082                	ret
    8000367e:	3e700793          	li	a5,999
    80003682:	c5dc                	sw	a5,12(a1)
    80003684:	557d                	li	a0,-1
    80003686:	8082                	ret

0000000080003688 <chosen_close>:
    80003688:	619c                	ld	a5,0(a1)
    8000368a:	c399                	beqz	a5,80003690 <chosen_close+0x8>
    8000368c:	00a78463          	beq	a5,a0,80003694 <chosen_close+0xc>
    80003690:	4501                	li	a0,0
    80003692:	8082                	ret
    80003694:	0005b023          	sd	zero,0(a1)
    80003698:	4501                	li	a0,0
    8000369a:	8082                	ret

000000008000369c <hart_filter_open>:
    8000369c:	57fd                	li	a5,-1
    8000369e:	1782                	slli	a5,a5,0x20
    800036a0:	e19c                	sd	a5,0(a1)
    800036a2:	0005b423          	sd	zero,8(a1)
    800036a6:	0005b823          	sd	zero,16(a1)
    800036aa:	8082                	ret

00000000800036ac <clint_done>:
    800036ac:	419c                	lw	a5,0(a1)
    800036ae:	c3ed                	beqz	a5,80003790 <clint_done+0xe4>
    800036b0:	0085bf03          	ld	t5,8(a1)
    800036b4:	1141                	addi	sp,sp,-16
    800036b6:	e406                	sd	ra,8(sp)
    800036b8:	120f0563          	beqz	t5,800037e2 <clint_done+0x136>
    800036bc:	6988                	ld	a0,16(a1)
    800036be:	0e050e63          	beqz	a0,800037ba <clint_done+0x10e>
    800036c2:	4d9c                	lw	a5,24(a1)
    800036c4:	00f7f813          	andi	a6,a5,15
    800036c8:	0e081963          	bnez	a6,800037ba <clint_done+0x10e>
    800036cc:	4dd8                	lw	a4,28(a1)
    800036ce:	e371                	bnez	a4,80003792 <clint_done+0xe6>
    800036d0:	41f7d89b          	sraiw	a7,a5,0x1f
    800036d4:	01e8d89b          	srliw	a7,a7,0x1e
    800036d8:	00f888bb          	addw	a7,a7,a5
    800036dc:	67b1                	lui	a5,0xc
    800036de:	17e1                	addi	a5,a5,-8
    800036e0:	4705                	li	a4,1
    800036e2:	4028d89b          	sraiw	a7,a7,0x2
    800036e6:	97fa                	add	a5,a5,t5
    800036e8:	cdd8                	sw	a4,28(a1)
    800036ea:	088a                	slli	a7,a7,0x2
    800036ec:	00012717          	auipc	a4,0x12
    800036f0:	a0f73623          	sd	a5,-1524(a4) # 800150f8 <mtime>
    800036f4:	07105763          	blez	a7,80003762 <clint_done+0xb6>
    800036f8:	6e85                	lui	t4,0x1
    800036fa:	9e8a                	add	t4,t4,sp
    800036fc:	77fd                	lui	a5,0xfffff
    800036fe:	ff010e37          	lui	t3,0xff010
    80003702:	00ff0337          	lui	t1,0xff0
    80003706:	6f91                	lui	t6,0x4
    80003708:	00fefeb3          	and	t4,t4,a5
    8000370c:	98aa                	add	a7,a7,a0
    8000370e:	f00e0e13          	addi	t3,t3,-256 # ffffffffff00ff00 <_end+0xffffffff7eff9f00>
    80003712:	0ff30313          	addi	t1,t1,255 # ff00ff <_ftext-0x7f00ff01>
    80003716:	45a1                	li	a1,8
    80003718:	9ffa                	add	t6,t6,t5
    8000371a:	f14022f3          	csrr	t0,mhartid
    8000371e:	4110                	lw	a2,0(a0)
    80003720:	00012717          	auipc	a4,0x12
    80003724:	8e070713          	addi	a4,a4,-1824 # 80015000 <hart_phandles>
    80003728:	4781                	li	a5,0
    8000372a:	0086169b          	slliw	a3,a2,0x8
    8000372e:	0086561b          	srliw	a2,a2,0x8
    80003732:	00667633          	and	a2,a2,t1
    80003736:	01c6f6b3          	and	a3,a3,t3
    8000373a:	8ed1                	or	a3,a3,a2
    8000373c:	0106961b          	slliw	a2,a3,0x10
    80003740:	0106d69b          	srliw	a3,a3,0x10
    80003744:	8e55                	or	a2,a2,a3
    80003746:	2601                	sext.w	a2,a2
    80003748:	4314                	lw	a3,0(a4)
    8000374a:	00c68f63          	beq	a3,a2,80003768 <clint_done+0xbc>
    8000374e:	2785                	addiw	a5,a5,1
    80003750:	0711                	addi	a4,a4,4
    80003752:	feb79be3          	bne	a5,a1,80003748 <clint_done+0x9c>
    80003756:	0541                	addi	a0,a0,16
    80003758:	40a887b3          	sub	a5,a7,a0
    8000375c:	2811                	addiw	a6,a6,4
    8000375e:	fcf040e3          	bgtz	a5,8000371e <clint_done+0x72>
    80003762:	60a2                	ld	ra,8(sp)
    80003764:	0141                	addi	sp,sp,16
    80003766:	8082                	ret
    80003768:	405787b3          	sub	a5,a5,t0
    8000376c:	07b2                	slli	a5,a5,0xc
    8000376e:	0018171b          	slliw	a4,a6,0x1
    80003772:	fc078793          	addi	a5,a5,-64 # ffffffffffffefc0 <_end+0xffffffff7ffe8fc0>
    80003776:	97f6                	add	a5,a5,t4
    80003778:	01e806b3          	add	a3,a6,t5
    8000377c:	977e                	add	a4,a4,t6
    8000377e:	0541                	addi	a0,a0,16
    80003780:	e394                	sd	a3,0(a5)
    80003782:	eb98                	sd	a4,16(a5)
    80003784:	40a887b3          	sub	a5,a7,a0
    80003788:	2811                	addiw	a6,a6,4
    8000378a:	f8f04ae3          	bgtz	a5,8000371e <clint_done+0x72>
    8000378e:	bfd1                	j	80003762 <clint_done+0xb6>
    80003790:	8082                	ret
    80003792:	00006517          	auipc	a0,0x6
    80003796:	9a650513          	addi	a0,a0,-1626 # 80009138 <softfloat_countLeadingZeros8+0x1d0>
    8000379a:	00006697          	auipc	a3,0x6
    8000379e:	fbe68693          	addi	a3,a3,-66 # 80009758 <softfloat_countLeadingZeros8+0x7f0>
    800037a2:	14f00613          	li	a2,335
    800037a6:	00006597          	auipc	a1,0x6
    800037aa:	f6a58593          	addi	a1,a1,-150 # 80009710 <softfloat_countLeadingZeros8+0x7a8>
    800037ae:	eedfe0ef          	jal	ra,8000269a <printm>
    800037b2:	6541                	lui	a0,0x10
    800037b4:	157d                	addi	a0,a0,-1
    800037b6:	f57fe0ef          	jal	ra,8000270c <poweroff>
    800037ba:	00006517          	auipc	a0,0x6
    800037be:	97e50513          	addi	a0,a0,-1666 # 80009138 <softfloat_countLeadingZeros8+0x1d0>
    800037c2:	00006697          	auipc	a3,0x6
    800037c6:	f6668693          	addi	a3,a3,-154 # 80009728 <softfloat_countLeadingZeros8+0x7c0>
    800037ca:	14e00613          	li	a2,334
    800037ce:	00006597          	auipc	a1,0x6
    800037d2:	f4258593          	addi	a1,a1,-190 # 80009710 <softfloat_countLeadingZeros8+0x7a8>
    800037d6:	ec5fe0ef          	jal	ra,8000269a <printm>
    800037da:	6541                	lui	a0,0x10
    800037dc:	157d                	addi	a0,a0,-1
    800037de:	f2ffe0ef          	jal	ra,8000270c <poweroff>
    800037e2:	00006517          	auipc	a0,0x6
    800037e6:	95650513          	addi	a0,a0,-1706 # 80009138 <softfloat_countLeadingZeros8+0x1d0>
    800037ea:	00006697          	auipc	a3,0x6
    800037ee:	f1668693          	addi	a3,a3,-234 # 80009700 <softfloat_countLeadingZeros8+0x798>
    800037f2:	14d00613          	li	a2,333
    800037f6:	00006597          	auipc	a1,0x6
    800037fa:	f1a58593          	addi	a1,a1,-230 # 80009710 <softfloat_countLeadingZeros8+0x7a8>
    800037fe:	e9dfe0ef          	jal	ra,8000269a <printm>
    80003802:	6541                	lui	a0,0x10
    80003804:	157d                	addi	a0,a0,-1
    80003806:	f07fe0ef          	jal	ra,8000270c <poweroff>

000000008000380a <plic_done>:
    8000380a:	419c                	lw	a5,0(a1)
    8000380c:	1a078863          	beqz	a5,800039bc <plic_done+0x1b2>
    80003810:	6594                	ld	a3,8(a1)
    80003812:	715d                	addi	sp,sp,-80
    80003814:	f052                	sd	s4,32(sp)
    80003816:	e486                	sd	ra,72(sp)
    80003818:	e0a2                	sd	s0,64(sp)
    8000381a:	fc26                	sd	s1,56(sp)
    8000381c:	f84a                	sd	s2,48(sp)
    8000381e:	f44e                	sd	s3,40(sp)
    80003820:	ec56                	sd	s5,24(sp)
    80003822:	e85a                	sd	s6,16(sp)
    80003824:	e45e                	sd	s7,8(sp)
    80003826:	e062                	sd	s8,0(sp)
    80003828:	8a2e                	mv	s4,a1
    8000382a:	20068663          	beqz	a3,80003a36 <plic_done+0x22c>
    8000382e:	6980                	ld	s0,16(a1)
    80003830:	1c040f63          	beqz	s0,80003a0e <plic_done+0x204>
    80003834:	4d9c                	lw	a5,24(a1)
    80003836:	0077f713          	andi	a4,a5,7
    8000383a:	1c071a63          	bnez	a4,80003a0e <plic_done+0x204>
    8000383e:	5198                	lw	a4,32(a1)
    80003840:	3ff00613          	li	a2,1023
    80003844:	1ae66163          	bltu	a2,a4,800039e6 <plic_done+0x1dc>
    80003848:	4dd0                	lw	a2,28(a1)
    8000384a:	16061a63          	bnez	a2,800039be <plic_done+0x1b4>
    8000384e:	41f7d49b          	sraiw	s1,a5,0x1f
    80003852:	01e4d49b          	srliw	s1,s1,0x1e
    80003856:	9cbd                	addw	s1,s1,a5
    80003858:	4024d49b          	sraiw	s1,s1,0x2
    8000385c:	4785                	li	a5,1
    8000385e:	cddc                	sw	a5,28(a1)
    80003860:	048a                	slli	s1,s1,0x2
    80003862:	00012797          	auipc	a5,0x12
    80003866:	86d7bf23          	sd	a3,-1922(a5) # 800150e0 <plic_priorities>
    8000386a:	00012797          	auipc	a5,0x12
    8000386e:	86e7b723          	sd	a4,-1938(a5) # 800150d8 <plic_ndevs>
    80003872:	06905a63          	blez	s1,800038e6 <plic_done+0xdc>
    80003876:	6a85                	lui	s5,0x1
    80003878:	40800b3b          	negw	s6,s0
    8000387c:	9a8a                	add	s5,s5,sp
    8000387e:	ff0109b7          	lui	s3,0xff010
    80003882:	00ff0937          	lui	s2,0xff0
    80003886:	77fd                	lui	a5,0xfffff
    80003888:	004b1c1b          	slliw	s8,s6,0x4
    8000388c:	94a2                	add	s1,s1,s0
    8000388e:	009b1b1b          	slliw	s6,s6,0x9
    80003892:	f0098993          	addi	s3,s3,-256 # ffffffffff00ff00 <_end+0xffffffff7eff9f00>
    80003896:	0ff90913          	addi	s2,s2,255 # ff00ff <_ftext-0x7f00ff01>
    8000389a:	00fafab3          	and	s5,s5,a5
    8000389e:	f1402bf3          	csrr	s7,mhartid
    800038a2:	4014                	lw	a3,0(s0)
    800038a4:	00011797          	auipc	a5,0x11
    800038a8:	75c78793          	addi	a5,a5,1884 # 80015000 <hart_phandles>
    800038ac:	4581                	li	a1,0
    800038ae:	0086971b          	slliw	a4,a3,0x8
    800038b2:	0086d69b          	srliw	a3,a3,0x8
    800038b6:	0126f6b3          	and	a3,a3,s2
    800038ba:	01377733          	and	a4,a4,s3
    800038be:	8f55                	or	a4,a4,a3
    800038c0:	0107169b          	slliw	a3,a4,0x10
    800038c4:	0107571b          	srliw	a4,a4,0x10
    800038c8:	8ed9                	or	a3,a3,a4
    800038ca:	2681                	sext.w	a3,a3
    800038cc:	4621                	li	a2,8
    800038ce:	4398                	lw	a4,0(a5)
    800038d0:	02d70763          	beq	a4,a3,800038fe <plic_done+0xf4>
    800038d4:	2585                	addiw	a1,a1,1
    800038d6:	0791                	addi	a5,a5,4
    800038d8:	fec59be3          	bne	a1,a2,800038ce <plic_done+0xc4>
    800038dc:	0421                	addi	s0,s0,8
    800038de:	408487b3          	sub	a5,s1,s0
    800038e2:	fcf040e3          	bgtz	a5,800038a2 <plic_done+0x98>
    800038e6:	60a6                	ld	ra,72(sp)
    800038e8:	6406                	ld	s0,64(sp)
    800038ea:	74e2                	ld	s1,56(sp)
    800038ec:	7942                	ld	s2,48(sp)
    800038ee:	79a2                	ld	s3,40(sp)
    800038f0:	7a02                	ld	s4,32(sp)
    800038f2:	6ae2                	ld	s5,24(sp)
    800038f4:	6b42                	ld	s6,16(sp)
    800038f6:	6ba2                	ld	s7,8(sp)
    800038f8:	6c02                	ld	s8,0(sp)
    800038fa:	6161                	addi	sp,sp,80
    800038fc:	8082                	ret
    800038fe:	4054                	lw	a3,4(s0)
    80003900:	41758733          	sub	a4,a1,s7
    80003904:	0732                	slli	a4,a4,0xc
    80003906:	0086979b          	slliw	a5,a3,0x8
    8000390a:	0086d69b          	srliw	a3,a3,0x8
    8000390e:	0137f7b3          	and	a5,a5,s3
    80003912:	0126f6b3          	and	a3,a3,s2
    80003916:	8fd5                	or	a5,a5,a3
    80003918:	0107961b          	slliw	a2,a5,0x10
    8000391c:	0107d79b          	srliw	a5,a5,0x10
    80003920:	8fd1                	or	a5,a5,a2
    80003922:	fc070713          	addi	a4,a4,-64
    80003926:	0007861b          	sext.w	a2,a5
    8000392a:	47ad                	li	a5,11
    8000392c:	9756                	add	a4,a4,s5
    8000392e:	04f60063          	beq	a2,a5,8000396e <plic_done+0x164>
    80003932:	47a5                	li	a5,9
    80003934:	06f61863          	bne	a2,a5,800039a4 <plic_done+0x19a>
    80003938:	008a3603          	ld	a2,8(s4)
    8000393c:	0004079b          	sext.w	a5,s0
    80003940:	0047969b          	slliw	a3,a5,0x4
    80003944:	6589                	lui	a1,0x2
    80003946:	0097979b          	slliw	a5,a5,0x9
    8000394a:	00200537          	lui	a0,0x200
    8000394e:	95b2                	add	a1,a1,a2
    80003950:	018686bb          	addw	a3,a3,s8
    80003954:	016787bb          	addw	a5,a5,s6
    80003958:	962a                	add	a2,a2,a0
    8000395a:	97b2                	add	a5,a5,a2
    8000395c:	96ae                	add	a3,a3,a1
    8000395e:	0421                	addi	s0,s0,8
    80003960:	f71c                	sd	a5,40(a4)
    80003962:	fb14                	sd	a3,48(a4)
    80003964:	408487b3          	sub	a5,s1,s0
    80003968:	f2f04de3          	bgtz	a5,800038a2 <plic_done+0x98>
    8000396c:	bfad                	j	800038e6 <plic_done+0xdc>
    8000396e:	008a3603          	ld	a2,8(s4)
    80003972:	0004079b          	sext.w	a5,s0
    80003976:	0047969b          	slliw	a3,a5,0x4
    8000397a:	6589                	lui	a1,0x2
    8000397c:	0097979b          	slliw	a5,a5,0x9
    80003980:	00200537          	lui	a0,0x200
    80003984:	95b2                	add	a1,a1,a2
    80003986:	018686bb          	addw	a3,a3,s8
    8000398a:	016787bb          	addw	a5,a5,s6
    8000398e:	962a                	add	a2,a2,a0
    80003990:	97b2                	add	a5,a5,a2
    80003992:	96ae                	add	a3,a3,a1
    80003994:	0421                	addi	s0,s0,8
    80003996:	ef1c                	sd	a5,24(a4)
    80003998:	f314                	sd	a3,32(a4)
    8000399a:	408487b3          	sub	a5,s1,s0
    8000399e:	f0f042e3          	bgtz	a5,800038a2 <plic_done+0x98>
    800039a2:	b791                	j	800038e6 <plic_done+0xdc>
    800039a4:	00006517          	auipc	a0,0x6
    800039a8:	e1c50513          	addi	a0,a0,-484 # 800097c0 <softfloat_countLeadingZeros8+0x858>
    800039ac:	ceffe0ef          	jal	ra,8000269a <printm>
    800039b0:	0421                	addi	s0,s0,8
    800039b2:	408487b3          	sub	a5,s1,s0
    800039b6:	eef046e3          	bgtz	a5,800038a2 <plic_done+0x98>
    800039ba:	b735                	j	800038e6 <plic_done+0xdc>
    800039bc:	8082                	ret
    800039be:	00005517          	auipc	a0,0x5
    800039c2:	77a50513          	addi	a0,a0,1914 # 80009138 <softfloat_countLeadingZeros8+0x1d0>
    800039c6:	00006697          	auipc	a3,0x6
    800039ca:	d9268693          	addi	a3,a3,-622 # 80009758 <softfloat_countLeadingZeros8+0x7f0>
    800039ce:	1a500613          	li	a2,421
    800039d2:	00006597          	auipc	a1,0x6
    800039d6:	d3e58593          	addi	a1,a1,-706 # 80009710 <softfloat_countLeadingZeros8+0x7a8>
    800039da:	cc1fe0ef          	jal	ra,8000269a <printm>
    800039de:	6541                	lui	a0,0x10
    800039e0:	157d                	addi	a0,a0,-1
    800039e2:	d2bfe0ef          	jal	ra,8000270c <poweroff>
    800039e6:	00005517          	auipc	a0,0x5
    800039ea:	75250513          	addi	a0,a0,1874 # 80009138 <softfloat_countLeadingZeros8+0x1d0>
    800039ee:	00006697          	auipc	a3,0x6
    800039f2:	daa68693          	addi	a3,a3,-598 # 80009798 <softfloat_countLeadingZeros8+0x830>
    800039f6:	1a400613          	li	a2,420
    800039fa:	00006597          	auipc	a1,0x6
    800039fe:	d1658593          	addi	a1,a1,-746 # 80009710 <softfloat_countLeadingZeros8+0x7a8>
    80003a02:	c99fe0ef          	jal	ra,8000269a <printm>
    80003a06:	6541                	lui	a0,0x10
    80003a08:	157d                	addi	a0,a0,-1
    80003a0a:	d03fe0ef          	jal	ra,8000270c <poweroff>
    80003a0e:	00005517          	auipc	a0,0x5
    80003a12:	72a50513          	addi	a0,a0,1834 # 80009138 <softfloat_countLeadingZeros8+0x1d0>
    80003a16:	00006697          	auipc	a3,0x6
    80003a1a:	d5268693          	addi	a3,a3,-686 # 80009768 <softfloat_countLeadingZeros8+0x800>
    80003a1e:	1a300613          	li	a2,419
    80003a22:	00006597          	auipc	a1,0x6
    80003a26:	cee58593          	addi	a1,a1,-786 # 80009710 <softfloat_countLeadingZeros8+0x7a8>
    80003a2a:	c71fe0ef          	jal	ra,8000269a <printm>
    80003a2e:	6541                	lui	a0,0x10
    80003a30:	157d                	addi	a0,a0,-1
    80003a32:	cdbfe0ef          	jal	ra,8000270c <poweroff>
    80003a36:	00005517          	auipc	a0,0x5
    80003a3a:	70250513          	addi	a0,a0,1794 # 80009138 <softfloat_countLeadingZeros8+0x1d0>
    80003a3e:	00006697          	auipc	a3,0x6
    80003a42:	cc268693          	addi	a3,a3,-830 # 80009700 <softfloat_countLeadingZeros8+0x798>
    80003a46:	1a200613          	li	a2,418
    80003a4a:	00006597          	auipc	a1,0x6
    80003a4e:	cc658593          	addi	a1,a1,-826 # 80009710 <softfloat_countLeadingZeros8+0x7a8>
    80003a52:	c49fe0ef          	jal	ra,8000269a <printm>
    80003a56:	6541                	lui	a0,0x10
    80003a58:	157d                	addi	a0,a0,-1
    80003a5a:	cb3fe0ef          	jal	ra,8000270c <poweroff>

0000000080003a5e <mem_done>:
    80003a5e:	419c                	lw	a5,0(a1)
    80003a60:	14078163          	beqz	a5,80003ba2 <mem_done+0x144>
    80003a64:	0085b803          	ld	a6,8(a1)
    80003a68:	1141                	addi	sp,sp,-16
    80003a6a:	e406                	sd	ra,8(sp)
    80003a6c:	12080c63          	beqz	a6,80003ba4 <mem_done+0x146>
    80003a70:	499c                	lw	a5,16(a1)
    80003a72:	0037f713          	andi	a4,a5,3
    80003a76:	12071763          	bnez	a4,80003ba4 <mem_done+0x146>
    80003a7a:	41f7d59b          	sraiw	a1,a5,0x1f
    80003a7e:	01e5d59b          	srliw	a1,a1,0x1e
    80003a82:	9dbd                	addw	a1,a1,a5
    80003a84:	4025d59b          	sraiw	a1,a1,0x2
    80003a88:	00011797          	auipc	a5,0x11
    80003a8c:	66078793          	addi	a5,a5,1632 # 800150e8 <mem_size>
    80003a90:	058a                	slli	a1,a1,0x2
    80003a92:	0007be03          	ld	t3,0(a5)
    80003a96:	95c2                	add	a1,a1,a6
    80003a98:	ff010637          	lui	a2,0xff010
    80003a9c:	00ff06b7          	lui	a3,0xff0
    80003aa0:	00000897          	auipc	a7,0x0
    80003aa4:	fbe88893          	addi	a7,a7,-66 # 80003a5e <mem_done>
    80003aa8:	4301                	li	t1,0
    80003aaa:	41058f33          	sub	t5,a1,a6
    80003aae:	f0060613          	addi	a2,a2,-256 # ffffffffff00ff00 <_end+0xffffffff7eff9f00>
    80003ab2:	0ff68693          	addi	a3,a3,255 # ff00ff <_ftext-0x7f00ff01>
    80003ab6:	0de05263          	blez	t5,80003b7a <mem_done+0x11c>
    80003aba:	00053283          	ld	t0,0(a0) # 10000 <_ftext-0x7fff0000>
    80003abe:	0102a783          	lw	a5,16(t0)
    80003ac2:	0cf05763          	blez	a5,80003b90 <mem_done+0x132>
    80003ac6:	fff7839b          	addiw	t2,a5,-1
    80003aca:	02039f93          	slli	t6,t2,0x20
    80003ace:	020fdf93          	srli	t6,t6,0x20
    80003ad2:	0f85                	addi	t6,t6,1
    80003ad4:	0f8a                	slli	t6,t6,0x2
    80003ad6:	9fc2                	add	t6,t6,a6
    80003ad8:	8f42                	mv	t5,a6
    80003ada:	4e81                	li	t4,0
    80003adc:	0f11                	addi	t5,t5,4
    80003ade:	ffcf2703          	lw	a4,-4(t5)
    80003ae2:	1e82                	slli	t4,t4,0x20
    80003ae4:	0087179b          	slliw	a5,a4,0x8
    80003ae8:	0087571b          	srliw	a4,a4,0x8
    80003aec:	8f75                	and	a4,a4,a3
    80003aee:	8ff1                	and	a5,a5,a2
    80003af0:	8fd9                	or	a5,a5,a4
    80003af2:	0107971b          	slliw	a4,a5,0x10
    80003af6:	0107d79b          	srliw	a5,a5,0x10
    80003afa:	8fd9                	or	a5,a5,a4
    80003afc:	1782                	slli	a5,a5,0x20
    80003afe:	9381                	srli	a5,a5,0x20
    80003b00:	9ebe                	add	t4,t4,a5
    80003b02:	fdff1de3          	bne	t5,t6,80003adc <mem_done+0x7e>
    80003b06:	0003879b          	sext.w	a5,t2
    80003b0a:	0142a703          	lw	a4,20(t0)
    80003b0e:	0785                	addi	a5,a5,1
    80003b10:	078a                	slli	a5,a5,0x2
    80003b12:	983e                	add	a6,a6,a5
    80003b14:	08e05563          	blez	a4,80003b9e <mem_done+0x140>
    80003b18:	fff7039b          	addiw	t2,a4,-1
    80003b1c:	02039293          	slli	t0,t2,0x20
    80003b20:	0202d293          	srli	t0,t0,0x20
    80003b24:	0285                	addi	t0,t0,1
    80003b26:	028a                	slli	t0,t0,0x2
    80003b28:	92c2                	add	t0,t0,a6
    80003b2a:	8fc2                	mv	t6,a6
    80003b2c:	4781                	li	a5,0
    80003b2e:	0f91                	addi	t6,t6,4
    80003b30:	ffcfa703          	lw	a4,-4(t6) # 3ffc <_ftext-0x7fffc004>
    80003b34:	02079f13          	slli	t5,a5,0x20
    80003b38:	0087179b          	slliw	a5,a4,0x8
    80003b3c:	0087571b          	srliw	a4,a4,0x8
    80003b40:	8f75                	and	a4,a4,a3
    80003b42:	8ff1                	and	a5,a5,a2
    80003b44:	8fd9                	or	a5,a5,a4
    80003b46:	0107971b          	slliw	a4,a5,0x10
    80003b4a:	0107d79b          	srliw	a5,a5,0x10
    80003b4e:	8fd9                	or	a5,a5,a4
    80003b50:	1782                	slli	a5,a5,0x20
    80003b52:	9381                	srli	a5,a5,0x20
    80003b54:	97fa                	add	a5,a5,t5
    80003b56:	fc5f9ce3          	bne	t6,t0,80003b2e <mem_done+0xd0>
    80003b5a:	0003871b          	sext.w	a4,t2
    80003b5e:	0705                	addi	a4,a4,1
    80003b60:	070a                	slli	a4,a4,0x2
    80003b62:	983a                	add	a6,a6,a4
    80003b64:	41058f33          	sub	t5,a1,a6
    80003b68:	f5d8e7e3          	bltu	a7,t4,80003ab6 <mem_done+0x58>
    80003b6c:	9ebe                	add	t4,t4,a5
    80003b6e:	f51ee4e3          	bltu	t4,a7,80003ab6 <mem_done+0x58>
    80003b72:	8e3e                	mv	t3,a5
    80003b74:	4305                	li	t1,1
    80003b76:	f5e042e3          	bgtz	t5,80003aba <mem_done+0x5c>
    80003b7a:	00030663          	beqz	t1,80003b86 <mem_done+0x128>
    80003b7e:	00011797          	auipc	a5,0x11
    80003b82:	57c7b523          	sd	t3,1386(a5) # 800150e8 <mem_size>
    80003b86:	04b81363          	bne	a6,a1,80003bcc <mem_done+0x16e>
    80003b8a:	60a2                	ld	ra,8(sp)
    80003b8c:	0141                	addi	sp,sp,16
    80003b8e:	8082                	ret
    80003b90:	0142a703          	lw	a4,20(t0)
    80003b94:	4e81                	li	t4,0
    80003b96:	4781                	li	a5,0
    80003b98:	f8e040e3          	bgtz	a4,80003b18 <mem_done+0xba>
    80003b9c:	bfc1                	j	80003b6c <mem_done+0x10e>
    80003b9e:	4781                	li	a5,0
    80003ba0:	b7d1                	j	80003b64 <mem_done+0x106>
    80003ba2:	8082                	ret
    80003ba4:	00005517          	auipc	a0,0x5
    80003ba8:	59450513          	addi	a0,a0,1428 # 80009138 <softfloat_countLeadingZeros8+0x1d0>
    80003bac:	00006697          	auipc	a3,0x6
    80003bb0:	c4468693          	addi	a3,a3,-956 # 800097f0 <softfloat_countLeadingZeros8+0x888>
    80003bb4:	0af00613          	li	a2,175
    80003bb8:	00006597          	auipc	a1,0x6
    80003bbc:	b5858593          	addi	a1,a1,-1192 # 80009710 <softfloat_countLeadingZeros8+0x7a8>
    80003bc0:	adbfe0ef          	jal	ra,8000269a <printm>
    80003bc4:	6541                	lui	a0,0x10
    80003bc6:	157d                	addi	a0,a0,-1
    80003bc8:	b45fe0ef          	jal	ra,8000270c <poweroff>
    80003bcc:	00005517          	auipc	a0,0x5
    80003bd0:	56c50513          	addi	a0,a0,1388 # 80009138 <softfloat_countLeadingZeros8+0x1d0>
    80003bd4:	00006697          	auipc	a3,0x6
    80003bd8:	c4c68693          	addi	a3,a3,-948 # 80009820 <softfloat_countLeadingZeros8+0x8b8>
    80003bdc:	0b700613          	li	a2,183
    80003be0:	00006597          	auipc	a1,0x6
    80003be4:	b3058593          	addi	a1,a1,-1232 # 80009710 <softfloat_countLeadingZeros8+0x7a8>
    80003be8:	ab3fe0ef          	jal	ra,8000269a <printm>
    80003bec:	6541                	lui	a0,0x10
    80003bee:	157d                	addi	a0,a0,-1
    80003bf0:	b1dfe0ef          	jal	ra,8000270c <poweroff>

0000000080003bf4 <mem_prop>:
    80003bf4:	1101                	addi	sp,sp,-32
    80003bf6:	e426                	sd	s1,8(sp)
    80003bf8:	6504                	ld	s1,8(a0)
    80003bfa:	e822                	sd	s0,16(sp)
    80003bfc:	e04a                	sd	s2,0(sp)
    80003bfe:	842a                	mv	s0,a0
    80003c00:	892e                	mv	s2,a1
    80003c02:	8526                	mv	a0,s1
    80003c04:	00006597          	auipc	a1,0x6
    80003c08:	c2c58593          	addi	a1,a1,-980 # 80009830 <softfloat_countLeadingZeros8+0x8c8>
    80003c0c:	ec06                	sd	ra,24(sp)
    80003c0e:	614040ef          	jal	ra,80008222 <strcmp>
    80003c12:	e115                	bnez	a0,80003c36 <mem_prop+0x42>
    80003c14:	6808                	ld	a0,16(s0)
    80003c16:	00006597          	auipc	a1,0x6
    80003c1a:	c2a58593          	addi	a1,a1,-982 # 80009840 <softfloat_countLeadingZeros8+0x8d8>
    80003c1e:	604040ef          	jal	ra,80008222 <strcmp>
    80003c22:	e911                	bnez	a0,80003c36 <mem_prop+0x42>
    80003c24:	4785                	li	a5,1
    80003c26:	00f92023          	sw	a5,0(s2)
    80003c2a:	60e2                	ld	ra,24(sp)
    80003c2c:	6442                	ld	s0,16(sp)
    80003c2e:	64a2                	ld	s1,8(sp)
    80003c30:	6902                	ld	s2,0(sp)
    80003c32:	6105                	addi	sp,sp,32
    80003c34:	8082                	ret
    80003c36:	00006597          	auipc	a1,0x6
    80003c3a:	aa258593          	addi	a1,a1,-1374 # 800096d8 <softfloat_countLeadingZeros8+0x770>
    80003c3e:	8526                	mv	a0,s1
    80003c40:	5e2040ef          	jal	ra,80008222 <strcmp>
    80003c44:	f17d                	bnez	a0,80003c2a <mem_prop+0x36>
    80003c46:	6818                	ld	a4,16(s0)
    80003c48:	4c1c                	lw	a5,24(s0)
    80003c4a:	60e2                	ld	ra,24(sp)
    80003c4c:	6442                	ld	s0,16(sp)
    80003c4e:	00e93423          	sd	a4,8(s2)
    80003c52:	00f92823          	sw	a5,16(s2)
    80003c56:	64a2                	ld	s1,8(sp)
    80003c58:	6902                	ld	s2,0(sp)
    80003c5a:	6105                	addi	sp,sp,32
    80003c5c:	8082                	ret

0000000080003c5e <chosen_open>:
    80003c5e:	1101                	addi	sp,sp,-32
    80003c60:	e822                	sd	s0,16(sp)
    80003c62:	842a                	mv	s0,a0
    80003c64:	6508                	ld	a0,8(a0)
    80003c66:	e426                	sd	s1,8(sp)
    80003c68:	84ae                	mv	s1,a1
    80003c6a:	00006597          	auipc	a1,0x6
    80003c6e:	bde58593          	addi	a1,a1,-1058 # 80009848 <softfloat_countLeadingZeros8+0x8e0>
    80003c72:	ec06                	sd	ra,24(sp)
    80003c74:	5ae040ef          	jal	ra,80008222 <strcmp>
    80003c78:	e111                	bnez	a0,80003c7c <chosen_open+0x1e>
    80003c7a:	e080                	sd	s0,0(s1)
    80003c7c:	60e2                	ld	ra,24(sp)
    80003c7e:	6442                	ld	s0,16(sp)
    80003c80:	64a2                	ld	s1,8(sp)
    80003c82:	6105                	addi	sp,sp,32
    80003c84:	8082                	ret

0000000080003c86 <hart_prop>:
    80003c86:	1101                	addi	sp,sp,-32
    80003c88:	e426                	sd	s1,8(sp)
    80003c8a:	6504                	ld	s1,8(a0)
    80003c8c:	e822                	sd	s0,16(sp)
    80003c8e:	e04a                	sd	s2,0(sp)
    80003c90:	842a                	mv	s0,a0
    80003c92:	892e                	mv	s2,a1
    80003c94:	8526                	mv	a0,s1
    80003c96:	00006597          	auipc	a1,0x6
    80003c9a:	b9a58593          	addi	a1,a1,-1126 # 80009830 <softfloat_countLeadingZeros8+0x8c8>
    80003c9e:	ec06                	sd	ra,24(sp)
    80003ca0:	582040ef          	jal	ra,80008222 <strcmp>
    80003ca4:	e515                	bnez	a0,80003cd0 <hart_prop+0x4a>
    80003ca6:	6808                	ld	a0,16(s0)
    80003ca8:	00006597          	auipc	a1,0x6
    80003cac:	ba858593          	addi	a1,a1,-1112 # 80009850 <softfloat_countLeadingZeros8+0x8e8>
    80003cb0:	572040ef          	jal	ra,80008222 <strcmp>
    80003cb4:	ed11                	bnez	a0,80003cd0 <hart_prop+0x4a>
    80003cb6:	00093783          	ld	a5,0(s2)
    80003cba:	16079563          	bnez	a5,80003e24 <hart_prop+0x19e>
    80003cbe:	601c                	ld	a5,0(s0)
    80003cc0:	60e2                	ld	ra,24(sp)
    80003cc2:	6442                	ld	s0,16(sp)
    80003cc4:	00f93023          	sd	a5,0(s2)
    80003cc8:	64a2                	ld	s1,8(sp)
    80003cca:	6902                	ld	s2,0(sp)
    80003ccc:	6105                	addi	sp,sp,32
    80003cce:	8082                	ret
    80003cd0:	00006597          	auipc	a1,0x6
    80003cd4:	b9858593          	addi	a1,a1,-1128 # 80009868 <softfloat_countLeadingZeros8+0x900>
    80003cd8:	8526                	mv	a0,s1
    80003cda:	548040ef          	jal	ra,80008222 <strcmp>
    80003cde:	ed11                	bnez	a0,80003cfa <hart_prop+0x74>
    80003ce0:	01093783          	ld	a5,16(s2)
    80003ce4:	10079c63          	bnez	a5,80003dfc <hart_prop+0x176>
    80003ce8:	601c                	ld	a5,0(s0)
    80003cea:	00f93823          	sd	a5,16(s2)
    80003cee:	60e2                	ld	ra,24(sp)
    80003cf0:	6442                	ld	s0,16(sp)
    80003cf2:	64a2                	ld	s1,8(sp)
    80003cf4:	6902                	ld	s2,0(sp)
    80003cf6:	6105                	addi	sp,sp,32
    80003cf8:	8082                	ret
    80003cfa:	00006597          	auipc	a1,0x6
    80003cfe:	b9e58593          	addi	a1,a1,-1122 # 80009898 <softfloat_countLeadingZeros8+0x930>
    80003d02:	8526                	mv	a0,s1
    80003d04:	51e040ef          	jal	ra,80008222 <strcmp>
    80003d08:	c131                	beqz	a0,80003d4c <hart_prop+0xc6>
    80003d0a:	00006597          	auipc	a1,0x6
    80003d0e:	ba658593          	addi	a1,a1,-1114 # 800098b0 <softfloat_countLeadingZeros8+0x948>
    80003d12:	8526                	mv	a0,s1
    80003d14:	50e040ef          	jal	ra,80008222 <strcmp>
    80003d18:	e925                	bnez	a0,80003d88 <hart_prop+0x102>
    80003d1a:	681c                	ld	a5,16(s0)
    80003d1c:	ff0106b7          	lui	a3,0xff010
    80003d20:	f0068693          	addi	a3,a3,-256 # ffffffffff00ff00 <_end+0xffffffff7eff9f00>
    80003d24:	4398                	lw	a4,0(a5)
    80003d26:	0087179b          	slliw	a5,a4,0x8
    80003d2a:	8ff5                	and	a5,a5,a3
    80003d2c:	00ff06b7          	lui	a3,0xff0
    80003d30:	0087571b          	srliw	a4,a4,0x8
    80003d34:	0ff68693          	addi	a3,a3,255 # ff00ff <_ftext-0x7f00ff01>
    80003d38:	8f75                	and	a4,a4,a3
    80003d3a:	8fd9                	or	a5,a5,a4
    80003d3c:	0107971b          	slliw	a4,a5,0x10
    80003d40:	0107d79b          	srliw	a5,a5,0x10
    80003d44:	8fd9                	or	a5,a5,a4
    80003d46:	00f92e23          	sw	a5,28(s2)
    80003d4a:	b755                	j	80003cee <hart_prop+0x68>
    80003d4c:	681c                	ld	a5,16(s0)
    80003d4e:	ff0106b7          	lui	a3,0xff010
    80003d52:	f0068693          	addi	a3,a3,-256 # ffffffffff00ff00 <_end+0xffffffff7eff9f00>
    80003d56:	4398                	lw	a4,0(a5)
    80003d58:	60e2                	ld	ra,24(sp)
    80003d5a:	6442                	ld	s0,16(sp)
    80003d5c:	0087179b          	slliw	a5,a4,0x8
    80003d60:	8ff5                	and	a5,a5,a3
    80003d62:	00ff06b7          	lui	a3,0xff0
    80003d66:	0087571b          	srliw	a4,a4,0x8
    80003d6a:	0ff68693          	addi	a3,a3,255 # ff00ff <_ftext-0x7f00ff01>
    80003d6e:	8f75                	and	a4,a4,a3
    80003d70:	8fd9                	or	a5,a5,a4
    80003d72:	0107971b          	slliw	a4,a5,0x10
    80003d76:	0107d79b          	srliw	a5,a5,0x10
    80003d7a:	8fd9                	or	a5,a5,a4
    80003d7c:	00f92c23          	sw	a5,24(s2)
    80003d80:	64a2                	ld	s1,8(sp)
    80003d82:	6902                	ld	s2,0(sp)
    80003d84:	6105                	addi	sp,sp,32
    80003d86:	8082                	ret
    80003d88:	00006597          	auipc	a1,0x6
    80003d8c:	95058593          	addi	a1,a1,-1712 # 800096d8 <softfloat_countLeadingZeros8+0x770>
    80003d90:	8526                	mv	a0,s1
    80003d92:	490040ef          	jal	ra,80008222 <strcmp>
    80003d96:	fd21                	bnez	a0,80003cee <hart_prop+0x68>
    80003d98:	601c                	ld	a5,0(s0)
    80003d9a:	6810                	ld	a2,16(s0)
    80003d9c:	639c                	ld	a5,0(a5)
    80003d9e:	4b9c                	lw	a5,16(a5)
    80003da0:	04f05b63          	blez	a5,80003df6 <hart_prop+0x170>
    80003da4:	fff7859b          	addiw	a1,a5,-1
    80003da8:	1582                	slli	a1,a1,0x20
    80003daa:	9181                	srli	a1,a1,0x20
    80003dac:	0585                	addi	a1,a1,1
    80003dae:	058a                	slli	a1,a1,0x2
    80003db0:	ff010837          	lui	a6,0xff010
    80003db4:	00ff0537          	lui	a0,0xff0
    80003db8:	95b2                	add	a1,a1,a2
    80003dba:	4781                	li	a5,0
    80003dbc:	f0080813          	addi	a6,a6,-256 # ffffffffff00ff00 <_end+0xffffffff7eff9f00>
    80003dc0:	0ff50513          	addi	a0,a0,255 # ff00ff <_ftext-0x7f00ff01>
    80003dc4:	0611                	addi	a2,a2,4
    80003dc6:	ffc62703          	lw	a4,-4(a2)
    80003dca:	02079693          	slli	a3,a5,0x20
    80003dce:	0087179b          	slliw	a5,a4,0x8
    80003dd2:	0087571b          	srliw	a4,a4,0x8
    80003dd6:	8f69                	and	a4,a4,a0
    80003dd8:	0107f7b3          	and	a5,a5,a6
    80003ddc:	8fd9                	or	a5,a5,a4
    80003dde:	0107971b          	slliw	a4,a5,0x10
    80003de2:	0107d79b          	srliw	a5,a5,0x10
    80003de6:	8fd9                	or	a5,a5,a4
    80003de8:	1782                	slli	a5,a5,0x20
    80003dea:	9381                	srli	a5,a5,0x20
    80003dec:	97b6                	add	a5,a5,a3
    80003dee:	fcb61be3          	bne	a2,a1,80003dc4 <hart_prop+0x13e>
    80003df2:	0007851b          	sext.w	a0,a5
    80003df6:	00a92423          	sw	a0,8(s2)
    80003dfa:	bdd5                	j	80003cee <hart_prop+0x68>
    80003dfc:	00005517          	auipc	a0,0x5
    80003e00:	33c50513          	addi	a0,a0,828 # 80009138 <softfloat_countLeadingZeros8+0x1d0>
    80003e04:	00006697          	auipc	a3,0x6
    80003e08:	a7c68693          	addi	a3,a3,-1412 # 80009880 <softfloat_countLeadingZeros8+0x918>
    80003e0c:	0ea00613          	li	a2,234
    80003e10:	00006597          	auipc	a1,0x6
    80003e14:	90058593          	addi	a1,a1,-1792 # 80009710 <softfloat_countLeadingZeros8+0x7a8>
    80003e18:	883fe0ef          	jal	ra,8000269a <printm>
    80003e1c:	6541                	lui	a0,0x10
    80003e1e:	157d                	addi	a0,a0,-1
    80003e20:	8edfe0ef          	jal	ra,8000270c <poweroff>
    80003e24:	00005517          	auipc	a0,0x5
    80003e28:	31450513          	addi	a0,a0,788 # 80009138 <softfloat_countLeadingZeros8+0x1d0>
    80003e2c:	00006697          	auipc	a3,0x6
    80003e30:	a2c68693          	addi	a3,a3,-1492 # 80009858 <softfloat_countLeadingZeros8+0x8f0>
    80003e34:	0e700613          	li	a2,231
    80003e38:	bfe1                	j	80003e10 <hart_prop+0x18a>

0000000080003e3a <hart_filter_prop>:
    80003e3a:	1101                	addi	sp,sp,-32
    80003e3c:	e04a                	sd	s2,0(sp)
    80003e3e:	00853903          	ld	s2,8(a0)
    80003e42:	e822                	sd	s0,16(sp)
    80003e44:	e426                	sd	s1,8(sp)
    80003e46:	842e                	mv	s0,a1
    80003e48:	84aa                	mv	s1,a0
    80003e4a:	00006597          	auipc	a1,0x6
    80003e4e:	9e658593          	addi	a1,a1,-1562 # 80009830 <softfloat_countLeadingZeros8+0x8c8>
    80003e52:	854a                	mv	a0,s2
    80003e54:	ec06                	sd	ra,24(sp)
    80003e56:	3cc040ef          	jal	ra,80008222 <strcmp>
    80003e5a:	e10d                	bnez	a0,80003e7c <hart_filter_prop+0x42>
    80003e5c:	6888                	ld	a0,16(s1)
    80003e5e:	00006597          	auipc	a1,0x6
    80003e62:	9f258593          	addi	a1,a1,-1550 # 80009850 <softfloat_countLeadingZeros8+0x8e8>
    80003e66:	3bc040ef          	jal	ra,80008222 <strcmp>
    80003e6a:	e909                	bnez	a0,80003e7c <hart_filter_prop+0x42>
    80003e6c:	4785                	li	a5,1
    80003e6e:	c01c                	sw	a5,0(s0)
    80003e70:	60e2                	ld	ra,24(sp)
    80003e72:	6442                	ld	s0,16(sp)
    80003e74:	64a2                	ld	s1,8(sp)
    80003e76:	6902                	ld	s2,0(sp)
    80003e78:	6105                	addi	sp,sp,32
    80003e7a:	8082                	ret
    80003e7c:	00006597          	auipc	a1,0x6
    80003e80:	85c58593          	addi	a1,a1,-1956 # 800096d8 <softfloat_countLeadingZeros8+0x770>
    80003e84:	854a                	mv	a0,s2
    80003e86:	39c040ef          	jal	ra,80008222 <strcmp>
    80003e8a:	e53d                	bnez	a0,80003ef8 <hart_filter_prop+0xbe>
    80003e8c:	609c                	ld	a5,0(s1)
    80003e8e:	6894                	ld	a3,16(s1)
    80003e90:	639c                	ld	a5,0(a5)
    80003e92:	4b9c                	lw	a5,16(a5)
    80003e94:	04f05b63          	blez	a5,80003eea <hart_filter_prop+0xb0>
    80003e98:	fff7861b          	addiw	a2,a5,-1
    80003e9c:	1602                	slli	a2,a2,0x20
    80003e9e:	9201                	srli	a2,a2,0x20
    80003ea0:	0605                	addi	a2,a2,1
    80003ea2:	060a                	slli	a2,a2,0x2
    80003ea4:	ff010837          	lui	a6,0xff010
    80003ea8:	00ff05b7          	lui	a1,0xff0
    80003eac:	9636                	add	a2,a2,a3
    80003eae:	4781                	li	a5,0
    80003eb0:	f0080813          	addi	a6,a6,-256 # ffffffffff00ff00 <_end+0xffffffff7eff9f00>
    80003eb4:	0ff58593          	addi	a1,a1,255 # ff00ff <_ftext-0x7f00ff01>
    80003eb8:	0691                	addi	a3,a3,4
    80003eba:	ffc6a703          	lw	a4,-4(a3)
    80003ebe:	02079513          	slli	a0,a5,0x20
    80003ec2:	0087179b          	slliw	a5,a4,0x8
    80003ec6:	0087571b          	srliw	a4,a4,0x8
    80003eca:	8f6d                	and	a4,a4,a1
    80003ecc:	0107f7b3          	and	a5,a5,a6
    80003ed0:	8fd9                	or	a5,a5,a4
    80003ed2:	0107971b          	slliw	a4,a5,0x10
    80003ed6:	0107d79b          	srliw	a5,a5,0x10
    80003eda:	8fd9                	or	a5,a5,a4
    80003edc:	1782                	slli	a5,a5,0x20
    80003ede:	9381                	srli	a5,a5,0x20
    80003ee0:	97aa                	add	a5,a5,a0
    80003ee2:	fcc69be3          	bne	a3,a2,80003eb8 <hart_filter_prop+0x7e>
    80003ee6:	0007851b          	sext.w	a0,a5
    80003eea:	c048                	sw	a0,4(s0)
    80003eec:	60e2                	ld	ra,24(sp)
    80003eee:	6442                	ld	s0,16(sp)
    80003ef0:	64a2                	ld	s1,8(sp)
    80003ef2:	6902                	ld	s2,0(sp)
    80003ef4:	6105                	addi	sp,sp,32
    80003ef6:	8082                	ret
    80003ef8:	00006597          	auipc	a1,0x6
    80003efc:	a4058593          	addi	a1,a1,-1472 # 80009938 <softfloat_countLeadingZeros8+0x9d0>
    80003f00:	854a                	mv	a0,s2
    80003f02:	320040ef          	jal	ra,80008222 <strcmp>
    80003f06:	cd01                	beqz	a0,80003f1e <hart_filter_prop+0xe4>
    80003f08:	00006597          	auipc	a1,0x6
    80003f0c:	9b058593          	addi	a1,a1,-1616 # 800098b8 <softfloat_countLeadingZeros8+0x950>
    80003f10:	854a                	mv	a0,s2
    80003f12:	310040ef          	jal	ra,80008222 <strcmp>
    80003f16:	f979                	bnez	a0,80003eec <hart_filter_prop+0xb2>
    80003f18:	689c                	ld	a5,16(s1)
    80003f1a:	e81c                	sd	a5,16(s0)
    80003f1c:	bfc1                	j	80003eec <hart_filter_prop+0xb2>
    80003f1e:	689c                	ld	a5,16(s1)
    80003f20:	60e2                	ld	ra,24(sp)
    80003f22:	64a2                	ld	s1,8(sp)
    80003f24:	e41c                	sd	a5,8(s0)
    80003f26:	6442                	ld	s0,16(sp)
    80003f28:	6902                	ld	s2,0(sp)
    80003f2a:	6105                	addi	sp,sp,32
    80003f2c:	8082                	ret

0000000080003f2e <fdt_scan_helper>:
    80003f2e:	4785                	li	a5,1
    80003f30:	7131                	addi	sp,sp,-192
    80003f32:	1782                	slli	a5,a5,0x20
    80003f34:	f922                	sd	s0,176(sp)
    80003f36:	f526                	sd	s1,168(sp)
    80003f38:	0789                	addi	a5,a5,2
    80003f3a:	00ff04b7          	lui	s1,0xff0
    80003f3e:	ff010437          	lui	s0,0xff010
    80003f42:	f14a                	sd	s2,160(sp)
    80003f44:	ed4e                	sd	s3,152(sp)
    80003f46:	e952                	sd	s4,144(sp)
    80003f48:	e556                	sd	s5,136(sp)
    80003f4a:	e15a                	sd	s6,128(sp)
    80003f4c:	fcde                	sd	s7,120(sp)
    80003f4e:	f8e2                	sd	s8,112(sp)
    80003f50:	f4e6                	sd	s9,104(sp)
    80003f52:	f0ea                	sd	s10,96(sp)
    80003f54:	fd06                	sd	ra,184(sp)
    80003f56:	ecee                	sd	s11,88(sp)
    80003f58:	89b2                	mv	s3,a2
    80003f5a:	8c2a                	mv	s8,a0
    80003f5c:	8aae                	mv	s5,a1
    80003f5e:	8936                	mv	s2,a3
    80003f60:	ec32                	sd	a2,24(sp)
    80003f62:	f43e                	sd	a5,40(sp)
    80003f64:	f832                	sd	a2,48(sp)
    80003f66:	4d01                	li	s10,0
    80003f68:	0ff48493          	addi	s1,s1,255 # ff00ff <_ftext-0x7f00ff01>
    80003f6c:	f0040413          	addi	s0,s0,-256 # ffffffffff00ff00 <_end+0xffffffff7eff9f00>
    80003f70:	4c89                	li	s9,2
    80003f72:	4a0d                	li	s4,3
    80003f74:	00006b97          	auipc	s7,0x6
    80003f78:	95cb8b93          	addi	s7,s7,-1700 # 800098d0 <softfloat_countLeadingZeros8+0x968>
    80003f7c:	00006b17          	auipc	s6,0x6
    80003f80:	964b0b13          	addi	s6,s6,-1692 # 800098e0 <softfloat_countLeadingZeros8+0x978>
    80003f84:	000c2783          	lw	a5,0(s8)
    80003f88:	0087d71b          	srliw	a4,a5,0x8
    80003f8c:	0087979b          	slliw	a5,a5,0x8
    80003f90:	8fe1                	and	a5,a5,s0
    80003f92:	8f65                	and	a4,a4,s1
    80003f94:	8f5d                	or	a4,a4,a5
    80003f96:	0107179b          	slliw	a5,a4,0x10
    80003f9a:	0107571b          	srliw	a4,a4,0x10
    80003f9e:	8fd9                	or	a5,a5,a4
    80003fa0:	2781                	sext.w	a5,a5
    80003fa2:	0b978863          	beq	a5,s9,80004052 <fdt_scan_helper+0x124>
    80003fa6:	00fcf963          	bgeu	s9,a5,80003fb8 <fdt_scan_helper+0x8a>
    80003faa:	0d478163          	beq	a5,s4,8000406c <fdt_scan_helper+0x13e>
    80003fae:	4711                	li	a4,4
    80003fb0:	06e79663          	bne	a5,a4,8000401c <fdt_scan_helper+0xee>
    80003fb4:	0c11                	addi	s8,s8,4
    80003fb6:	b7f9                	j	80003f84 <fdt_scan_helper+0x56>
    80003fb8:	4705                	li	a4,1
    80003fba:	06e79163          	bne	a5,a4,8000401c <fdt_scan_helper+0xee>
    80003fbe:	040d0563          	beqz	s10,80004008 <fdt_scan_helper+0xda>
    80003fc2:	00093783          	ld	a5,0(s2)
    80003fc6:	004c0513          	addi	a0,s8,4
    80003fca:	f02a                	sd	a0,32(sp)
    80003fcc:	c791                	beqz	a5,80003fd8 <fdt_scan_helper+0xaa>
    80003fce:	02093583          	ld	a1,32(s2)
    80003fd2:	0828                	addi	a0,sp,24
    80003fd4:	9782                	jalr	a5
    80003fd6:	7502                	ld	a0,32(sp)
    80003fd8:	230040ef          	jal	ra,80008208 <strlen>
    80003fdc:	9971                	andi	a0,a0,-4
    80003fde:	0521                	addi	a0,a0,8
    80003fe0:	86ca                	mv	a3,s2
    80003fe2:	0830                	addi	a2,sp,24
    80003fe4:	85d6                	mv	a1,s5
    80003fe6:	9562                	add	a0,a0,s8
    80003fe8:	f47ff0ef          	jal	ra,80003f2e <fdt_scan_helper>
    80003fec:	01893783          	ld	a5,24(s2)
    80003ff0:	8d2a                	mv	s10,a0
    80003ff2:	cb81                	beqz	a5,80004002 <fdt_scan_helper+0xd4>
    80003ff4:	02093583          	ld	a1,32(s2)
    80003ff8:	0828                	addi	a0,sp,24
    80003ffa:	9782                	jalr	a5
    80003ffc:	57fd                	li	a5,-1
    80003ffe:	14f50163          	beq	a0,a5,80004140 <fdt_scan_helper+0x212>
    80004002:	8c6a                	mv	s8,s10
    80004004:	4d05                	li	s10,1
    80004006:	bfbd                	j	80003f84 <fdt_scan_helper+0x56>
    80004008:	fa098de3          	beqz	s3,80003fc2 <fdt_scan_helper+0x94>
    8000400c:	01093783          	ld	a5,16(s2)
    80004010:	dbcd                	beqz	a5,80003fc2 <fdt_scan_helper+0x94>
    80004012:	02093583          	ld	a1,32(s2)
    80004016:	854e                	mv	a0,s3
    80004018:	9782                	jalr	a5
    8000401a:	b765                	j	80003fc2 <fdt_scan_helper+0x94>
    8000401c:	000d1b63          	bnez	s10,80004032 <fdt_scan_helper+0x104>
    80004020:	00098963          	beqz	s3,80004032 <fdt_scan_helper+0x104>
    80004024:	01093783          	ld	a5,16(s2)
    80004028:	c789                	beqz	a5,80004032 <fdt_scan_helper+0x104>
    8000402a:	02093583          	ld	a1,32(s2)
    8000402e:	854e                	mv	a0,s3
    80004030:	9782                	jalr	a5
    80004032:	70ea                	ld	ra,184(sp)
    80004034:	744a                	ld	s0,176(sp)
    80004036:	8562                	mv	a0,s8
    80004038:	74aa                	ld	s1,168(sp)
    8000403a:	790a                	ld	s2,160(sp)
    8000403c:	69ea                	ld	s3,152(sp)
    8000403e:	6a4a                	ld	s4,144(sp)
    80004040:	6aaa                	ld	s5,136(sp)
    80004042:	6b0a                	ld	s6,128(sp)
    80004044:	7be6                	ld	s7,120(sp)
    80004046:	7c46                	ld	s8,112(sp)
    80004048:	7ca6                	ld	s9,104(sp)
    8000404a:	7d06                	ld	s10,96(sp)
    8000404c:	6de6                	ld	s11,88(sp)
    8000404e:	6129                	addi	sp,sp,192
    80004050:	8082                	ret
    80004052:	000d1b63          	bnez	s10,80004068 <fdt_scan_helper+0x13a>
    80004056:	00098963          	beqz	s3,80004068 <fdt_scan_helper+0x13a>
    8000405a:	01093783          	ld	a5,16(s2)
    8000405e:	c789                	beqz	a5,80004068 <fdt_scan_helper+0x13a>
    80004060:	02093583          	ld	a1,32(s2)
    80004064:	854e                	mv	a0,s3
    80004066:	9782                	jalr	a5
    80004068:	0c11                	addi	s8,s8,4
    8000406a:	b7e1                	j	80004032 <fdt_scan_helper+0x104>
    8000406c:	0e0d1e63          	bnez	s10,80004168 <fdt_scan_helper+0x23a>
    80004070:	008c2703          	lw	a4,8(s8)
    80004074:	004c2603          	lw	a2,4(s8)
    80004078:	00cc0593          	addi	a1,s8,12
    8000407c:	0087179b          	slliw	a5,a4,0x8
    80004080:	0087571b          	srliw	a4,a4,0x8
    80004084:	8f65                	and	a4,a4,s1
    80004086:	8fe1                	and	a5,a5,s0
    80004088:	0086169b          	slliw	a3,a2,0x8
    8000408c:	8fd9                	or	a5,a5,a4
    8000408e:	0086561b          	srliw	a2,a2,0x8
    80004092:	0107971b          	slliw	a4,a5,0x10
    80004096:	8ee1                	and	a3,a3,s0
    80004098:	8e65                	and	a2,a2,s1
    8000409a:	0107d79b          	srliw	a5,a5,0x10
    8000409e:	8ed1                	or	a3,a3,a2
    800040a0:	8f5d                	or	a4,a4,a5
    800040a2:	01069d9b          	slliw	s11,a3,0x10
    800040a6:	1702                	slli	a4,a4,0x20
    800040a8:	0106d69b          	srliw	a3,a3,0x10
    800040ac:	9301                	srli	a4,a4,0x20
    800040ae:	00dde6b3          	or	a3,s11,a3
    800040b2:	9756                	add	a4,a4,s5
    800040b4:	00068d9b          	sext.w	s11,a3
    800040b8:	fc3a                	sd	a4,56(sp)
    800040ba:	c4ee                	sw	s11,72(sp)
    800040bc:	e0ae                	sd	a1,64(sp)
    800040be:	04098e63          	beqz	s3,8000411a <fdt_scan_helper+0x1ec>
    800040c2:	853a                	mv	a0,a4
    800040c4:	85de                	mv	a1,s7
    800040c6:	e43a                	sd	a4,8(sp)
    800040c8:	15a040ef          	jal	ra,80008222 <strcmp>
    800040cc:	6722                	ld	a4,8(sp)
    800040ce:	e10d                	bnez	a0,800040f0 <fdt_scan_helper+0x1c2>
    800040d0:	00cc2683          	lw	a3,12(s8)
    800040d4:	0086979b          	slliw	a5,a3,0x8
    800040d8:	0086d69b          	srliw	a3,a3,0x8
    800040dc:	8ee5                	and	a3,a3,s1
    800040de:	8fe1                	and	a5,a5,s0
    800040e0:	8fd5                	or	a5,a5,a3
    800040e2:	0107969b          	slliw	a3,a5,0x10
    800040e6:	0107d79b          	srliw	a5,a5,0x10
    800040ea:	8fd5                	or	a5,a5,a3
    800040ec:	00f9a823          	sw	a5,16(s3)
    800040f0:	85da                	mv	a1,s6
    800040f2:	853a                	mv	a0,a4
    800040f4:	12e040ef          	jal	ra,80008222 <strcmp>
    800040f8:	e10d                	bnez	a0,8000411a <fdt_scan_helper+0x1ec>
    800040fa:	00cc2703          	lw	a4,12(s8)
    800040fe:	0087179b          	slliw	a5,a4,0x8
    80004102:	0087571b          	srliw	a4,a4,0x8
    80004106:	8f65                	and	a4,a4,s1
    80004108:	8fe1                	and	a5,a5,s0
    8000410a:	8fd9                	or	a5,a5,a4
    8000410c:	0107971b          	slliw	a4,a5,0x10
    80004110:	0107d79b          	srliw	a5,a5,0x10
    80004114:	8fd9                	or	a5,a5,a4
    80004116:	00f9aa23          	sw	a5,20(s3)
    8000411a:	2d8d                	addiw	s11,s11,3
    8000411c:	41fdd79b          	sraiw	a5,s11,0x1f
    80004120:	01e7d79b          	srliw	a5,a5,0x1e
    80004124:	01b787bb          	addw	a5,a5,s11
    80004128:	4027d79b          	sraiw	a5,a5,0x2
    8000412c:	00893703          	ld	a4,8(s2)
    80004130:	02093583          	ld	a1,32(s2)
    80004134:	278d                	addiw	a5,a5,3
    80004136:	078a                	slli	a5,a5,0x2
    80004138:	1808                	addi	a0,sp,48
    8000413a:	9c3e                	add	s8,s8,a5
    8000413c:	9702                	jalr	a4
    8000413e:	b599                	j	80003f84 <fdt_scan_helper+0x56>
    80004140:	03ac0263          	beq	s8,s10,80004164 <fdt_scan_helper+0x236>
    80004144:	87e2                	mv	a5,s8
    80004146:	04000737          	lui	a4,0x4000
    8000414a:	0791                	addi	a5,a5,4
    8000414c:	fee7ae23          	sw	a4,-4(a5)
    80004150:	fefd1de3          	bne	s10,a5,8000414a <fdt_scan_helper+0x21c>
    80004154:	418d07b3          	sub	a5,s10,s8
    80004158:	17f1                	addi	a5,a5,-4
    8000415a:	9bf1                	andi	a5,a5,-4
    8000415c:	0791                	addi	a5,a5,4
    8000415e:	9c3e                	add	s8,s8,a5
    80004160:	4d05                	li	s10,1
    80004162:	b50d                	j	80003f84 <fdt_scan_helper+0x56>
    80004164:	4d05                	li	s10,1
    80004166:	bd39                	j	80003f84 <fdt_scan_helper+0x56>
    80004168:	00005517          	auipc	a0,0x5
    8000416c:	fd050513          	addi	a0,a0,-48 # 80009138 <softfloat_countLeadingZeros8+0x1d0>
    80004170:	00005697          	auipc	a3,0x5
    80004174:	75868693          	addi	a3,a3,1880 # 800098c8 <softfloat_countLeadingZeros8+0x960>
    80004178:	03500613          	li	a2,53
    8000417c:	00005597          	auipc	a1,0x5
    80004180:	59458593          	addi	a1,a1,1428 # 80009710 <softfloat_countLeadingZeros8+0x7a8>
    80004184:	d16fe0ef          	jal	ra,8000269a <printm>
    80004188:	6541                	lui	a0,0x10
    8000418a:	157d                	addi	a0,a0,-1
    8000418c:	d80fe0ef          	jal	ra,8000270c <poweroff>

0000000080004190 <mem_open>:
    80004190:	852e                	mv	a0,a1
    80004192:	4661                	li	a2,24
    80004194:	4581                	li	a1,0
    80004196:	02c0406f          	j	800081c2 <memset>

000000008000419a <hart_done>:
    8000419a:	619c                	ld	a5,0(a1)
    8000419c:	1141                	addi	sp,sp,-16
    8000419e:	e406                	sd	ra,8(sp)
    800041a0:	00a78863          	beq	a5,a0,800041b0 <hart_done+0x16>
    800041a4:	6998                	ld	a4,16(a1)
    800041a6:	02a70c63          	beq	a4,a0,800041de <hart_done+0x44>
    800041aa:	60a2                	ld	ra,8(sp)
    800041ac:	0141                	addi	sp,sp,16
    800041ae:	8082                	ret
    800041b0:	4598                	lw	a4,8(a1)
    800041b2:	fe0759e3          	bgez	a4,800041a4 <hart_done+0xa>
    800041b6:	00005517          	auipc	a0,0x5
    800041ba:	f8250513          	addi	a0,a0,-126 # 80009138 <softfloat_countLeadingZeros8+0x1d0>
    800041be:	00005697          	auipc	a3,0x5
    800041c2:	73268693          	addi	a3,a3,1842 # 800098f0 <softfloat_countLeadingZeros8+0x988>
    800041c6:	0fc00613          	li	a2,252
    800041ca:	00005597          	auipc	a1,0x5
    800041ce:	54658593          	addi	a1,a1,1350 # 80009710 <softfloat_countLeadingZeros8+0x7a8>
    800041d2:	cc8fe0ef          	jal	ra,8000269a <printm>
    800041d6:	6541                	lui	a0,0x10
    800041d8:	157d                	addi	a0,a0,-1
    800041da:	d32fe0ef          	jal	ra,8000270c <poweroff>
    800041de:	d7f1                	beqz	a5,800041aa <hart_done+0x10>
    800041e0:	4dd8                	lw	a4,28(a1)
    800041e2:	c331                	beqz	a4,80004226 <hart_done+0x8c>
    800041e4:	4d94                	lw	a3,24(a1)
    800041e6:	4785                	li	a5,1
    800041e8:	04f69a63          	bne	a3,a5,8000423c <hart_done+0xa2>
    800041ec:	459c                	lw	a5,8(a1)
    800041ee:	469d                	li	a3,7
    800041f0:	faf6cde3          	blt	a3,a5,800041aa <hart_done+0x10>
    800041f4:	078a                	slli	a5,a5,0x2
    800041f6:	00011697          	auipc	a3,0x11
    800041fa:	e0a68693          	addi	a3,a3,-502 # 80015000 <hart_phandles>
    800041fe:	97b6                	add	a5,a5,a3
    80004200:	c398                	sw	a4,0(a5)
    80004202:	4588                	lw	a0,8(a1)
    80004204:	00011797          	auipc	a5,0x11
    80004208:	f3478793          	addi	a5,a5,-204 # 80015138 <hart_mask>
    8000420c:	6398                	ld	a4,0(a5)
    8000420e:	4785                	li	a5,1
    80004210:	00a797bb          	sllw	a5,a5,a0
    80004214:	60a2                	ld	ra,8(sp)
    80004216:	8fd9                	or	a5,a5,a4
    80004218:	00011717          	auipc	a4,0x11
    8000421c:	f2f73023          	sd	a5,-224(a4) # 80015138 <hart_mask>
    80004220:	0141                	addi	sp,sp,16
    80004222:	ff6fe06f          	j	80002a18 <hls_init>
    80004226:	00005517          	auipc	a0,0x5
    8000422a:	f1250513          	addi	a0,a0,-238 # 80009138 <softfloat_countLeadingZeros8+0x1d0>
    8000422e:	00005697          	auipc	a3,0x5
    80004232:	6d268693          	addi	a3,a3,1746 # 80009900 <softfloat_countLeadingZeros8+0x998>
    80004236:	10000613          	li	a2,256
    8000423a:	bf41                	j	800041ca <hart_done+0x30>
    8000423c:	00005517          	auipc	a0,0x5
    80004240:	efc50513          	addi	a0,a0,-260 # 80009138 <softfloat_countLeadingZeros8+0x1d0>
    80004244:	00005697          	auipc	a3,0x5
    80004248:	6d468693          	addi	a3,a3,1748 # 80009918 <softfloat_countLeadingZeros8+0x9b0>
    8000424c:	10100613          	li	a2,257
    80004250:	bfad                	j	800041ca <hart_done+0x30>

0000000080004252 <hart_filter_done>:
    80004252:	419c                	lw	a5,0(a1)
    80004254:	c7e1                	beqz	a5,8000431c <hart_filter_done+0xca>
    80004256:	1101                	addi	sp,sp,-32
    80004258:	e426                	sd	s1,8(sp)
    8000425a:	6584                	ld	s1,8(a1)
    8000425c:	e822                	sd	s0,16(sp)
    8000425e:	ec06                	sd	ra,24(sp)
    80004260:	e04a                	sd	s2,0(sp)
    80004262:	842e                	mv	s0,a1
    80004264:	cccd                	beqz	s1,8000431e <hart_filter_done+0xcc>
    80004266:	41dc                	lw	a5,4(a1)
    80004268:	0c07cf63          	bltz	a5,80004346 <hart_filter_done+0xf4>
    8000426c:	0105b903          	ld	s2,16(a1)
    80004270:	04090363          	beqz	s2,800042b6 <hart_filter_done+0x64>
    80004274:	00005597          	auipc	a1,0x5
    80004278:	6e458593          	addi	a1,a1,1764 # 80009958 <softfloat_countLeadingZeros8+0x9f0>
    8000427c:	8526                	mv	a0,s1
    8000427e:	7a5030ef          	jal	ra,80008222 <strcmp>
    80004282:	e915                	bnez	a0,800042b6 <hart_filter_done+0x64>
    80004284:	00005597          	auipc	a1,0x5
    80004288:	6dc58593          	addi	a1,a1,1756 # 80009960 <softfloat_countLeadingZeros8+0x9f8>
    8000428c:	854a                	mv	a0,s2
    8000428e:	795030ef          	jal	ra,80008222 <strcmp>
    80004292:	cd3d                	beqz	a0,80004310 <hart_filter_done+0xbe>
    80004294:	00005597          	auipc	a1,0x5
    80004298:	6dc58593          	addi	a1,a1,1756 # 80009970 <softfloat_countLeadingZeros8+0xa08>
    8000429c:	854a                	mv	a0,s2
    8000429e:	785030ef          	jal	ra,80008222 <strcmp>
    800042a2:	c53d                	beqz	a0,80004310 <hart_filter_done+0xbe>
    800042a4:	85a6                	mv	a1,s1
    800042a6:	864a                	mv	a2,s2
    800042a8:	00005517          	auipc	a0,0x5
    800042ac:	6d850513          	addi	a0,a0,1752 # 80009980 <softfloat_countLeadingZeros8+0xa18>
    800042b0:	beafe0ef          	jal	ra,8000269a <printm>
    800042b4:	6404                	ld	s1,8(s0)
    800042b6:	00005797          	auipc	a5,0x5
    800042ba:	71278793          	addi	a5,a5,1810 # 800099c8 <softfloat_countLeadingZeros8+0xa60>
    800042be:	0037c603          	lbu	a2,3(a5)
    800042c2:	0047c683          	lbu	a3,4(a5)
    800042c6:	0057c703          	lbu	a4,5(a5)
    800042ca:	0007c803          	lbu	a6,0(a5)
    800042ce:	0017c503          	lbu	a0,1(a5)
    800042d2:	0027c583          	lbu	a1,2(a5)
    800042d6:	0067c783          	lbu	a5,6(a5)
    800042da:	00e482a3          	sb	a4,5(s1)
    800042de:	01048023          	sb	a6,0(s1)
    800042e2:	00a480a3          	sb	a0,1(s1)
    800042e6:	00b48123          	sb	a1,2(s1)
    800042ea:	00c481a3          	sb	a2,3(s1)
    800042ee:	00d48223          	sb	a3,4(s1)
    800042f2:	00f48323          	sb	a5,6(s1)
    800042f6:	641c                	ld	a5,8(s0)
    800042f8:	6c14                	ld	a3,24(s0)
    800042fa:	07000737          	lui	a4,0x7000
    800042fe:	fee7ac23          	sw	a4,-8(a5)
    80004302:	4050                	lw	a2,4(s0)
    80004304:	629c                	ld	a5,0(a3)
    80004306:	4705                	li	a4,1
    80004308:	00c7173b          	sllw	a4,a4,a2
    8000430c:	8fd9                	or	a5,a5,a4
    8000430e:	e29c                	sd	a5,0(a3)
    80004310:	60e2                	ld	ra,24(sp)
    80004312:	6442                	ld	s0,16(sp)
    80004314:	64a2                	ld	s1,8(sp)
    80004316:	6902                	ld	s2,0(sp)
    80004318:	6105                	addi	sp,sp,32
    8000431a:	8082                	ret
    8000431c:	8082                	ret
    8000431e:	00005517          	auipc	a0,0x5
    80004322:	e1a50513          	addi	a0,a0,-486 # 80009138 <softfloat_countLeadingZeros8+0x1d0>
    80004326:	00005697          	auipc	a3,0x5
    8000432a:	60a68693          	addi	a3,a3,1546 # 80009930 <softfloat_countLeadingZeros8+0x9c8>
    8000432e:	29500613          	li	a2,661
    80004332:	00005597          	auipc	a1,0x5
    80004336:	3de58593          	addi	a1,a1,990 # 80009710 <softfloat_countLeadingZeros8+0x7a8>
    8000433a:	b60fe0ef          	jal	ra,8000269a <printm>
    8000433e:	6541                	lui	a0,0x10
    80004340:	157d                	addi	a0,a0,-1
    80004342:	bcafe0ef          	jal	ra,8000270c <poweroff>
    80004346:	00005517          	auipc	a0,0x5
    8000434a:	df250513          	addi	a0,a0,-526 # 80009138 <softfloat_countLeadingZeros8+0x1d0>
    8000434e:	00005697          	auipc	a3,0x5
    80004352:	5f268693          	addi	a3,a3,1522 # 80009940 <softfloat_countLeadingZeros8+0x9d8>
    80004356:	29600613          	li	a2,662
    8000435a:	00005597          	auipc	a1,0x5
    8000435e:	3b658593          	addi	a1,a1,950 # 80009710 <softfloat_countLeadingZeros8+0x7a8>
    80004362:	b38fe0ef          	jal	ra,8000269a <printm>
    80004366:	6541                	lui	a0,0x10
    80004368:	157d                	addi	a0,a0,-1
    8000436a:	ba2fe0ef          	jal	ra,8000270c <poweroff>

000000008000436e <chosen_prop>:
    8000436e:	619c                	ld	a5,0(a1)
    80004370:	10078363          	beqz	a5,80004476 <chosen_prop+0x108>
    80004374:	1101                	addi	sp,sp,-32
    80004376:	e04a                	sd	s2,0(sp)
    80004378:	00853903          	ld	s2,8(a0) # 10008 <_ftext-0x7ffefff8>
    8000437c:	e822                	sd	s0,16(sp)
    8000437e:	e426                	sd	s1,8(sp)
    80004380:	842e                	mv	s0,a1
    80004382:	84aa                	mv	s1,a0
    80004384:	00005597          	auipc	a1,0x5
    80004388:	64c58593          	addi	a1,a1,1612 # 800099d0 <softfloat_countLeadingZeros8+0xa68>
    8000438c:	854a                	mv	a0,s2
    8000438e:	ec06                	sd	ra,24(sp)
    80004390:	693030ef          	jal	ra,80008222 <strcmp>
    80004394:	e52d                	bnez	a0,800043fe <chosen_prop+0x90>
    80004396:	609c                	ld	a5,0(s1)
    80004398:	6890                	ld	a2,16(s1)
    8000439a:	639c                	ld	a5,0(a5)
    8000439c:	4b9c                	lw	a5,16(a5)
    8000439e:	0ef05063          	blez	a5,8000447e <chosen_prop+0x110>
    800043a2:	fff7859b          	addiw	a1,a5,-1
    800043a6:	1582                	slli	a1,a1,0x20
    800043a8:	9181                	srli	a1,a1,0x20
    800043aa:	0585                	addi	a1,a1,1
    800043ac:	058a                	slli	a1,a1,0x2
    800043ae:	ff010837          	lui	a6,0xff010
    800043b2:	00ff0537          	lui	a0,0xff0
    800043b6:	95b2                	add	a1,a1,a2
    800043b8:	4781                	li	a5,0
    800043ba:	f0080813          	addi	a6,a6,-256 # ffffffffff00ff00 <_end+0xffffffff7eff9f00>
    800043be:	0ff50513          	addi	a0,a0,255 # ff00ff <_ftext-0x7f00ff01>
    800043c2:	0611                	addi	a2,a2,4
    800043c4:	ffc62703          	lw	a4,-4(a2)
    800043c8:	02079693          	slli	a3,a5,0x20
    800043cc:	0087179b          	slliw	a5,a4,0x8
    800043d0:	0087571b          	srliw	a4,a4,0x8
    800043d4:	8f69                	and	a4,a4,a0
    800043d6:	0107f7b3          	and	a5,a5,a6
    800043da:	8fd9                	or	a5,a5,a4
    800043dc:	0107971b          	slliw	a4,a5,0x10
    800043e0:	0107d79b          	srliw	a5,a5,0x10
    800043e4:	8fd9                	or	a5,a5,a4
    800043e6:	1782                	slli	a5,a5,0x20
    800043e8:	9381                	srli	a5,a5,0x20
    800043ea:	97b6                	add	a5,a5,a3
    800043ec:	fcb61be3          	bne	a2,a1,800043c2 <chosen_prop+0x54>
    800043f0:	e41c                	sd	a5,8(s0)
    800043f2:	60e2                	ld	ra,24(sp)
    800043f4:	6442                	ld	s0,16(sp)
    800043f6:	64a2                	ld	s1,8(sp)
    800043f8:	6902                	ld	s2,0(sp)
    800043fa:	6105                	addi	sp,sp,32
    800043fc:	8082                	ret
    800043fe:	00005597          	auipc	a1,0x5
    80004402:	5ea58593          	addi	a1,a1,1514 # 800099e8 <softfloat_countLeadingZeros8+0xa80>
    80004406:	854a                	mv	a0,s2
    80004408:	61b030ef          	jal	ra,80008222 <strcmp>
    8000440c:	f17d                	bnez	a0,800043f2 <chosen_prop+0x84>
    8000440e:	609c                	ld	a5,0(s1)
    80004410:	6890                	ld	a2,16(s1)
    80004412:	639c                	ld	a5,0(a5)
    80004414:	4b9c                	lw	a5,16(a5)
    80004416:	06f05163          	blez	a5,80004478 <chosen_prop+0x10a>
    8000441a:	fff7859b          	addiw	a1,a5,-1
    8000441e:	1582                	slli	a1,a1,0x20
    80004420:	9181                	srli	a1,a1,0x20
    80004422:	0585                	addi	a1,a1,1
    80004424:	058a                	slli	a1,a1,0x2
    80004426:	ff010837          	lui	a6,0xff010
    8000442a:	00ff0537          	lui	a0,0xff0
    8000442e:	95b2                	add	a1,a1,a2
    80004430:	4781                	li	a5,0
    80004432:	f0080813          	addi	a6,a6,-256 # ffffffffff00ff00 <_end+0xffffffff7eff9f00>
    80004436:	0ff50513          	addi	a0,a0,255 # ff00ff <_ftext-0x7f00ff01>
    8000443a:	0611                	addi	a2,a2,4
    8000443c:	ffc62703          	lw	a4,-4(a2)
    80004440:	02079693          	slli	a3,a5,0x20
    80004444:	0087179b          	slliw	a5,a4,0x8
    80004448:	0087571b          	srliw	a4,a4,0x8
    8000444c:	8f69                	and	a4,a4,a0
    8000444e:	0107f7b3          	and	a5,a5,a6
    80004452:	8fd9                	or	a5,a5,a4
    80004454:	0107971b          	slliw	a4,a5,0x10
    80004458:	0107d79b          	srliw	a5,a5,0x10
    8000445c:	8fd9                	or	a5,a5,a4
    8000445e:	1782                	slli	a5,a5,0x20
    80004460:	9381                	srli	a5,a5,0x20
    80004462:	97b6                	add	a5,a5,a3
    80004464:	fcb61be3          	bne	a2,a1,8000443a <chosen_prop+0xcc>
    80004468:	e81c                	sd	a5,16(s0)
    8000446a:	60e2                	ld	ra,24(sp)
    8000446c:	6442                	ld	s0,16(sp)
    8000446e:	64a2                	ld	s1,8(sp)
    80004470:	6902                	ld	s2,0(sp)
    80004472:	6105                	addi	sp,sp,32
    80004474:	8082                	ret
    80004476:	8082                	ret
    80004478:	4781                	li	a5,0
    8000447a:	e81c                	sd	a5,16(s0)
    8000447c:	b7fd                	j	8000446a <chosen_prop+0xfc>
    8000447e:	4781                	li	a5,0
    80004480:	bf85                	j	800043f0 <chosen_prop+0x82>

0000000080004482 <fdt_scan>:
    80004482:	4118                	lw	a4,0(a0)
    80004484:	00ff0637          	lui	a2,0xff0
    80004488:	ff010837          	lui	a6,0xff010
    8000448c:	0087579b          	srliw	a5,a4,0x8
    80004490:	0ff60613          	addi	a2,a2,255 # ff00ff <_ftext-0x7f00ff01>
    80004494:	0087171b          	slliw	a4,a4,0x8
    80004498:	f0080813          	addi	a6,a6,-256 # ffffffffff00ff00 <_end+0xffffffff7eff9f00>
    8000449c:	01077733          	and	a4,a4,a6
    800044a0:	8ff1                	and	a5,a5,a2
    800044a2:	8fd9                	or	a5,a5,a4
    800044a4:	0107971b          	slliw	a4,a5,0x10
    800044a8:	0107d79b          	srliw	a5,a5,0x10
    800044ac:	8fd9                	or	a5,a5,a4
    800044ae:	d00e0737          	lui	a4,0xd00e0
    800044b2:	2781                	sext.w	a5,a5
    800044b4:	eed70713          	addi	a4,a4,-275 # ffffffffd00dfeed <_end+0xffffffff500c9eed>
    800044b8:	02e79463          	bne	a5,a4,800044e0 <fdt_scan+0x5e>
    800044bc:	4d18                	lw	a4,24(a0)
    800044be:	46c5                	li	a3,17
    800044c0:	0087179b          	slliw	a5,a4,0x8
    800044c4:	0087571b          	srliw	a4,a4,0x8
    800044c8:	8f71                	and	a4,a4,a2
    800044ca:	0107f7b3          	and	a5,a5,a6
    800044ce:	8fd9                	or	a5,a5,a4
    800044d0:	0107971b          	slliw	a4,a5,0x10
    800044d4:	0107d79b          	srliw	a5,a5,0x10
    800044d8:	8fd9                	or	a5,a5,a4
    800044da:	2781                	sext.w	a5,a5
    800044dc:	00f6f363          	bgeu	a3,a5,800044e2 <fdt_scan+0x60>
    800044e0:	8082                	ret
    800044e2:	455c                	lw	a5,12(a0)
    800044e4:	00852883          	lw	a7,8(a0)
    800044e8:	86ae                	mv	a3,a1
    800044ea:	0087971b          	slliw	a4,a5,0x8
    800044ee:	0087d59b          	srliw	a1,a5,0x8
    800044f2:	0088979b          	slliw	a5,a7,0x8
    800044f6:	0088d89b          	srliw	a7,a7,0x8
    800044fa:	01077733          	and	a4,a4,a6
    800044fe:	8df1                	and	a1,a1,a2
    80004500:	0107f833          	and	a6,a5,a6
    80004504:	00c8f633          	and	a2,a7,a2
    80004508:	00b767b3          	or	a5,a4,a1
    8000450c:	00c86633          	or	a2,a6,a2
    80004510:	0107959b          	slliw	a1,a5,0x10
    80004514:	0106171b          	slliw	a4,a2,0x10
    80004518:	0107d79b          	srliw	a5,a5,0x10
    8000451c:	0106561b          	srliw	a2,a2,0x10
    80004520:	8e59                	or	a2,a2,a4
    80004522:	8fcd                	or	a5,a5,a1
    80004524:	02061713          	slli	a4,a2,0x20
    80004528:	02079593          	slli	a1,a5,0x20
    8000452c:	9181                	srli	a1,a1,0x20
    8000452e:	9301                	srli	a4,a4,0x20
    80004530:	95aa                	add	a1,a1,a0
    80004532:	4601                	li	a2,0
    80004534:	953a                	add	a0,a0,a4
    80004536:	9f9ff06f          	j	80003f2e <fdt_scan_helper>

000000008000453a <fdt_size>:
    8000453a:	4118                	lw	a4,0(a0)
    8000453c:	ff010637          	lui	a2,0xff010
    80004540:	00ff06b7          	lui	a3,0xff0
    80004544:	0087179b          	slliw	a5,a4,0x8
    80004548:	f0060613          	addi	a2,a2,-256 # ffffffffff00ff00 <_end+0xffffffff7eff9f00>
    8000454c:	0087571b          	srliw	a4,a4,0x8
    80004550:	0ff68693          	addi	a3,a3,255 # ff00ff <_ftext-0x7f00ff01>
    80004554:	8f75                	and	a4,a4,a3
    80004556:	8ff1                	and	a5,a5,a2
    80004558:	8fd9                	or	a5,a5,a4
    8000455a:	0107971b          	slliw	a4,a5,0x10
    8000455e:	0107d79b          	srliw	a5,a5,0x10
    80004562:	8fd9                	or	a5,a5,a4
    80004564:	d00e0737          	lui	a4,0xd00e0
    80004568:	2781                	sext.w	a5,a5
    8000456a:	eed70713          	addi	a4,a4,-275 # ffffffffd00dfeed <_end+0xffffffff500c9eed>
    8000456e:	04e79463          	bne	a5,a4,800045b6 <fdt_size+0x7c>
    80004572:	4d0c                	lw	a1,24(a0)
    80004574:	4845                	li	a6,17
    80004576:	4701                	li	a4,0
    80004578:	0085979b          	slliw	a5,a1,0x8
    8000457c:	0085d59b          	srliw	a1,a1,0x8
    80004580:	8df5                	and	a1,a1,a3
    80004582:	8ff1                	and	a5,a5,a2
    80004584:	8fcd                	or	a5,a5,a1
    80004586:	0107959b          	slliw	a1,a5,0x10
    8000458a:	0107d79b          	srliw	a5,a5,0x10
    8000458e:	8fcd                	or	a5,a5,a1
    80004590:	2781                	sext.w	a5,a5
    80004592:	02f86063          	bltu	a6,a5,800045b2 <fdt_size+0x78>
    80004596:	415c                	lw	a5,4(a0)
    80004598:	0087971b          	slliw	a4,a5,0x8
    8000459c:	0087d79b          	srliw	a5,a5,0x8
    800045a0:	8e79                	and	a2,a2,a4
    800045a2:	8efd                	and	a3,a3,a5
    800045a4:	8ed1                	or	a3,a3,a2
    800045a6:	0106971b          	slliw	a4,a3,0x10
    800045aa:	0106d69b          	srliw	a3,a3,0x10
    800045ae:	8f55                	or	a4,a4,a3
    800045b0:	2701                	sext.w	a4,a4
    800045b2:	853a                	mv	a0,a4
    800045b4:	8082                	ret
    800045b6:	4701                	li	a4,0
    800045b8:	853a                	mv	a0,a4
    800045ba:	8082                	ret

00000000800045bc <fdt_get_address>:
    800045bc:	491c                	lw	a5,16(a0)
    800045be:	00063023          	sd	zero,0(a2)
    800045c2:	06f05363          	blez	a5,80004628 <fdt_get_address+0x6c>
    800045c6:	fff7831b          	addiw	t1,a5,-1
    800045ca:	02031893          	slli	a7,t1,0x20
    800045ce:	0208d893          	srli	a7,a7,0x20
    800045d2:	0885                	addi	a7,a7,1
    800045d4:	088a                	slli	a7,a7,0x2
    800045d6:	ff010eb7          	lui	t4,0xff010
    800045da:	00ff0e37          	lui	t3,0xff0
    800045de:	98ae                	add	a7,a7,a1
    800045e0:	882e                	mv	a6,a1
    800045e2:	4781                	li	a5,0
    800045e4:	f00e8e93          	addi	t4,t4,-256 # ffffffffff00ff00 <_end+0xffffffff7eff9f00>
    800045e8:	0ffe0e13          	addi	t3,t3,255 # ff00ff <_ftext-0x7f00ff01>
    800045ec:	0811                	addi	a6,a6,4
    800045ee:	ffc82703          	lw	a4,-4(a6)
    800045f2:	02079693          	slli	a3,a5,0x20
    800045f6:	0087179b          	slliw	a5,a4,0x8
    800045fa:	0087571b          	srliw	a4,a4,0x8
    800045fe:	01c77733          	and	a4,a4,t3
    80004602:	01d7f7b3          	and	a5,a5,t4
    80004606:	8fd9                	or	a5,a5,a4
    80004608:	0107971b          	slliw	a4,a5,0x10
    8000460c:	0107d79b          	srliw	a5,a5,0x10
    80004610:	8fd9                	or	a5,a5,a4
    80004612:	1782                	slli	a5,a5,0x20
    80004614:	9381                	srli	a5,a5,0x20
    80004616:	97b6                	add	a5,a5,a3
    80004618:	fd181ae3          	bne	a6,a7,800045ec <fdt_get_address+0x30>
    8000461c:	0305                	addi	t1,t1,1
    8000461e:	030a                	slli	t1,t1,0x2
    80004620:	00658533          	add	a0,a1,t1
    80004624:	e21c                	sd	a5,0(a2)
    80004626:	8082                	ret
    80004628:	852e                	mv	a0,a1
    8000462a:	8082                	ret

000000008000462c <fdt_get_size>:
    8000462c:	495c                	lw	a5,20(a0)
    8000462e:	00063023          	sd	zero,0(a2)
    80004632:	06f05363          	blez	a5,80004698 <fdt_get_size+0x6c>
    80004636:	fff7831b          	addiw	t1,a5,-1
    8000463a:	02031893          	slli	a7,t1,0x20
    8000463e:	0208d893          	srli	a7,a7,0x20
    80004642:	0885                	addi	a7,a7,1
    80004644:	088a                	slli	a7,a7,0x2
    80004646:	ff010eb7          	lui	t4,0xff010
    8000464a:	00ff0e37          	lui	t3,0xff0
    8000464e:	98ae                	add	a7,a7,a1
    80004650:	882e                	mv	a6,a1
    80004652:	4781                	li	a5,0
    80004654:	f00e8e93          	addi	t4,t4,-256 # ffffffffff00ff00 <_end+0xffffffff7eff9f00>
    80004658:	0ffe0e13          	addi	t3,t3,255 # ff00ff <_ftext-0x7f00ff01>
    8000465c:	0811                	addi	a6,a6,4
    8000465e:	ffc82703          	lw	a4,-4(a6)
    80004662:	02079693          	slli	a3,a5,0x20
    80004666:	0087179b          	slliw	a5,a4,0x8
    8000466a:	0087571b          	srliw	a4,a4,0x8
    8000466e:	01c77733          	and	a4,a4,t3
    80004672:	01d7f7b3          	and	a5,a5,t4
    80004676:	8fd9                	or	a5,a5,a4
    80004678:	0107971b          	slliw	a4,a5,0x10
    8000467c:	0107d79b          	srliw	a5,a5,0x10
    80004680:	8fd9                	or	a5,a5,a4
    80004682:	1782                	slli	a5,a5,0x20
    80004684:	9381                	srli	a5,a5,0x20
    80004686:	97b6                	add	a5,a5,a3
    80004688:	fd181ae3          	bne	a6,a7,8000465c <fdt_get_size+0x30>
    8000468c:	0305                	addi	t1,t1,1
    8000468e:	030a                	slli	t1,t1,0x2
    80004690:	00658533          	add	a0,a1,t1
    80004694:	e21c                	sd	a5,0(a2)
    80004696:	8082                	ret
    80004698:	852e                	mv	a0,a1
    8000469a:	8082                	ret

000000008000469c <fdt_string_list_index>:
    8000469c:	7179                	addi	sp,sp,-48
    8000469e:	f022                	sd	s0,32(sp)
    800046a0:	4d1c                	lw	a5,24(a0)
    800046a2:	6900                	ld	s0,16(a0)
    800046a4:	e44e                	sd	s3,8(sp)
    800046a6:	f406                	sd	ra,40(sp)
    800046a8:	ec26                	sd	s1,24(sp)
    800046aa:	e84a                	sd	s2,16(sp)
    800046ac:	00f409b3          	add	s3,s0,a5
    800046b0:	02f05c63          	blez	a5,800046e8 <fdt_string_list_index+0x4c>
    800046b4:	892e                	mv	s2,a1
    800046b6:	4481                	li	s1,0
    800046b8:	a819                	j	800046ce <fdt_string_list_index+0x32>
    800046ba:	8522                	mv	a0,s0
    800046bc:	34d030ef          	jal	ra,80008208 <strlen>
    800046c0:	0505                	addi	a0,a0,1
    800046c2:	942a                	add	s0,s0,a0
    800046c4:	408987b3          	sub	a5,s3,s0
    800046c8:	2485                	addiw	s1,s1,1
    800046ca:	00f05f63          	blez	a5,800046e8 <fdt_string_list_index+0x4c>
    800046ce:	85ca                	mv	a1,s2
    800046d0:	8522                	mv	a0,s0
    800046d2:	351030ef          	jal	ra,80008222 <strcmp>
    800046d6:	f175                	bnez	a0,800046ba <fdt_string_list_index+0x1e>
    800046d8:	70a2                	ld	ra,40(sp)
    800046da:	7402                	ld	s0,32(sp)
    800046dc:	8526                	mv	a0,s1
    800046de:	6942                	ld	s2,16(sp)
    800046e0:	64e2                	ld	s1,24(sp)
    800046e2:	69a2                	ld	s3,8(sp)
    800046e4:	6145                	addi	sp,sp,48
    800046e6:	8082                	ret
    800046e8:	70a2                	ld	ra,40(sp)
    800046ea:	7402                	ld	s0,32(sp)
    800046ec:	54fd                	li	s1,-1
    800046ee:	8526                	mv	a0,s1
    800046f0:	6942                	ld	s2,16(sp)
    800046f2:	64e2                	ld	s1,24(sp)
    800046f4:	69a2                	ld	s3,8(sp)
    800046f6:	6145                	addi	sp,sp,48
    800046f8:	8082                	ret

00000000800046fa <clint_prop>:
    800046fa:	1101                	addi	sp,sp,-32
    800046fc:	e04a                	sd	s2,0(sp)
    800046fe:	00853903          	ld	s2,8(a0)
    80004702:	e822                	sd	s0,16(sp)
    80004704:	e426                	sd	s1,8(sp)
    80004706:	842e                	mv	s0,a1
    80004708:	84aa                	mv	s1,a0
    8000470a:	00005597          	auipc	a1,0x5
    8000470e:	f9e58593          	addi	a1,a1,-98 # 800096a8 <softfloat_countLeadingZeros8+0x740>
    80004712:	854a                	mv	a0,s2
    80004714:	ec06                	sd	ra,24(sp)
    80004716:	30d030ef          	jal	ra,80008222 <strcmp>
    8000471a:	e115                	bnez	a0,8000473e <clint_prop+0x44>
    8000471c:	00005597          	auipc	a1,0x5
    80004720:	2e458593          	addi	a1,a1,740 # 80009a00 <softfloat_countLeadingZeros8+0xa98>
    80004724:	8526                	mv	a0,s1
    80004726:	f77ff0ef          	jal	ra,8000469c <fdt_string_list_index>
    8000472a:	00054a63          	bltz	a0,8000473e <clint_prop+0x44>
    8000472e:	4785                	li	a5,1
    80004730:	c01c                	sw	a5,0(s0)
    80004732:	60e2                	ld	ra,24(sp)
    80004734:	6442                	ld	s0,16(sp)
    80004736:	64a2                	ld	s1,8(sp)
    80004738:	6902                	ld	s2,0(sp)
    8000473a:	6105                	addi	sp,sp,32
    8000473c:	8082                	ret
    8000473e:	00005597          	auipc	a1,0x5
    80004742:	f9a58593          	addi	a1,a1,-102 # 800096d8 <softfloat_countLeadingZeros8+0x770>
    80004746:	854a                	mv	a0,s2
    80004748:	2db030ef          	jal	ra,80008222 <strcmp>
    8000474c:	e53d                	bnez	a0,800047ba <clint_prop+0xc0>
    8000474e:	609c                	ld	a5,0(s1)
    80004750:	6894                	ld	a3,16(s1)
    80004752:	639c                	ld	a5,0(a5)
    80004754:	00043423          	sd	zero,8(s0)
    80004758:	4b9c                	lw	a5,16(a5)
    8000475a:	04f05a63          	blez	a5,800047ae <clint_prop+0xb4>
    8000475e:	fff7859b          	addiw	a1,a5,-1
    80004762:	1582                	slli	a1,a1,0x20
    80004764:	9181                	srli	a1,a1,0x20
    80004766:	0585                	addi	a1,a1,1
    80004768:	058a                	slli	a1,a1,0x2
    8000476a:	ff010837          	lui	a6,0xff010
    8000476e:	00ff0537          	lui	a0,0xff0
    80004772:	95b6                	add	a1,a1,a3
    80004774:	4781                	li	a5,0
    80004776:	f0080813          	addi	a6,a6,-256 # ffffffffff00ff00 <_end+0xffffffff7eff9f00>
    8000477a:	0ff50513          	addi	a0,a0,255 # ff00ff <_ftext-0x7f00ff01>
    8000477e:	0691                	addi	a3,a3,4
    80004780:	ffc6a703          	lw	a4,-4(a3)
    80004784:	02079613          	slli	a2,a5,0x20
    80004788:	0087179b          	slliw	a5,a4,0x8
    8000478c:	0087571b          	srliw	a4,a4,0x8
    80004790:	8f69                	and	a4,a4,a0
    80004792:	0107f7b3          	and	a5,a5,a6
    80004796:	8fd9                	or	a5,a5,a4
    80004798:	0107971b          	slliw	a4,a5,0x10
    8000479c:	0107d79b          	srliw	a5,a5,0x10
    800047a0:	8fd9                	or	a5,a5,a4
    800047a2:	1782                	slli	a5,a5,0x20
    800047a4:	9381                	srli	a5,a5,0x20
    800047a6:	97b2                	add	a5,a5,a2
    800047a8:	fcb69be3          	bne	a3,a1,8000477e <clint_prop+0x84>
    800047ac:	e41c                	sd	a5,8(s0)
    800047ae:	60e2                	ld	ra,24(sp)
    800047b0:	6442                	ld	s0,16(sp)
    800047b2:	64a2                	ld	s1,8(sp)
    800047b4:	6902                	ld	s2,0(sp)
    800047b6:	6105                	addi	sp,sp,32
    800047b8:	8082                	ret
    800047ba:	00005597          	auipc	a1,0x5
    800047be:	25658593          	addi	a1,a1,598 # 80009a10 <softfloat_countLeadingZeros8+0xaa8>
    800047c2:	854a                	mv	a0,s2
    800047c4:	25f030ef          	jal	ra,80008222 <strcmp>
    800047c8:	f17d                	bnez	a0,800047ae <clint_prop+0xb4>
    800047ca:	6898                	ld	a4,16(s1)
    800047cc:	4c9c                	lw	a5,24(s1)
    800047ce:	60e2                	ld	ra,24(sp)
    800047d0:	e818                	sd	a4,16(s0)
    800047d2:	cc1c                	sw	a5,24(s0)
    800047d4:	6442                	ld	s0,16(sp)
    800047d6:	64a2                	ld	s1,8(sp)
    800047d8:	6902                	ld	s2,0(sp)
    800047da:	6105                	addi	sp,sp,32
    800047dc:	8082                	ret

00000000800047de <plic_prop>:
    800047de:	1101                	addi	sp,sp,-32
    800047e0:	e04a                	sd	s2,0(sp)
    800047e2:	00853903          	ld	s2,8(a0)
    800047e6:	e822                	sd	s0,16(sp)
    800047e8:	e426                	sd	s1,8(sp)
    800047ea:	842e                	mv	s0,a1
    800047ec:	84aa                	mv	s1,a0
    800047ee:	00005597          	auipc	a1,0x5
    800047f2:	eba58593          	addi	a1,a1,-326 # 800096a8 <softfloat_countLeadingZeros8+0x740>
    800047f6:	854a                	mv	a0,s2
    800047f8:	ec06                	sd	ra,24(sp)
    800047fa:	229030ef          	jal	ra,80008222 <strcmp>
    800047fe:	e115                	bnez	a0,80004822 <plic_prop+0x44>
    80004800:	00005597          	auipc	a1,0x5
    80004804:	22858593          	addi	a1,a1,552 # 80009a28 <softfloat_countLeadingZeros8+0xac0>
    80004808:	8526                	mv	a0,s1
    8000480a:	e93ff0ef          	jal	ra,8000469c <fdt_string_list_index>
    8000480e:	00054a63          	bltz	a0,80004822 <plic_prop+0x44>
    80004812:	4785                	li	a5,1
    80004814:	c01c                	sw	a5,0(s0)
    80004816:	60e2                	ld	ra,24(sp)
    80004818:	6442                	ld	s0,16(sp)
    8000481a:	64a2                	ld	s1,8(sp)
    8000481c:	6902                	ld	s2,0(sp)
    8000481e:	6105                	addi	sp,sp,32
    80004820:	8082                	ret
    80004822:	00005597          	auipc	a1,0x5
    80004826:	eb658593          	addi	a1,a1,-330 # 800096d8 <softfloat_countLeadingZeros8+0x770>
    8000482a:	854a                	mv	a0,s2
    8000482c:	1f7030ef          	jal	ra,80008222 <strcmp>
    80004830:	e53d                	bnez	a0,8000489e <plic_prop+0xc0>
    80004832:	609c                	ld	a5,0(s1)
    80004834:	6894                	ld	a3,16(s1)
    80004836:	639c                	ld	a5,0(a5)
    80004838:	00043423          	sd	zero,8(s0)
    8000483c:	4b9c                	lw	a5,16(a5)
    8000483e:	04f05a63          	blez	a5,80004892 <plic_prop+0xb4>
    80004842:	fff7859b          	addiw	a1,a5,-1
    80004846:	1582                	slli	a1,a1,0x20
    80004848:	9181                	srli	a1,a1,0x20
    8000484a:	0585                	addi	a1,a1,1
    8000484c:	058a                	slli	a1,a1,0x2
    8000484e:	ff010837          	lui	a6,0xff010
    80004852:	00ff0537          	lui	a0,0xff0
    80004856:	95b6                	add	a1,a1,a3
    80004858:	4781                	li	a5,0
    8000485a:	f0080813          	addi	a6,a6,-256 # ffffffffff00ff00 <_end+0xffffffff7eff9f00>
    8000485e:	0ff50513          	addi	a0,a0,255 # ff00ff <_ftext-0x7f00ff01>
    80004862:	0691                	addi	a3,a3,4
    80004864:	ffc6a703          	lw	a4,-4(a3)
    80004868:	02079613          	slli	a2,a5,0x20
    8000486c:	0087179b          	slliw	a5,a4,0x8
    80004870:	0087571b          	srliw	a4,a4,0x8
    80004874:	8f69                	and	a4,a4,a0
    80004876:	0107f7b3          	and	a5,a5,a6
    8000487a:	8fd9                	or	a5,a5,a4
    8000487c:	0107971b          	slliw	a4,a5,0x10
    80004880:	0107d79b          	srliw	a5,a5,0x10
    80004884:	8fd9                	or	a5,a5,a4
    80004886:	1782                	slli	a5,a5,0x20
    80004888:	9381                	srli	a5,a5,0x20
    8000488a:	97b2                	add	a5,a5,a2
    8000488c:	fcb69be3          	bne	a3,a1,80004862 <plic_prop+0x84>
    80004890:	e41c                	sd	a5,8(s0)
    80004892:	60e2                	ld	ra,24(sp)
    80004894:	6442                	ld	s0,16(sp)
    80004896:	64a2                	ld	s1,8(sp)
    80004898:	6902                	ld	s2,0(sp)
    8000489a:	6105                	addi	sp,sp,32
    8000489c:	8082                	ret
    8000489e:	00005597          	auipc	a1,0x5
    800048a2:	17258593          	addi	a1,a1,370 # 80009a10 <softfloat_countLeadingZeros8+0xaa8>
    800048a6:	854a                	mv	a0,s2
    800048a8:	17b030ef          	jal	ra,80008222 <strcmp>
    800048ac:	c129                	beqz	a0,800048ee <plic_prop+0x110>
    800048ae:	00005597          	auipc	a1,0x5
    800048b2:	18a58593          	addi	a1,a1,394 # 80009a38 <softfloat_countLeadingZeros8+0xad0>
    800048b6:	854a                	mv	a0,s2
    800048b8:	16b030ef          	jal	ra,80008222 <strcmp>
    800048bc:	f979                	bnez	a0,80004892 <plic_prop+0xb4>
    800048be:	689c                	ld	a5,16(s1)
    800048c0:	ff0106b7          	lui	a3,0xff010
    800048c4:	f0068693          	addi	a3,a3,-256 # ffffffffff00ff00 <_end+0xffffffff7eff9f00>
    800048c8:	4398                	lw	a4,0(a5)
    800048ca:	0087179b          	slliw	a5,a4,0x8
    800048ce:	8ff5                	and	a5,a5,a3
    800048d0:	00ff06b7          	lui	a3,0xff0
    800048d4:	0087571b          	srliw	a4,a4,0x8
    800048d8:	0ff68693          	addi	a3,a3,255 # ff00ff <_ftext-0x7f00ff01>
    800048dc:	8f75                	and	a4,a4,a3
    800048de:	8fd9                	or	a5,a5,a4
    800048e0:	0107971b          	slliw	a4,a5,0x10
    800048e4:	0107d79b          	srliw	a5,a5,0x10
    800048e8:	8fd9                	or	a5,a5,a4
    800048ea:	d01c                	sw	a5,32(s0)
    800048ec:	b75d                	j	80004892 <plic_prop+0xb4>
    800048ee:	6898                	ld	a4,16(s1)
    800048f0:	4c9c                	lw	a5,24(s1)
    800048f2:	60e2                	ld	ra,24(sp)
    800048f4:	e818                	sd	a4,16(s0)
    800048f6:	cc1c                	sw	a5,24(s0)
    800048f8:	6442                	ld	s0,16(sp)
    800048fa:	64a2                	ld	s1,8(sp)
    800048fc:	6902                	ld	s2,0(sp)
    800048fe:	6105                	addi	sp,sp,32
    80004900:	8082                	ret

0000000080004902 <compat_prop>:
    80004902:	1101                	addi	sp,sp,-32
    80004904:	e822                	sd	s0,16(sp)
    80004906:	842a                	mv	s0,a0
    80004908:	6508                	ld	a0,8(a0)
    8000490a:	e426                	sd	s1,8(sp)
    8000490c:	84ae                	mv	s1,a1
    8000490e:	00005597          	auipc	a1,0x5
    80004912:	d9a58593          	addi	a1,a1,-614 # 800096a8 <softfloat_countLeadingZeros8+0x740>
    80004916:	ec06                	sd	ra,24(sp)
    80004918:	10b030ef          	jal	ra,80008222 <strcmp>
    8000491c:	ed01                	bnez	a0,80004934 <compat_prop+0x32>
    8000491e:	608c                	ld	a1,0(s1)
    80004920:	8522                	mv	a0,s0
    80004922:	d7bff0ef          	jal	ra,8000469c <fdt_string_list_index>
    80004926:	00054763          	bltz	a0,80004934 <compat_prop+0x32>
    8000492a:	449c                	lw	a5,8(s1)
    8000492c:	44d8                	lw	a4,12(s1)
    8000492e:	00e7d363          	bge	a5,a4,80004934 <compat_prop+0x32>
    80004932:	c4dc                	sw	a5,12(s1)
    80004934:	60e2                	ld	ra,24(sp)
    80004936:	6442                	ld	s0,16(sp)
    80004938:	64a2                	ld	s1,8(sp)
    8000493a:	6105                	addi	sp,sp,32
    8000493c:	8082                	ret

000000008000493e <query_mem>:
    8000493e:	715d                	addi	sp,sp,-80
    80004940:	00000797          	auipc	a5,0x0
    80004944:	85078793          	addi	a5,a5,-1968 # 80004190 <mem_open>
    80004948:	ec3e                	sd	a5,24(sp)
    8000494a:	fffff797          	auipc	a5,0xfffff
    8000494e:	2aa78793          	addi	a5,a5,682 # 80003bf4 <mem_prop>
    80004952:	f03e                	sd	a5,32(sp)
    80004954:	082c                	addi	a1,sp,24
    80004956:	fffff797          	auipc	a5,0xfffff
    8000495a:	10878793          	addi	a5,a5,264 # 80003a5e <mem_done>
    8000495e:	f43e                	sd	a5,40(sp)
    80004960:	e486                	sd	ra,72(sp)
    80004962:	00010797          	auipc	a5,0x10
    80004966:	7807b323          	sd	zero,1926(a5) # 800150e8 <mem_size>
    8000496a:	f802                	sd	zero,48(sp)
    8000496c:	fc0a                	sd	sp,56(sp)
    8000496e:	b15ff0ef          	jal	ra,80004482 <fdt_scan>
    80004972:	00010797          	auipc	a5,0x10
    80004976:	77678793          	addi	a5,a5,1910 # 800150e8 <mem_size>
    8000497a:	639c                	ld	a5,0(a5)
    8000497c:	c781                	beqz	a5,80004984 <query_mem+0x46>
    8000497e:	60a6                	ld	ra,72(sp)
    80004980:	6161                	addi	sp,sp,80
    80004982:	8082                	ret
    80004984:	00004517          	auipc	a0,0x4
    80004988:	7b450513          	addi	a0,a0,1972 # 80009138 <softfloat_countLeadingZeros8+0x1d0>
    8000498c:	00005697          	auipc	a3,0x5
    80004990:	0bc68693          	addi	a3,a3,188 # 80009a48 <softfloat_countLeadingZeros8+0xae0>
    80004994:	0c700613          	li	a2,199
    80004998:	00005597          	auipc	a1,0x5
    8000499c:	d7858593          	addi	a1,a1,-648 # 80009710 <softfloat_countLeadingZeros8+0x7a8>
    800049a0:	cfbfd0ef          	jal	ra,8000269a <printm>
    800049a4:	6541                	lui	a0,0x10
    800049a6:	157d                	addi	a0,a0,-1
    800049a8:	d65fd0ef          	jal	ra,8000270c <poweroff>

00000000800049ac <query_harts>:
    800049ac:	711d                	addi	sp,sp,-96
    800049ae:	fffff717          	auipc	a4,0xfffff
    800049b2:	bfc70713          	addi	a4,a4,-1028 # 800035aa <hart_open>
    800049b6:	f43a                	sd	a4,40(sp)
    800049b8:	fffff717          	auipc	a4,0xfffff
    800049bc:	2ce70713          	addi	a4,a4,718 # 80003c86 <hart_prop>
    800049c0:	f83a                	sd	a4,48(sp)
    800049c2:	fffff717          	auipc	a4,0xfffff
    800049c6:	7d870713          	addi	a4,a4,2008 # 8000419a <hart_done>
    800049ca:	003c                	addi	a5,sp,8
    800049cc:	fc3a                	sd	a4,56(sp)
    800049ce:	102c                	addi	a1,sp,40
    800049d0:	fffff717          	auipc	a4,0xfffff
    800049d4:	bf070713          	addi	a4,a4,-1040 # 800035c0 <hart_close>
    800049d8:	ec86                	sd	ra,88(sp)
    800049da:	e402                	sd	zero,8(sp)
    800049dc:	e802                	sd	zero,16(sp)
    800049de:	ec02                	sd	zero,24(sp)
    800049e0:	f002                	sd	zero,32(sp)
    800049e2:	e0ba                	sd	a4,64(sp)
    800049e4:	e4be                	sd	a5,72(sp)
    800049e6:	a9dff0ef          	jal	ra,80004482 <fdt_scan>
    800049ea:	f1402773          	csrr	a4,mhartid
    800049ee:	00010797          	auipc	a5,0x10
    800049f2:	74a78793          	addi	a5,a5,1866 # 80015138 <hart_mask>
    800049f6:	639c                	ld	a5,0(a5)
    800049f8:	00e7d7b3          	srl	a5,a5,a4
    800049fc:	c781                	beqz	a5,80004a04 <query_harts+0x58>
    800049fe:	60e6                	ld	ra,88(sp)
    80004a00:	6125                	addi	sp,sp,96
    80004a02:	8082                	ret
    80004a04:	00004517          	auipc	a0,0x4
    80004a08:	73450513          	addi	a0,a0,1844 # 80009138 <softfloat_countLeadingZeros8+0x1d0>
    80004a0c:	00005697          	auipc	a3,0x5
    80004a10:	04c68693          	addi	a3,a3,76 # 80009a58 <softfloat_countLeadingZeros8+0xaf0>
    80004a14:	12300613          	li	a2,291
    80004a18:	00005597          	auipc	a1,0x5
    80004a1c:	cf858593          	addi	a1,a1,-776 # 80009710 <softfloat_countLeadingZeros8+0x7a8>
    80004a20:	c7bfd0ef          	jal	ra,8000269a <printm>
    80004a24:	6541                	lui	a0,0x10
    80004a26:	157d                	addi	a0,a0,-1
    80004a28:	ce5fd0ef          	jal	ra,8000270c <poweroff>

0000000080004a2c <query_clint>:
    80004a2c:	711d                	addi	sp,sp,-96
    80004a2e:	fffff797          	auipc	a5,0xfffff
    80004a32:	bb478793          	addi	a5,a5,-1100 # 800035e2 <clint_open>
    80004a36:	f43e                	sd	a5,40(sp)
    80004a38:	00000797          	auipc	a5,0x0
    80004a3c:	cc278793          	addi	a5,a5,-830 # 800046fa <clint_prop>
    80004a40:	f83e                	sd	a5,48(sp)
    80004a42:	fffff797          	auipc	a5,0xfffff
    80004a46:	c6a78793          	addi	a5,a5,-918 # 800036ac <clint_done>
    80004a4a:	fc3e                	sd	a5,56(sp)
    80004a4c:	102c                	addi	a1,sp,40
    80004a4e:	003c                	addi	a5,sp,8
    80004a50:	e4be                	sd	a5,72(sp)
    80004a52:	ec86                	sd	ra,88(sp)
    80004a54:	e082                	sd	zero,64(sp)
    80004a56:	d202                	sw	zero,36(sp)
    80004a58:	a2bff0ef          	jal	ra,80004482 <fdt_scan>
    80004a5c:	5792                	lw	a5,36(sp)
    80004a5e:	c781                	beqz	a5,80004a66 <query_clint+0x3a>
    80004a60:	60e6                	ld	ra,88(sp)
    80004a62:	6125                	addi	sp,sp,96
    80004a64:	8082                	ret
    80004a66:	00004517          	auipc	a0,0x4
    80004a6a:	6d250513          	addi	a0,a0,1746 # 80009138 <softfloat_countLeadingZeros8+0x1d0>
    80004a6e:	00005697          	auipc	a3,0x5
    80004a72:	01268693          	addi	a3,a3,18 # 80009a80 <softfloat_countLeadingZeros8+0xb18>
    80004a76:	17000613          	li	a2,368
    80004a7a:	00005597          	auipc	a1,0x5
    80004a7e:	c9658593          	addi	a1,a1,-874 # 80009710 <softfloat_countLeadingZeros8+0x7a8>
    80004a82:	c19fd0ef          	jal	ra,8000269a <printm>
    80004a86:	6541                	lui	a0,0x10
    80004a88:	157d                	addi	a0,a0,-1
    80004a8a:	c83fd0ef          	jal	ra,8000270c <poweroff>

0000000080004a8e <query_plic>:
    80004a8e:	711d                	addi	sp,sp,-96
    80004a90:	fffff797          	auipc	a5,0xfffff
    80004a94:	b6078793          	addi	a5,a5,-1184 # 800035f0 <plic_open>
    80004a98:	e03e                	sd	a5,0(sp)
    80004a9a:	00000797          	auipc	a5,0x0
    80004a9e:	d4478793          	addi	a5,a5,-700 # 800047de <plic_prop>
    80004aa2:	e43e                	sd	a5,8(sp)
    80004aa4:	fffff797          	auipc	a5,0xfffff
    80004aa8:	d6678793          	addi	a5,a5,-666 # 8000380a <plic_done>
    80004aac:	e83e                	sd	a5,16(sp)
    80004aae:	858a                	mv	a1,sp
    80004ab0:	103c                	addi	a5,sp,40
    80004ab2:	ec86                	sd	ra,88(sp)
    80004ab4:	ec02                	sd	zero,24(sp)
    80004ab6:	f03e                	sd	a5,32(sp)
    80004ab8:	c282                	sw	zero,68(sp)
    80004aba:	9c9ff0ef          	jal	ra,80004482 <fdt_scan>
    80004abe:	60e6                	ld	ra,88(sp)
    80004ac0:	6125                	addi	sp,sp,96
    80004ac2:	8082                	ret

0000000080004ac4 <filter_plic>:
    80004ac4:	711d                	addi	sp,sp,-96
    80004ac6:	fffff797          	auipc	a5,0xfffff
    80004aca:	b2a78793          	addi	a5,a5,-1238 # 800035f0 <plic_open>
    80004ace:	e03e                	sd	a5,0(sp)
    80004ad0:	00000797          	auipc	a5,0x0
    80004ad4:	d0e78793          	addi	a5,a5,-754 # 800047de <plic_prop>
    80004ad8:	e43e                	sd	a5,8(sp)
    80004ada:	fffff797          	auipc	a5,0xfffff
    80004ade:	b2478793          	addi	a5,a5,-1244 # 800035fe <plic_redact>
    80004ae2:	e83e                	sd	a5,16(sp)
    80004ae4:	858a                	mv	a1,sp
    80004ae6:	103c                	addi	a5,sp,40
    80004ae8:	ec86                	sd	ra,88(sp)
    80004aea:	ec02                	sd	zero,24(sp)
    80004aec:	f03e                	sd	a5,32(sp)
    80004aee:	c282                	sw	zero,68(sp)
    80004af0:	993ff0ef          	jal	ra,80004482 <fdt_scan>
    80004af4:	60e6                	ld	ra,88(sp)
    80004af6:	6125                	addi	sp,sp,96
    80004af8:	8082                	ret

0000000080004afa <filter_compat>:
    80004afa:	715d                	addi	sp,sp,-80
    80004afc:	fffff797          	auipc	a5,0xfffff
    80004b00:	b6878793          	addi	a5,a5,-1176 # 80003664 <compat_open>
    80004b04:	ec3e                	sd	a5,24(sp)
    80004b06:	00000797          	auipc	a5,0x0
    80004b0a:	dfc78793          	addi	a5,a5,-516 # 80004902 <compat_prop>
    80004b0e:	f03e                	sd	a5,32(sp)
    80004b10:	fffff797          	auipc	a5,0xfffff
    80004b14:	b5c78793          	addi	a5,a5,-1188 # 8000366c <compat_close>
    80004b18:	f83e                	sd	a5,48(sp)
    80004b1a:	003c                	addi	a5,sp,8
    80004b1c:	fc3e                	sd	a5,56(sp)
    80004b1e:	3e700793          	li	a5,999
    80004b22:	e42e                	sd	a1,8(sp)
    80004b24:	1782                	slli	a5,a5,0x20
    80004b26:	082c                	addi	a1,sp,24
    80004b28:	e486                	sd	ra,72(sp)
    80004b2a:	f402                	sd	zero,40(sp)
    80004b2c:	e83e                	sd	a5,16(sp)
    80004b2e:	955ff0ef          	jal	ra,80004482 <fdt_scan>
    80004b32:	60a6                	ld	ra,72(sp)
    80004b34:	6161                	addi	sp,sp,80
    80004b36:	8082                	ret

0000000080004b38 <query_chosen>:
    80004b38:	715d                	addi	sp,sp,-80
    80004b3a:	fffff797          	auipc	a5,0xfffff
    80004b3e:	12478793          	addi	a5,a5,292 # 80003c5e <chosen_open>
    80004b42:	ec3e                	sd	a5,24(sp)
    80004b44:	fffff797          	auipc	a5,0xfffff
    80004b48:	b4478793          	addi	a5,a5,-1212 # 80003688 <chosen_close>
    80004b4c:	f83e                	sd	a5,48(sp)
    80004b4e:	082c                	addi	a1,sp,24
    80004b50:	00000797          	auipc	a5,0x0
    80004b54:	81e78793          	addi	a5,a5,-2018 # 8000436e <chosen_prop>
    80004b58:	e486                	sd	ra,72(sp)
    80004b5a:	f03e                	sd	a5,32(sp)
    80004b5c:	f402                	sd	zero,40(sp)
    80004b5e:	e002                	sd	zero,0(sp)
    80004b60:	e402                	sd	zero,8(sp)
    80004b62:	e802                	sd	zero,16(sp)
    80004b64:	fc0a                	sd	sp,56(sp)
    80004b66:	91dff0ef          	jal	ra,80004482 <fdt_scan>
    80004b6a:	67a2                	ld	a5,8(sp)
    80004b6c:	60a6                	ld	ra,72(sp)
    80004b6e:	00010717          	auipc	a4,0x10
    80004b72:	58f73d23          	sd	a5,1434(a4) # 80015108 <kernel_start>
    80004b76:	67c2                	ld	a5,16(sp)
    80004b78:	00010717          	auipc	a4,0x10
    80004b7c:	56f73c23          	sd	a5,1400(a4) # 800150f0 <kernel_end>
    80004b80:	6161                	addi	sp,sp,80
    80004b82:	8082                	ret

0000000080004b84 <filter_harts>:
    80004b84:	711d                	addi	sp,sp,-96
    80004b86:	fffff717          	auipc	a4,0xfffff
    80004b8a:	b1670713          	addi	a4,a4,-1258 # 8000369c <hart_filter_open>
    80004b8e:	f43a                	sd	a4,40(sp)
    80004b90:	fffff717          	auipc	a4,0xfffff
    80004b94:	2aa70713          	addi	a4,a4,682 # 80003e3a <hart_filter_prop>
    80004b98:	ec86                	sd	ra,88(sp)
    80004b9a:	f83a                	sd	a4,48(sp)
    80004b9c:	fffff717          	auipc	a4,0xfffff
    80004ba0:	6b670713          	addi	a4,a4,1718 # 80004252 <hart_filter_done>
    80004ba4:	87ae                	mv	a5,a1
    80004ba6:	fc3a                	sd	a4,56(sp)
    80004ba8:	0005b023          	sd	zero,0(a1)
    80004bac:	0038                	addi	a4,sp,8
    80004bae:	102c                	addi	a1,sp,40
    80004bb0:	e082                	sd	zero,64(sp)
    80004bb2:	e4ba                	sd	a4,72(sp)
    80004bb4:	f03e                	sd	a5,32(sp)
    80004bb6:	8cdff0ef          	jal	ra,80004482 <fdt_scan>
    80004bba:	60e6                	ld	ra,88(sp)
    80004bbc:	6125                	addi	sp,sp,96
    80004bbe:	8082                	ret

0000000080004bc0 <truly_illegal_insn.constprop.1>:
    80004bc0:	afffd06f          	j	800026be <redirect_trap>

0000000080004bc4 <illegal_insn_trap>:
    80004bc4:	8832                	mv	a6,a2
    80004bc6:	300028f3          	csrr	a7,mstatus
    80004bca:	34302773          	csrr	a4,mtval
    80004bce:	478d                	li	a5,3
    80004bd0:	00377313          	andi	t1,a4,3
    80004bd4:	02f31263          	bne	t1,a5,80004bf8 <illegal_insn_trap+0x34>
    80004bd8:	00480793          	addi	a5,a6,4
    80004bdc:	34179073          	csrw	mepc,a5
    80004be0:	00004697          	auipc	a3,0x4
    80004be4:	1e468693          	addi	a3,a3,484 # 80008dc4 <illegal_insn_trap_table>
    80004be8:	07c77793          	andi	a5,a4,124
    80004bec:	97b6                	add	a5,a5,a3
    80004bee:	0007e303          	lwu	t1,0(a5)
    80004bf2:	86c6                	mv	a3,a7
    80004bf4:	8642                	mv	a2,a6
    80004bf6:	8302                	jr	t1
    80004bf8:	c711                	beqz	a4,80004c04 <illegal_insn_trap+0x40>
    80004bfa:	863a                	mv	a2,a4
    80004bfc:	85c6                	mv	a1,a7
    80004bfe:	8542                	mv	a0,a6
    80004c00:	fc1ff06f          	j	80004bc0 <truly_illegal_insn.constprop.1>
    80004c04:	000a08b7          	lui	a7,0xa0
    80004c08:	3008a6f3          	csrrs	a3,mstatus,a7
    80004c0c:	00267313          	andi	t1,a2,2
    80004c10:	00031b63          	bnez	t1,80004c26 <illegal_insn_trap+0x62>
    80004c14:	00066703          	lwu	a4,0(a2)
    80004c18:	00f77333          	and	t1,a4,a5
    80004c1c:	00f30f63          	beq	t1,a5,80004c3a <illegal_insn_trap+0x76>
    80004c20:	1742                	slli	a4,a4,0x30
    80004c22:	9341                	srli	a4,a4,0x30
    80004c24:	a819                	j	80004c3a <illegal_insn_trap+0x76>
    80004c26:	00065703          	lhu	a4,0(a2)
    80004c2a:	00f77333          	and	t1,a4,a5
    80004c2e:	00f31663          	bne	t1,a5,80004c3a <illegal_insn_trap+0x76>
    80004c32:	00265303          	lhu	t1,2(a2)
    80004c36:	0342                	slli	t1,t1,0x10
    80004c38:	971a                	add	a4,a4,t1
    80004c3a:	30069073          	csrw	mstatus,a3
    80004c3e:	00377613          	andi	a2,a4,3
    80004c42:	88b6                	mv	a7,a3
    80004c44:	f8f60ae3          	beq	a2,a5,80004bd8 <illegal_insn_trap+0x14>
    80004c48:	bf4d                	j	80004bfa <illegal_insn_trap+0x36>

0000000080004c4a <truly_illegal_insn>:
    80004c4a:	8532                	mv	a0,a2
    80004c4c:	85b6                	mv	a1,a3
    80004c4e:	863a                	mv	a2,a4
    80004c50:	a6ffd06f          	j	800026be <redirect_trap>

0000000080004c54 <emulate_system_opcode>:
    80004c54:	6889                	lui	a7,0x2
    80004c56:	00c75813          	srli	a6,a4,0xc
    80004c5a:	80088893          	addi	a7,a7,-2048 # 1800 <_ftext-0x7fffe800>
    80004c5e:	00f75e13          	srli	t3,a4,0xf
    80004c62:	0f887793          	andi	a5,a6,248
    80004c66:	0116f8b3          	and	a7,a3,a7
    80004c6a:	7ff00593          	li	a1,2047
    80004c6e:	01fe7e93          	andi	t4,t3,31
    80004c72:	8332                	mv	t1,a2
    80004c74:	00f50e33          	add	t3,a0,a5
    80004c78:	0147579b          	srliw	a5,a4,0x14
    80004c7c:	0315ec63          	bltu	a1,a7,80004cb4 <emulate_system_opcode+0x60>
    80004c80:	106028f3          	csrr	a7,scounteren
    80004c84:	6605                	lui	a2,0x1
    80004c86:	b0460593          	addi	a1,a2,-1276 # b04 <_ftext-0x7ffff4fc>
    80004c8a:	14b78e63          	beq	a5,a1,80004de6 <emulate_system_opcode+0x192>
    80004c8e:	06f5e463          	bltu	a1,a5,80004cf6 <emulate_system_opcode+0xa2>
    80004c92:	32400593          	li	a1,804
    80004c96:	0ab78e63          	beq	a5,a1,80004d52 <emulate_system_opcode+0xfe>
    80004c9a:	b0360613          	addi	a2,a2,-1277
    80004c9e:	0ac78363          	beq	a5,a2,80004d44 <emulate_system_opcode+0xf0>
    80004ca2:	32300613          	li	a2,803
    80004ca6:	16c78263          	beq	a5,a2,80004e0a <emulate_system_opcode+0x1b6>
    80004caa:	863a                	mv	a2,a4
    80004cac:	85b6                	mv	a1,a3
    80004cae:	851a                	mv	a0,t1
    80004cb0:	f11ff06f          	j	80004bc0 <truly_illegal_insn.constprop.1>
    80004cb4:	6605                	lui	a2,0x1
    80004cb6:	b0460593          	addi	a1,a2,-1276 # b04 <_ftext-0x7ffff4fc>
    80004cba:	12b78a63          	beq	a5,a1,80004dee <emulate_system_opcode+0x19a>
    80004cbe:	00f5ed63          	bltu	a1,a5,80004cd8 <emulate_system_opcode+0x84>
    80004cc2:	32400593          	li	a1,804
    80004cc6:	08b78663          	beq	a5,a1,80004d52 <emulate_system_opcode+0xfe>
    80004cca:	b0360613          	addi	a2,a2,-1277
    80004cce:	fcc79ae3          	bne	a5,a2,80004ca2 <emulate_system_opcode+0x4e>
    80004cd2:	b03028f3          	csrr	a7,mhpmcounter3
    80004cd6:	a889                	j	80004d28 <emulate_system_opcode+0xd4>
    80004cd8:	c0160593          	addi	a1,a2,-1023
    80004cdc:	08b78263          	beq	a5,a1,80004d60 <emulate_system_opcode+0x10c>
    80004ce0:	c0260593          	addi	a1,a2,-1022
    80004ce4:	04b78063          	beq	a5,a1,80004d24 <emulate_system_opcode+0xd0>
    80004ce8:	c0060613          	addi	a2,a2,-1024
    80004cec:	fac79fe3          	bne	a5,a2,80004caa <emulate_system_opcode+0x56>
    80004cf0:	b00028f3          	csrr	a7,mcycle
    80004cf4:	a815                	j	80004d28 <emulate_system_opcode+0xd4>
    80004cf6:	c0160593          	addi	a1,a2,-1023
    80004cfa:	04b78f63          	beq	a5,a1,80004d58 <emulate_system_opcode+0x104>
    80004cfe:	c0260593          	addi	a1,a2,-1022
    80004d02:	00b78d63          	beq	a5,a1,80004d1c <emulate_system_opcode+0xc8>
    80004d06:	c0060613          	addi	a2,a2,-1024
    80004d0a:	fac790e3          	bne	a5,a2,80004caa <emulate_system_opcode+0x56>
    80004d0e:	0018f893          	andi	a7,a7,1
    80004d12:	f8088ce3          	beqz	a7,80004caa <emulate_system_opcode+0x56>
    80004d16:	b00028f3          	csrr	a7,mcycle
    80004d1a:	a039                	j	80004d28 <emulate_system_opcode+0xd4>
    80004d1c:	0048f893          	andi	a7,a7,4
    80004d20:	f80885e3          	beqz	a7,80004caa <emulate_system_opcode+0x56>
    80004d24:	b02028f3          	csrr	a7,minstret
    80004d28:	00787813          	andi	a6,a6,7
    80004d2c:	00004597          	auipc	a1,0x4
    80004d30:	11858593          	addi	a1,a1,280 # 80008e44 <illegal_insn_trap_table+0x80>
    80004d34:	080a                	slli	a6,a6,0x2
    80004d36:	982e                	add	a6,a6,a1
    80004d38:	00082603          	lw	a2,0(a6)
    80004d3c:	000e3803          	ld	a6,0(t3)
    80004d40:	962e                	add	a2,a2,a1
    80004d42:	8602                	jr	a2
    80004d44:	0088f893          	andi	a7,a7,8
    80004d48:	f60881e3          	beqz	a7,80004caa <emulate_system_opcode+0x56>
    80004d4c:	b03028f3          	csrr	a7,mhpmcounter3
    80004d50:	bfe1                	j	80004d28 <emulate_system_opcode+0xd4>
    80004d52:	324028f3          	csrr	a7,mhpmevent4
    80004d56:	bfc9                	j	80004d28 <emulate_system_opcode+0xd4>
    80004d58:	0028f893          	andi	a7,a7,2
    80004d5c:	f40887e3          	beqz	a7,80004caa <emulate_system_opcode+0x56>
    80004d60:	00010617          	auipc	a2,0x10
    80004d64:	39860613          	addi	a2,a2,920 # 800150f8 <mtime>
    80004d68:	6210                	ld	a2,0(a2)
    80004d6a:	00063883          	ld	a7,0(a2)
    80004d6e:	bf6d                	j	80004d28 <emulate_system_opcode+0xd4>
    80004d70:	8876                	mv	a6,t4
    80004d72:	6605                	lui	a2,0x1
    80004d74:	b0360593          	addi	a1,a2,-1277 # b03 <_ftext-0x7ffff4fd>
    80004d78:	0ab78263          	beq	a5,a1,80004e1c <emulate_system_opcode+0x1c8>
    80004d7c:	06f5fc63          	bgeu	a1,a5,80004df4 <emulate_system_opcode+0x1a0>
    80004d80:	c0060593          	addi	a1,a2,-1024
    80004d84:	08b78963          	beq	a5,a1,80004e16 <emulate_system_opcode+0x1c2>
    80004d88:	c0260593          	addi	a1,a2,-1022
    80004d8c:	08b78263          	beq	a5,a1,80004e10 <emulate_system_opcode+0x1bc>
    80004d90:	b0460613          	addi	a2,a2,-1276
    80004d94:	f0c79be3          	bne	a5,a2,80004caa <emulate_system_opcode+0x56>
    80004d98:	b0481073          	csrw	mhpmcounter4,a6
    80004d9c:	8311                	srli	a4,a4,0x4
    80004d9e:	0f877713          	andi	a4,a4,248
    80004da2:	972a                	add	a4,a4,a0
    80004da4:	01173023          	sd	a7,0(a4)
    80004da8:	8082                	ret
    80004daa:	011ee833          	or	a6,t4,a7
    80004dae:	fc0e92e3          	bnez	t4,80004d72 <emulate_system_opcode+0x11e>
    80004db2:	8311                	srli	a4,a4,0x4
    80004db4:	0f877713          	andi	a4,a4,248
    80004db8:	972a                	add	a4,a4,a0
    80004dba:	01173023          	sd	a7,0(a4)
    80004dbe:	8082                	ret
    80004dc0:	fffec813          	not	a6,t4
    80004dc4:	01187833          	and	a6,a6,a7
    80004dc8:	fe0e85e3          	beqz	t4,80004db2 <emulate_system_opcode+0x15e>
    80004dcc:	b75d                	j	80004d72 <emulate_system_opcode+0x11e>
    80004dce:	fff84813          	not	a6,a6
    80004dd2:	01187833          	and	a6,a6,a7
    80004dd6:	fc0e8ee3          	beqz	t4,80004db2 <emulate_system_opcode+0x15e>
    80004dda:	bf61                	j	80004d72 <emulate_system_opcode+0x11e>
    80004ddc:	01186833          	or	a6,a6,a7
    80004de0:	fc0e89e3          	beqz	t4,80004db2 <emulate_system_opcode+0x15e>
    80004de4:	b779                	j	80004d72 <emulate_system_opcode+0x11e>
    80004de6:	0108f893          	andi	a7,a7,16
    80004dea:	ec0880e3          	beqz	a7,80004caa <emulate_system_opcode+0x56>
    80004dee:	b04028f3          	csrr	a7,mhpmcounter4
    80004df2:	bf1d                	j	80004d28 <emulate_system_opcode+0xd4>
    80004df4:	32300613          	li	a2,803
    80004df8:	02c78563          	beq	a5,a2,80004e22 <emulate_system_opcode+0x1ce>
    80004dfc:	32400613          	li	a2,804
    80004e00:	eac795e3          	bne	a5,a2,80004caa <emulate_system_opcode+0x56>
    80004e04:	32481073          	csrw	mhpmevent4,a6
    80004e08:	bf51                	j	80004d9c <emulate_system_opcode+0x148>
    80004e0a:	323028f3          	csrr	a7,mhpmevent3
    80004e0e:	bf29                	j	80004d28 <emulate_system_opcode+0xd4>
    80004e10:	b0281073          	csrw	minstret,a6
    80004e14:	b761                	j	80004d9c <emulate_system_opcode+0x148>
    80004e16:	b0081073          	csrw	mcycle,a6
    80004e1a:	b749                	j	80004d9c <emulate_system_opcode+0x148>
    80004e1c:	b0381073          	csrw	mhpmcounter3,a6
    80004e20:	bfb5                	j	80004d9c <emulate_system_opcode+0x148>
    80004e22:	32381073          	csrw	mhpmevent3,a6
    80004e26:	bf9d                	j	80004d9c <emulate_system_opcode+0x148>

0000000080004e28 <emulate_fp>:
    80004e28:	6799                	lui	a5,0x6
    80004e2a:	8ff5                	and	a5,a5,a3
    80004e2c:	c785                	beqz	a5,80004e54 <emulate_fp+0x2c>
    80004e2e:	01975793          	srli	a5,a4,0x19
    80004e32:	00004817          	auipc	a6,0x4
    80004e36:	03280813          	addi	a6,a6,50 # 80008e64 <fp_emulation_table>
    80004e3a:	07c7f793          	andi	a5,a5,124
    80004e3e:	97c2                	add	a5,a5,a6
    80004e40:	0007e303          	lwu	t1,0(a5) # 6000 <_ftext-0x7fffa000>
    80004e44:	00202273          	frrm	tp
    80004e48:	679d                	lui	a5,0x7
    80004e4a:	00f77833          	and	a6,a4,a5
    80004e4e:	00f81563          	bne	a6,a5,80004e58 <emulate_fp+0x30>
    80004e52:	8302                	jr	t1
    80004e54:	df7ff06f          	j	80004c4a <truly_illegal_insn>
    80004e58:	00c75793          	srli	a5,a4,0xc
    80004e5c:	8b9d                	andi	a5,a5,7
    80004e5e:	4811                	li	a6,4
    80004e60:	fef86ae3          	bltu	a6,a5,80004e54 <emulate_fp+0x2c>
    80004e64:	823e                	mv	tp,a5
    80004e66:	b7f5                	j	80004e52 <emulate_fp+0x2a>

0000000080004e68 <emulate_any_fadd>:
    80004e68:	1141                	addi	sp,sp,-16
    80004e6a:	01975813          	srli	a6,a4,0x19
    80004e6e:	e022                	sd	s0,0(sp)
    80004e70:	e406                	sd	ra,8(sp)
    80004e72:	00387813          	andi	a6,a6,3
    80004e76:	843a                	mv	s0,a4
    80004e78:	04080f63          	beqz	a6,80004ed6 <emulate_any_fadd+0x6e>
    80004e7c:	4885                	li	a7,1
    80004e7e:	05181763          	bne	a6,a7,80004ecc <emulate_any_fadd+0x64>
    80004e82:	00c75513          	srli	a0,a4,0xc
    80004e86:	1782                	slli	a5,a5,0x20
    80004e88:	01145693          	srli	a3,s0,0x11
    80004e8c:	0f857513          	andi	a0,a0,248
    80004e90:	ffffe717          	auipc	a4,0xffffe
    80004e94:	972a                	add	a4,a4,a0
    80004e96:	51a702e7          	jalr	t0,1306(a4) # 800033aa <get_f64_reg>
    80004e9a:	872a                	mv	a4,a0
    80004e9c:	8011                	srli	s0,s0,0x4
    80004e9e:	0f86f513          	andi	a0,a3,248
    80004ea2:	ffffe697          	auipc	a3,0xffffe
    80004ea6:	96aa                	add	a3,a3,a0
    80004ea8:	508682e7          	jalr	t0,1288(a3) # 800033aa <get_f64_reg>
    80004eac:	00a7c5b3          	xor	a1,a5,a0
    80004eb0:	853a                	mv	a0,a4
    80004eb2:	434010ef          	jal	ra,800062e6 <f64_add>
    80004eb6:	0f847413          	andi	s0,s0,248
    80004eba:	ffffe797          	auipc	a5,0xffffe
    80004ebe:	97a2                	add	a5,a5,s0
    80004ec0:	5f0782e7          	jalr	t0,1520(a5) # 800034aa <put_f64_reg>
    80004ec4:	60a2                	ld	ra,8(sp)
    80004ec6:	6402                	ld	s0,0(sp)
    80004ec8:	0141                	addi	sp,sp,16
    80004eca:	8082                	ret
    80004ecc:	6402                	ld	s0,0(sp)
    80004ece:	60a2                	ld	ra,8(sp)
    80004ed0:	0141                	addi	sp,sp,16
    80004ed2:	d79ff06f          	j	80004c4a <truly_illegal_insn>
    80004ed6:	01175693          	srli	a3,a4,0x11
    80004eda:	00c75513          	srli	a0,a4,0xc
    80004ede:	0f857513          	andi	a0,a0,248
    80004ee2:	ffffe717          	auipc	a4,0xffffe
    80004ee6:	972a                	add	a4,a4,a0
    80004ee8:	2c8702e7          	jalr	t0,712(a4) # 800031aa <get_f32_reg>
    80004eec:	0005071b          	sext.w	a4,a0
    80004ef0:	0f86f513          	andi	a0,a3,248
    80004ef4:	ffffe697          	auipc	a3,0xffffe
    80004ef8:	96aa                	add	a3,a3,a0
    80004efa:	2b6682e7          	jalr	t0,694(a3) # 800031aa <get_f32_reg>
    80004efe:	0005059b          	sext.w	a1,a0
    80004f02:	8dbd                	xor	a1,a1,a5
    80004f04:	853a                	mv	a0,a4
    80004f06:	8011                	srli	s0,s0,0x4
    80004f08:	56f000ef          	jal	ra,80005c76 <f32_add>
    80004f0c:	0f847413          	andi	s0,s0,248
    80004f10:	ffffe797          	auipc	a5,0xffffe
    80004f14:	97a2                	add	a5,a5,s0
    80004f16:	39a782e7          	jalr	t0,922(a5) # 800032aa <put_f32_reg>
    80004f1a:	60a2                	ld	ra,8(sp)
    80004f1c:	6402                	ld	s0,0(sp)
    80004f1e:	0141                	addi	sp,sp,16
    80004f20:	8082                	ret

0000000080004f22 <emulate_fadd>:
    80004f22:	4781                	li	a5,0
    80004f24:	f45ff06f          	j	80004e68 <emulate_any_fadd>

0000000080004f28 <emulate_fsub>:
    80004f28:	800007b7          	lui	a5,0x80000
    80004f2c:	f3dff06f          	j	80004e68 <emulate_any_fadd>

0000000080004f30 <emulate_fmul>:
    80004f30:	1141                	addi	sp,sp,-16
    80004f32:	01975793          	srli	a5,a4,0x19
    80004f36:	e022                	sd	s0,0(sp)
    80004f38:	e406                	sd	ra,8(sp)
    80004f3a:	8b8d                	andi	a5,a5,3
    80004f3c:	843a                	mv	s0,a4
    80004f3e:	cbb9                	beqz	a5,80004f94 <emulate_fmul+0x64>
    80004f40:	4805                	li	a6,1
    80004f42:	05079463          	bne	a5,a6,80004f8a <emulate_fmul+0x5a>
    80004f46:	00c75513          	srli	a0,a4,0xc
    80004f4a:	0f857513          	andi	a0,a0,248
    80004f4e:	8345                	srli	a4,a4,0x11
    80004f50:	ffffe797          	auipc	a5,0xffffe
    80004f54:	97aa                	add	a5,a5,a0
    80004f56:	45a782e7          	jalr	t0,1114(a5) # 800033aa <get_f64_reg>
    80004f5a:	87aa                	mv	a5,a0
    80004f5c:	8011                	srli	s0,s0,0x4
    80004f5e:	0f877513          	andi	a0,a4,248
    80004f62:	ffffe717          	auipc	a4,0xffffe
    80004f66:	972a                	add	a4,a4,a0
    80004f68:	448702e7          	jalr	t0,1096(a4) # 800033aa <get_f64_reg>
    80004f6c:	85aa                	mv	a1,a0
    80004f6e:	853e                	mv	a0,a5
    80004f70:	6aa010ef          	jal	ra,8000661a <f64_mul>
    80004f74:	0f847413          	andi	s0,s0,248
    80004f78:	ffffe797          	auipc	a5,0xffffe
    80004f7c:	97a2                	add	a5,a5,s0
    80004f7e:	532782e7          	jalr	t0,1330(a5) # 800034aa <put_f64_reg>
    80004f82:	60a2                	ld	ra,8(sp)
    80004f84:	6402                	ld	s0,0(sp)
    80004f86:	0141                	addi	sp,sp,16
    80004f88:	8082                	ret
    80004f8a:	6402                	ld	s0,0(sp)
    80004f8c:	60a2                	ld	ra,8(sp)
    80004f8e:	0141                	addi	sp,sp,16
    80004f90:	cbbff06f          	j	80004c4a <truly_illegal_insn>
    80004f94:	00c75513          	srli	a0,a4,0xc
    80004f98:	0f857513          	andi	a0,a0,248
    80004f9c:	8345                	srli	a4,a4,0x11
    80004f9e:	ffffe797          	auipc	a5,0xffffe
    80004fa2:	97aa                	add	a5,a5,a0
    80004fa4:	20c782e7          	jalr	t0,524(a5) # 800031aa <get_f32_reg>
    80004fa8:	0005079b          	sext.w	a5,a0
    80004fac:	8011                	srli	s0,s0,0x4
    80004fae:	0f877513          	andi	a0,a4,248
    80004fb2:	ffffe717          	auipc	a4,0xffffe
    80004fb6:	972a                	add	a4,a4,a0
    80004fb8:	1f8702e7          	jalr	t0,504(a4) # 800031aa <get_f32_reg>
    80004fbc:	85aa                	mv	a1,a0
    80004fbe:	853e                	mv	a0,a5
    80004fc0:	7b5000ef          	jal	ra,80005f74 <f32_mul>
    80004fc4:	0f847413          	andi	s0,s0,248
    80004fc8:	ffffe797          	auipc	a5,0xffffe
    80004fcc:	97a2                	add	a5,a5,s0
    80004fce:	2e2782e7          	jalr	t0,738(a5) # 800032aa <put_f32_reg>
    80004fd2:	60a2                	ld	ra,8(sp)
    80004fd4:	6402                	ld	s0,0(sp)
    80004fd6:	0141                	addi	sp,sp,16
    80004fd8:	8082                	ret

0000000080004fda <emulate_fdiv>:
    80004fda:	1141                	addi	sp,sp,-16
    80004fdc:	01975793          	srli	a5,a4,0x19
    80004fe0:	e022                	sd	s0,0(sp)
    80004fe2:	e406                	sd	ra,8(sp)
    80004fe4:	8b8d                	andi	a5,a5,3
    80004fe6:	843a                	mv	s0,a4
    80004fe8:	cbb9                	beqz	a5,8000503e <emulate_fdiv+0x64>
    80004fea:	4805                	li	a6,1
    80004fec:	05079463          	bne	a5,a6,80005034 <emulate_fdiv+0x5a>
    80004ff0:	00c75513          	srli	a0,a4,0xc
    80004ff4:	0f857513          	andi	a0,a0,248
    80004ff8:	8345                	srli	a4,a4,0x11
    80004ffa:	ffffe797          	auipc	a5,0xffffe
    80004ffe:	97aa                	add	a5,a5,a0
    80005000:	3b0782e7          	jalr	t0,944(a5) # 800033aa <get_f64_reg>
    80005004:	87aa                	mv	a5,a0
    80005006:	8011                	srli	s0,s0,0x4
    80005008:	0f877513          	andi	a0,a4,248
    8000500c:	ffffe717          	auipc	a4,0xffffe
    80005010:	972a                	add	a4,a4,a0
    80005012:	39e702e7          	jalr	t0,926(a4) # 800033aa <get_f64_reg>
    80005016:	85aa                	mv	a1,a0
    80005018:	853e                	mv	a0,a5
    8000501a:	2ea010ef          	jal	ra,80006304 <f64_div>
    8000501e:	0f847413          	andi	s0,s0,248
    80005022:	ffffe797          	auipc	a5,0xffffe
    80005026:	97a2                	add	a5,a5,s0
    80005028:	488782e7          	jalr	t0,1160(a5) # 800034aa <put_f64_reg>
    8000502c:	60a2                	ld	ra,8(sp)
    8000502e:	6402                	ld	s0,0(sp)
    80005030:	0141                	addi	sp,sp,16
    80005032:	8082                	ret
    80005034:	6402                	ld	s0,0(sp)
    80005036:	60a2                	ld	ra,8(sp)
    80005038:	0141                	addi	sp,sp,16
    8000503a:	c11ff06f          	j	80004c4a <truly_illegal_insn>
    8000503e:	00c75513          	srli	a0,a4,0xc
    80005042:	0f857513          	andi	a0,a0,248
    80005046:	8345                	srli	a4,a4,0x11
    80005048:	ffffe797          	auipc	a5,0xffffe
    8000504c:	97aa                	add	a5,a5,a0
    8000504e:	162782e7          	jalr	t0,354(a5) # 800031aa <get_f32_reg>
    80005052:	0005079b          	sext.w	a5,a0
    80005056:	8011                	srli	s0,s0,0x4
    80005058:	0f877513          	andi	a0,a4,248
    8000505c:	ffffe717          	auipc	a4,0xffffe
    80005060:	972a                	add	a4,a4,a0
    80005062:	14e702e7          	jalr	t0,334(a4) # 800031aa <get_f32_reg>
    80005066:	85aa                	mv	a1,a0
    80005068:	853e                	mv	a0,a5
    8000506a:	42f000ef          	jal	ra,80005c98 <f32_div>
    8000506e:	0f847413          	andi	s0,s0,248
    80005072:	ffffe797          	auipc	a5,0xffffe
    80005076:	97a2                	add	a5,a5,s0
    80005078:	238782e7          	jalr	t0,568(a5) # 800032aa <put_f32_reg>
    8000507c:	60a2                	ld	ra,8(sp)
    8000507e:	6402                	ld	s0,0(sp)
    80005080:	0141                	addi	sp,sp,16
    80005082:	8082                	ret

0000000080005084 <emulate_fsqrt>:
    80005084:	01475793          	srli	a5,a4,0x14
    80005088:	8bfd                	andi	a5,a5,31
    8000508a:	efbd                	bnez	a5,80005108 <emulate_fsqrt+0x84>
    8000508c:	1141                	addi	sp,sp,-16
    8000508e:	01975793          	srli	a5,a4,0x19
    80005092:	e022                	sd	s0,0(sp)
    80005094:	e406                	sd	ra,8(sp)
    80005096:	8b8d                	andi	a5,a5,3
    80005098:	843a                	mv	s0,a4
    8000509a:	c3a1                	beqz	a5,800050da <emulate_fsqrt+0x56>
    8000509c:	4805                	li	a6,1
    8000509e:	03079963          	bne	a5,a6,800050d0 <emulate_fsqrt+0x4c>
    800050a2:	00c75513          	srli	a0,a4,0xc
    800050a6:	8011                	srli	s0,s0,0x4
    800050a8:	0f857513          	andi	a0,a0,248
    800050ac:	0f847413          	andi	s0,s0,248
    800050b0:	ffffe797          	auipc	a5,0xffffe
    800050b4:	97aa                	add	a5,a5,a0
    800050b6:	2fa782e7          	jalr	t0,762(a5) # 800033aa <get_f64_reg>
    800050ba:	690010ef          	jal	ra,8000674a <f64_sqrt>
    800050be:	ffffe797          	auipc	a5,0xffffe
    800050c2:	97a2                	add	a5,a5,s0
    800050c4:	3ec782e7          	jalr	t0,1004(a5) # 800034aa <put_f64_reg>
    800050c8:	60a2                	ld	ra,8(sp)
    800050ca:	6402                	ld	s0,0(sp)
    800050cc:	0141                	addi	sp,sp,16
    800050ce:	8082                	ret
    800050d0:	6402                	ld	s0,0(sp)
    800050d2:	60a2                	ld	ra,8(sp)
    800050d4:	0141                	addi	sp,sp,16
    800050d6:	b75ff06f          	j	80004c4a <truly_illegal_insn>
    800050da:	00c75513          	srli	a0,a4,0xc
    800050de:	8011                	srli	s0,s0,0x4
    800050e0:	0f857513          	andi	a0,a0,248
    800050e4:	0f847413          	andi	s0,s0,248
    800050e8:	ffffe797          	auipc	a5,0xffffe
    800050ec:	97aa                	add	a5,a5,a0
    800050ee:	0c2782e7          	jalr	t0,194(a5) # 800031aa <get_f32_reg>
    800050f2:	7c7000ef          	jal	ra,800060b8 <f32_sqrt>
    800050f6:	ffffe797          	auipc	a5,0xffffe
    800050fa:	97a2                	add	a5,a5,s0
    800050fc:	1b4782e7          	jalr	t0,436(a5) # 800032aa <put_f32_reg>
    80005100:	60a2                	ld	ra,8(sp)
    80005102:	6402                	ld	s0,0(sp)
    80005104:	0141                	addi	sp,sp,16
    80005106:	8082                	ret
    80005108:	b43ff06f          	j	80004c4a <truly_illegal_insn>

000000008000510c <emulate_fsgnj>:
    8000510c:	00c75313          	srli	t1,a4,0xc
    80005110:	0003089b          	sext.w	a7,t1
    80005114:	0078f813          	andi	a6,a7,7
    80005118:	4789                	li	a5,2
    8000511a:	0d07c063          	blt	a5,a6,800051da <emulate_fsgnj+0xce>
    8000511e:	01975793          	srli	a5,a4,0x19
    80005122:	8b8d                	andi	a5,a5,3
    80005124:	cfb1                	beqz	a5,80005180 <emulate_fsgnj+0x74>
    80005126:	4885                	li	a7,1
    80005128:	0b179963          	bne	a5,a7,800051da <emulate_fsgnj+0xce>
    8000512c:	01175693          	srli	a3,a4,0x11
    80005130:	0f837513          	andi	a0,t1,248
    80005134:	ffffe797          	auipc	a5,0xffffe
    80005138:	97aa                	add	a5,a5,a0
    8000513a:	276782e7          	jalr	t0,630(a5) # 800033aa <get_f64_reg>
    8000513e:	87aa                	mv	a5,a0
    80005140:	03f55613          	srli	a2,a0,0x3f
    80005144:	0f86f513          	andi	a0,a3,248
    80005148:	00185693          	srli	a3,a6,0x1
    8000514c:	ffffe597          	auipc	a1,0xffffe
    80005150:	95aa                	add	a1,a1,a0
    80005152:	25e582e7          	jalr	t0,606(a1) # 800033aa <get_f64_reg>
    80005156:	917d                	srli	a0,a0,0x3f
    80005158:	8ef1                	and	a3,a3,a2
    8000515a:	01054833          	xor	a6,a0,a6
    8000515e:	00d84833          	xor	a6,a6,a3
    80005162:	00179513          	slli	a0,a5,0x1
    80005166:	187e                	slli	a6,a6,0x3f
    80005168:	8105                	srli	a0,a0,0x1
    8000516a:	8311                	srli	a4,a4,0x4
    8000516c:	00a86533          	or	a0,a6,a0
    80005170:	0f877713          	andi	a4,a4,248
    80005174:	ffffe797          	auipc	a5,0xffffe
    80005178:	97ba                	add	a5,a5,a4
    8000517a:	336782e7          	jalr	t0,822(a5) # 800034aa <put_f64_reg>
    8000517e:	8082                	ret
    80005180:	01175693          	srli	a3,a4,0x11
    80005184:	0f88f513          	andi	a0,a7,248
    80005188:	ffffe797          	auipc	a5,0xffffe
    8000518c:	97aa                	add	a5,a5,a0
    8000518e:	022782e7          	jalr	t0,34(a5) # 800031aa <get_f32_reg>
    80005192:	0005079b          	sext.w	a5,a0
    80005196:	01f7d61b          	srliw	a2,a5,0x1f
    8000519a:	0f86f513          	andi	a0,a3,248
    8000519e:	4018569b          	sraiw	a3,a6,0x1
    800051a2:	ffffe597          	auipc	a1,0xffffe
    800051a6:	95aa                	add	a1,a1,a0
    800051a8:	008582e7          	jalr	t0,8(a1) # 800031aa <get_f32_reg>
    800051ac:	01f5551b          	srliw	a0,a0,0x1f
    800051b0:	8ef1                	and	a3,a3,a2
    800051b2:	00a84833          	xor	a6,a6,a0
    800051b6:	00d84833          	xor	a6,a6,a3
    800051ba:	02179513          	slli	a0,a5,0x21
    800051be:	01f8181b          	slliw	a6,a6,0x1f
    800051c2:	9105                	srli	a0,a0,0x21
    800051c4:	8311                	srli	a4,a4,0x4
    800051c6:	01056533          	or	a0,a0,a6
    800051ca:	0f877713          	andi	a4,a4,248
    800051ce:	ffffe797          	auipc	a5,0xffffe
    800051d2:	97ba                	add	a5,a5,a4
    800051d4:	0dc782e7          	jalr	t0,220(a5) # 800032aa <put_f32_reg>
    800051d8:	8082                	ret
    800051da:	a71ff06f          	j	80004c4a <truly_illegal_insn>

00000000800051de <emulate_fmin>:
    800051de:	00c75893          	srli	a7,a4,0xc
    800051e2:	0008881b          	sext.w	a6,a7
    800051e6:	00687793          	andi	a5,a6,6
    800051ea:	10079f63          	bnez	a5,80005308 <emulate_fmin+0x12a>
    800051ee:	1101                	addi	sp,sp,-32
    800051f0:	01975793          	srli	a5,a4,0x19
    800051f4:	e822                	sd	s0,16(sp)
    800051f6:	ec06                	sd	ra,24(sp)
    800051f8:	e426                	sd	s1,8(sp)
    800051fa:	e04a                	sd	s2,0(sp)
    800051fc:	8b8d                	andi	a5,a5,3
    800051fe:	00787313          	andi	t1,a6,7
    80005202:	843a                	mv	s0,a4
    80005204:	c7b5                	beqz	a5,80005270 <emulate_fmin+0x92>
    80005206:	4805                	li	a6,1
    80005208:	0d079763          	bne	a5,a6,800052d6 <emulate_fmin+0xf8>
    8000520c:	01175793          	srli	a5,a4,0x11
    80005210:	0f88f513          	andi	a0,a7,248
    80005214:	ffffe717          	auipc	a4,0xffffe
    80005218:	972a                	add	a4,a4,a0
    8000521a:	196702e7          	jalr	t0,406(a4) # 800033aa <get_f64_reg>
    8000521e:	84aa                	mv	s1,a0
    80005220:	0f87f513          	andi	a0,a5,248
    80005224:	ffffe797          	auipc	a5,0xffffe
    80005228:	97aa                	add	a5,a5,a0
    8000522a:	186782e7          	jalr	t0,390(a5) # 800033aa <get_f64_reg>
    8000522e:	892a                	mv	s2,a0
    80005230:	0a031d63          	bnez	t1,800052ea <emulate_fmin+0x10c>
    80005234:	8526                	mv	a0,s1
    80005236:	85ca                	mv	a1,s2
    80005238:	34a010ef          	jal	ra,80006582 <f64_lt_quiet>
    8000523c:	e919                	bnez	a0,80005252 <emulate_fmin+0x74>
    8000523e:	7ff00713          	li	a4,2047
    80005242:	fff94793          	not	a5,s2
    80005246:	1752                	slli	a4,a4,0x34
    80005248:	8ff9                	and	a5,a5,a4
    8000524a:	e7c5                	bnez	a5,800052f2 <emulate_fmin+0x114>
    8000524c:	00c91793          	slli	a5,s2,0xc
    80005250:	c3cd                	beqz	a5,800052f2 <emulate_fmin+0x114>
    80005252:	8011                	srli	s0,s0,0x4
    80005254:	8526                	mv	a0,s1
    80005256:	0f847413          	andi	s0,s0,248
    8000525a:	ffffe797          	auipc	a5,0xffffe
    8000525e:	97a2                	add	a5,a5,s0
    80005260:	250782e7          	jalr	t0,592(a5) # 800034aa <put_f64_reg>
    80005264:	60e2                	ld	ra,24(sp)
    80005266:	6442                	ld	s0,16(sp)
    80005268:	64a2                	ld	s1,8(sp)
    8000526a:	6902                	ld	s2,0(sp)
    8000526c:	6105                	addi	sp,sp,32
    8000526e:	8082                	ret
    80005270:	01175793          	srli	a5,a4,0x11
    80005274:	0f887513          	andi	a0,a6,248
    80005278:	ffffe717          	auipc	a4,0xffffe
    8000527c:	972a                	add	a4,a4,a0
    8000527e:	f32702e7          	jalr	t0,-206(a4) # 800031aa <get_f32_reg>
    80005282:	0005049b          	sext.w	s1,a0
    80005286:	0f87f513          	andi	a0,a5,248
    8000528a:	ffffe797          	auipc	a5,0xffffe
    8000528e:	97aa                	add	a5,a5,a0
    80005290:	f20782e7          	jalr	t0,-224(a5) # 800031aa <get_f32_reg>
    80005294:	0005091b          	sext.w	s2,a0
    80005298:	04031663          	bnez	t1,800052e4 <emulate_fmin+0x106>
    8000529c:	8526                	mv	a0,s1
    8000529e:	85ca                	mv	a1,s2
    800052a0:	445000ef          	jal	ra,80005ee4 <f32_lt_quiet>
    800052a4:	e911                	bnez	a0,800052b8 <emulate_fmin+0xda>
    800052a6:	fff94793          	not	a5,s2
    800052aa:	7f800737          	lui	a4,0x7f800
    800052ae:	8ff9                	and	a5,a5,a4
    800052b0:	ef9d                	bnez	a5,800052ee <emulate_fmin+0x110>
    800052b2:	02991793          	slli	a5,s2,0x29
    800052b6:	cf85                	beqz	a5,800052ee <emulate_fmin+0x110>
    800052b8:	8011                	srli	s0,s0,0x4
    800052ba:	8526                	mv	a0,s1
    800052bc:	0f847413          	andi	s0,s0,248
    800052c0:	ffffe797          	auipc	a5,0xffffe
    800052c4:	97a2                	add	a5,a5,s0
    800052c6:	fea782e7          	jalr	t0,-22(a5) # 800032aa <put_f32_reg>
    800052ca:	60e2                	ld	ra,24(sp)
    800052cc:	6442                	ld	s0,16(sp)
    800052ce:	64a2                	ld	s1,8(sp)
    800052d0:	6902                	ld	s2,0(sp)
    800052d2:	6105                	addi	sp,sp,32
    800052d4:	8082                	ret
    800052d6:	6442                	ld	s0,16(sp)
    800052d8:	60e2                	ld	ra,24(sp)
    800052da:	64a2                	ld	s1,8(sp)
    800052dc:	6902                	ld	s2,0(sp)
    800052de:	6105                	addi	sp,sp,32
    800052e0:	96bff06f          	j	80004c4a <truly_illegal_insn>
    800052e4:	854a                	mv	a0,s2
    800052e6:	85a6                	mv	a1,s1
    800052e8:	bf65                	j	800052a0 <emulate_fmin+0xc2>
    800052ea:	85a6                	mv	a1,s1
    800052ec:	b7b1                	j	80005238 <emulate_fmin+0x5a>
    800052ee:	84ca                	mv	s1,s2
    800052f0:	b7e1                	j	800052b8 <emulate_fmin+0xda>
    800052f2:	84ca                	mv	s1,s2
    800052f4:	8011                	srli	s0,s0,0x4
    800052f6:	8526                	mv	a0,s1
    800052f8:	0f847413          	andi	s0,s0,248
    800052fc:	ffffe797          	auipc	a5,0xffffe
    80005300:	97a2                	add	a5,a5,s0
    80005302:	1ae782e7          	jalr	t0,430(a5) # 800034aa <put_f64_reg>
    80005306:	bfb9                	j	80005264 <emulate_fmin+0x86>
    80005308:	943ff06f          	j	80004c4a <truly_illegal_insn>

000000008000530c <emulate_fcvt_ff>:
    8000530c:	1101                	addi	sp,sp,-32
    8000530e:	01975793          	srli	a5,a4,0x19
    80005312:	01475813          	srli	a6,a4,0x14
    80005316:	ec06                	sd	ra,24(sp)
    80005318:	8b8d                	andi	a5,a5,3
    8000531a:	01f87813          	andi	a6,a6,31
    8000531e:	e3a1                	bnez	a5,8000535e <emulate_fcvt_ff+0x52>
    80005320:	4785                	li	a5,1
    80005322:	02f81a63          	bne	a6,a5,80005356 <emulate_fcvt_ff+0x4a>
    80005326:	00c75513          	srli	a0,a4,0xc
    8000532a:	e43a                	sd	a4,8(sp)
    8000532c:	0f857513          	andi	a0,a0,248
    80005330:	ffffe797          	auipc	a5,0xffffe
    80005334:	97aa                	add	a5,a5,a0
    80005336:	07a782e7          	jalr	t0,122(a5) # 800033aa <get_f64_reg>
    8000533a:	530010ef          	jal	ra,8000686a <f64_to_f32>
    8000533e:	6722                	ld	a4,8(sp)
    80005340:	8311                	srli	a4,a4,0x4
    80005342:	0f877713          	andi	a4,a4,248
    80005346:	ffffe797          	auipc	a5,0xffffe
    8000534a:	97ba                	add	a5,a5,a4
    8000534c:	f64782e7          	jalr	t0,-156(a5) # 800032aa <put_f32_reg>
    80005350:	60e2                	ld	ra,24(sp)
    80005352:	6105                	addi	sp,sp,32
    80005354:	8082                	ret
    80005356:	60e2                	ld	ra,24(sp)
    80005358:	6105                	addi	sp,sp,32
    8000535a:	8f1ff06f          	j	80004c4a <truly_illegal_insn>
    8000535e:	4885                	li	a7,1
    80005360:	ff179be3          	bne	a5,a7,80005356 <emulate_fcvt_ff+0x4a>
    80005364:	fe0819e3          	bnez	a6,80005356 <emulate_fcvt_ff+0x4a>
    80005368:	00c75513          	srli	a0,a4,0xc
    8000536c:	e43a                	sd	a4,8(sp)
    8000536e:	0f857513          	andi	a0,a0,248
    80005372:	ffffe797          	auipc	a5,0xffffe
    80005376:	97aa                	add	a5,a5,a0
    80005378:	e38782e7          	jalr	t0,-456(a5) # 800031aa <get_f32_reg>
    8000537c:	62b000ef          	jal	ra,800061a6 <f32_to_f64>
    80005380:	6722                	ld	a4,8(sp)
    80005382:	8311                	srli	a4,a4,0x4
    80005384:	0f877713          	andi	a4,a4,248
    80005388:	ffffe797          	auipc	a5,0xffffe
    8000538c:	97ba                	add	a5,a5,a4
    8000538e:	122782e7          	jalr	t0,290(a5) # 800034aa <put_f64_reg>
    80005392:	60e2                	ld	ra,24(sp)
    80005394:	6105                	addi	sp,sp,32
    80005396:	8082                	ret

0000000080005398 <emulate_fcvt_fi>:
    80005398:	02571793          	slli	a5,a4,0x25
    8000539c:	0607c163          	bltz	a5,800053fe <emulate_fcvt_fi+0x66>
    800053a0:	00c75893          	srli	a7,a4,0xc
    800053a4:	1141                	addi	sp,sp,-16
    800053a6:	0f88f893          	andi	a7,a7,248
    800053aa:	01475793          	srli	a5,a4,0x14
    800053ae:	01150833          	add	a6,a0,a7
    800053b2:	e022                	sd	s0,0(sp)
    800053b4:	e406                	sd	ra,8(sp)
    800053b6:	8bfd                	andi	a5,a5,31
    800053b8:	4885                	li	a7,1
    800053ba:	843a                	mv	s0,a4
    800053bc:	00083803          	ld	a6,0(a6)
    800053c0:	05178163          	beq	a5,a7,80005402 <emulate_fcvt_fi+0x6a>
    800053c4:	c7b5                	beqz	a5,80005430 <emulate_fcvt_fi+0x98>
    800053c6:	4889                	li	a7,2
    800053c8:	09178363          	beq	a5,a7,8000544e <emulate_fcvt_fi+0xb6>
    800053cc:	488d                	li	a7,3
    800053ce:	03179563          	bne	a5,a7,800053f8 <emulate_fcvt_fi+0x60>
    800053d2:	8542                	mv	a0,a6
    800053d4:	11b020ef          	jal	ra,80007cee <ui64_to_f64>
    800053d8:	01945793          	srli	a5,s0,0x19
    800053dc:	8b8d                	andi	a5,a5,3
    800053de:	8011                	srli	s0,s0,0x4
    800053e0:	0f847413          	andi	s0,s0,248
    800053e4:	cb9d                	beqz	a5,8000541a <emulate_fcvt_fi+0x82>
    800053e6:	ffffe797          	auipc	a5,0xffffe
    800053ea:	97a2                	add	a5,a5,s0
    800053ec:	0c4782e7          	jalr	t0,196(a5) # 800034aa <put_f64_reg>
    800053f0:	60a2                	ld	ra,8(sp)
    800053f2:	6402                	ld	s0,0(sp)
    800053f4:	0141                	addi	sp,sp,16
    800053f6:	8082                	ret
    800053f8:	6402                	ld	s0,0(sp)
    800053fa:	60a2                	ld	ra,8(sp)
    800053fc:	0141                	addi	sp,sp,16
    800053fe:	84dff06f          	j	80004c4a <truly_illegal_insn>
    80005402:	02081513          	slli	a0,a6,0x20
    80005406:	9101                	srli	a0,a0,0x20
    80005408:	0e7020ef          	jal	ra,80007cee <ui64_to_f64>
    8000540c:	01945793          	srli	a5,s0,0x19
    80005410:	8b8d                	andi	a5,a5,3
    80005412:	8011                	srli	s0,s0,0x4
    80005414:	0f847413          	andi	s0,s0,248
    80005418:	f7f9                	bnez	a5,800053e6 <emulate_fcvt_fi+0x4e>
    8000541a:	450010ef          	jal	ra,8000686a <f64_to_f32>
    8000541e:	ffffe797          	auipc	a5,0xffffe
    80005422:	97a2                	add	a5,a5,s0
    80005424:	e8c782e7          	jalr	t0,-372(a5) # 800032aa <put_f32_reg>
    80005428:	60a2                	ld	ra,8(sp)
    8000542a:	6402                	ld	s0,0(sp)
    8000542c:	0141                	addi	sp,sp,16
    8000542e:	8082                	ret
    80005430:	02081793          	slli	a5,a6,0x20
    80005434:	fc07d7e3          	bgez	a5,80005402 <emulate_fcvt_fi+0x6a>
    80005438:	4100083b          	negw	a6,a6
    8000543c:	02081513          	slli	a0,a6,0x20
    80005440:	9101                	srli	a0,a0,0x20
    80005442:	0ad020ef          	jal	ra,80007cee <ui64_to_f64>
    80005446:	57fd                	li	a5,-1
    80005448:	17fe                	slli	a5,a5,0x3f
    8000544a:	8d3d                	xor	a0,a0,a5
    8000544c:	b771                	j	800053d8 <emulate_fcvt_fi+0x40>
    8000544e:	41000533          	neg	a0,a6
    80005452:	f80850e3          	bgez	a6,800053d2 <emulate_fcvt_fi+0x3a>
    80005456:	b7f5                	j	80005442 <emulate_fcvt_fi+0xaa>

0000000080005458 <emulate_fcvt_if>:
    80005458:	7179                	addi	sp,sp,-48
    8000545a:	f022                	sd	s0,32(sp)
    8000545c:	01475413          	srli	s0,a4,0x14
    80005460:	2401                	sext.w	s0,s0
    80005462:	f406                	sd	ra,40(sp)
    80005464:	ec26                	sd	s1,24(sp)
    80005466:	e84a                	sd	s2,16(sp)
    80005468:	e44e                	sd	s3,8(sp)
    8000546a:	e052                	sd	s4,0(sp)
    8000546c:	01c47793          	andi	a5,s0,28
    80005470:	e3bd                	bnez	a5,800054d6 <emulate_fcvt_if+0x7e>
    80005472:	01975793          	srli	a5,a4,0x19
    80005476:	8b8d                	andi	a5,a5,3
    80005478:	89aa                	mv	s3,a0
    8000547a:	84ba                	mv	s1,a4
    8000547c:	c7c1                	beqz	a5,80005504 <emulate_fcvt_if+0xac>
    8000547e:	4805                	li	a6,1
    80005480:	05079b63          	bne	a5,a6,800054d6 <emulate_fcvt_if+0x7e>
    80005484:	00c75513          	srli	a0,a4,0xc
    80005488:	0f857513          	andi	a0,a0,248
    8000548c:	887d                	andi	s0,s0,31
    8000548e:	ffffe797          	auipc	a5,0xffffe
    80005492:	97aa                	add	a5,a5,a0
    80005494:	f1c782e7          	jalr	t0,-228(a5) # 800033aa <get_f64_reg>
    80005498:	0002059b          	sext.w	a1,tp
    8000549c:	08054463          	bltz	a0,80005524 <emulate_fcvt_if+0xcc>
    800054a0:	4605                	li	a2,1
    800054a2:	44c010ef          	jal	ra,800068ee <f64_to_ui64>
    800054a6:	4785                	li	a5,1
    800054a8:	0cf40d63          	beq	s0,a5,80005582 <emulate_fcvt_if+0x12a>
    800054ac:	0287de63          	bge	a5,s0,800054e8 <emulate_fcvt_if+0x90>
    800054b0:	4789                	li	a5,2
    800054b2:	0af40963          	beq	s0,a5,80005564 <emulate_fcvt_if+0x10c>
    800054b6:	478d                	li	a5,3
    800054b8:	0cf41b63          	bne	s0,a5,8000558e <emulate_fcmp>
    800054bc:	8091                	srli	s1,s1,0x4
    800054be:	70a2                	ld	ra,40(sp)
    800054c0:	7402                	ld	s0,32(sp)
    800054c2:	0f84f493          	andi	s1,s1,248
    800054c6:	94ce                	add	s1,s1,s3
    800054c8:	e088                	sd	a0,0(s1)
    800054ca:	6942                	ld	s2,16(sp)
    800054cc:	64e2                	ld	s1,24(sp)
    800054ce:	69a2                	ld	s3,8(sp)
    800054d0:	6a02                	ld	s4,0(sp)
    800054d2:	6145                	addi	sp,sp,48
    800054d4:	8082                	ret
    800054d6:	7402                	ld	s0,32(sp)
    800054d8:	70a2                	ld	ra,40(sp)
    800054da:	64e2                	ld	s1,24(sp)
    800054dc:	6942                	ld	s2,16(sp)
    800054de:	69a2                	ld	s3,8(sp)
    800054e0:	6a02                	ld	s4,0(sp)
    800054e2:	6145                	addi	sp,sp,48
    800054e4:	f66ff06f          	j	80004c4a <truly_illegal_insn>
    800054e8:	e05d                	bnez	s0,8000558e <emulate_fcmp>
    800054ea:	800007b7          	lui	a5,0x80000
    800054ee:	fff7c793          	not	a5,a5
    800054f2:	0005071b          	sext.w	a4,a0
    800054f6:	86be                	mv	a3,a5
    800054f8:	04a6fe63          	bgeu	a3,a0,80005554 <emulate_fcvt_if+0xfc>
    800054fc:	00186773          	csrrsi	a4,fflags,16
    80005500:	853e                	mv	a0,a5
    80005502:	bf6d                	j	800054bc <emulate_fcvt_if+0x64>
    80005504:	00c75513          	srli	a0,a4,0xc
    80005508:	0f857513          	andi	a0,a0,248
    8000550c:	ffffe797          	auipc	a5,0xffffe
    80005510:	97aa                	add	a5,a5,a0
    80005512:	c9e782e7          	jalr	t0,-866(a5) # 800031aa <get_f32_reg>
    80005516:	491000ef          	jal	ra,800061a6 <f32_to_f64>
    8000551a:	887d                	andi	s0,s0,31
    8000551c:	0002059b          	sext.w	a1,tp
    80005520:	f80550e3          	bgez	a0,800054a0 <emulate_fcvt_if+0x48>
    80005524:	5a7d                	li	s4,-1
    80005526:	03fa1913          	slli	s2,s4,0x3f
    8000552a:	4605                	li	a2,1
    8000552c:	01254533          	xor	a0,a0,s2
    80005530:	3be010ef          	jal	ra,800068ee <f64_to_ui64>
    80005534:	4785                	li	a5,1
    80005536:	04f40163          	beq	s0,a5,80005578 <emulate_fcvt_if+0x120>
    8000553a:	0087df63          	bge	a5,s0,80005558 <emulate_fcvt_if+0x100>
    8000553e:	4789                	li	a5,2
    80005540:	02f40763          	beq	s0,a5,8000556e <emulate_fcvt_if+0x116>
    80005544:	478d                	li	a5,3
    80005546:	04f41463          	bne	s0,a5,8000558e <emulate_fcmp>
    8000554a:	4681                	li	a3,0
    8000554c:	57fd                	li	a5,-1
    8000554e:	4701                	li	a4,0
    80005550:	faa6e6e3          	bltu	a3,a0,800054fc <emulate_fcvt_if+0xa4>
    80005554:	853a                	mv	a0,a4
    80005556:	b79d                	j	800054bc <emulate_fcvt_if+0x64>
    80005558:	e81d                	bnez	s0,8000558e <emulate_fcmp>
    8000555a:	07fe                	slli	a5,a5,0x1f
    8000555c:	40a0073b          	negw	a4,a0
    80005560:	86be                	mv	a3,a5
    80005562:	bf59                	j	800054f8 <emulate_fcvt_if+0xa0>
    80005564:	57fd                	li	a5,-1
    80005566:	8385                	srli	a5,a5,0x1
    80005568:	872a                	mv	a4,a0
    8000556a:	86be                	mv	a3,a5
    8000556c:	b771                	j	800054f8 <emulate_fcvt_if+0xa0>
    8000556e:	87ca                	mv	a5,s2
    80005570:	40a00733          	neg	a4,a0
    80005574:	86ca                	mv	a3,s2
    80005576:	b749                	j	800054f8 <emulate_fcvt_if+0xa0>
    80005578:	020a5793          	srli	a5,s4,0x20
    8000557c:	4681                	li	a3,0
    8000557e:	4701                	li	a4,0
    80005580:	bfa5                	j	800054f8 <emulate_fcvt_if+0xa0>
    80005582:	577d                	li	a4,-1
    80005584:	9301                	srli	a4,a4,0x20
    80005586:	87ba                	mv	a5,a4
    80005588:	86be                	mv	a3,a5
    8000558a:	8f69                	and	a4,a4,a0
    8000558c:	b7b5                	j	800054f8 <emulate_fcvt_if+0xa0>

000000008000558e <emulate_fcmp>:
    8000558e:	00c75893          	srli	a7,a4,0xc
    80005592:	7179                	addi	sp,sp,-48
    80005594:	0008881b          	sext.w	a6,a7
    80005598:	ec26                	sd	s1,24(sp)
    8000559a:	f406                	sd	ra,40(sp)
    8000559c:	f022                	sd	s0,32(sp)
    8000559e:	e84a                	sd	s2,16(sp)
    800055a0:	e44e                	sd	s3,8(sp)
    800055a2:	e052                	sd	s4,0(sp)
    800055a4:	00787493          	andi	s1,a6,7
    800055a8:	4789                	li	a5,2
    800055aa:	0097cb63          	blt	a5,s1,800055c0 <emulate_fcmp+0x32>
    800055ae:	01975793          	srli	a5,a4,0x19
    800055b2:	8b8d                	andi	a5,a5,3
    800055b4:	892a                	mv	s2,a0
    800055b6:	843a                	mv	s0,a4
    800055b8:	cf89                	beqz	a5,800055d2 <emulate_fcmp+0x44>
    800055ba:	4805                	li	a6,1
    800055bc:	07078b63          	beq	a5,a6,80005632 <emulate_fcmp+0xa4>
    800055c0:	7402                	ld	s0,32(sp)
    800055c2:	70a2                	ld	ra,40(sp)
    800055c4:	64e2                	ld	s1,24(sp)
    800055c6:	6942                	ld	s2,16(sp)
    800055c8:	69a2                	ld	s3,8(sp)
    800055ca:	6a02                	ld	s4,0(sp)
    800055cc:	6145                	addi	sp,sp,48
    800055ce:	e7cff06f          	j	80004c4a <truly_illegal_insn>
    800055d2:	01175793          	srli	a5,a4,0x11
    800055d6:	4705                	li	a4,1
    800055d8:	0f887513          	andi	a0,a6,248
    800055dc:	ffffe697          	auipc	a3,0xffffe
    800055e0:	96aa                	add	a3,a3,a0
    800055e2:	bce682e7          	jalr	t0,-1074(a3) # 800031aa <get_f32_reg>
    800055e6:	0005099b          	sext.w	s3,a0
    800055ea:	0f87f513          	andi	a0,a5,248
    800055ee:	ffffe797          	auipc	a5,0xffffe
    800055f2:	97aa                	add	a5,a5,a0
    800055f4:	bbc782e7          	jalr	t0,-1092(a5) # 800031aa <get_f32_reg>
    800055f8:	00050a1b          	sext.w	s4,a0
    800055fc:	02e49363          	bne	s1,a4,80005622 <emulate_fcmp+0x94>
    80005600:	85d2                	mv	a1,s4
    80005602:	854e                	mv	a0,s3
    80005604:	079000ef          	jal	ra,80005e7c <f32_lt>
    80005608:	8011                	srli	s0,s0,0x4
    8000560a:	0f847413          	andi	s0,s0,248
    8000560e:	944a                	add	s0,s0,s2
    80005610:	e008                	sd	a0,0(s0)
    80005612:	70a2                	ld	ra,40(sp)
    80005614:	7402                	ld	s0,32(sp)
    80005616:	64e2                	ld	s1,24(sp)
    80005618:	6942                	ld	s2,16(sp)
    8000561a:	69a2                	ld	s3,8(sp)
    8000561c:	6a02                	ld	s4,0(sp)
    8000561e:	6145                	addi	sp,sp,48
    80005620:	8082                	ret
    80005622:	85d2                	mv	a1,s4
    80005624:	854e                	mv	a0,s3
    80005626:	7e2000ef          	jal	ra,80005e08 <f32_eq>
    8000562a:	fcf9                	bnez	s1,80005608 <emulate_fcmp+0x7a>
    8000562c:	d971                	beqz	a0,80005600 <emulate_fcmp+0x72>
    8000562e:	4505                	li	a0,1
    80005630:	bfe1                	j	80005608 <emulate_fcmp+0x7a>
    80005632:	8345                	srli	a4,a4,0x11
    80005634:	0f88f513          	andi	a0,a7,248
    80005638:	ffffe697          	auipc	a3,0xffffe
    8000563c:	96aa                	add	a3,a3,a0
    8000563e:	d72682e7          	jalr	t0,-654(a3) # 800033aa <get_f64_reg>
    80005642:	89aa                	mv	s3,a0
    80005644:	0f877513          	andi	a0,a4,248
    80005648:	ffffe717          	auipc	a4,0xffffe
    8000564c:	972a                	add	a4,a4,a0
    8000564e:	d62702e7          	jalr	t0,-670(a4) # 800033aa <get_f64_reg>
    80005652:	8a2a                	mv	s4,a0
    80005654:	00f49763          	bne	s1,a5,80005662 <emulate_fcmp+0xd4>
    80005658:	85d2                	mv	a1,s4
    8000565a:	854e                	mv	a0,s3
    8000565c:	6c3000ef          	jal	ra,8000651e <f64_lt>
    80005660:	b765                	j	80005608 <emulate_fcmp+0x7a>
    80005662:	85aa                	mv	a1,a0
    80005664:	854e                	mv	a0,s3
    80005666:	63f000ef          	jal	ra,800064a4 <f64_eq>
    8000566a:	fcd9                	bnez	s1,80005608 <emulate_fcmp+0x7a>
    8000566c:	d575                	beqz	a0,80005658 <emulate_fcmp+0xca>
    8000566e:	4505                	li	a0,1
    80005670:	bf61                	j	80005608 <emulate_fcmp+0x7a>

0000000080005672 <emulate_fmv_if>:
    80005672:	01475793          	srli	a5,a4,0x14
    80005676:	8bfd                	andi	a5,a5,31
    80005678:	eba1                	bnez	a5,800056c8 <emulate_fmv_if+0x56>
    8000567a:	1101                	addi	sp,sp,-32
    8000567c:	01975793          	srli	a5,a4,0x19
    80005680:	e822                	sd	s0,16(sp)
    80005682:	e426                	sd	s1,8(sp)
    80005684:	ec06                	sd	ra,24(sp)
    80005686:	8b8d                	andi	a5,a5,3
    80005688:	8336                	mv	t1,a3
    8000568a:	88b2                	mv	a7,a2
    8000568c:	882e                	mv	a6,a1
    8000568e:	84aa                	mv	s1,a0
    80005690:	843a                	mv	s0,a4
    80005692:	ef8d                	bnez	a5,800056cc <emulate_fmv_if+0x5a>
    80005694:	00c75513          	srli	a0,a4,0xc
    80005698:	00757793          	andi	a5,a0,7
    8000569c:	0f857513          	andi	a0,a0,248
    800056a0:	ffffe717          	auipc	a4,0xffffe
    800056a4:	972a                	add	a4,a4,a0
    800056a6:	b0a702e7          	jalr	t0,-1270(a4) # 800031aa <get_f32_reg>
    800056aa:	0005071b          	sext.w	a4,a0
    800056ae:	c7b1                	beqz	a5,800056fa <emulate_fmv_if+0x88>
    800056b0:	4685                	li	a3,1
    800056b2:	04d78e63          	beq	a5,a3,8000570e <emulate_fmv_if+0x9c>
    800056b6:	8722                	mv	a4,s0
    800056b8:	869a                	mv	a3,t1
    800056ba:	8646                	mv	a2,a7
    800056bc:	85c2                	mv	a1,a6
    800056be:	8526                	mv	a0,s1
    800056c0:	6442                	ld	s0,16(sp)
    800056c2:	60e2                	ld	ra,24(sp)
    800056c4:	64a2                	ld	s1,8(sp)
    800056c6:	6105                	addi	sp,sp,32
    800056c8:	d82ff06f          	j	80004c4a <truly_illegal_insn>
    800056cc:	4e05                	li	t3,1
    800056ce:	ffc799e3          	bne	a5,t3,800056c0 <emulate_fmv_if+0x4e>
    800056d2:	00c75513          	srli	a0,a4,0xc
    800056d6:	00757693          	andi	a3,a0,7
    800056da:	0f857513          	andi	a0,a0,248
    800056de:	ffffe717          	auipc	a4,0xffffe
    800056e2:	972a                	add	a4,a4,a0
    800056e4:	ccc702e7          	jalr	t0,-820(a4) # 800033aa <get_f64_reg>
    800056e8:	872a                	mv	a4,a0
    800056ea:	ca81                	beqz	a3,800056fa <emulate_fmv_if+0x88>
    800056ec:	fcf695e3          	bne	a3,a5,800056b6 <emulate_fmv_if+0x44>
    800056f0:	2b0010ef          	jal	ra,800069a0 <f64_classify>
    800056f4:	02051713          	slli	a4,a0,0x20
    800056f8:	9301                	srli	a4,a4,0x20
    800056fa:	8011                	srli	s0,s0,0x4
    800056fc:	0f847413          	andi	s0,s0,248
    80005700:	9426                	add	s0,s0,s1
    80005702:	e018                	sd	a4,0(s0)
    80005704:	60e2                	ld	ra,24(sp)
    80005706:	6442                	ld	s0,16(sp)
    80005708:	64a2                	ld	s1,8(sp)
    8000570a:	6105                	addi	sp,sp,32
    8000570c:	8082                	ret
    8000570e:	853a                	mv	a0,a4
    80005710:	319000ef          	jal	ra,80006228 <f32_classify>
    80005714:	02051713          	slli	a4,a0,0x20
    80005718:	9301                	srli	a4,a4,0x20
    8000571a:	b7c5                	j	800056fa <emulate_fmv_if+0x88>

000000008000571c <emulate_fmv_fi>:
    8000571c:	00006317          	auipc	t1,0x6
    80005720:	d2c30313          	addi	t1,t1,-724 # 8000b448 <trap_table+0x48>
    80005724:	00033303          	ld	t1,0(t1)
    80005728:	00c75893          	srli	a7,a4,0xc
    8000572c:	483d                	li	a6,15
    8000572e:	0f88f893          	andi	a7,a7,248
    80005732:	0872                	slli	a6,a6,0x1c
    80005734:	98aa                	add	a7,a7,a0
    80005736:	00677333          	and	t1,a4,t1
    8000573a:	05380813          	addi	a6,a6,83
    8000573e:	0008b883          	ld	a7,0(a7)
    80005742:	03030663          	beq	t1,a6,8000576e <emulate_fmv_fi+0x52>
    80005746:	07900813          	li	a6,121
    8000574a:	0866                	slli	a6,a6,0x19
    8000574c:	05380813          	addi	a6,a6,83
    80005750:	01031d63          	bne	t1,a6,8000576a <emulate_fmv_fi+0x4e>
    80005754:	00475793          	srli	a5,a4,0x4
    80005758:	8546                	mv	a0,a7
    8000575a:	0f87f793          	andi	a5,a5,248
    8000575e:	ffffe717          	auipc	a4,0xffffe
    80005762:	973e                	add	a4,a4,a5
    80005764:	d4c702e7          	jalr	t0,-692(a4) # 800034aa <put_f64_reg>
    80005768:	8082                	ret
    8000576a:	ce0ff06f          	j	80004c4a <truly_illegal_insn>
    8000576e:	00475793          	srli	a5,a4,0x4
    80005772:	8546                	mv	a0,a7
    80005774:	0f87f793          	andi	a5,a5,248
    80005778:	ffffe717          	auipc	a4,0xffffe
    8000577c:	973e                	add	a4,a4,a5
    8000577e:	b32702e7          	jalr	t0,-1230(a4) # 800032aa <put_f32_reg>
    80005782:	8082                	ret

0000000080005784 <emulate_fmadd>:
    80005784:	6799                	lui	a5,0x6
    80005786:	8ff5                	and	a5,a5,a3
    80005788:	14078163          	beqz	a5,800058ca <emulate_fmadd+0x146>
    8000578c:	00375793          	srli	a5,a4,0x3
    80005790:	00275813          	srli	a6,a4,0x2
    80005794:	8b85                	andi	a5,a5,1
    80005796:	00187893          	andi	a7,a6,1
    8000579a:	00202273          	frrm	tp
    8000579e:	681d                	lui	a6,0x7
    800057a0:	01077333          	and	t1,a4,a6
    800057a4:	11031a63          	bne	t1,a6,800058b8 <emulate_fmadd+0x134>
    800057a8:	1141                	addi	sp,sp,-16
    800057aa:	e022                	sd	s0,0(sp)
    800057ac:	e406                	sd	ra,8(sp)
    800057ae:	843a                	mv	s0,a4
    800057b0:	01975813          	srli	a6,a4,0x19
    800057b4:	00387813          	andi	a6,a6,3
    800057b8:	06081f63          	bnez	a6,80005836 <emulate_fmadd+0xb2>
    800057bc:	00c75513          	srli	a0,a4,0xc
    800057c0:	0f857513          	andi	a0,a0,248
    800057c4:	ffffe717          	auipc	a4,0xffffe
    800057c8:	972a                	add	a4,a4,a0
    800057ca:	9e6702e7          	jalr	t0,-1562(a4) # 800031aa <get_f32_reg>
    800057ce:	0005071b          	sext.w	a4,a0
    800057d2:	c789                	beqz	a5,800057dc <emulate_fmadd+0x58>
    800057d4:	800007b7          	lui	a5,0x80000
    800057d8:	8f3d                	xor	a4,a4,a5
    800057da:	2701                	sext.w	a4,a4
    800057dc:	01845793          	srli	a5,s0,0x18
    800057e0:	01145513          	srli	a0,s0,0x11
    800057e4:	0f857513          	andi	a0,a0,248
    800057e8:	2701                	sext.w	a4,a4
    800057ea:	ffffe697          	auipc	a3,0xffffe
    800057ee:	96aa                	add	a3,a3,a0
    800057f0:	9c0682e7          	jalr	t0,-1600(a3) # 800031aa <get_f32_reg>
    800057f4:	0005059b          	sext.w	a1,a0
    800057f8:	0f87f513          	andi	a0,a5,248
    800057fc:	ffffe797          	auipc	a5,0xffffe
    80005800:	97aa                	add	a5,a5,a0
    80005802:	9ae782e7          	jalr	t0,-1618(a5) # 800031aa <get_f32_reg>
    80005806:	0005061b          	sext.w	a2,a0
    8000580a:	00088663          	beqz	a7,80005816 <emulate_fmadd+0x92>
    8000580e:	80000537          	lui	a0,0x80000
    80005812:	8e29                	xor	a2,a2,a0
    80005814:	2601                	sext.w	a2,a2
    80005816:	4681                	li	a3,0
    80005818:	853a                	mv	a0,a4
    8000581a:	8011                	srli	s0,s0,0x4
    8000581c:	5e0010ef          	jal	ra,80006dfc <softfloat_mulAddF32>
    80005820:	0f847413          	andi	s0,s0,248
    80005824:	ffffe797          	auipc	a5,0xffffe
    80005828:	97a2                	add	a5,a5,s0
    8000582a:	a86782e7          	jalr	t0,-1402(a5) # 800032aa <put_f32_reg>
    8000582e:	60a2                	ld	ra,8(sp)
    80005830:	6402                	ld	s0,0(sp)
    80005832:	0141                	addi	sp,sp,16
    80005834:	8082                	ret
    80005836:	4305                	li	t1,1
    80005838:	06681b63          	bne	a6,t1,800058ae <emulate_fmadd+0x12a>
    8000583c:	00c75513          	srli	a0,a4,0xc
    80005840:	0f857513          	andi	a0,a0,248
    80005844:	ffffe717          	auipc	a4,0xffffe
    80005848:	972a                	add	a4,a4,a0
    8000584a:	b66702e7          	jalr	t0,-1178(a4) # 800033aa <get_f64_reg>
    8000584e:	872a                	mv	a4,a0
    80005850:	c789                	beqz	a5,8000585a <emulate_fmadd+0xd6>
    80005852:	57fd                	li	a5,-1
    80005854:	17fe                	slli	a5,a5,0x3f
    80005856:	00f54733          	xor	a4,a0,a5
    8000585a:	01845793          	srli	a5,s0,0x18
    8000585e:	01145513          	srli	a0,s0,0x11
    80005862:	0f857513          	andi	a0,a0,248
    80005866:	ffffe697          	auipc	a3,0xffffe
    8000586a:	96aa                	add	a3,a3,a0
    8000586c:	b44682e7          	jalr	t0,-1212(a3) # 800033aa <get_f64_reg>
    80005870:	85aa                	mv	a1,a0
    80005872:	0f87f513          	andi	a0,a5,248
    80005876:	ffffe797          	auipc	a5,0xffffe
    8000587a:	97aa                	add	a5,a5,a0
    8000587c:	b34782e7          	jalr	t0,-1228(a5) # 800033aa <get_f64_reg>
    80005880:	862a                	mv	a2,a0
    80005882:	00088663          	beqz	a7,8000588e <emulate_fmadd+0x10a>
    80005886:	57fd                	li	a5,-1
    80005888:	17fe                	slli	a5,a5,0x3f
    8000588a:	00f54633          	xor	a2,a0,a5
    8000588e:	4681                	li	a3,0
    80005890:	853a                	mv	a0,a4
    80005892:	8011                	srli	s0,s0,0x4
    80005894:	7e0010ef          	jal	ra,80007074 <softfloat_mulAddF64>
    80005898:	0f847413          	andi	s0,s0,248
    8000589c:	ffffe797          	auipc	a5,0xffffe
    800058a0:	97a2                	add	a5,a5,s0
    800058a2:	c0e782e7          	jalr	t0,-1010(a5) # 800034aa <put_f64_reg>
    800058a6:	60a2                	ld	ra,8(sp)
    800058a8:	6402                	ld	s0,0(sp)
    800058aa:	0141                	addi	sp,sp,16
    800058ac:	8082                	ret
    800058ae:	6402                	ld	s0,0(sp)
    800058b0:	60a2                	ld	ra,8(sp)
    800058b2:	0141                	addi	sp,sp,16
    800058b4:	b96ff06f          	j	80004c4a <truly_illegal_insn>
    800058b8:	00c75813          	srli	a6,a4,0xc
    800058bc:	00787813          	andi	a6,a6,7
    800058c0:	4311                	li	t1,4
    800058c2:	01036463          	bltu	t1,a6,800058ca <emulate_fmadd+0x146>
    800058c6:	8242                	mv	tp,a6
    800058c8:	b5c5                	j	800057a8 <emulate_fmadd+0x24>
    800058ca:	b80ff06f          	j	80004c4a <truly_illegal_insn>

00000000800058ce <misaligned_load_trap>:
    800058ce:	000a05b7          	lui	a1,0xa0
    800058d2:	478d                	li	a5,3
    800058d4:	3005a6f3          	csrrs	a3,mstatus,a1
    800058d8:	00267813          	andi	a6,a2,2
    800058dc:	00081b63          	bnez	a6,800058f2 <misaligned_load_trap+0x24>
    800058e0:	00066703          	lwu	a4,0(a2)
    800058e4:	00f77833          	and	a6,a4,a5
    800058e8:	00f80f63          	beq	a6,a5,80005906 <misaligned_load_trap+0x38>
    800058ec:	1742                	slli	a4,a4,0x30
    800058ee:	9341                	srli	a4,a4,0x30
    800058f0:	a819                	j	80005906 <misaligned_load_trap+0x38>
    800058f2:	00065703          	lhu	a4,0(a2)
    800058f6:	00f77833          	and	a6,a4,a5
    800058fa:	00f81663          	bne	a6,a5,80005906 <misaligned_load_trap+0x38>
    800058fe:	00265803          	lhu	a6,2(a2)
    80005902:	0842                	slli	a6,a6,0x10
    80005904:	9742                	add	a4,a4,a6
    80005906:	30069073          	csrw	mstatus,a3
    8000590a:	00377593          	andi	a1,a4,3
    8000590e:	1141                	addi	sp,sp,-16
    80005910:	8332                	mv	t1,a2
    80005912:	8e3a                	mv	t3,a4
    80005914:	8f36                	mv	t5,a3
    80005916:	4e91                	li	t4,4
    80005918:	00f58363          	beq	a1,a5,8000591e <misaligned_load_trap+0x50>
    8000591c:	4e89                	li	t4,2
    8000591e:	9e9a                	add	t4,t4,t1
    80005920:	34302873          	csrr	a6,mtval
    80005924:	679d                	lui	a5,0x7
    80005926:	6609                	lui	a2,0x2
    80005928:	07f78793          	addi	a5,a5,127 # 707f <_ftext-0x7fff8f81>
    8000592c:	8ff9                	and	a5,a5,a4
    8000592e:	00360593          	addi	a1,a2,3 # 2003 <_ftext-0x7fffdffd>
    80005932:	0eb78b63          	beq	a5,a1,80005a28 <misaligned_load_trap+0x15a>
    80005936:	658d                	lui	a1,0x3
    80005938:	00358893          	addi	a7,a1,3 # 3003 <_ftext-0x7fffcffd>
    8000593c:	07178863          	beq	a5,a7,800059ac <misaligned_load_trap+0xde>
    80005940:	6899                	lui	a7,0x6
    80005942:	00388f93          	addi	t6,a7,3 # 6003 <_ftext-0x7fff9ffd>
    80005946:	11f78e63          	beq	a5,t6,80005a62 <misaligned_load_trap+0x194>
    8000594a:	059d                	addi	a1,a1,7
    8000594c:	0eb78b63          	beq	a5,a1,80005a42 <misaligned_load_trap+0x174>
    80005950:	061d                	addi	a2,a2,7
    80005952:	10c78e63          	beq	a5,a2,80005a6e <misaligned_load_trap+0x1a0>
    80005956:	6605                	lui	a2,0x1
    80005958:	060d                	addi	a2,a2,3
    8000595a:	12c78063          	beq	a5,a2,80005a7a <misaligned_load_trap+0x1ac>
    8000595e:	6615                	lui	a2,0x5
    80005960:	060d                	addi	a2,a2,3
    80005962:	12c78363          	beq	a5,a2,80005a88 <misaligned_load_trap+0x1ba>
    80005966:	67b9                	lui	a5,0xe
    80005968:	078d                	addi	a5,a5,3
    8000596a:	8ff9                	and	a5,a5,a4
    8000596c:	03178a63          	beq	a5,a7,800059a0 <misaligned_load_trap+0xd2>
    80005970:	0889                	addi	a7,a7,2
    80005972:	13178163          	beq	a5,a7,80005a94 <misaligned_load_trap+0x1c6>
    80005976:	6611                	lui	a2,0x4
    80005978:	0ac78263          	beq	a5,a2,80005a1c <misaligned_load_trap+0x14e>
    8000597c:	6611                	lui	a2,0x4
    8000597e:	0609                	addi	a2,a2,2
    80005980:	10c78f63          	beq	a5,a2,80005a9e <misaligned_load_trap+0x1d0>
    80005984:	6609                	lui	a2,0x2
    80005986:	0ac78863          	beq	a5,a2,80005a36 <misaligned_load_trap+0x168>
    8000598a:	0609                	addi	a2,a2,2
    8000598c:	0ac78b63          	beq	a5,a2,80005a42 <misaligned_load_trap+0x174>
    80005990:	3422d073          	csrwi	mcause,5
    80005994:	4595                	li	a1,5
    80005996:	86fa                	mv	a3,t5
    80005998:	861a                	mv	a2,t1
    8000599a:	0141                	addi	sp,sp,16
    8000599c:	aaeff06f          	j	80004c4a <truly_illegal_insn>
    800059a0:	00275e13          	srli	t3,a4,0x2
    800059a4:	007e7e13          	andi	t3,t3,7
    800059a8:	0e21                	addi	t3,t3,8
    800059aa:	0e1e                	slli	t3,t3,0x7
    800059ac:	e402                	sd	zero,8(sp)
    800059ae:	48a1                	li	a7,8
    800059b0:	42a1                	li	t0,8
    800059b2:	4f81                	li	t6,0
    800059b4:	4f01                	li	t5,0
    800059b6:	98c2                	add	a7,a7,a6
    800059b8:	87c2                	mv	a5,a6
    800059ba:	000205b7          	lui	a1,0x20
    800059be:	41078733          	sub	a4,a5,a6
    800059c2:	0030                	addi	a2,sp,8
    800059c4:	9732                	add	a4,a4,a2
    800059c6:	0785                	addi	a5,a5,1
    800059c8:	861a                	mv	a2,t1
    800059ca:	3005a6f3          	csrrs	a3,mstatus,a1
    800059ce:	fff7c383          	lbu	t2,-1(a5) # dfff <_ftext-0x7fff2001>
    800059d2:	30069073          	csrw	mstatus,a3
    800059d6:	00770023          	sb	t2,0(a4)
    800059da:	fef892e3          	bne	a7,a5,800059be <misaligned_load_trap+0xf0>
    800059de:	004e5e13          	srli	t3,t3,0x4
    800059e2:	67a2                	ld	a5,8(sp)
    800059e4:	0f8e7e13          	andi	t3,t3,248
    800059e8:	000f8f63          	beqz	t6,80005a06 <misaligned_load_trap+0x138>
    800059ec:	4721                	li	a4,8
    800059ee:	06e28063          	beq	t0,a4,80005a4e <misaligned_load_trap+0x180>
    800059f2:	853e                	mv	a0,a5
    800059f4:	ffffe797          	auipc	a5,0xffffe
    800059f8:	97f2                	add	a5,a5,t3
    800059fa:	8b6782e7          	jalr	t0,-1866(a5) # 800032aa <put_f32_reg>
    800059fe:	341e9073          	csrw	mepc,t4
    80005a02:	0141                	addi	sp,sp,16
    80005a04:	8082                	ret
    80005a06:	01e797b3          	sll	a5,a5,t5
    80005a0a:	9e2a                	add	t3,t3,a0
    80005a0c:	41e7d7b3          	sra	a5,a5,t5
    80005a10:	00fe3023          	sd	a5,0(t3)
    80005a14:	341e9073          	csrw	mepc,t4
    80005a18:	0141                	addi	sp,sp,16
    80005a1a:	8082                	ret
    80005a1c:	00275e13          	srli	t3,a4,0x2
    80005a20:	007e7e13          	andi	t3,t3,7
    80005a24:	0e21                	addi	t3,t3,8
    80005a26:	0e1e                	slli	t3,t3,0x7
    80005a28:	e402                	sd	zero,8(sp)
    80005a2a:	4891                	li	a7,4
    80005a2c:	4291                	li	t0,4
    80005a2e:	4f81                	li	t6,0
    80005a30:	02000f13          	li	t5,32
    80005a34:	b749                	j	800059b6 <misaligned_load_trap+0xe8>
    80005a36:	00275e13          	srli	t3,a4,0x2
    80005a3a:	007e7e13          	andi	t3,t3,7
    80005a3e:	0e21                	addi	t3,t3,8
    80005a40:	0e1e                	slli	t3,t3,0x7
    80005a42:	e402                	sd	zero,8(sp)
    80005a44:	48a1                	li	a7,8
    80005a46:	42a1                	li	t0,8
    80005a48:	4f85                	li	t6,1
    80005a4a:	4f01                	li	t5,0
    80005a4c:	b7ad                	j	800059b6 <misaligned_load_trap+0xe8>
    80005a4e:	853e                	mv	a0,a5
    80005a50:	ffffe797          	auipc	a5,0xffffe
    80005a54:	97f2                	add	a5,a5,t3
    80005a56:	a5a782e7          	jalr	t0,-1446(a5) # 800034aa <put_f64_reg>
    80005a5a:	341e9073          	csrw	mepc,t4
    80005a5e:	0141                	addi	sp,sp,16
    80005a60:	8082                	ret
    80005a62:	e402                	sd	zero,8(sp)
    80005a64:	4891                	li	a7,4
    80005a66:	4291                	li	t0,4
    80005a68:	4f81                	li	t6,0
    80005a6a:	4f01                	li	t5,0
    80005a6c:	b7a9                	j	800059b6 <misaligned_load_trap+0xe8>
    80005a6e:	e402                	sd	zero,8(sp)
    80005a70:	4891                	li	a7,4
    80005a72:	4291                	li	t0,4
    80005a74:	4f85                	li	t6,1
    80005a76:	4f01                	li	t5,0
    80005a78:	bf3d                	j	800059b6 <misaligned_load_trap+0xe8>
    80005a7a:	e402                	sd	zero,8(sp)
    80005a7c:	4889                	li	a7,2
    80005a7e:	4289                	li	t0,2
    80005a80:	4f81                	li	t6,0
    80005a82:	03000f13          	li	t5,48
    80005a86:	bf05                	j	800059b6 <misaligned_load_trap+0xe8>
    80005a88:	e402                	sd	zero,8(sp)
    80005a8a:	4889                	li	a7,2
    80005a8c:	4289                	li	t0,2
    80005a8e:	4f81                	li	t6,0
    80005a90:	4f01                	li	t5,0
    80005a92:	b715                	j	800059b6 <misaligned_load_trap+0xe8>
    80005a94:	00775793          	srli	a5,a4,0x7
    80005a98:	8bfd                	andi	a5,a5,31
    80005a9a:	fb89                	bnez	a5,800059ac <misaligned_load_trap+0xde>
    80005a9c:	bdd5                	j	80005990 <misaligned_load_trap+0xc2>
    80005a9e:	00775793          	srli	a5,a4,0x7
    80005aa2:	8bfd                	andi	a5,a5,31
    80005aa4:	f3d1                	bnez	a5,80005a28 <misaligned_load_trap+0x15a>
    80005aa6:	b5ed                	j	80005990 <misaligned_load_trap+0xc2>

0000000080005aa8 <misaligned_store_trap>:
    80005aa8:	000a05b7          	lui	a1,0xa0
    80005aac:	478d                	li	a5,3
    80005aae:	3005a6f3          	csrrs	a3,mstatus,a1
    80005ab2:	00267813          	andi	a6,a2,2
    80005ab6:	00081b63          	bnez	a6,80005acc <misaligned_store_trap+0x24>
    80005aba:	00066703          	lwu	a4,0(a2) # 2000 <_ftext-0x7fffe000>
    80005abe:	00f77833          	and	a6,a4,a5
    80005ac2:	00f80f63          	beq	a6,a5,80005ae0 <misaligned_store_trap+0x38>
    80005ac6:	1742                	slli	a4,a4,0x30
    80005ac8:	9341                	srli	a4,a4,0x30
    80005aca:	a819                	j	80005ae0 <misaligned_store_trap+0x38>
    80005acc:	00065703          	lhu	a4,0(a2)
    80005ad0:	00f77833          	and	a6,a4,a5
    80005ad4:	00f81663          	bne	a6,a5,80005ae0 <misaligned_store_trap+0x38>
    80005ad8:	00265803          	lhu	a6,2(a2)
    80005adc:	0842                	slli	a6,a6,0x10
    80005ade:	9742                	add	a4,a4,a6
    80005ae0:	30069073          	csrw	mstatus,a3
    80005ae4:	00377593          	andi	a1,a4,3
    80005ae8:	1141                	addi	sp,sp,-16
    80005aea:	88b2                	mv	a7,a2
    80005aec:	8eb6                	mv	t4,a3
    80005aee:	4811                	li	a6,4
    80005af0:	00f58363          	beq	a1,a5,80005af6 <misaligned_store_trap+0x4e>
    80005af4:	4809                	li	a6,2
    80005af6:	01175613          	srli	a2,a4,0x11
    80005afa:	0f867613          	andi	a2,a2,248
    80005afe:	00c507b3          	add	a5,a0,a2
    80005b02:	639c                	ld	a5,0(a5)
    80005b04:	6589                	lui	a1,0x2
    80005b06:	02358313          	addi	t1,a1,35 # 2023 <_ftext-0x7fffdfdd>
    80005b0a:	e43e                	sd	a5,8(sp)
    80005b0c:	679d                	lui	a5,0x7
    80005b0e:	07f78793          	addi	a5,a5,127 # 707f <_ftext-0x7fff8f81>
    80005b12:	8ff9                	and	a5,a5,a4
    80005b14:	01088e33          	add	t3,a7,a6
    80005b18:	0a678563          	beq	a5,t1,80005bc2 <misaligned_store_trap+0x11a>
    80005b1c:	680d                	lui	a6,0x3
    80005b1e:	02380313          	addi	t1,a6,35 # 3023 <_ftext-0x7fffcfdd>
    80005b22:	06678063          	beq	a5,t1,80005b82 <misaligned_store_trap+0xda>
    80005b26:	02780813          	addi	a6,a6,39
    80005b2a:	0b078863          	beq	a5,a6,80005bda <misaligned_store_trap+0x132>
    80005b2e:	02758593          	addi	a1,a1,39
    80005b32:	08b78a63          	beq	a5,a1,80005bc6 <misaligned_store_trap+0x11e>
    80005b36:	6605                	lui	a2,0x1
    80005b38:	02360613          	addi	a2,a2,35 # 1023 <_ftext-0x7fffefdd>
    80005b3c:	0ac78863          	beq	a5,a2,80005bec <misaligned_store_trap+0x144>
    80005b40:	6639                	lui	a2,0xe
    80005b42:	00360793          	addi	a5,a2,3 # e003 <_ftext-0x7fff1ffd>
    80005b46:	8ff9                	and	a5,a5,a4
    80005b48:	0ac78e63          	beq	a5,a2,80005c04 <misaligned_store_trap+0x15c>
    80005b4c:	0609                	addi	a2,a2,2
    80005b4e:	0cc78563          	beq	a5,a2,80005c18 <misaligned_store_trap+0x170>
    80005b52:	6631                	lui	a2,0xc
    80005b54:	08c78e63          	beq	a5,a2,80005bf0 <misaligned_store_trap+0x148>
    80005b58:	0609                	addi	a2,a2,2
    80005b5a:	0cc78b63          	beq	a5,a2,80005c30 <misaligned_store_trap+0x188>
    80005b5e:	6629                	lui	a2,0xa
    80005b60:	0ec78e63          	beq	a5,a2,80005c5c <misaligned_store_trap+0x1b4>
    80005b64:	6629                	lui	a2,0xa
    80005b66:	0609                	addi	a2,a2,2
    80005b68:	0ac79c63          	bne	a5,a2,80005c20 <misaligned_store_trap+0x178>
    80005b6c:	0706                	slli	a4,a4,0x1
    80005b6e:	0f877513          	andi	a0,a4,248
    80005b72:	4821                	li	a6,8
    80005b74:	ffffe797          	auipc	a5,0xffffe
    80005b78:	97aa                	add	a5,a5,a0
    80005b7a:	836782e7          	jalr	t0,-1994(a5) # 800033aa <get_f64_reg>
    80005b7e:	e42a                	sd	a0,8(sp)
    80005b80:	a011                	j	80005b84 <misaligned_store_trap+0xdc>
    80005b82:	4821                	li	a6,8
    80005b84:	34302573          	csrr	a0,mtval
    80005b88:	387d                	addiw	a6,a6,-1
    80005b8a:	1802                	slli	a6,a6,0x20
    80005b8c:	02085813          	srli	a6,a6,0x20
    80005b90:	003c                	addi	a5,sp,8
    80005b92:	00910713          	addi	a4,sp,9
    80005b96:	983a                	add	a6,a6,a4
    80005b98:	8d1d                	sub	a0,a0,a5
    80005b9a:	00020337          	lui	t1,0x20
    80005b9e:	00f505b3          	add	a1,a0,a5
    80005ba2:	0007c703          	lbu	a4,0(a5)
    80005ba6:	8646                	mv	a2,a7
    80005ba8:	300326f3          	csrrs	a3,mstatus,t1
    80005bac:	00e58023          	sb	a4,0(a1)
    80005bb0:	30069073          	csrw	mstatus,a3
    80005bb4:	0785                	addi	a5,a5,1
    80005bb6:	fef814e3          	bne	a6,a5,80005b9e <misaligned_store_trap+0xf6>
    80005bba:	341e1073          	csrw	mepc,t3
    80005bbe:	0141                	addi	sp,sp,16
    80005bc0:	8082                	ret
    80005bc2:	4811                	li	a6,4
    80005bc4:	b7c1                	j	80005b84 <misaligned_store_trap+0xdc>
    80005bc6:	8532                	mv	a0,a2
    80005bc8:	ffffd797          	auipc	a5,0xffffd
    80005bcc:	97aa                	add	a5,a5,a0
    80005bce:	5e2782e7          	jalr	t0,1506(a5) # 800031aa <get_f32_reg>
    80005bd2:	2501                	sext.w	a0,a0
    80005bd4:	e42a                	sd	a0,8(sp)
    80005bd6:	4811                	li	a6,4
    80005bd8:	b775                	j	80005b84 <misaligned_store_trap+0xdc>
    80005bda:	8532                	mv	a0,a2
    80005bdc:	4821                	li	a6,8
    80005bde:	ffffd797          	auipc	a5,0xffffd
    80005be2:	97aa                	add	a5,a5,a0
    80005be4:	7cc782e7          	jalr	t0,1996(a5) # 800033aa <get_f64_reg>
    80005be8:	e42a                	sd	a0,8(sp)
    80005bea:	bf69                	j	80005b84 <misaligned_store_trap+0xdc>
    80005bec:	4809                	li	a6,2
    80005bee:	bf59                	j	80005b84 <misaligned_store_trap+0xdc>
    80005bf0:	00275793          	srli	a5,a4,0x2
    80005bf4:	8b9d                	andi	a5,a5,7
    80005bf6:	07a1                	addi	a5,a5,8
    80005bf8:	078e                	slli	a5,a5,0x3
    80005bfa:	97aa                	add	a5,a5,a0
    80005bfc:	639c                	ld	a5,0(a5)
    80005bfe:	4811                	li	a6,4
    80005c00:	e43e                	sd	a5,8(sp)
    80005c02:	b749                	j	80005b84 <misaligned_store_trap+0xdc>
    80005c04:	00275793          	srli	a5,a4,0x2
    80005c08:	8b9d                	andi	a5,a5,7
    80005c0a:	07a1                	addi	a5,a5,8
    80005c0c:	078e                	slli	a5,a5,0x3
    80005c0e:	97aa                	add	a5,a5,a0
    80005c10:	639c                	ld	a5,0(a5)
    80005c12:	4821                	li	a6,8
    80005c14:	e43e                	sd	a5,8(sp)
    80005c16:	b7bd                	j	80005b84 <misaligned_store_trap+0xdc>
    80005c18:	00775793          	srli	a5,a4,0x7
    80005c1c:	8bfd                	andi	a5,a5,31
    80005c1e:	e795                	bnez	a5,80005c4a <misaligned_store_trap+0x1a2>
    80005c20:	3423d073          	csrwi	mcause,7
    80005c24:	459d                	li	a1,7
    80005c26:	86f6                	mv	a3,t4
    80005c28:	8646                	mv	a2,a7
    80005c2a:	0141                	addi	sp,sp,16
    80005c2c:	81eff06f          	j	80004c4a <truly_illegal_insn>
    80005c30:	00775793          	srli	a5,a4,0x7
    80005c34:	8bfd                	andi	a5,a5,31
    80005c36:	d7ed                	beqz	a5,80005c20 <misaligned_store_trap+0x178>
    80005c38:	00171793          	slli	a5,a4,0x1
    80005c3c:	0f87f793          	andi	a5,a5,248
    80005c40:	97aa                	add	a5,a5,a0
    80005c42:	639c                	ld	a5,0(a5)
    80005c44:	4811                	li	a6,4
    80005c46:	e43e                	sd	a5,8(sp)
    80005c48:	bf35                	j	80005b84 <misaligned_store_trap+0xdc>
    80005c4a:	00171793          	slli	a5,a4,0x1
    80005c4e:	0f87f793          	andi	a5,a5,248
    80005c52:	97aa                	add	a5,a5,a0
    80005c54:	639c                	ld	a5,0(a5)
    80005c56:	4821                	li	a6,8
    80005c58:	e43e                	sd	a5,8(sp)
    80005c5a:	b72d                	j	80005b84 <misaligned_store_trap+0xdc>
    80005c5c:	00275513          	srli	a0,a4,0x2
    80005c60:	891d                	andi	a0,a0,7
    80005c62:	0521                	addi	a0,a0,8
    80005c64:	050e                	slli	a0,a0,0x3
    80005c66:	4821                	li	a6,8
    80005c68:	ffffd797          	auipc	a5,0xffffd
    80005c6c:	97aa                	add	a5,a5,a0
    80005c6e:	742782e7          	jalr	t0,1858(a5) # 800033aa <get_f64_reg>
    80005c72:	e42a                	sd	a0,8(sp)
    80005c74:	bf01                	j	80005b84 <misaligned_store_trap+0xdc>

0000000080005c76 <f32_add>:
    80005c76:	00a5c7b3          	xor	a5,a1,a0
    80005c7a:	02079713          	slli	a4,a5,0x20
    80005c7e:	2501                	sext.w	a0,a0
    80005c80:	2581                	sext.w	a1,a1
    80005c82:	00001317          	auipc	t1,0x1
    80005c86:	de030313          	addi	t1,t1,-544 # 80006a62 <softfloat_addMagsF32>
    80005c8a:	00075663          	bgez	a4,80005c96 <f32_add+0x20>
    80005c8e:	00002317          	auipc	t1,0x2
    80005c92:	d7a30313          	addi	t1,t1,-646 # 80007a08 <softfloat_subMagsF32>
    80005c96:	8302                	jr	t1

0000000080005c98 <f32_div>:
    80005c98:	7139                	addi	sp,sp,-64
    80005c9a:	008007b7          	lui	a5,0x800
    80005c9e:	17fd                	addi	a5,a5,-1
    80005ca0:	f04a                	sd	s2,32(sp)
    80005ca2:	0175591b          	srliw	s2,a0,0x17
    80005ca6:	00a7f733          	and	a4,a5,a0
    80005caa:	f822                	sd	s0,48(sp)
    80005cac:	8fed                	and	a5,a5,a1
    80005cae:	f426                	sd	s1,40(sp)
    80005cb0:	ec4e                	sd	s3,24(sp)
    80005cb2:	e852                	sd	s4,16(sp)
    80005cb4:	00a5c9b3          	xor	s3,a1,a0
    80005cb8:	0175da1b          	srliw	s4,a1,0x17
    80005cbc:	fc06                	sd	ra,56(sp)
    80005cbe:	0ff97913          	andi	s2,s2,255
    80005cc2:	0ff00693          	li	a3,255
    80005cc6:	2501                	sext.w	a0,a0
    80005cc8:	0007049b          	sext.w	s1,a4
    80005ccc:	2581                	sext.w	a1,a1
    80005cce:	0ffa7a13          	andi	s4,s4,255
    80005cd2:	0007841b          	sext.w	s0,a5
    80005cd6:	01f9d99b          	srliw	s3,s3,0x1f
    80005cda:	04d90663          	beq	s2,a3,80005d26 <f32_div+0x8e>
    80005cde:	02da0863          	beq	s4,a3,80005d0e <f32_div+0x76>
    80005ce2:	060a1963          	bnez	s4,80005d54 <f32_div+0xbc>
    80005ce6:	e025                	bnez	s0,80005d46 <f32_div+0xae>
    80005ce8:	00996733          	or	a4,s2,s1
    80005cec:	c329                	beqz	a4,80005d2e <f32_div+0x96>
    80005cee:	001467f3          	csrrsi	a5,fflags,8
    80005cf2:	70e2                	ld	ra,56(sp)
    80005cf4:	7442                	ld	s0,48(sp)
    80005cf6:	01f9999b          	slliw	s3,s3,0x1f
    80005cfa:	7f800537          	lui	a0,0x7f800
    80005cfe:	00a9853b          	addw	a0,s3,a0
    80005d02:	74a2                	ld	s1,40(sp)
    80005d04:	7902                	ld	s2,32(sp)
    80005d06:	69e2                	ld	s3,24(sp)
    80005d08:	6a42                	ld	s4,16(sp)
    80005d0a:	6121                	addi	sp,sp,64
    80005d0c:	8082                	ret
    80005d0e:	cc61                	beqz	s0,80005de6 <f32_div+0x14e>
    80005d10:	00c020ef          	jal	ra,80007d1c <softfloat_propagateNaNF32UI>
    80005d14:	70e2                	ld	ra,56(sp)
    80005d16:	7442                	ld	s0,48(sp)
    80005d18:	74a2                	ld	s1,40(sp)
    80005d1a:	7902                	ld	s2,32(sp)
    80005d1c:	69e2                	ld	s3,24(sp)
    80005d1e:	6a42                	ld	s4,16(sp)
    80005d20:	2501                	sext.w	a0,a0
    80005d22:	6121                	addi	sp,sp,64
    80005d24:	8082                	ret
    80005d26:	f4ed                	bnez	s1,80005d10 <f32_div+0x78>
    80005d28:	fd2a15e3          	bne	s4,s2,80005cf2 <f32_div+0x5a>
    80005d2c:	f075                	bnez	s0,80005d10 <f32_div+0x78>
    80005d2e:	001867f3          	csrrsi	a5,fflags,16
    80005d32:	70e2                	ld	ra,56(sp)
    80005d34:	7442                	ld	s0,48(sp)
    80005d36:	74a2                	ld	s1,40(sp)
    80005d38:	7902                	ld	s2,32(sp)
    80005d3a:	69e2                	ld	s3,24(sp)
    80005d3c:	6a42                	ld	s4,16(sp)
    80005d3e:	7fc00537          	lui	a0,0x7fc00
    80005d42:	6121                	addi	sp,sp,64
    80005d44:	8082                	ret
    80005d46:	8522                	mv	a0,s0
    80005d48:	6d4010ef          	jal	ra,8000741c <softfloat_normSubnormalF32Sig>
    80005d4c:	00050a1b          	sext.w	s4,a0
    80005d50:	42055413          	srai	s0,a0,0x20
    80005d54:	00091a63          	bnez	s2,80005d68 <f32_div+0xd0>
    80005d58:	c4d9                	beqz	s1,80005de6 <f32_div+0x14e>
    80005d5a:	8526                	mv	a0,s1
    80005d5c:	6c0010ef          	jal	ra,8000741c <softfloat_normSubnormalF32Sig>
    80005d60:	0005091b          	sext.w	s2,a0
    80005d64:	42055493          	srai	s1,a0,0x20
    80005d68:	008007b7          	lui	a5,0x800
    80005d6c:	00f4e733          	or	a4,s1,a5
    80005d70:	8fc1                	or	a5,a5,s0
    80005d72:	4149093b          	subw	s2,s2,s4
    80005d76:	08f76263          	bltu	a4,a5,80005dfa <f32_div+0x162>
    80005d7a:	0077149b          	slliw	s1,a4,0x7
    80005d7e:	07e9091b          	addiw	s2,s2,126
    80005d82:	0087941b          	slliw	s0,a5,0x8
    80005d86:	0004051b          	sext.w	a0,s0
    80005d8a:	70f000ef          	jal	ra,80006c98 <softfloat_approxRecip32_1>
    80005d8e:	1482                	slli	s1,s1,0x20
    80005d90:	02051793          	slli	a5,a0,0x20
    80005d94:	9081                	srli	s1,s1,0x20
    80005d96:	9381                	srli	a5,a5,0x20
    80005d98:	029787b3          	mul	a5,a5,s1
    80005d9c:	9781                	srai	a5,a5,0x20
    80005d9e:	2789                	addiw	a5,a5,2
    80005da0:	03e7f713          	andi	a4,a5,62
    80005da4:	0007861b          	sext.w	a2,a5
    80005da8:	e705                	bnez	a4,80005dd0 <f32_div+0x138>
    80005daa:	9bf1                	andi	a5,a5,-4
    80005dac:	0007861b          	sext.w	a2,a5
    80005db0:	0016179b          	slliw	a5,a2,0x1
    80005db4:	1782                	slli	a5,a5,0x20
    80005db6:	1402                	slli	s0,s0,0x20
    80005db8:	9381                	srli	a5,a5,0x20
    80005dba:	9001                	srli	s0,s0,0x20
    80005dbc:	02878433          	mul	s0,a5,s0
    80005dc0:	1482                	slli	s1,s1,0x20
    80005dc2:	40848433          	sub	s0,s1,s0
    80005dc6:	02044f63          	bltz	s0,80005e04 <f32_div+0x16c>
    80005dca:	c019                	beqz	s0,80005dd0 <f32_div+0x138>
    80005dcc:	00166613          	ori	a2,a2,1
    80005dd0:	7442                	ld	s0,48(sp)
    80005dd2:	70e2                	ld	ra,56(sp)
    80005dd4:	74a2                	ld	s1,40(sp)
    80005dd6:	6a42                	ld	s4,16(sp)
    80005dd8:	85ca                	mv	a1,s2
    80005dda:	854e                	mv	a0,s3
    80005ddc:	7902                	ld	s2,32(sp)
    80005dde:	69e2                	ld	s3,24(sp)
    80005de0:	6121                	addi	sp,sp,64
    80005de2:	6fe0106f          	j	800074e0 <softfloat_roundPackToF32>
    80005de6:	70e2                	ld	ra,56(sp)
    80005de8:	7442                	ld	s0,48(sp)
    80005dea:	01f9951b          	slliw	a0,s3,0x1f
    80005dee:	74a2                	ld	s1,40(sp)
    80005df0:	7902                	ld	s2,32(sp)
    80005df2:	69e2                	ld	s3,24(sp)
    80005df4:	6a42                	ld	s4,16(sp)
    80005df6:	6121                	addi	sp,sp,64
    80005df8:	8082                	ret
    80005dfa:	0087149b          	slliw	s1,a4,0x8
    80005dfe:	07d9091b          	addiw	s2,s2,125
    80005e02:	b741                	j	80005d82 <f32_div+0xea>
    80005e04:	3671                	addiw	a2,a2,-4
    80005e06:	b7e9                	j	80005dd0 <f32_div+0x138>

0000000080005e08 <f32_eq>:
    80005e08:	87aa                	mv	a5,a0
    80005e0a:	7f8006b7          	lui	a3,0x7f800
    80005e0e:	fff7c713          	not	a4,a5
    80005e12:	8f75                	and	a4,a4,a3
    80005e14:	0005061b          	sext.w	a2,a0
    80005e18:	0005869b          	sext.w	a3,a1
    80005e1c:	e701                	bnez	a4,80005e24 <f32_eq+0x1c>
    80005e1e:	02979713          	slli	a4,a5,0x29
    80005e22:	e705                	bnez	a4,80005e4a <f32_eq+0x42>
    80005e24:	fff5c713          	not	a4,a1
    80005e28:	7f800537          	lui	a0,0x7f800
    80005e2c:	8f69                	and	a4,a4,a0
    80005e2e:	e701                	bnez	a4,80005e36 <f32_eq+0x2e>
    80005e30:	02959713          	slli	a4,a1,0x29
    80005e34:	eb19                	bnez	a4,80005e4a <f32_eq+0x42>
    80005e36:	4505                	li	a0,1
    80005e38:	00d60863          	beq	a2,a3,80005e48 <f32_eq+0x40>
    80005e3c:	00b7e533          	or	a0,a5,a1
    80005e40:	0015151b          	slliw	a0,a0,0x1
    80005e44:	00153513          	seqz	a0,a0
    80005e48:	8082                	ret
    80005e4a:	7fc00737          	lui	a4,0x7fc00
    80005e4e:	8f7d                	and	a4,a4,a5
    80005e50:	7f8006b7          	lui	a3,0x7f800
    80005e54:	02d70063          	beq	a4,a3,80005e74 <f32_eq+0x6c>
    80005e58:	7fc007b7          	lui	a5,0x7fc00
    80005e5c:	8fed                	and	a5,a5,a1
    80005e5e:	7f800737          	lui	a4,0x7f800
    80005e62:	4501                	li	a0,0
    80005e64:	fee792e3          	bne	a5,a4,80005e48 <f32_eq+0x40>
    80005e68:	15aa                	slli	a1,a1,0x2a
    80005e6a:	ddf9                	beqz	a1,80005e48 <f32_eq+0x40>
    80005e6c:	001867f3          	csrrsi	a5,fflags,16
    80005e70:	4501                	li	a0,0
    80005e72:	8082                	ret
    80005e74:	02a79713          	slli	a4,a5,0x2a
    80005e78:	fb75                	bnez	a4,80005e6c <f32_eq+0x64>
    80005e7a:	bff9                	j	80005e58 <f32_eq+0x50>

0000000080005e7c <f32_lt>:
    80005e7c:	87aa                	mv	a5,a0
    80005e7e:	7f8006b7          	lui	a3,0x7f800
    80005e82:	fff7c713          	not	a4,a5
    80005e86:	8f75                	and	a4,a4,a3
    80005e88:	0005881b          	sext.w	a6,a1
    80005e8c:	0005069b          	sext.w	a3,a0
    80005e90:	e701                	bnez	a4,80005e98 <f32_lt+0x1c>
    80005e92:	02979713          	slli	a4,a5,0x29
    80005e96:	ef05                	bnez	a4,80005ece <f32_lt+0x52>
    80005e98:	fff5c713          	not	a4,a1
    80005e9c:	7f800637          	lui	a2,0x7f800
    80005ea0:	8f71                	and	a4,a4,a2
    80005ea2:	e701                	bnez	a4,80005eaa <f32_lt+0x2e>
    80005ea4:	02959713          	slli	a4,a1,0x29
    80005ea8:	e31d                	bnez	a4,80005ece <f32_lt+0x52>
    80005eaa:	01f7d71b          	srliw	a4,a5,0x1f
    80005eae:	01f5d61b          	srliw	a2,a1,0x1f
    80005eb2:	4501                	li	a0,0
    80005eb4:	00c70563          	beq	a4,a2,80005ebe <f32_lt+0x42>
    80005eb8:	0006cf63          	bltz	a3,80005ed6 <f32_lt+0x5a>
    80005ebc:	8082                	ret
    80005ebe:	ff068fe3          	beq	a3,a6,80005ebc <f32_lt+0x40>
    80005ec2:	0106b533          	sltu	a0,a3,a6
    80005ec6:	8d19                	sub	a0,a0,a4
    80005ec8:	00a03533          	snez	a0,a0
    80005ecc:	8082                	ret
    80005ece:	001867f3          	csrrsi	a5,fflags,16
    80005ed2:	4501                	li	a0,0
    80005ed4:	8082                	ret
    80005ed6:	00b7e533          	or	a0,a5,a1
    80005eda:	0015151b          	slliw	a0,a0,0x1
    80005ede:	00a03533          	snez	a0,a0
    80005ee2:	8082                	ret

0000000080005ee4 <f32_lt_quiet>:
    80005ee4:	87aa                	mv	a5,a0
    80005ee6:	7f8006b7          	lui	a3,0x7f800
    80005eea:	fff7c713          	not	a4,a5
    80005eee:	8f75                	and	a4,a4,a3
    80005ef0:	0005881b          	sext.w	a6,a1
    80005ef4:	0005069b          	sext.w	a3,a0
    80005ef8:	e701                	bnez	a4,80005f00 <f32_lt_quiet+0x1c>
    80005efa:	02979713          	slli	a4,a5,0x29
    80005efe:	ef05                	bnez	a4,80005f36 <f32_lt_quiet+0x52>
    80005f00:	fff5c713          	not	a4,a1
    80005f04:	7f800637          	lui	a2,0x7f800
    80005f08:	8f71                	and	a4,a4,a2
    80005f0a:	e701                	bnez	a4,80005f12 <f32_lt_quiet+0x2e>
    80005f0c:	02959713          	slli	a4,a1,0x29
    80005f10:	e31d                	bnez	a4,80005f36 <f32_lt_quiet+0x52>
    80005f12:	01f7d71b          	srliw	a4,a5,0x1f
    80005f16:	01f5d61b          	srliw	a2,a1,0x1f
    80005f1a:	4501                	li	a0,0
    80005f1c:	00c70563          	beq	a4,a2,80005f26 <f32_lt_quiet+0x42>
    80005f20:	0406c063          	bltz	a3,80005f60 <f32_lt_quiet+0x7c>
    80005f24:	8082                	ret
    80005f26:	ff068fe3          	beq	a3,a6,80005f24 <f32_lt_quiet+0x40>
    80005f2a:	0106b533          	sltu	a0,a3,a6
    80005f2e:	8d19                	sub	a0,a0,a4
    80005f30:	00a03533          	snez	a0,a0
    80005f34:	8082                	ret
    80005f36:	7fc00737          	lui	a4,0x7fc00
    80005f3a:	8f7d                	and	a4,a4,a5
    80005f3c:	7f8006b7          	lui	a3,0x7f800
    80005f40:	02d70763          	beq	a4,a3,80005f6e <f32_lt_quiet+0x8a>
    80005f44:	7fc007b7          	lui	a5,0x7fc00
    80005f48:	8fed                	and	a5,a5,a1
    80005f4a:	7f800737          	lui	a4,0x7f800
    80005f4e:	4501                	li	a0,0
    80005f50:	fce79ae3          	bne	a5,a4,80005f24 <f32_lt_quiet+0x40>
    80005f54:	15aa                	slli	a1,a1,0x2a
    80005f56:	d5f9                	beqz	a1,80005f24 <f32_lt_quiet+0x40>
    80005f58:	001867f3          	csrrsi	a5,fflags,16
    80005f5c:	4501                	li	a0,0
    80005f5e:	8082                	ret
    80005f60:	00b7e533          	or	a0,a5,a1
    80005f64:	0015151b          	slliw	a0,a0,0x1
    80005f68:	00a03533          	snez	a0,a0
    80005f6c:	8082                	ret
    80005f6e:	17aa                	slli	a5,a5,0x2a
    80005f70:	f7e5                	bnez	a5,80005f58 <f32_lt_quiet+0x74>
    80005f72:	bfc9                	j	80005f44 <f32_lt_quiet+0x60>

0000000080005f74 <f32_mul>:
    80005f74:	7139                	addi	sp,sp,-64
    80005f76:	008007b7          	lui	a5,0x800
    80005f7a:	17fd                	addi	a5,a5,-1
    80005f7c:	f426                	sd	s1,40(sp)
    80005f7e:	0175549b          	srliw	s1,a0,0x17
    80005f82:	00a5c733          	xor	a4,a1,a0
    80005f86:	f822                	sd	s0,48(sp)
    80005f88:	f04a                	sd	s2,32(sp)
    80005f8a:	ec4e                	sd	s3,24(sp)
    80005f8c:	e852                	sd	s4,16(sp)
    80005f8e:	00a7f9b3          	and	s3,a5,a0
    80005f92:	0175da1b          	srliw	s4,a1,0x17
    80005f96:	8fed                	and	a5,a5,a1
    80005f98:	fc06                	sd	ra,56(sp)
    80005f9a:	0ff4f493          	andi	s1,s1,255
    80005f9e:	0ff00693          	li	a3,255
    80005fa2:	2501                	sext.w	a0,a0
    80005fa4:	2981                	sext.w	s3,s3
    80005fa6:	2581                	sext.w	a1,a1
    80005fa8:	0ffa7a13          	andi	s4,s4,255
    80005fac:	0007841b          	sext.w	s0,a5
    80005fb0:	01f7591b          	srliw	s2,a4,0x1f
    80005fb4:	02d48f63          	beq	s1,a3,80005ff2 <f32_mul+0x7e>
    80005fb8:	00da0f63          	beq	s4,a3,80005fd6 <f32_mul+0x62>
    80005fbc:	e4ad                	bnez	s1,80006026 <f32_mul+0xb2>
    80005fbe:	04099d63          	bnez	s3,80006018 <f32_mul+0xa4>
    80005fc2:	70e2                	ld	ra,56(sp)
    80005fc4:	7442                	ld	s0,48(sp)
    80005fc6:	01f9151b          	slliw	a0,s2,0x1f
    80005fca:	74a2                	ld	s1,40(sp)
    80005fcc:	7902                	ld	s2,32(sp)
    80005fce:	69e2                	ld	s3,24(sp)
    80005fd0:	6a42                	ld	s4,16(sp)
    80005fd2:	6121                	addi	sp,sp,64
    80005fd4:	8082                	ret
    80005fd6:	0134e4b3          	or	s1,s1,s3
    80005fda:	c015                	beqz	s0,80005ffe <f32_mul+0x8a>
    80005fdc:	541010ef          	jal	ra,80007d1c <softfloat_propagateNaNF32UI>
    80005fe0:	70e2                	ld	ra,56(sp)
    80005fe2:	7442                	ld	s0,48(sp)
    80005fe4:	74a2                	ld	s1,40(sp)
    80005fe6:	7902                	ld	s2,32(sp)
    80005fe8:	69e2                	ld	s3,24(sp)
    80005fea:	6a42                	ld	s4,16(sp)
    80005fec:	2501                	sext.w	a0,a0
    80005fee:	6121                	addi	sp,sp,64
    80005ff0:	8082                	ret
    80005ff2:	fe0995e3          	bnez	s3,80005fdc <f32_mul+0x68>
    80005ff6:	0a9a0863          	beq	s4,s1,800060a6 <f32_mul+0x132>
    80005ffa:	008a64b3          	or	s1,s4,s0
    80005ffe:	e4d9                	bnez	s1,8000608c <f32_mul+0x118>
    80006000:	001867f3          	csrrsi	a5,fflags,16
    80006004:	70e2                	ld	ra,56(sp)
    80006006:	7442                	ld	s0,48(sp)
    80006008:	74a2                	ld	s1,40(sp)
    8000600a:	7902                	ld	s2,32(sp)
    8000600c:	69e2                	ld	s3,24(sp)
    8000600e:	6a42                	ld	s4,16(sp)
    80006010:	7fc00537          	lui	a0,0x7fc00
    80006014:	6121                	addi	sp,sp,64
    80006016:	8082                	ret
    80006018:	854e                	mv	a0,s3
    8000601a:	402010ef          	jal	ra,8000741c <softfloat_normSubnormalF32Sig>
    8000601e:	0005049b          	sext.w	s1,a0
    80006022:	42055993          	srai	s3,a0,0x20
    80006026:	000a1a63          	bnez	s4,8000603a <f32_mul+0xc6>
    8000602a:	dc41                	beqz	s0,80005fc2 <f32_mul+0x4e>
    8000602c:	8522                	mv	a0,s0
    8000602e:	3ee010ef          	jal	ra,8000741c <softfloat_normSubnormalF32Sig>
    80006032:	00050a1b          	sext.w	s4,a0
    80006036:	42055413          	srai	s0,a0,0x20
    8000603a:	0079951b          	slliw	a0,s3,0x7
    8000603e:	0084171b          	slliw	a4,s0,0x8
    80006042:	400009b7          	lui	s3,0x40000
    80006046:	80000437          	lui	s0,0x80000
    8000604a:	01356533          	or	a0,a0,s3
    8000604e:	8f41                	or	a4,a4,s0
    80006050:	1502                	slli	a0,a0,0x20
    80006052:	1702                	slli	a4,a4,0x20
    80006054:	9301                	srli	a4,a4,0x20
    80006056:	9101                	srli	a0,a0,0x20
    80006058:	02e50533          	mul	a0,a0,a4
    8000605c:	02000593          	li	a1,32
    80006060:	014484bb          	addw	s1,s1,s4
    80006064:	0c9010ef          	jal	ra,8000792c <softfloat_shortShiftRightJam64>
    80006068:	0005061b          	sext.w	a2,a0
    8000606c:	400007b7          	lui	a5,0x40000
    80006070:	02f66f63          	bltu	a2,a5,800060ae <f32_mul+0x13a>
    80006074:	f814859b          	addiw	a1,s1,-127
    80006078:	7442                	ld	s0,48(sp)
    8000607a:	70e2                	ld	ra,56(sp)
    8000607c:	74a2                	ld	s1,40(sp)
    8000607e:	69e2                	ld	s3,24(sp)
    80006080:	6a42                	ld	s4,16(sp)
    80006082:	854a                	mv	a0,s2
    80006084:	7902                	ld	s2,32(sp)
    80006086:	6121                	addi	sp,sp,64
    80006088:	4580106f          	j	800074e0 <softfloat_roundPackToF32>
    8000608c:	70e2                	ld	ra,56(sp)
    8000608e:	7442                	ld	s0,48(sp)
    80006090:	01f9171b          	slliw	a4,s2,0x1f
    80006094:	7f800537          	lui	a0,0x7f800
    80006098:	74a2                	ld	s1,40(sp)
    8000609a:	7902                	ld	s2,32(sp)
    8000609c:	69e2                	ld	s3,24(sp)
    8000609e:	6a42                	ld	s4,16(sp)
    800060a0:	9d39                	addw	a0,a0,a4
    800060a2:	6121                	addi	sp,sp,64
    800060a4:	8082                	ret
    800060a6:	f81d                	bnez	s0,80005fdc <f32_mul+0x68>
    800060a8:	008a64b3          	or	s1,s4,s0
    800060ac:	bf89                	j	80005ffe <f32_mul+0x8a>
    800060ae:	0016161b          	slliw	a2,a2,0x1
    800060b2:	f804859b          	addiw	a1,s1,-128
    800060b6:	b7c9                	j	80006078 <f32_mul+0x104>

00000000800060b8 <f32_sqrt>:
    800060b8:	7179                	addi	sp,sp,-48
    800060ba:	0175571b          	srliw	a4,a0,0x17
    800060be:	02951793          	slli	a5,a0,0x29
    800060c2:	f406                	sd	ra,40(sp)
    800060c4:	f022                	sd	s0,32(sp)
    800060c6:	ec26                	sd	s1,24(sp)
    800060c8:	e84a                	sd	s2,16(sp)
    800060ca:	0ff77713          	andi	a4,a4,255
    800060ce:	0ff00693          	li	a3,255
    800060d2:	0005061b          	sext.w	a2,a0
    800060d6:	93a5                	srli	a5,a5,0x29
    800060d8:	02d70863          	beq	a4,a3,80006108 <f32_sqrt+0x50>
    800060dc:	00064a63          	bltz	a2,800060f0 <f32_sqrt+0x38>
    800060e0:	e721                	bnez	a4,80006128 <f32_sqrt+0x70>
    800060e2:	ef85                	bnez	a5,8000611a <f32_sqrt+0x62>
    800060e4:	70a2                	ld	ra,40(sp)
    800060e6:	7402                	ld	s0,32(sp)
    800060e8:	64e2                	ld	s1,24(sp)
    800060ea:	6942                	ld	s2,16(sp)
    800060ec:	6145                	addi	sp,sp,48
    800060ee:	8082                	ret
    800060f0:	8fd9                	or	a5,a5,a4
    800060f2:	dbed                	beqz	a5,800060e4 <f32_sqrt+0x2c>
    800060f4:	001867f3          	csrrsi	a5,fflags,16
    800060f8:	70a2                	ld	ra,40(sp)
    800060fa:	7402                	ld	s0,32(sp)
    800060fc:	64e2                	ld	s1,24(sp)
    800060fe:	6942                	ld	s2,16(sp)
    80006100:	7fc00537          	lui	a0,0x7fc00
    80006104:	6145                	addi	sp,sp,48
    80006106:	8082                	ret
    80006108:	e7d1                	bnez	a5,80006194 <f32_sqrt+0xdc>
    8000610a:	fe0645e3          	bltz	a2,800060f4 <f32_sqrt+0x3c>
    8000610e:	70a2                	ld	ra,40(sp)
    80006110:	7402                	ld	s0,32(sp)
    80006112:	64e2                	ld	s1,24(sp)
    80006114:	6942                	ld	s2,16(sp)
    80006116:	6145                	addi	sp,sp,48
    80006118:	8082                	ret
    8000611a:	853e                	mv	a0,a5
    8000611c:	300010ef          	jal	ra,8000741c <softfloat_normSubnormalF32Sig>
    80006120:	0005071b          	sext.w	a4,a0
    80006124:	42055793          	srai	a5,a0,0x20
    80006128:	0087941b          	slliw	s0,a5,0x8
    8000612c:	800007b7          	lui	a5,0x80000
    80006130:	8c5d                	or	s0,s0,a5
    80006132:	2401                	sext.w	s0,s0
    80006134:	00177493          	andi	s1,a4,1
    80006138:	85a2                	mv	a1,s0
    8000613a:	8526                	mv	a0,s1
    8000613c:	f817091b          	addiw	s2,a4,-127
    80006140:	3cb000ef          	jal	ra,80006d0a <softfloat_approxRecipSqrt32_1>
    80006144:	1502                	slli	a0,a0,0x20
    80006146:	1402                	slli	s0,s0,0x20
    80006148:	9101                	srli	a0,a0,0x20
    8000614a:	9001                	srli	s0,s0,0x20
    8000614c:	02a40533          	mul	a0,s0,a0
    80006150:	4019591b          	sraiw	s2,s2,0x1
    80006154:	07e9091b          	addiw	s2,s2,126
    80006158:	9501                	srai	a0,a0,0x20
    8000615a:	c099                	beqz	s1,80006160 <f32_sqrt+0xa8>
    8000615c:	0015551b          	srliw	a0,a0,0x1
    80006160:	2509                	addiw	a0,a0,2
    80006162:	03e57793          	andi	a5,a0,62
    80006166:	0005061b          	sext.w	a2,a0
    8000616a:	ef81                	bnez	a5,80006182 <f32_sqrt+0xca>
    8000616c:	0025579b          	srliw	a5,a0,0x2
    80006170:	02f787bb          	mulw	a5,a5,a5
    80006174:	9971                	andi	a0,a0,-4
    80006176:	0005061b          	sext.w	a2,a0
    8000617a:	0207c363          	bltz	a5,800061a0 <f32_sqrt+0xe8>
    8000617e:	c391                	beqz	a5,80006182 <f32_sqrt+0xca>
    80006180:	367d                	addiw	a2,a2,-1
    80006182:	7402                	ld	s0,32(sp)
    80006184:	70a2                	ld	ra,40(sp)
    80006186:	64e2                	ld	s1,24(sp)
    80006188:	85ca                	mv	a1,s2
    8000618a:	6942                	ld	s2,16(sp)
    8000618c:	4501                	li	a0,0
    8000618e:	6145                	addi	sp,sp,48
    80006190:	3500106f          	j	800074e0 <softfloat_roundPackToF32>
    80006194:	4581                	li	a1,0
    80006196:	8532                	mv	a0,a2
    80006198:	385010ef          	jal	ra,80007d1c <softfloat_propagateNaNF32UI>
    8000619c:	2501                	sext.w	a0,a0
    8000619e:	b799                	j	800060e4 <f32_sqrt+0x2c>
    800061a0:	00166613          	ori	a2,a2,1
    800061a4:	bff9                	j	80006182 <f32_sqrt+0xca>

00000000800061a6 <f32_to_f64>:
    800061a6:	1101                	addi	sp,sp,-32
    800061a8:	0175579b          	srliw	a5,a0,0x17
    800061ac:	e822                	sd	s0,16(sp)
    800061ae:	02951713          	slli	a4,a0,0x29
    800061b2:	ec06                	sd	ra,24(sp)
    800061b4:	0ff7f793          	andi	a5,a5,255
    800061b8:	0ff00693          	li	a3,255
    800061bc:	01f5541b          	srliw	s0,a0,0x1f
    800061c0:	9325                	srli	a4,a4,0x29
    800061c2:	02d78a63          	beq	a5,a3,800061f6 <f32_to_f64+0x50>
    800061c6:	147e                	slli	s0,s0,0x3f
    800061c8:	cf91                	beqz	a5,800061e4 <f32_to_f64+0x3e>
    800061ca:	1702                	slli	a4,a4,0x20
    800061cc:	9301                	srli	a4,a4,0x20
    800061ce:	3807879b          	addiw	a5,a5,896
    800061d2:	0776                	slli	a4,a4,0x1d
    800061d4:	17d2                	slli	a5,a5,0x34
    800061d6:	943a                	add	s0,s0,a4
    800061d8:	943e                	add	s0,s0,a5
    800061da:	8522                	mv	a0,s0
    800061dc:	60e2                	ld	ra,24(sp)
    800061de:	6442                	ld	s0,16(sp)
    800061e0:	6105                	addi	sp,sp,32
    800061e2:	8082                	ret
    800061e4:	db7d                	beqz	a4,800061da <f32_to_f64+0x34>
    800061e6:	853a                	mv	a0,a4
    800061e8:	234010ef          	jal	ra,8000741c <softfloat_normSubnormalF32Sig>
    800061ec:	fff5079b          	addiw	a5,a0,-1
    800061f0:	42055713          	srai	a4,a0,0x20
    800061f4:	bfd9                	j	800061ca <f32_to_f64+0x24>
    800061f6:	cb19                	beqz	a4,8000620c <f32_to_f64+0x66>
    800061f8:	02951793          	slli	a5,a0,0x29
    800061fc:	0207c263          	bltz	a5,80006220 <f32_to_f64+0x7a>
    80006200:	001867f3          	csrrsi	a5,fflags,16
    80006204:	00fff437          	lui	s0,0xfff
    80006208:	141e                	slli	s0,s0,0x27
    8000620a:	bfc1                	j	800061da <f32_to_f64+0x34>
    8000620c:	7ff00713          	li	a4,2047
    80006210:	147e                	slli	s0,s0,0x3f
    80006212:	1752                	slli	a4,a4,0x34
    80006214:	943a                	add	s0,s0,a4
    80006216:	8522                	mv	a0,s0
    80006218:	60e2                	ld	ra,24(sp)
    8000621a:	6442                	ld	s0,16(sp)
    8000621c:	6105                	addi	sp,sp,32
    8000621e:	8082                	ret
    80006220:	00fff437          	lui	s0,0xfff
    80006224:	141e                	slli	s0,s0,0x27
    80006226:	bf55                	j	800061da <f32_to_f64+0x34>

0000000080006228 <f32_classify>:
    80006228:	0175579b          	srliw	a5,a0,0x17
    8000622c:	02051713          	slli	a4,a0,0x20
    80006230:	0ff7f793          	andi	a5,a5,255
    80006234:	04074c63          	bltz	a4,8000628c <f32_classify+0x64>
    80006238:	0ff00713          	li	a4,255
    8000623c:	04e78263          	beq	a5,a4,80006280 <f32_classify+0x58>
    80006240:	c7d1                	beqz	a5,800062cc <f32_classify+0xa4>
    80006242:	04000793          	li	a5,64
    80006246:	fff54713          	not	a4,a0
    8000624a:	7f8006b7          	lui	a3,0x7f800
    8000624e:	8f75                	and	a4,a4,a3
    80006250:	e70d                	bnez	a4,8000627a <f32_classify+0x52>
    80006252:	02951713          	slli	a4,a0,0x29
    80006256:	c315                	beqz	a4,8000627a <f32_classify+0x52>
    80006258:	7fc00737          	lui	a4,0x7fc00
    8000625c:	8f69                	and	a4,a4,a0
    8000625e:	7f8006b7          	lui	a3,0x7f800
    80006262:	04d70263          	beq	a4,a3,800062a6 <f32_classify+0x7e>
    80006266:	7fc00737          	lui	a4,0x7fc00
    8000626a:	8f69                	and	a4,a4,a0
    8000626c:	7f8006b7          	lui	a3,0x7f800
    80006270:	04d70163          	beq	a4,a3,800062b2 <f32_classify+0x8a>
    80006274:	2007e793          	ori	a5,a5,512
    80006278:	2781                	sext.w	a5,a5
    8000627a:	0007851b          	sext.w	a0,a5
    8000627e:	8082                	ret
    80006280:	02951793          	slli	a5,a0,0x29
    80006284:	0017b793          	seqz	a5,a5
    80006288:	079e                	slli	a5,a5,0x7
    8000628a:	bf75                	j	80006246 <f32_classify+0x1e>
    8000628c:	0ff00713          	li	a4,255
    80006290:	02e78963          	beq	a5,a4,800062c2 <f32_classify+0x9a>
    80006294:	c399                	beqz	a5,8000629a <f32_classify+0x72>
    80006296:	4789                	li	a5,2
    80006298:	b77d                	j	80006246 <f32_classify+0x1e>
    8000629a:	02951713          	slli	a4,a0,0x29
    8000629e:	47a1                	li	a5,8
    800062a0:	d35d                	beqz	a4,80006246 <f32_classify+0x1e>
    800062a2:	4791                	li	a5,4
    800062a4:	b74d                	j	80006246 <f32_classify+0x1e>
    800062a6:	02a51713          	slli	a4,a0,0x2a
    800062aa:	df55                	beqz	a4,80006266 <f32_classify+0x3e>
    800062ac:	1007e793          	ori	a5,a5,256
    800062b0:	2781                	sext.w	a5,a5
    800062b2:	152a                	slli	a0,a0,0x2a
    800062b4:	00153513          	seqz	a0,a0
    800062b8:	0095151b          	slliw	a0,a0,0x9
    800062bc:	8fc9                	or	a5,a5,a0
    800062be:	2781                	sext.w	a5,a5
    800062c0:	bf6d                	j	8000627a <f32_classify+0x52>
    800062c2:	02951793          	slli	a5,a0,0x29
    800062c6:	0017b793          	seqz	a5,a5
    800062ca:	bfb5                	j	80006246 <f32_classify+0x1e>
    800062cc:	02951713          	slli	a4,a0,0x29
    800062d0:	9325                	srli	a4,a4,0x29
    800062d2:	4781                	li	a5,0
    800062d4:	c319                	beqz	a4,800062da <f32_classify+0xb2>
    800062d6:	0207e793          	ori	a5,a5,32
    800062da:	00173713          	seqz	a4,a4
    800062de:	0047171b          	slliw	a4,a4,0x4
    800062e2:	8fd9                	or	a5,a5,a4
    800062e4:	b78d                	j	80006246 <f32_classify+0x1e>

00000000800062e6 <f64_add>:
    800062e6:	03f55613          	srli	a2,a0,0x3f
    800062ea:	03f5d793          	srli	a5,a1,0x3f
    800062ee:	00002317          	auipc	t1,0x2
    800062f2:	8a430313          	addi	t1,t1,-1884 # 80007b92 <softfloat_subMagsF64>
    800062f6:	00f61663          	bne	a2,a5,80006302 <f64_add+0x1c>
    800062fa:	00001317          	auipc	t1,0x1
    800062fe:	8a030313          	addi	t1,t1,-1888 # 80006b9a <softfloat_addMagsF64>
    80006302:	8302                	jr	t1

0000000080006304 <f64_div>:
    80006304:	7139                	addi	sp,sp,-64
    80006306:	f04a                	sd	s2,32(sp)
    80006308:	57fd                	li	a5,-1
    8000630a:	03455913          	srli	s2,a0,0x34
    8000630e:	83b1                	srli	a5,a5,0xc
    80006310:	f822                	sd	s0,48(sp)
    80006312:	f426                	sd	s1,40(sp)
    80006314:	ec4e                	sd	s3,24(sp)
    80006316:	e852                	sd	s4,16(sp)
    80006318:	00a5c4b3          	xor	s1,a1,a0
    8000631c:	0345da13          	srli	s4,a1,0x34
    80006320:	fc06                	sd	ra,56(sp)
    80006322:	7ff97913          	andi	s2,s2,2047
    80006326:	7ff00713          	li	a4,2047
    8000632a:	00f579b3          	and	s3,a0,a5
    8000632e:	7ffa7a13          	andi	s4,s4,2047
    80006332:	00f5f433          	and	s0,a1,a5
    80006336:	90fd                	srli	s1,s1,0x3f
    80006338:	04e90663          	beq	s2,a4,80006384 <f64_div+0x80>
    8000633c:	02ea0863          	beq	s4,a4,8000636c <f64_div+0x68>
    80006340:	060a1b63          	bnez	s4,800063b6 <f64_div+0xb2>
    80006344:	e03d                	bnez	s0,800063aa <f64_div+0xa6>
    80006346:	01396933          	or	s2,s2,s3
    8000634a:	04090263          	beqz	s2,8000638e <f64_div+0x8a>
    8000634e:	001467f3          	csrrsi	a5,fflags,8
    80006352:	70e2                	ld	ra,56(sp)
    80006354:	7442                	ld	s0,48(sp)
    80006356:	7ff00513          	li	a0,2047
    8000635a:	14fe                	slli	s1,s1,0x3f
    8000635c:	1552                	slli	a0,a0,0x34
    8000635e:	9526                	add	a0,a0,s1
    80006360:	7902                	ld	s2,32(sp)
    80006362:	74a2                	ld	s1,40(sp)
    80006364:	69e2                	ld	s3,24(sp)
    80006366:	6a42                	ld	s4,16(sp)
    80006368:	6121                	addi	sp,sp,64
    8000636a:	8082                	ret
    8000636c:	10040b63          	beqz	s0,80006482 <f64_div+0x17e>
    80006370:	1e7010ef          	jal	ra,80007d56 <softfloat_propagateNaNF64UI>
    80006374:	70e2                	ld	ra,56(sp)
    80006376:	7442                	ld	s0,48(sp)
    80006378:	74a2                	ld	s1,40(sp)
    8000637a:	7902                	ld	s2,32(sp)
    8000637c:	69e2                	ld	s3,24(sp)
    8000637e:	6a42                	ld	s4,16(sp)
    80006380:	6121                	addi	sp,sp,64
    80006382:	8082                	ret
    80006384:	fe0996e3          	bnez	s3,80006370 <f64_div+0x6c>
    80006388:	fd2a15e3          	bne	s4,s2,80006352 <f64_div+0x4e>
    8000638c:	f075                	bnez	s0,80006370 <f64_div+0x6c>
    8000638e:	001867f3          	csrrsi	a5,fflags,16
    80006392:	70e2                	ld	ra,56(sp)
    80006394:	7442                	ld	s0,48(sp)
    80006396:	00fff4b7          	lui	s1,0xfff
    8000639a:	02749513          	slli	a0,s1,0x27
    8000639e:	7902                	ld	s2,32(sp)
    800063a0:	74a2                	ld	s1,40(sp)
    800063a2:	69e2                	ld	s3,24(sp)
    800063a4:	6a42                	ld	s4,16(sp)
    800063a6:	6121                	addi	sp,sp,64
    800063a8:	8082                	ret
    800063aa:	8522                	mv	a0,s0
    800063ac:	098010ef          	jal	ra,80007444 <softfloat_normSubnormalF64Sig>
    800063b0:	00050a1b          	sext.w	s4,a0
    800063b4:	842e                	mv	s0,a1
    800063b6:	00091a63          	bnez	s2,800063ca <f64_div+0xc6>
    800063ba:	0c098463          	beqz	s3,80006482 <f64_div+0x17e>
    800063be:	854e                	mv	a0,s3
    800063c0:	084010ef          	jal	ra,80007444 <softfloat_normSubnormalF64Sig>
    800063c4:	0005091b          	sext.w	s2,a0
    800063c8:	89ae                	mv	s3,a1
    800063ca:	4785                	li	a5,1
    800063cc:	17d2                	slli	a5,a5,0x34
    800063ce:	00f9e9b3          	or	s3,s3,a5
    800063d2:	8c5d                	or	s0,s0,a5
    800063d4:	4149093b          	subw	s2,s2,s4
    800063d8:	0a89ef63          	bltu	s3,s0,80006496 <f64_div+0x192>
    800063dc:	3fe9091b          	addiw	s2,s2,1022
    800063e0:	09aa                	slli	s3,s3,0xa
    800063e2:	042e                	slli	s0,s0,0xb
    800063e4:	02045a13          	srli	s4,s0,0x20
    800063e8:	000a051b          	sext.w	a0,s4
    800063ec:	0ad000ef          	jal	ra,80006c98 <softfloat_approxRecip32_1>
    800063f0:	3579                	addiw	a0,a0,-2
    800063f2:	1502                	slli	a0,a0,0x20
    800063f4:	9101                	srli	a0,a0,0x20
    800063f6:	0209d613          	srli	a2,s3,0x20
    800063fa:	02a60633          	mul	a2,a2,a0
    800063fe:	0044541b          	srliw	s0,s0,0x4
    80006402:	1402                	slli	s0,s0,0x20
    80006404:	9001                	srli	s0,s0,0x20
    80006406:	02065713          	srli	a4,a2,0x20
    8000640a:	0017171b          	slliw	a4,a4,0x1
    8000640e:	1702                	slli	a4,a4,0x20
    80006410:	9301                	srli	a4,a4,0x20
    80006412:	02ea07b3          	mul	a5,s4,a4
    80006416:	9201                	srli	a2,a2,0x20
    80006418:	1602                	slli	a2,a2,0x20
    8000641a:	02870733          	mul	a4,a4,s0
    8000641e:	40f989b3          	sub	s3,s3,a5
    80006422:	09f2                	slli	s3,s3,0x1c
    80006424:	40e989b3          	sub	s3,s3,a4
    80006428:	0209d793          	srli	a5,s3,0x20
    8000642c:	02a787b3          	mul	a5,a5,a0
    80006430:	9381                	srli	a5,a5,0x20
    80006432:	2791                	addiw	a5,a5,4
    80006434:	02079713          	slli	a4,a5,0x20
    80006438:	8371                	srli	a4,a4,0x1c
    8000643a:	963a                	add	a2,a2,a4
    8000643c:	1c067713          	andi	a4,a2,448
    80006440:	e715                	bnez	a4,8000646c <f64_div+0x168>
    80006442:	0017979b          	slliw	a5,a5,0x1
    80006446:	9bc1                	andi	a5,a5,-16
    80006448:	1782                	slli	a5,a5,0x20
    8000644a:	9381                	srli	a5,a5,0x20
    8000644c:	02fa0a33          	mul	s4,s4,a5
    80006450:	f8067613          	andi	a2,a2,-128
    80006454:	02f40433          	mul	s0,s0,a5
    80006458:	414989b3          	sub	s3,s3,s4
    8000645c:	09f2                	slli	s3,s3,0x1c
    8000645e:	40898433          	sub	s0,s3,s0
    80006462:	02044e63          	bltz	s0,8000649e <f64_div+0x19a>
    80006466:	c019                	beqz	s0,8000646c <f64_div+0x168>
    80006468:	00166613          	ori	a2,a2,1
    8000646c:	7442                	ld	s0,48(sp)
    8000646e:	70e2                	ld	ra,56(sp)
    80006470:	69e2                	ld	s3,24(sp)
    80006472:	6a42                	ld	s4,16(sp)
    80006474:	85ca                	mv	a1,s2
    80006476:	8526                	mv	a0,s1
    80006478:	7902                	ld	s2,32(sp)
    8000647a:	74a2                	ld	s1,40(sp)
    8000647c:	6121                	addi	sp,sp,64
    8000647e:	16c0106f          	j	800075ea <softfloat_roundPackToF64>
    80006482:	70e2                	ld	ra,56(sp)
    80006484:	7442                	ld	s0,48(sp)
    80006486:	03f49513          	slli	a0,s1,0x3f
    8000648a:	7902                	ld	s2,32(sp)
    8000648c:	74a2                	ld	s1,40(sp)
    8000648e:	69e2                	ld	s3,24(sp)
    80006490:	6a42                	ld	s4,16(sp)
    80006492:	6121                	addi	sp,sp,64
    80006494:	8082                	ret
    80006496:	3fd9091b          	addiw	s2,s2,1021
    8000649a:	09ae                	slli	s3,s3,0xb
    8000649c:	b799                	j	800063e2 <f64_div+0xde>
    8000649e:	f8060613          	addi	a2,a2,-128 # 7f7fff80 <_ftext-0x800080>
    800064a2:	b7e9                	j	8000646c <f64_div+0x168>

00000000800064a4 <f64_eq>:
    800064a4:	7ff00693          	li	a3,2047
    800064a8:	fff54713          	not	a4,a0
    800064ac:	16d2                	slli	a3,a3,0x34
    800064ae:	8f75                	and	a4,a4,a3
    800064b0:	87aa                	mv	a5,a0
    800064b2:	e701                	bnez	a4,800064ba <f64_eq+0x16>
    800064b4:	00c51713          	slli	a4,a0,0xc
    800064b8:	e70d                	bnez	a4,800064e2 <f64_eq+0x3e>
    800064ba:	7ff00693          	li	a3,2047
    800064be:	fff5c713          	not	a4,a1
    800064c2:	16d2                	slli	a3,a3,0x34
    800064c4:	8f75                	and	a4,a4,a3
    800064c6:	e701                	bnez	a4,800064ce <f64_eq+0x2a>
    800064c8:	00c59713          	slli	a4,a1,0xc
    800064cc:	eb19                	bnez	a4,800064e2 <f64_eq+0x3e>
    800064ce:	4505                	li	a0,1
    800064d0:	00b78863          	beq	a5,a1,800064e0 <f64_eq+0x3c>
    800064d4:	00b7e533          	or	a0,a5,a1
    800064d8:	0506                	slli	a0,a0,0x1
    800064da:	8105                	srli	a0,a0,0x1
    800064dc:	00153513          	seqz	a0,a0
    800064e0:	8082                	ret
    800064e2:	00fff737          	lui	a4,0xfff
    800064e6:	171e                	slli	a4,a4,0x27
    800064e8:	7ff00693          	li	a3,2047
    800064ec:	8f7d                	and	a4,a4,a5
    800064ee:	16d2                	slli	a3,a3,0x34
    800064f0:	02d70363          	beq	a4,a3,80006516 <f64_eq+0x72>
    800064f4:	00fff7b7          	lui	a5,0xfff
    800064f8:	179e                	slli	a5,a5,0x27
    800064fa:	7ff00713          	li	a4,2047
    800064fe:	8fed                	and	a5,a5,a1
    80006500:	1752                	slli	a4,a4,0x34
    80006502:	4501                	li	a0,0
    80006504:	fce79ee3          	bne	a5,a4,800064e0 <f64_eq+0x3c>
    80006508:	00d59793          	slli	a5,a1,0xd
    8000650c:	dbf1                	beqz	a5,800064e0 <f64_eq+0x3c>
    8000650e:	001867f3          	csrrsi	a5,fflags,16
    80006512:	4501                	li	a0,0
    80006514:	8082                	ret
    80006516:	00d79713          	slli	a4,a5,0xd
    8000651a:	fb75                	bnez	a4,8000650e <f64_eq+0x6a>
    8000651c:	bfe1                	j	800064f4 <f64_eq+0x50>

000000008000651e <f64_lt>:
    8000651e:	7ff00693          	li	a3,2047
    80006522:	fff54713          	not	a4,a0
    80006526:	16d2                	slli	a3,a3,0x34
    80006528:	8f75                	and	a4,a4,a3
    8000652a:	87aa                	mv	a5,a0
    8000652c:	e701                	bnez	a4,80006534 <f64_lt+0x16>
    8000652e:	00c51713          	slli	a4,a0,0xc
    80006532:	ef0d                	bnez	a4,8000656c <f64_lt+0x4e>
    80006534:	7ff00693          	li	a3,2047
    80006538:	fff5c713          	not	a4,a1
    8000653c:	16d2                	slli	a3,a3,0x34
    8000653e:	8f75                	and	a4,a4,a3
    80006540:	e701                	bnez	a4,80006548 <f64_lt+0x2a>
    80006542:	00c59713          	slli	a4,a1,0xc
    80006546:	e31d                	bnez	a4,8000656c <f64_lt+0x4e>
    80006548:	03f7d713          	srli	a4,a5,0x3f
    8000654c:	03f5d693          	srli	a3,a1,0x3f
    80006550:	4501                	li	a0,0
    80006552:	00d70563          	beq	a4,a3,8000655c <f64_lt+0x3e>
    80006556:	0007cf63          	bltz	a5,80006574 <f64_lt+0x56>
    8000655a:	8082                	ret
    8000655c:	feb78fe3          	beq	a5,a1,8000655a <f64_lt+0x3c>
    80006560:	00b7b533          	sltu	a0,a5,a1
    80006564:	8d19                	sub	a0,a0,a4
    80006566:	00a03533          	snez	a0,a0
    8000656a:	8082                	ret
    8000656c:	001867f3          	csrrsi	a5,fflags,16
    80006570:	4501                	li	a0,0
    80006572:	8082                	ret
    80006574:	00b7e533          	or	a0,a5,a1
    80006578:	0506                	slli	a0,a0,0x1
    8000657a:	8105                	srli	a0,a0,0x1
    8000657c:	00a03533          	snez	a0,a0
    80006580:	8082                	ret

0000000080006582 <f64_lt_quiet>:
    80006582:	7ff00693          	li	a3,2047
    80006586:	fff54713          	not	a4,a0
    8000658a:	16d2                	slli	a3,a3,0x34
    8000658c:	8f75                	and	a4,a4,a3
    8000658e:	87aa                	mv	a5,a0
    80006590:	e701                	bnez	a4,80006598 <f64_lt_quiet+0x16>
    80006592:	00c51713          	slli	a4,a0,0xc
    80006596:	ef0d                	bnez	a4,800065d0 <f64_lt_quiet+0x4e>
    80006598:	7ff00693          	li	a3,2047
    8000659c:	fff5c713          	not	a4,a1
    800065a0:	16d2                	slli	a3,a3,0x34
    800065a2:	8f75                	and	a4,a4,a3
    800065a4:	e701                	bnez	a4,800065ac <f64_lt_quiet+0x2a>
    800065a6:	00c59713          	slli	a4,a1,0xc
    800065aa:	e31d                	bnez	a4,800065d0 <f64_lt_quiet+0x4e>
    800065ac:	03f7d713          	srli	a4,a5,0x3f
    800065b0:	03f5d693          	srli	a3,a1,0x3f
    800065b4:	4501                	li	a0,0
    800065b6:	00d70563          	beq	a4,a3,800065c0 <f64_lt_quiet+0x3e>
    800065ba:	0407c563          	bltz	a5,80006604 <f64_lt_quiet+0x82>
    800065be:	8082                	ret
    800065c0:	feb78fe3          	beq	a5,a1,800065be <f64_lt_quiet+0x3c>
    800065c4:	00b7b533          	sltu	a0,a5,a1
    800065c8:	8d19                	sub	a0,a0,a4
    800065ca:	00a03533          	snez	a0,a0
    800065ce:	8082                	ret
    800065d0:	00fff737          	lui	a4,0xfff
    800065d4:	171e                	slli	a4,a4,0x27
    800065d6:	7ff00693          	li	a3,2047
    800065da:	8f7d                	and	a4,a4,a5
    800065dc:	16d2                	slli	a3,a3,0x34
    800065de:	02d70a63          	beq	a4,a3,80006612 <f64_lt_quiet+0x90>
    800065e2:	00fff7b7          	lui	a5,0xfff
    800065e6:	179e                	slli	a5,a5,0x27
    800065e8:	7ff00713          	li	a4,2047
    800065ec:	8fed                	and	a5,a5,a1
    800065ee:	1752                	slli	a4,a4,0x34
    800065f0:	4501                	li	a0,0
    800065f2:	fce796e3          	bne	a5,a4,800065be <f64_lt_quiet+0x3c>
    800065f6:	00d59793          	slli	a5,a1,0xd
    800065fa:	d3f1                	beqz	a5,800065be <f64_lt_quiet+0x3c>
    800065fc:	001867f3          	csrrsi	a5,fflags,16
    80006600:	4501                	li	a0,0
    80006602:	8082                	ret
    80006604:	00b7e533          	or	a0,a5,a1
    80006608:	0506                	slli	a0,a0,0x1
    8000660a:	8105                	srli	a0,a0,0x1
    8000660c:	00a03533          	snez	a0,a0
    80006610:	8082                	ret
    80006612:	00d79713          	slli	a4,a5,0xd
    80006616:	f37d                	bnez	a4,800065fc <f64_lt_quiet+0x7a>
    80006618:	b7e9                	j	800065e2 <f64_lt_quiet+0x60>

000000008000661a <f64_mul>:
    8000661a:	715d                	addi	sp,sp,-80
    8000661c:	f84a                	sd	s2,48(sp)
    8000661e:	577d                	li	a4,-1
    80006620:	03455913          	srli	s2,a0,0x34
    80006624:	8331                	srli	a4,a4,0xc
    80006626:	e0a2                	sd	s0,64(sp)
    80006628:	fc26                	sd	s1,56(sp)
    8000662a:	f44e                	sd	s3,40(sp)
    8000662c:	f052                	sd	s4,32(sp)
    8000662e:	0345d993          	srli	s3,a1,0x34
    80006632:	00a5c7b3          	xor	a5,a1,a0
    80006636:	e486                	sd	ra,72(sp)
    80006638:	7ff97913          	andi	s2,s2,2047
    8000663c:	7ff00693          	li	a3,2047
    80006640:	00e57a33          	and	s4,a0,a4
    80006644:	7ff9f993          	andi	s3,s3,2047
    80006648:	00e5f4b3          	and	s1,a1,a4
    8000664c:	03f7d413          	srli	s0,a5,0x3f
    80006650:	02d90d63          	beq	s2,a3,8000668a <f64_mul+0x70>
    80006654:	02d98063          	beq	s3,a3,80006674 <f64_mul+0x5a>
    80006658:	06091463          	bnez	s2,800066c0 <f64_mul+0xa6>
    8000665c:	040a1c63          	bnez	s4,800066b4 <f64_mul+0x9a>
    80006660:	03f41513          	slli	a0,s0,0x3f
    80006664:	60a6                	ld	ra,72(sp)
    80006666:	6406                	ld	s0,64(sp)
    80006668:	74e2                	ld	s1,56(sp)
    8000666a:	7942                	ld	s2,48(sp)
    8000666c:	79a2                	ld	s3,40(sp)
    8000666e:	7a02                	ld	s4,32(sp)
    80006670:	6161                	addi	sp,sp,80
    80006672:	8082                	ret
    80006674:	c4d5                	beqz	s1,80006720 <f64_mul+0x106>
    80006676:	6e0010ef          	jal	ra,80007d56 <softfloat_propagateNaNF64UI>
    8000667a:	60a6                	ld	ra,72(sp)
    8000667c:	6406                	ld	s0,64(sp)
    8000667e:	74e2                	ld	s1,56(sp)
    80006680:	7942                	ld	s2,48(sp)
    80006682:	79a2                	ld	s3,40(sp)
    80006684:	7a02                	ld	s4,32(sp)
    80006686:	6161                	addi	sp,sp,80
    80006688:	8082                	ret
    8000668a:	fe0a16e3          	bnez	s4,80006676 <f64_mul+0x5c>
    8000668e:	01299363          	bne	s3,s2,80006694 <f64_mul+0x7a>
    80006692:	f0f5                	bnez	s1,80006676 <f64_mul+0x5c>
    80006694:	0099e5b3          	or	a1,s3,s1
    80006698:	e5d9                	bnez	a1,80006726 <f64_mul+0x10c>
    8000669a:	001867f3          	csrrsi	a5,fflags,16
    8000669e:	60a6                	ld	ra,72(sp)
    800066a0:	6406                	ld	s0,64(sp)
    800066a2:	00fff537          	lui	a0,0xfff
    800066a6:	74e2                	ld	s1,56(sp)
    800066a8:	7942                	ld	s2,48(sp)
    800066aa:	79a2                	ld	s3,40(sp)
    800066ac:	7a02                	ld	s4,32(sp)
    800066ae:	151e                	slli	a0,a0,0x27
    800066b0:	6161                	addi	sp,sp,80
    800066b2:	8082                	ret
    800066b4:	8552                	mv	a0,s4
    800066b6:	58f000ef          	jal	ra,80007444 <softfloat_normSubnormalF64Sig>
    800066ba:	0005091b          	sext.w	s2,a0
    800066be:	8a2e                	mv	s4,a1
    800066c0:	00099963          	bnez	s3,800066d2 <f64_mul+0xb8>
    800066c4:	dcd1                	beqz	s1,80006660 <f64_mul+0x46>
    800066c6:	8526                	mv	a0,s1
    800066c8:	57d000ef          	jal	ra,80007444 <softfloat_normSubnormalF64Sig>
    800066cc:	0005099b          	sext.w	s3,a0
    800066d0:	84ae                	mv	s1,a1
    800066d2:	55fd                	li	a1,-1
    800066d4:	4505                	li	a0,1
    800066d6:	0a2a                	slli	s4,s4,0xa
    800066d8:	04ae                	slli	s1,s1,0xb
    800066da:	15fe                	slli	a1,a1,0x3f
    800066dc:	157a                	slli	a0,a0,0x3e
    800066de:	0810                	addi	a2,sp,16
    800066e0:	8dc5                	or	a1,a1,s1
    800066e2:	00aa6533          	or	a0,s4,a0
    800066e6:	6c0000ef          	jal	ra,80006da6 <softfloat_mul64To128M>
    800066ea:	47d2                	lw	a5,20(sp)
    800066ec:	4742                	lw	a4,16(sp)
    800066ee:	013905bb          	addw	a1,s2,s3
    800066f2:	6662                	ld	a2,24(sp)
    800066f4:	8fd9                	or	a5,a5,a4
    800066f6:	2781                	sext.w	a5,a5
    800066f8:	c399                	beqz	a5,800066fe <f64_mul+0xe4>
    800066fa:	00166613          	ori	a2,a2,1
    800066fe:	57fd                	li	a5,-1
    80006700:	8389                	srli	a5,a5,0x2
    80006702:	04c7f063          	bgeu	a5,a2,80006742 <f64_mul+0x128>
    80006706:	c015859b          	addiw	a1,a1,-1023
    8000670a:	8522                	mv	a0,s0
    8000670c:	6df000ef          	jal	ra,800075ea <softfloat_roundPackToF64>
    80006710:	60a6                	ld	ra,72(sp)
    80006712:	6406                	ld	s0,64(sp)
    80006714:	74e2                	ld	s1,56(sp)
    80006716:	7942                	ld	s2,48(sp)
    80006718:	79a2                	ld	s3,40(sp)
    8000671a:	7a02                	ld	s4,32(sp)
    8000671c:	6161                	addi	sp,sp,80
    8000671e:	8082                	ret
    80006720:	014965b3          	or	a1,s2,s4
    80006724:	d9bd                	beqz	a1,8000669a <f64_mul+0x80>
    80006726:	03f41513          	slli	a0,s0,0x3f
    8000672a:	7ff00413          	li	s0,2047
    8000672e:	1452                	slli	s0,s0,0x34
    80006730:	9522                	add	a0,a0,s0
    80006732:	60a6                	ld	ra,72(sp)
    80006734:	6406                	ld	s0,64(sp)
    80006736:	74e2                	ld	s1,56(sp)
    80006738:	7942                	ld	s2,48(sp)
    8000673a:	79a2                	ld	s3,40(sp)
    8000673c:	7a02                	ld	s4,32(sp)
    8000673e:	6161                	addi	sp,sp,80
    80006740:	8082                	ret
    80006742:	c005859b          	addiw	a1,a1,-1024
    80006746:	0606                	slli	a2,a2,0x1
    80006748:	b7c9                	j	8000670a <f64_mul+0xf0>

000000008000674a <f64_sqrt>:
    8000674a:	7139                	addi	sp,sp,-64
    8000674c:	03455713          	srli	a4,a0,0x34
    80006750:	00c51593          	slli	a1,a0,0xc
    80006754:	fc06                	sd	ra,56(sp)
    80006756:	f822                	sd	s0,48(sp)
    80006758:	f426                	sd	s1,40(sp)
    8000675a:	f04a                	sd	s2,32(sp)
    8000675c:	ec4e                	sd	s3,24(sp)
    8000675e:	7ff77713          	andi	a4,a4,2047
    80006762:	7ff00693          	li	a3,2047
    80006766:	87aa                	mv	a5,a0
    80006768:	81b1                	srli	a1,a1,0xc
    8000676a:	02d70c63          	beq	a4,a3,800067a2 <f64_sqrt+0x58>
    8000676e:	00054c63          	bltz	a0,80006786 <f64_sqrt+0x3c>
    80006772:	e731                	bnez	a4,800067be <f64_sqrt+0x74>
    80006774:	e1a1                	bnez	a1,800067b4 <f64_sqrt+0x6a>
    80006776:	853e                	mv	a0,a5
    80006778:	70e2                	ld	ra,56(sp)
    8000677a:	7442                	ld	s0,48(sp)
    8000677c:	74a2                	ld	s1,40(sp)
    8000677e:	7902                	ld	s2,32(sp)
    80006780:	69e2                	ld	s3,24(sp)
    80006782:	6121                	addi	sp,sp,64
    80006784:	8082                	ret
    80006786:	8f4d                	or	a4,a4,a1
    80006788:	d77d                	beqz	a4,80006776 <f64_sqrt+0x2c>
    8000678a:	001867f3          	csrrsi	a5,fflags,16
    8000678e:	00fff537          	lui	a0,0xfff
    80006792:	151e                	slli	a0,a0,0x27
    80006794:	70e2                	ld	ra,56(sp)
    80006796:	7442                	ld	s0,48(sp)
    80006798:	74a2                	ld	s1,40(sp)
    8000679a:	7902                	ld	s2,32(sp)
    8000679c:	69e2                	ld	s3,24(sp)
    8000679e:	6121                	addi	sp,sp,64
    800067a0:	8082                	ret
    800067a2:	edd5                	bnez	a1,8000685e <f64_sqrt+0x114>
    800067a4:	fc0559e3          	bgez	a0,80006776 <f64_sqrt+0x2c>
    800067a8:	001867f3          	csrrsi	a5,fflags,16
    800067ac:	00fff537          	lui	a0,0xfff
    800067b0:	151e                	slli	a0,a0,0x27
    800067b2:	b7cd                	j	80006794 <f64_sqrt+0x4a>
    800067b4:	852e                	mv	a0,a1
    800067b6:	48f000ef          	jal	ra,80007444 <softfloat_normSubnormalF64Sig>
    800067ba:	0005071b          	sext.w	a4,a0
    800067be:	4485                	li	s1,1
    800067c0:	14d2                	slli	s1,s1,0x34
    800067c2:	8ccd                	or	s1,s1,a1
    800067c4:	00177413          	andi	s0,a4,1
    800067c8:	0154d913          	srli	s2,s1,0x15
    800067cc:	0009059b          	sext.w	a1,s2
    800067d0:	8522                	mv	a0,s0
    800067d2:	c017099b          	addiw	s3,a4,-1023
    800067d6:	534000ef          	jal	ra,80006d0a <softfloat_approxRecipSqrt32_1>
    800067da:	02051613          	slli	a2,a0,0x20
    800067de:	02091713          	slli	a4,s2,0x20
    800067e2:	9201                	srli	a2,a2,0x20
    800067e4:	9301                	srli	a4,a4,0x20
    800067e6:	02c70733          	mul	a4,a4,a2
    800067ea:	4019d99b          	sraiw	s3,s3,0x1
    800067ee:	3fe9899b          	addiw	s3,s3,1022
    800067f2:	00949693          	slli	a3,s1,0x9
    800067f6:	9301                	srli	a4,a4,0x20
    800067f8:	0007079b          	sext.w	a5,a4
    800067fc:	c409                	beqz	s0,80006806 <f64_sqrt+0xbc>
    800067fe:	00849693          	slli	a3,s1,0x8
    80006802:	0017d71b          	srliw	a4,a5,0x1
    80006806:	02e707b3          	mul	a5,a4,a4
    8000680a:	1702                	slli	a4,a4,0x20
    8000680c:	02076713          	ori	a4,a4,32
    80006810:	02100593          	li	a1,33
    80006814:	40f687b3          	sub	a5,a3,a5
    80006818:	8389                	srli	a5,a5,0x2
    8000681a:	1782                	slli	a5,a5,0x20
    8000681c:	9381                	srli	a5,a5,0x20
    8000681e:	02c78633          	mul	a2,a5,a2
    80006822:	9201                	srli	a2,a2,0x20
    80006824:	060e                	slli	a2,a2,0x3
    80006826:	963a                	add	a2,a2,a4
    80006828:	1ff67793          	andi	a5,a2,511
    8000682c:	00f5ef63          	bltu	a1,a5,8000684a <f64_sqrt+0x100>
    80006830:	fc067613          	andi	a2,a2,-64
    80006834:	00665793          	srli	a5,a2,0x6
    80006838:	02f787b3          	mul	a5,a5,a5
    8000683c:	16d2                	slli	a3,a3,0x34
    8000683e:	8e9d                	sub	a3,a3,a5
    80006840:	0206c363          	bltz	a3,80006866 <f64_sqrt+0x11c>
    80006844:	c299                	beqz	a3,8000684a <f64_sqrt+0x100>
    80006846:	00166613          	ori	a2,a2,1
    8000684a:	7442                	ld	s0,48(sp)
    8000684c:	70e2                	ld	ra,56(sp)
    8000684e:	74a2                	ld	s1,40(sp)
    80006850:	7902                	ld	s2,32(sp)
    80006852:	85ce                	mv	a1,s3
    80006854:	69e2                	ld	s3,24(sp)
    80006856:	4501                	li	a0,0
    80006858:	6121                	addi	sp,sp,64
    8000685a:	5910006f          	j	800075ea <softfloat_roundPackToF64>
    8000685e:	4581                	li	a1,0
    80006860:	4f6010ef          	jal	ra,80007d56 <softfloat_propagateNaNF64UI>
    80006864:	bf11                	j	80006778 <f64_sqrt+0x2e>
    80006866:	167d                	addi	a2,a2,-1
    80006868:	b7cd                	j	8000684a <f64_sqrt+0x100>

000000008000686a <f64_to_f32>:
    8000686a:	1101                	addi	sp,sp,-32
    8000686c:	e822                	sd	s0,16(sp)
    8000686e:	03455413          	srli	s0,a0,0x34
    80006872:	e426                	sd	s1,8(sp)
    80006874:	00c51793          	slli	a5,a0,0xc
    80006878:	ec06                	sd	ra,24(sp)
    8000687a:	7ff47413          	andi	s0,s0,2047
    8000687e:	7ff00713          	li	a4,2047
    80006882:	03f55493          	srli	s1,a0,0x3f
    80006886:	83b1                	srli	a5,a5,0xc
    80006888:	02e40e63          	beq	s0,a4,800068c4 <f64_to_f32+0x5a>
    8000688c:	853e                	mv	a0,a5
    8000688e:	45d9                	li	a1,22
    80006890:	09c010ef          	jal	ra,8000792c <softfloat_shortShiftRightJam64>
    80006894:	2501                	sext.w	a0,a0
    80006896:	00a467b3          	or	a5,s0,a0
    8000689a:	eb89                	bnez	a5,800068ac <f64_to_f32+0x42>
    8000689c:	01f4949b          	slliw	s1,s1,0x1f
    800068a0:	60e2                	ld	ra,24(sp)
    800068a2:	6442                	ld	s0,16(sp)
    800068a4:	8526                	mv	a0,s1
    800068a6:	64a2                	ld	s1,8(sp)
    800068a8:	6105                	addi	sp,sp,32
    800068aa:	8082                	ret
    800068ac:	40000637          	lui	a2,0x40000
    800068b0:	c7f4059b          	addiw	a1,s0,-897
    800068b4:	6442                	ld	s0,16(sp)
    800068b6:	60e2                	ld	ra,24(sp)
    800068b8:	8e49                	or	a2,a2,a0
    800068ba:	8526                	mv	a0,s1
    800068bc:	64a2                	ld	s1,8(sp)
    800068be:	6105                	addi	sp,sp,32
    800068c0:	4210006f          	j	800074e0 <softfloat_roundPackToF32>
    800068c4:	cb91                	beqz	a5,800068d8 <f64_to_f32+0x6e>
    800068c6:	00c51793          	slli	a5,a0,0xc
    800068ca:	7fc004b7          	lui	s1,0x7fc00
    800068ce:	fc07c9e3          	bltz	a5,800068a0 <f64_to_f32+0x36>
    800068d2:	001867f3          	csrrsi	a5,fflags,16
    800068d6:	b7e9                	j	800068a0 <f64_to_f32+0x36>
    800068d8:	60e2                	ld	ra,24(sp)
    800068da:	6442                	ld	s0,16(sp)
    800068dc:	7f800537          	lui	a0,0x7f800
    800068e0:	01f4949b          	slliw	s1,s1,0x1f
    800068e4:	9ca9                	addw	s1,s1,a0
    800068e6:	8526                	mv	a0,s1
    800068e8:	64a2                	ld	s1,8(sp)
    800068ea:	6105                	addi	sp,sp,32
    800068ec:	8082                	ret

00000000800068ee <f64_to_ui64>:
    800068ee:	7139                	addi	sp,sp,-64
    800068f0:	03455793          	srli	a5,a0,0x34
    800068f4:	f426                	sd	s1,40(sp)
    800068f6:	f04a                	sd	s2,32(sp)
    800068f8:	ec4e                	sd	s3,24(sp)
    800068fa:	7ff7f793          	andi	a5,a5,2047
    800068fe:	00c51813          	slli	a6,a0,0xc
    80006902:	89b2                	mv	s3,a2
    80006904:	fc06                	sd	ra,56(sp)
    80006906:	43300613          	li	a2,1075
    8000690a:	f822                	sd	s0,48(sp)
    8000690c:	c002                	sw	zero,0(sp)
    8000690e:	892e                	mv	s2,a1
    80006910:	03f55493          	srli	s1,a0,0x3f
    80006914:	00c85813          	srli	a6,a6,0xc
    80006918:	9e1d                	subw	a2,a2,a5
    8000691a:	eb85                	bnez	a5,8000694a <f64_to_ui64+0x5c>
    8000691c:	840a                	mv	s0,sp
    8000691e:	02085793          	srli	a5,a6,0x20
    80006922:	86a2                	mv	a3,s0
    80006924:	85a2                	mv	a1,s0
    80006926:	450d                	li	a0,3
    80006928:	c43e                	sw	a5,8(sp)
    8000692a:	c242                	sw	a6,4(sp)
    8000692c:	693000ef          	jal	ra,800077be <softfloat_shiftRightJamM>
    80006930:	86ce                	mv	a3,s3
    80006932:	864a                	mv	a2,s2
    80006934:	85a2                	mv	a1,s0
    80006936:	8526                	mv	a0,s1
    80006938:	331000ef          	jal	ra,80007468 <softfloat_roundMToUI64>
    8000693c:	70e2                	ld	ra,56(sp)
    8000693e:	7442                	ld	s0,48(sp)
    80006940:	74a2                	ld	s1,40(sp)
    80006942:	7902                	ld	s2,32(sp)
    80006944:	69e2                	ld	s3,24(sp)
    80006946:	6121                	addi	sp,sp,64
    80006948:	8082                	ret
    8000694a:	4685                	li	a3,1
    8000694c:	16d2                	slli	a3,a3,0x34
    8000694e:	00d866b3          	or	a3,a6,a3
    80006952:	04c04563          	bgtz	a2,8000699c <f64_to_ui64+0xae>
    80006956:	55d5                	li	a1,-11
    80006958:	00b64c63          	blt	a2,a1,80006970 <f64_to_ui64+0x82>
    8000695c:	bcd7879b          	addiw	a5,a5,-1075
    80006960:	00f697b3          	sll	a5,a3,a5
    80006964:	0207d713          	srli	a4,a5,0x20
    80006968:	c43a                	sw	a4,8(sp)
    8000696a:	c23e                	sw	a5,4(sp)
    8000696c:	840a                	mv	s0,sp
    8000696e:	b7c9                	j	80006930 <f64_to_ui64+0x42>
    80006970:	872a                	mv	a4,a0
    80006972:	001866f3          	csrrsi	a3,fflags,16
    80006976:	7ff00693          	li	a3,2047
    8000697a:	00d78d63          	beq	a5,a3,80006994 <f64_to_ui64+0xa6>
    8000697e:	70e2                	ld	ra,56(sp)
    80006980:	7442                	ld	s0,48(sp)
    80006982:	fff74713          	not	a4,a4
    80006986:	74a2                	ld	s1,40(sp)
    80006988:	7902                	ld	s2,32(sp)
    8000698a:	69e2                	ld	s3,24(sp)
    8000698c:	43f75513          	srai	a0,a4,0x3f
    80006990:	6121                	addi	sp,sp,64
    80006992:	8082                	ret
    80006994:	557d                	li	a0,-1
    80006996:	fe0804e3          	beqz	a6,8000697e <f64_to_ui64+0x90>
    8000699a:	b74d                	j	8000693c <f64_to_ui64+0x4e>
    8000699c:	8836                	mv	a6,a3
    8000699e:	bfbd                	j	8000691c <f64_to_ui64+0x2e>

00000000800069a0 <f64_classify>:
    800069a0:	03455793          	srli	a5,a0,0x34
    800069a4:	7ff7f793          	andi	a5,a5,2047
    800069a8:	7ff00713          	li	a4,2047
    800069ac:	04054d63          	bltz	a0,80006a06 <f64_classify+0x66>
    800069b0:	04e78463          	beq	a5,a4,800069f8 <f64_classify+0x58>
    800069b4:	cbd1                	beqz	a5,80006a48 <f64_classify+0xa8>
    800069b6:	04000793          	li	a5,64
    800069ba:	7ff00693          	li	a3,2047
    800069be:	fff54713          	not	a4,a0
    800069c2:	16d2                	slli	a3,a3,0x34
    800069c4:	8f75                	and	a4,a4,a3
    800069c6:	e715                	bnez	a4,800069f2 <f64_classify+0x52>
    800069c8:	00c51713          	slli	a4,a0,0xc
    800069cc:	c31d                	beqz	a4,800069f2 <f64_classify+0x52>
    800069ce:	00fff737          	lui	a4,0xfff
    800069d2:	171e                	slli	a4,a4,0x27
    800069d4:	8f69                	and	a4,a4,a0
    800069d6:	04d70363          	beq	a4,a3,80006a1c <f64_classify+0x7c>
    800069da:	00fff737          	lui	a4,0xfff
    800069de:	171e                	slli	a4,a4,0x27
    800069e0:	7ff00693          	li	a3,2047
    800069e4:	8f69                	and	a4,a4,a0
    800069e6:	16d2                	slli	a3,a3,0x34
    800069e8:	04d70163          	beq	a4,a3,80006a2a <f64_classify+0x8a>
    800069ec:	2007e793          	ori	a5,a5,512
    800069f0:	2781                	sext.w	a5,a5
    800069f2:	0007851b          	sext.w	a0,a5
    800069f6:	8082                	ret
    800069f8:	00c51793          	slli	a5,a0,0xc
    800069fc:	83b1                	srli	a5,a5,0xc
    800069fe:	0017b793          	seqz	a5,a5
    80006a02:	079e                	slli	a5,a5,0x7
    80006a04:	bf5d                	j	800069ba <f64_classify+0x1a>
    80006a06:	02e78b63          	beq	a5,a4,80006a3c <f64_classify+0x9c>
    80006a0a:	c399                	beqz	a5,80006a10 <f64_classify+0x70>
    80006a0c:	4789                	li	a5,2
    80006a0e:	b775                	j	800069ba <f64_classify+0x1a>
    80006a10:	00c51713          	slli	a4,a0,0xc
    80006a14:	47a1                	li	a5,8
    80006a16:	d355                	beqz	a4,800069ba <f64_classify+0x1a>
    80006a18:	4791                	li	a5,4
    80006a1a:	b745                	j	800069ba <f64_classify+0x1a>
    80006a1c:	577d                	li	a4,-1
    80006a1e:	8335                	srli	a4,a4,0xd
    80006a20:	8f69                	and	a4,a4,a0
    80006a22:	df45                	beqz	a4,800069da <f64_classify+0x3a>
    80006a24:	1007e793          	ori	a5,a5,256
    80006a28:	2781                	sext.w	a5,a5
    80006a2a:	0536                	slli	a0,a0,0xd
    80006a2c:	8135                	srli	a0,a0,0xd
    80006a2e:	00153513          	seqz	a0,a0
    80006a32:	0095151b          	slliw	a0,a0,0x9
    80006a36:	8fc9                	or	a5,a5,a0
    80006a38:	2781                	sext.w	a5,a5
    80006a3a:	bf65                	j	800069f2 <f64_classify+0x52>
    80006a3c:	00c51793          	slli	a5,a0,0xc
    80006a40:	83b1                	srli	a5,a5,0xc
    80006a42:	0017b793          	seqz	a5,a5
    80006a46:	bf95                	j	800069ba <f64_classify+0x1a>
    80006a48:	00c51713          	slli	a4,a0,0xc
    80006a4c:	8331                	srli	a4,a4,0xc
    80006a4e:	4781                	li	a5,0
    80006a50:	c319                	beqz	a4,80006a56 <f64_classify+0xb6>
    80006a52:	0207e793          	ori	a5,a5,32
    80006a56:	00173713          	seqz	a4,a4
    80006a5a:	0047171b          	slliw	a4,a4,0x4
    80006a5e:	8fd9                	or	a5,a5,a4
    80006a60:	bfa9                	j	800069ba <f64_classify+0x1a>

0000000080006a62 <softfloat_addMagsF32>:
    80006a62:	7179                	addi	sp,sp,-48
    80006a64:	f022                	sd	s0,32(sp)
    80006a66:	ec26                	sd	s1,24(sp)
    80006a68:	0175541b          	srliw	s0,a0,0x17
    80006a6c:	0175d49b          	srliw	s1,a1,0x17
    80006a70:	0ff47413          	andi	s0,s0,255
    80006a74:	0ff4f493          	andi	s1,s1,255
    80006a78:	008007b7          	lui	a5,0x800
    80006a7c:	17fd                	addi	a5,a5,-1
    80006a7e:	f406                	sd	ra,40(sp)
    80006a80:	e84a                	sd	s2,16(sp)
    80006a82:	e44e                	sd	s3,8(sp)
    80006a84:	e052                	sd	s4,0(sp)
    80006a86:	4094083b          	subw	a6,s0,s1
    80006a8a:	00f576b3          	and	a3,a0,a5
    80006a8e:	00f5f733          	and	a4,a1,a5
    80006a92:	02081763          	bnez	a6,80006ac0 <softfloat_addMagsF32+0x5e>
    80006a96:	c445                	beqz	s0,80006b3e <softfloat_addMagsF32+0xdc>
    80006a98:	0ff00813          	li	a6,255
    80006a9c:	0f040063          	beq	s0,a6,80006b7c <softfloat_addMagsF32+0x11a>
    80006aa0:	01000637          	lui	a2,0x1000
    80006aa4:	9e39                	addw	a2,a2,a4
    80006aa6:	9e35                	addw	a2,a2,a3
    80006aa8:	00167793          	andi	a5,a2,1
    80006aac:	01f5599b          	srliw	s3,a0,0x1f
    80006ab0:	e789                	bnez	a5,80006aba <softfloat_addMagsF32+0x58>
    80006ab2:	0fe00793          	li	a5,254
    80006ab6:	0cf41963          	bne	s0,a5,80006b88 <softfloat_addMagsF32+0x126>
    80006aba:	0066161b          	slliw	a2,a2,0x6
    80006abe:	a0b1                	j	80006b0a <softfloat_addMagsF32+0xa8>
    80006ac0:	0066991b          	slliw	s2,a3,0x6
    80006ac4:	00671a1b          	slliw	s4,a4,0x6
    80006ac8:	86ca                	mv	a3,s2
    80006aca:	8752                	mv	a4,s4
    80006acc:	01f5599b          	srliw	s3,a0,0x1f
    80006ad0:	0ff00793          	li	a5,255
    80006ad4:	04084663          	bltz	a6,80006b20 <softfloat_addMagsF32+0xbe>
    80006ad8:	06f40c63          	beq	s0,a5,80006b50 <softfloat_addMagsF32+0xee>
    80006adc:	20000537          	lui	a0,0x20000
    80006ae0:	e091                	bnez	s1,80006ae4 <softfloat_addMagsF32+0x82>
    80006ae2:	8552                	mv	a0,s4
    80006ae4:	85c2                	mv	a1,a6
    80006ae6:	9d39                	addw	a0,a0,a4
    80006ae8:	493000ef          	jal	ra,8000777a <softfloat_shiftRightJam32>
    80006aec:	00050a1b          	sext.w	s4,a0
    80006af0:	200007b7          	lui	a5,0x20000
    80006af4:	0149093b          	addw	s2,s2,s4
    80006af8:	00f9063b          	addw	a2,s2,a5
    80006afc:	400007b7          	lui	a5,0x40000
    80006b00:	00f67563          	bgeu	a2,a5,80006b0a <softfloat_addMagsF32+0xa8>
    80006b04:	347d                	addiw	s0,s0,-1
    80006b06:	0016161b          	slliw	a2,a2,0x1
    80006b0a:	85a2                	mv	a1,s0
    80006b0c:	7402                	ld	s0,32(sp)
    80006b0e:	70a2                	ld	ra,40(sp)
    80006b10:	64e2                	ld	s1,24(sp)
    80006b12:	6942                	ld	s2,16(sp)
    80006b14:	6a02                	ld	s4,0(sp)
    80006b16:	854e                	mv	a0,s3
    80006b18:	69a2                	ld	s3,8(sp)
    80006b1a:	6145                	addi	sp,sp,48
    80006b1c:	1c50006f          	j	800074e0 <softfloat_roundPackToF32>
    80006b20:	04f48563          	beq	s1,a5,80006b6a <softfloat_addMagsF32+0x108>
    80006b24:	20000537          	lui	a0,0x20000
    80006b28:	e011                	bnez	s0,80006b2c <softfloat_addMagsF32+0xca>
    80006b2a:	854a                	mv	a0,s2
    80006b2c:	408485bb          	subw	a1,s1,s0
    80006b30:	9d35                	addw	a0,a0,a3
    80006b32:	449000ef          	jal	ra,8000777a <softfloat_shiftRightJam32>
    80006b36:	0005091b          	sext.w	s2,a0
    80006b3a:	8426                	mv	s0,s1
    80006b3c:	bf55                	j	80006af0 <softfloat_addMagsF32+0x8e>
    80006b3e:	9d39                	addw	a0,a0,a4
    80006b40:	70a2                	ld	ra,40(sp)
    80006b42:	7402                	ld	s0,32(sp)
    80006b44:	64e2                	ld	s1,24(sp)
    80006b46:	6942                	ld	s2,16(sp)
    80006b48:	69a2                	ld	s3,8(sp)
    80006b4a:	6a02                	ld	s4,0(sp)
    80006b4c:	6145                	addi	sp,sp,48
    80006b4e:	8082                	ret
    80006b50:	fe0908e3          	beqz	s2,80006b40 <softfloat_addMagsF32+0xde>
    80006b54:	1c8010ef          	jal	ra,80007d1c <softfloat_propagateNaNF32UI>
    80006b58:	70a2                	ld	ra,40(sp)
    80006b5a:	7402                	ld	s0,32(sp)
    80006b5c:	64e2                	ld	s1,24(sp)
    80006b5e:	6942                	ld	s2,16(sp)
    80006b60:	69a2                	ld	s3,8(sp)
    80006b62:	6a02                	ld	s4,0(sp)
    80006b64:	2501                	sext.w	a0,a0
    80006b66:	6145                	addi	sp,sp,48
    80006b68:	8082                	ret
    80006b6a:	fe0a15e3          	bnez	s4,80006b54 <softfloat_addMagsF32+0xf2>
    80006b6e:	01f9999b          	slliw	s3,s3,0x1f
    80006b72:	7f800537          	lui	a0,0x7f800
    80006b76:	00a9853b          	addw	a0,s3,a0
    80006b7a:	b7d9                	j	80006b40 <softfloat_addMagsF32+0xde>
    80006b7c:	862a                	mv	a2,a0
    80006b7e:	8e4d                	or	a2,a2,a1
    80006b80:	8ff1                	and	a5,a5,a2
    80006b82:	2781                	sext.w	a5,a5
    80006b84:	fbe1                	bnez	a5,80006b54 <softfloat_addMagsF32+0xf2>
    80006b86:	bf6d                	j	80006b40 <softfloat_addMagsF32+0xde>
    80006b88:	01f9951b          	slliw	a0,s3,0x1f
    80006b8c:	0016561b          	srliw	a2,a2,0x1
    80006b90:	9e29                	addw	a2,a2,a0
    80006b92:	0174151b          	slliw	a0,s0,0x17
    80006b96:	9d31                	addw	a0,a0,a2
    80006b98:	b765                	j	80006b40 <softfloat_addMagsF32+0xde>

0000000080006b9a <softfloat_addMagsF64>:
    80006b9a:	7179                	addi	sp,sp,-48
    80006b9c:	f022                	sd	s0,32(sp)
    80006b9e:	ec26                	sd	s1,24(sp)
    80006ba0:	03455413          	srli	s0,a0,0x34
    80006ba4:	0345d493          	srli	s1,a1,0x34
    80006ba8:	7ff47413          	andi	s0,s0,2047
    80006bac:	7ff4f493          	andi	s1,s1,2047
    80006bb0:	57fd                	li	a5,-1
    80006bb2:	83b1                	srli	a5,a5,0xc
    80006bb4:	e44e                	sd	s3,8(sp)
    80006bb6:	f406                	sd	ra,40(sp)
    80006bb8:	e84a                	sd	s2,16(sp)
    80006bba:	e052                	sd	s4,0(sp)
    80006bbc:	409406bb          	subw	a3,s0,s1
    80006bc0:	89b2                	mv	s3,a2
    80006bc2:	00f57833          	and	a6,a0,a5
    80006bc6:	00f5f733          	and	a4,a1,a5
    80006bca:	e69d                	bnez	a3,80006bf8 <softfloat_addMagsF64+0x5e>
    80006bcc:	c449                	beqz	s0,80006c56 <softfloat_addMagsF64+0xbc>
    80006bce:	7ff00693          	li	a3,2047
    80006bd2:	0ad40e63          	beq	s0,a3,80006c8e <softfloat_addMagsF64+0xf4>
    80006bd6:	4605                	li	a2,1
    80006bd8:	1656                	slli	a2,a2,0x35
    80006bda:	9732                	add	a4,a4,a2
    80006bdc:	01070633          	add	a2,a4,a6
    80006be0:	0626                	slli	a2,a2,0x9
    80006be2:	85a2                	mv	a1,s0
    80006be4:	7402                	ld	s0,32(sp)
    80006be6:	70a2                	ld	ra,40(sp)
    80006be8:	64e2                	ld	s1,24(sp)
    80006bea:	6942                	ld	s2,16(sp)
    80006bec:	6a02                	ld	s4,0(sp)
    80006bee:	854e                	mv	a0,s3
    80006bf0:	69a2                	ld	s3,8(sp)
    80006bf2:	6145                	addi	sp,sp,48
    80006bf4:	1f70006f          	j	800075ea <softfloat_roundPackToF64>
    80006bf8:	00981913          	slli	s2,a6,0x9
    80006bfc:	00971a13          	slli	s4,a4,0x9
    80006c00:	7ff00793          	li	a5,2047
    80006c04:	0206ca63          	bltz	a3,80006c38 <softfloat_addMagsF64+0x9e>
    80006c08:	06f40063          	beq	s0,a5,80006c68 <softfloat_addMagsF64+0xce>
    80006c0c:	00a71513          	slli	a0,a4,0xa
    80006c10:	c481                	beqz	s1,80006c18 <softfloat_addMagsF64+0x7e>
    80006c12:	4505                	li	a0,1
    80006c14:	1576                	slli	a0,a0,0x3d
    80006c16:	9552                	add	a0,a0,s4
    80006c18:	85b6                	mv	a1,a3
    80006c1a:	383000ef          	jal	ra,8000779c <softfloat_shiftRightJam64>
    80006c1e:	8a2a                	mv	s4,a0
    80006c20:	4705                	li	a4,1
    80006c22:	01490633          	add	a2,s2,s4
    80006c26:	1776                	slli	a4,a4,0x3d
    80006c28:	57fd                	li	a5,-1
    80006c2a:	963a                	add	a2,a2,a4
    80006c2c:	8389                	srli	a5,a5,0x2
    80006c2e:	fac7eae3          	bltu	a5,a2,80006be2 <softfloat_addMagsF64+0x48>
    80006c32:	347d                	addiw	s0,s0,-1
    80006c34:	0606                	slli	a2,a2,0x1
    80006c36:	b775                	j	80006be2 <softfloat_addMagsF64+0x48>
    80006c38:	04f48463          	beq	s1,a5,80006c80 <softfloat_addMagsF64+0xe6>
    80006c3c:	00a81513          	slli	a0,a6,0xa
    80006c40:	c401                	beqz	s0,80006c48 <softfloat_addMagsF64+0xae>
    80006c42:	4505                	li	a0,1
    80006c44:	1576                	slli	a0,a0,0x3d
    80006c46:	954a                	add	a0,a0,s2
    80006c48:	408485bb          	subw	a1,s1,s0
    80006c4c:	351000ef          	jal	ra,8000779c <softfloat_shiftRightJam64>
    80006c50:	892a                	mv	s2,a0
    80006c52:	8426                	mv	s0,s1
    80006c54:	b7f1                	j	80006c20 <softfloat_addMagsF64+0x86>
    80006c56:	953a                	add	a0,a0,a4
    80006c58:	70a2                	ld	ra,40(sp)
    80006c5a:	7402                	ld	s0,32(sp)
    80006c5c:	64e2                	ld	s1,24(sp)
    80006c5e:	6942                	ld	s2,16(sp)
    80006c60:	69a2                	ld	s3,8(sp)
    80006c62:	6a02                	ld	s4,0(sp)
    80006c64:	6145                	addi	sp,sp,48
    80006c66:	8082                	ret
    80006c68:	fe0908e3          	beqz	s2,80006c58 <softfloat_addMagsF64+0xbe>
    80006c6c:	0ea010ef          	jal	ra,80007d56 <softfloat_propagateNaNF64UI>
    80006c70:	70a2                	ld	ra,40(sp)
    80006c72:	7402                	ld	s0,32(sp)
    80006c74:	64e2                	ld	s1,24(sp)
    80006c76:	6942                	ld	s2,16(sp)
    80006c78:	69a2                	ld	s3,8(sp)
    80006c7a:	6a02                	ld	s4,0(sp)
    80006c7c:	6145                	addi	sp,sp,48
    80006c7e:	8082                	ret
    80006c80:	fe0a16e3          	bnez	s4,80006c6c <softfloat_addMagsF64+0xd2>
    80006c84:	03f61513          	slli	a0,a2,0x3f
    80006c88:	14d2                	slli	s1,s1,0x34
    80006c8a:	9526                	add	a0,a0,s1
    80006c8c:	b7f1                	j	80006c58 <softfloat_addMagsF64+0xbe>
    80006c8e:	00b56733          	or	a4,a0,a1
    80006c92:	8ff9                	and	a5,a5,a4
    80006c94:	ffe1                	bnez	a5,80006c6c <softfloat_addMagsF64+0xd2>
    80006c96:	b7c9                	j	80006c58 <softfloat_addMagsF64+0xbe>

0000000080006c98 <softfloat_approxRecip32_1>:
    80006c98:	01b5579b          	srliw	a5,a0,0x1b
    80006c9c:	8bbd                	andi	a5,a5,15
    80006c9e:	0786                	slli	a5,a5,0x1
    80006ca0:	00002717          	auipc	a4,0x2
    80006ca4:	24870713          	addi	a4,a4,584 # 80008ee8 <softfloat_approxRecip_1k1s>
    80006ca8:	973e                	add	a4,a4,a5
    80006caa:	00075683          	lhu	a3,0(a4)
    80006cae:	00b5571b          	srliw	a4,a0,0xb
    80006cb2:	1742                	slli	a4,a4,0x30
    80006cb4:	9341                	srli	a4,a4,0x30
    80006cb6:	02e686bb          	mulw	a3,a3,a4
    80006cba:	00002717          	auipc	a4,0x2
    80006cbe:	24e70713          	addi	a4,a4,590 # 80008f08 <softfloat_approxRecip_1k0s>
    80006cc2:	97ba                	add	a5,a5,a4
    80006cc4:	0007d703          	lhu	a4,0(a5) # 40000000 <_ftext-0x40000000>
    80006cc8:	02051793          	slli	a5,a0,0x20
    80006ccc:	9381                	srli	a5,a5,0x20
    80006cce:	0146d69b          	srliw	a3,a3,0x14
    80006cd2:	9f15                	subw	a4,a4,a3
    80006cd4:	1742                	slli	a4,a4,0x30
    80006cd6:	9341                	srli	a4,a4,0x30
    80006cd8:	02e787b3          	mul	a5,a5,a4
    80006cdc:	0107151b          	slliw	a0,a4,0x10
    80006ce0:	839d                	srli	a5,a5,0x7
    80006ce2:	fff7c793          	not	a5,a5
    80006ce6:	1782                	slli	a5,a5,0x20
    80006ce8:	9381                	srli	a5,a5,0x20
    80006cea:	02f70733          	mul	a4,a4,a5
    80006cee:	02f787b3          	mul	a5,a5,a5
    80006cf2:	8361                	srli	a4,a4,0x18
    80006cf4:	9f29                	addw	a4,a4,a0
    80006cf6:	02071513          	slli	a0,a4,0x20
    80006cfa:	9101                	srli	a0,a0,0x20
    80006cfc:	9381                	srli	a5,a5,0x20
    80006cfe:	02a787b3          	mul	a5,a5,a0
    80006d02:	93c1                	srli	a5,a5,0x30
    80006d04:	00f7053b          	addw	a0,a4,a5
    80006d08:	8082                	ret

0000000080006d0a <softfloat_approxRecipSqrt32_1>:
    80006d0a:	01b5d71b          	srliw	a4,a1,0x1b
    80006d0e:	8b39                	andi	a4,a4,14
    80006d10:	9f29                	addw	a4,a4,a0
    80006d12:	0706                	slli	a4,a4,0x1
    80006d14:	00002797          	auipc	a5,0x2
    80006d18:	21478793          	addi	a5,a5,532 # 80008f28 <softfloat_approxRecipSqrt_1k1s>
    80006d1c:	97ba                	add	a5,a5,a4
    80006d1e:	0007d783          	lhu	a5,0(a5)
    80006d22:	00c5d69b          	srliw	a3,a1,0xc
    80006d26:	16c2                	slli	a3,a3,0x30
    80006d28:	92c1                	srli	a3,a3,0x30
    80006d2a:	02d787bb          	mulw	a5,a5,a3
    80006d2e:	00002697          	auipc	a3,0x2
    80006d32:	21a68693          	addi	a3,a3,538 # 80008f48 <softfloat_approxRecipSqrt_1k0s>
    80006d36:	9736                	add	a4,a4,a3
    80006d38:	00075683          	lhu	a3,0(a4)
    80006d3c:	0147d79b          	srliw	a5,a5,0x14
    80006d40:	9e9d                	subw	a3,a3,a5
    80006d42:	16c2                	slli	a3,a3,0x30
    80006d44:	92c1                	srli	a3,a3,0x30
    80006d46:	0006871b          	sext.w	a4,a3
    80006d4a:	02e707bb          	mulw	a5,a4,a4
    80006d4e:	e119                	bnez	a0,80006d54 <softfloat_approxRecipSqrt32_1+0x4a>
    80006d50:	0017979b          	slliw	a5,a5,0x1
    80006d54:	1782                	slli	a5,a5,0x20
    80006d56:	1582                	slli	a1,a1,0x20
    80006d58:	9181                	srli	a1,a1,0x20
    80006d5a:	9381                	srli	a5,a5,0x20
    80006d5c:	0107151b          	slliw	a0,a4,0x10
    80006d60:	00e7161b          	slliw	a2,a4,0xe
    80006d64:	02b787b3          	mul	a5,a5,a1
    80006d68:	83dd                	srli	a5,a5,0x17
    80006d6a:	fff7c793          	not	a5,a5
    80006d6e:	1782                	slli	a5,a5,0x20
    80006d70:	9381                	srli	a5,a5,0x20
    80006d72:	02f686b3          	mul	a3,a3,a5
    80006d76:	02f787b3          	mul	a5,a5,a5
    80006d7a:	82e5                	srli	a3,a3,0x19
    80006d7c:	9ea9                	addw	a3,a3,a0
    80006d7e:	0016d71b          	srliw	a4,a3,0x1
    80006d82:	0036d59b          	srliw	a1,a3,0x3
    80006d86:	9f2d                	addw	a4,a4,a1
    80006d88:	9f11                	subw	a4,a4,a2
    80006d8a:	1702                	slli	a4,a4,0x20
    80006d8c:	9301                	srli	a4,a4,0x20
    80006d8e:	9381                	srli	a5,a5,0x20
    80006d90:	02f707b3          	mul	a5,a4,a5
    80006d94:	93c1                	srli	a5,a5,0x30
    80006d96:	00f6853b          	addw	a0,a3,a5
    80006d9a:	00055363          	bgez	a0,80006da0 <softfloat_approxRecipSqrt32_1+0x96>
    80006d9e:	8082                	ret
    80006da0:	80000537          	lui	a0,0x80000
    80006da4:	8082                	ret

0000000080006da6 <softfloat_mul64To128M>:
    80006da6:	587d                	li	a6,-1
    80006da8:	02085813          	srli	a6,a6,0x20
    80006dac:	02055713          	srli	a4,a0,0x20
    80006db0:	0205d693          	srli	a3,a1,0x20
    80006db4:	01057533          	and	a0,a0,a6
    80006db8:	0105f5b3          	and	a1,a1,a6
    80006dbc:	02a687b3          	mul	a5,a3,a0
    80006dc0:	02b70833          	mul	a6,a4,a1
    80006dc4:	97c2                	add	a5,a5,a6
    80006dc6:	02a585b3          	mul	a1,a1,a0
    80006dca:	4501                	li	a0,0
    80006dcc:	02d706b3          	mul	a3,a4,a3
    80006dd0:	0107f463          	bgeu	a5,a6,80006dd8 <softfloat_mul64To128M+0x32>
    80006dd4:	4505                	li	a0,1
    80006dd6:	1502                	slli	a0,a0,0x20
    80006dd8:	02079713          	slli	a4,a5,0x20
    80006ddc:	95ba                	add	a1,a1,a4
    80006dde:	00e5b733          	sltu	a4,a1,a4
    80006de2:	9381                	srli	a5,a5,0x20
    80006de4:	9736                	add	a4,a4,a3
    80006de6:	8fc9                	or	a5,a5,a0
    80006de8:	97ba                	add	a5,a5,a4
    80006dea:	0205d693          	srli	a3,a1,0x20
    80006dee:	0207d713          	srli	a4,a5,0x20
    80006df2:	c254                	sw	a3,4(a2)
    80006df4:	c20c                	sw	a1,0(a2)
    80006df6:	c658                	sw	a4,12(a2)
    80006df8:	c61c                	sw	a5,8(a2)
    80006dfa:	8082                	ret

0000000080006dfc <softfloat_mulAddF32>:
    80006dfc:	7119                	addi	sp,sp,-128
    80006dfe:	fff68713          	addi	a4,a3,-1
    80006e02:	f4a6                	sd	s1,104(sp)
    80006e04:	16f9                	addi	a3,a3,-2
    80006e06:	e0da                	sd	s6,64(sp)
    80006e08:	0175549b          	srliw	s1,a0,0x17
    80006e0c:	00a5cb33          	xor	s6,a1,a0
    80006e10:	008007b7          	lui	a5,0x800
    80006e14:	17fd                	addi	a5,a5,-1
    80006e16:	f8a2                	sd	s0,112(sp)
    80006e18:	f0ca                	sd	s2,96(sp)
    80006e1a:	ecce                	sd	s3,88(sp)
    80006e1c:	e8d2                	sd	s4,80(sp)
    80006e1e:	0016b993          	seqz	s3,a3
    80006e22:	e4d6                	sd	s5,72(sp)
    80006e24:	fc5e                	sd	s7,56(sp)
    80006e26:	f862                	sd	s8,48(sp)
    80006e28:	f466                	sd	s9,40(sp)
    80006e2a:	0175d91b          	srliw	s2,a1,0x17
    80006e2e:	00173713          	seqz	a4,a4
    80006e32:	01f65b9b          	srliw	s7,a2,0x1f
    80006e36:	01765a9b          	srliw	s5,a2,0x17
    80006e3a:	03fb5b13          	srli	s6,s6,0x3f
    80006e3e:	fc86                	sd	ra,120(sp)
    80006e40:	0ff4f493          	andi	s1,s1,255
    80006e44:	0ff00693          	li	a3,255
    80006e48:	00f57a33          	and	s4,a0,a5
    80006e4c:	0ff97913          	andi	s2,s2,255
    80006e50:	00f5fcb3          	and	s9,a1,a5
    80006e54:	00ebcbb3          	xor	s7,s7,a4
    80006e58:	0ffafa93          	andi	s5,s5,255
    80006e5c:	00f67433          	and	s0,a2,a5
    80006e60:	013b4c33          	xor	s8,s6,s3
    80006e64:	12d48563          	beq	s1,a3,80006f8e <softfloat_mulAddF32+0x192>
    80006e68:	0ed90963          	beq	s2,a3,80006f5a <softfloat_mulAddF32+0x15e>
    80006e6c:	14da8e63          	beq	s5,a3,80006fc8 <softfloat_mulAddF32+0x1cc>
    80006e70:	ec81                	bnez	s1,80006e88 <softfloat_mulAddF32+0x8c>
    80006e72:	140a0e63          	beqz	s4,80006fce <softfloat_mulAddF32+0x1d2>
    80006e76:	8552                	mv	a0,s4
    80006e78:	e432                	sd	a2,8(sp)
    80006e7a:	5a2000ef          	jal	ra,8000741c <softfloat_normSubnormalF32Sig>
    80006e7e:	6622                	ld	a2,8(sp)
    80006e80:	0005049b          	sext.w	s1,a0
    80006e84:	42055a13          	srai	s4,a0,0x20
    80006e88:	00091b63          	bnez	s2,80006e9e <softfloat_mulAddF32+0xa2>
    80006e8c:	140c8163          	beqz	s9,80006fce <softfloat_mulAddF32+0x1d2>
    80006e90:	8566                	mv	a0,s9
    80006e92:	58a000ef          	jal	ra,8000741c <softfloat_normSubnormalF32Sig>
    80006e96:	0005091b          	sext.w	s2,a0
    80006e9a:	42055c93          	srai	s9,a0,0x20
    80006e9e:	400007b7          	lui	a5,0x40000
    80006ea2:	007a1a1b          	slliw	s4,s4,0x7
    80006ea6:	007c9c9b          	slliw	s9,s9,0x7
    80006eaa:	00fa6a33          	or	s4,s4,a5
    80006eae:	00fcecb3          	or	s9,s9,a5
    80006eb2:	1a02                	slli	s4,s4,0x20
    80006eb4:	1c82                	slli	s9,s9,0x20
    80006eb6:	020a5a13          	srli	s4,s4,0x20
    80006eba:	020cdc93          	srli	s9,s9,0x20
    80006ebe:	039a0a33          	mul	s4,s4,s9
    80006ec2:	57fd                	li	a5,-1
    80006ec4:	838d                	srli	a5,a5,0x3
    80006ec6:	012484bb          	addw	s1,s1,s2
    80006eca:	1347f263          	bgeu	a5,s4,80006fee <softfloat_mulAddF32+0x1f2>
    80006ece:	f824849b          	addiw	s1,s1,-126
    80006ed2:	000a9b63          	bnez	s5,80006ee8 <softfloat_mulAddF32+0xec>
    80006ed6:	14040b63          	beqz	s0,8000702c <softfloat_mulAddF32+0x230>
    80006eda:	8522                	mv	a0,s0
    80006edc:	540000ef          	jal	ra,8000741c <softfloat_normSubnormalF32Sig>
    80006ee0:	00050a9b          	sext.w	s5,a0
    80006ee4:	42055413          	srai	s0,a0,0x20
    80006ee8:	0064179b          	slliw	a5,s0,0x6
    80006eec:	20000637          	lui	a2,0x20000
    80006ef0:	8fd1                	or	a5,a5,a2
    80006ef2:	415485bb          	subw	a1,s1,s5
    80006ef6:	872e                	mv	a4,a1
    80006ef8:	0007841b          	sext.w	s0,a5
    80006efc:	118b8363          	beq	s7,s8,80007002 <softfloat_mulAddF32+0x206>
    80006f00:	1402                	slli	s0,s0,0x20
    80006f02:	1205cd63          	bltz	a1,8000703c <softfloat_mulAddF32+0x240>
    80006f06:	0e059863          	bnez	a1,80006ff6 <softfloat_mulAddF32+0x1fa>
    80006f0a:	408a0933          	sub	s2,s4,s0
    80006f0e:	0c090763          	beqz	s2,80006fdc <softfloat_mulAddF32+0x1e0>
    80006f12:	00095863          	bgez	s2,80006f22 <softfloat_mulAddF32+0x126>
    80006f16:	413b09b3          	sub	s3,s6,s3
    80006f1a:	0019bc13          	seqz	s8,s3
    80006f1e:	41440933          	sub	s2,s0,s4
    80006f22:	854a                	mv	a0,s2
    80006f24:	6f1000ef          	jal	ra,80007e14 <softfloat_countLeadingZeros64>
    80006f28:	2501                	sext.w	a0,a0
    80006f2a:	fdf5079b          	addiw	a5,a0,-33
    80006f2e:	357d                	addiw	a0,a0,-1
    80006f30:	9c89                	subw	s1,s1,a0
    80006f32:	00f9163b          	sllw	a2,s2,a5
    80006f36:	1007cd63          	bltz	a5,80007050 <softfloat_mulAddF32+0x254>
    80006f3a:	7446                	ld	s0,112(sp)
    80006f3c:	70e6                	ld	ra,120(sp)
    80006f3e:	7906                	ld	s2,96(sp)
    80006f40:	69e6                	ld	s3,88(sp)
    80006f42:	6a46                	ld	s4,80(sp)
    80006f44:	6aa6                	ld	s5,72(sp)
    80006f46:	6b06                	ld	s6,64(sp)
    80006f48:	7be2                	ld	s7,56(sp)
    80006f4a:	7ca2                	ld	s9,40(sp)
    80006f4c:	85a6                	mv	a1,s1
    80006f4e:	8562                	mv	a0,s8
    80006f50:	74a6                	ld	s1,104(sp)
    80006f52:	7c42                	ld	s8,48(sp)
    80006f54:	6109                	addi	sp,sp,128
    80006f56:	58a0006f          	j	800074e0 <softfloat_roundPackToF32>
    80006f5a:	0144e4b3          	or	s1,s1,s4
    80006f5e:	020c8e63          	beqz	s9,80006f9a <softfloat_mulAddF32+0x19e>
    80006f62:	e432                	sd	a2,8(sp)
    80006f64:	5b9000ef          	jal	ra,80007d1c <softfloat_propagateNaNF32UI>
    80006f68:	6622                	ld	a2,8(sp)
    80006f6a:	2501                	sext.w	a0,a0
    80006f6c:	85b2                	mv	a1,a2
    80006f6e:	5af000ef          	jal	ra,80007d1c <softfloat_propagateNaNF32UI>
    80006f72:	2501                	sext.w	a0,a0
    80006f74:	70e6                	ld	ra,120(sp)
    80006f76:	7446                	ld	s0,112(sp)
    80006f78:	74a6                	ld	s1,104(sp)
    80006f7a:	7906                	ld	s2,96(sp)
    80006f7c:	69e6                	ld	s3,88(sp)
    80006f7e:	6a46                	ld	s4,80(sp)
    80006f80:	6aa6                	ld	s5,72(sp)
    80006f82:	6b06                	ld	s6,64(sp)
    80006f84:	7be2                	ld	s7,56(sp)
    80006f86:	7c42                	ld	s8,48(sp)
    80006f88:	7ca2                	ld	s9,40(sp)
    80006f8a:	6109                	addi	sp,sp,128
    80006f8c:	8082                	ret
    80006f8e:	fc0a1ae3          	bnez	s4,80006f62 <softfloat_mulAddF32+0x166>
    80006f92:	02990663          	beq	s2,s1,80006fbe <softfloat_mulAddF32+0x1c2>
    80006f96:	019964b3          	or	s1,s2,s9
    80006f9a:	cc89                	beqz	s1,80006fb4 <softfloat_mulAddF32+0x1b8>
    80006f9c:	01fc151b          	slliw	a0,s8,0x1f
    80006fa0:	7f800737          	lui	a4,0x7f800
    80006fa4:	0ff00793          	li	a5,255
    80006fa8:	9d39                	addw	a0,a0,a4
    80006faa:	fcfa95e3          	bne	s5,a5,80006f74 <softfloat_mulAddF32+0x178>
    80006fae:	fc5d                	bnez	s0,80006f6c <softfloat_mulAddF32+0x170>
    80006fb0:	fd8b82e3          	beq	s7,s8,80006f74 <softfloat_mulAddF32+0x178>
    80006fb4:	001867f3          	csrrsi	a5,fflags,16
    80006fb8:	7fc00537          	lui	a0,0x7fc00
    80006fbc:	bf45                	j	80006f6c <softfloat_mulAddF32+0x170>
    80006fbe:	fa0c92e3          	bnez	s9,80006f62 <softfloat_mulAddF32+0x166>
    80006fc2:	019964b3          	or	s1,s2,s9
    80006fc6:	bfd1                	j	80006f9a <softfloat_mulAddF32+0x19e>
    80006fc8:	c801                	beqz	s0,80006fd8 <softfloat_mulAddF32+0x1dc>
    80006fca:	4501                	li	a0,0
    80006fcc:	b745                	j	80006f6c <softfloat_mulAddF32+0x170>
    80006fce:	008ae7b3          	or	a5,s5,s0
    80006fd2:	e399                	bnez	a5,80006fd8 <softfloat_mulAddF32+0x1dc>
    80006fd4:	018b9463          	bne	s7,s8,80006fdc <softfloat_mulAddF32+0x1e0>
    80006fd8:	8532                	mv	a0,a2
    80006fda:	bf69                	j	80006f74 <softfloat_mulAddF32+0x178>
    80006fdc:	0002071b          	sext.w	a4,tp
    80006fe0:	4789                	li	a5,2
    80006fe2:	80000537          	lui	a0,0x80000
    80006fe6:	f8f707e3          	beq	a4,a5,80006f74 <softfloat_mulAddF32+0x178>
    80006fea:	4501                	li	a0,0
    80006fec:	b761                	j	80006f74 <softfloat_mulAddF32+0x178>
    80006fee:	f814849b          	addiw	s1,s1,-127
    80006ff2:	0a06                	slli	s4,s4,0x1
    80006ff4:	bdf9                	j	80006ed2 <softfloat_mulAddF32+0xd6>
    80006ff6:	8522                	mv	a0,s0
    80006ff8:	7a4000ef          	jal	ra,8000779c <softfloat_shiftRightJam64>
    80006ffc:	40aa0933          	sub	s2,s4,a0
    80007000:	b70d                	j	80006f22 <softfloat_mulAddF32+0x126>
    80007002:	04b05f63          	blez	a1,80007060 <softfloat_mulAddF32+0x264>
    80007006:	02041513          	slli	a0,s0,0x20
    8000700a:	792000ef          	jal	ra,8000779c <softfloat_shiftRightJam64>
    8000700e:	02000593          	li	a1,32
    80007012:	9552                	add	a0,a0,s4
    80007014:	119000ef          	jal	ra,8000792c <softfloat_shortShiftRightJam64>
    80007018:	0005061b          	sext.w	a2,a0
    8000701c:	400007b7          	lui	a5,0x40000
    80007020:	f0f67de3          	bgeu	a2,a5,80006f3a <softfloat_mulAddF32+0x13e>
    80007024:	0016161b          	slliw	a2,a2,0x1
    80007028:	34fd                	addiw	s1,s1,-1
    8000702a:	bf01                	j	80006f3a <softfloat_mulAddF32+0x13e>
    8000702c:	45fd                	li	a1,31
    8000702e:	8552                	mv	a0,s4
    80007030:	0fd000ef          	jal	ra,8000792c <softfloat_shortShiftRightJam64>
    80007034:	34fd                	addiw	s1,s1,-1
    80007036:	0005061b          	sext.w	a2,a0
    8000703a:	b701                	j	80006f3a <softfloat_mulAddF32+0x13e>
    8000703c:	409a85bb          	subw	a1,s5,s1
    80007040:	8552                	mv	a0,s4
    80007042:	75a000ef          	jal	ra,8000779c <softfloat_shiftRightJam64>
    80007046:	40a40933          	sub	s2,s0,a0
    8000704a:	84d6                	mv	s1,s5
    8000704c:	8c5e                	mv	s8,s7
    8000704e:	bdd1                	j	80006f22 <softfloat_mulAddF32+0x126>
    80007050:	40f005bb          	negw	a1,a5
    80007054:	854a                	mv	a0,s2
    80007056:	0d7000ef          	jal	ra,8000792c <softfloat_shortShiftRightJam64>
    8000705a:	0005061b          	sext.w	a2,a0
    8000705e:	bdf1                	j	80006f3a <softfloat_mulAddF32+0x13e>
    80007060:	02000593          	li	a1,32
    80007064:	9d99                	subw	a1,a1,a4
    80007066:	8552                	mv	a0,s4
    80007068:	734000ef          	jal	ra,8000779c <softfloat_shiftRightJam64>
    8000706c:	0085063b          	addw	a2,a0,s0
    80007070:	84d6                	mv	s1,s5
    80007072:	b76d                	j	8000701c <softfloat_mulAddF32+0x220>

0000000080007074 <softfloat_mulAddF64>:
    80007074:	7171                	addi	sp,sp,-176
    80007076:	fff68713          	addi	a4,a3,-1
    8000707a:	ed26                	sd	s1,152(sp)
    8000707c:	16f9                	addi	a3,a3,-2
    8000707e:	f4de                	sd	s7,104(sp)
    80007080:	03455493          	srli	s1,a0,0x34
    80007084:	00a5cbb3          	xor	s7,a1,a0
    80007088:	57fd                	li	a5,-1
    8000708a:	83b1                	srli	a5,a5,0xc
    8000708c:	f122                	sd	s0,160(sp)
    8000708e:	e94a                	sd	s2,144(sp)
    80007090:	03465413          	srli	s0,a2,0x34
    80007094:	e54e                	sd	s3,136(sp)
    80007096:	e152                	sd	s4,128(sp)
    80007098:	0016b993          	seqz	s3,a3
    8000709c:	fcd6                	sd	s5,120(sp)
    8000709e:	f8da                	sd	s6,112(sp)
    800070a0:	ece6                	sd	s9,88(sp)
    800070a2:	e8ea                	sd	s10,80(sp)
    800070a4:	0345d913          	srli	s2,a1,0x34
    800070a8:	03f65813          	srli	a6,a2,0x3f
    800070ac:	00173713          	seqz	a4,a4
    800070b0:	03fbdb93          	srli	s7,s7,0x3f
    800070b4:	f506                	sd	ra,168(sp)
    800070b6:	f0e2                	sd	s8,96(sp)
    800070b8:	e4ee                	sd	s11,72(sp)
    800070ba:	7ff4f493          	andi	s1,s1,2047
    800070be:	7ff00693          	li	a3,2047
    800070c2:	7ff47b13          	andi	s6,s0,2047
    800070c6:	00f57ab3          	and	s5,a0,a5
    800070ca:	7ff97913          	andi	s2,s2,2047
    800070ce:	00f5fa33          	and	s4,a1,a5
    800070d2:	00e84cb3          	xor	s9,a6,a4
    800070d6:	00f67433          	and	s0,a2,a5
    800070da:	013bcd33          	xor	s10,s7,s3
    800070de:	0ad48463          	beq	s1,a3,80007186 <softfloat_mulAddF64+0x112>
    800070e2:	06d90863          	beq	s2,a3,80007152 <softfloat_mulAddF64+0xde>
    800070e6:	0cdb0e63          	beq	s6,a3,800071c2 <softfloat_mulAddF64+0x14e>
    800070ea:	e899                	bnez	s1,80007100 <softfloat_mulAddF64+0x8c>
    800070ec:	0c0a8e63          	beqz	s5,800071c8 <softfloat_mulAddF64+0x154>
    800070f0:	8556                	mv	a0,s5
    800070f2:	e432                	sd	a2,8(sp)
    800070f4:	350000ef          	jal	ra,80007444 <softfloat_normSubnormalF64Sig>
    800070f8:	6622                	ld	a2,8(sp)
    800070fa:	0005049b          	sext.w	s1,a0
    800070fe:	8aae                	mv	s5,a1
    80007100:	00091a63          	bnez	s2,80007114 <softfloat_mulAddF64+0xa0>
    80007104:	0c0a0263          	beqz	s4,800071c8 <softfloat_mulAddF64+0x154>
    80007108:	8552                	mv	a0,s4
    8000710a:	33a000ef          	jal	ra,80007444 <softfloat_normSubnormalF64Sig>
    8000710e:	0005091b          	sext.w	s2,a0
    80007112:	8a2e                	mv	s4,a1
    80007114:	5c7d                	li	s8,-1
    80007116:	4d85                	li	s11,1
    80007118:	1dfa                	slli	s11,s11,0x3e
    8000711a:	0a2e                	slli	s4,s4,0xb
    8000711c:	00aa9513          	slli	a0,s5,0xa
    80007120:	03fc1593          	slli	a1,s8,0x3f
    80007124:	00ba65b3          	or	a1,s4,a1
    80007128:	1010                	addi	a2,sp,32
    8000712a:	01b56533          	or	a0,a0,s11
    8000712e:	c79ff0ef          	jal	ra,80006da6 <softfloat_mul64To128M>
    80007132:	7a22                	ld	s4,40(sp)
    80007134:	012484bb          	addw	s1,s1,s2
    80007138:	01ba77b3          	and	a5,s4,s11
    8000713c:	c7d5                	beqz	a5,800071e8 <softfloat_mulAddF64+0x174>
    8000713e:	c0248a9b          	addiw	s5,s1,-1022
    80007142:	8956                	mv	s2,s5
    80007144:	120b1363          	bnez	s6,8000726a <softfloat_mulAddF64+0x1f6>
    80007148:	20041163          	bnez	s0,8000734a <softfloat_mulAddF64+0x2d6>
    8000714c:	c0148a9b          	addiw	s5,s1,-1023
    80007150:	a065                	j	800071f8 <softfloat_mulAddF64+0x184>
    80007152:	0154e4b3          	or	s1,s1,s5
    80007156:	020a0e63          	beqz	s4,80007192 <softfloat_mulAddF64+0x11e>
    8000715a:	e432                	sd	a2,8(sp)
    8000715c:	3fb000ef          	jal	ra,80007d56 <softfloat_propagateNaNF64UI>
    80007160:	6622                	ld	a2,8(sp)
    80007162:	85b2                	mv	a1,a2
    80007164:	3f3000ef          	jal	ra,80007d56 <softfloat_propagateNaNF64UI>
    80007168:	70aa                	ld	ra,168(sp)
    8000716a:	740a                	ld	s0,160(sp)
    8000716c:	64ea                	ld	s1,152(sp)
    8000716e:	694a                	ld	s2,144(sp)
    80007170:	69aa                	ld	s3,136(sp)
    80007172:	6a0a                	ld	s4,128(sp)
    80007174:	7ae6                	ld	s5,120(sp)
    80007176:	7b46                	ld	s6,112(sp)
    80007178:	7ba6                	ld	s7,104(sp)
    8000717a:	7c06                	ld	s8,96(sp)
    8000717c:	6ce6                	ld	s9,88(sp)
    8000717e:	6d46                	ld	s10,80(sp)
    80007180:	6da6                	ld	s11,72(sp)
    80007182:	614d                	addi	sp,sp,176
    80007184:	8082                	ret
    80007186:	fc0a9ae3          	bnez	s5,8000715a <softfloat_mulAddF64+0xe6>
    8000718a:	02990763          	beq	s2,s1,800071b8 <softfloat_mulAddF64+0x144>
    8000718e:	014964b3          	or	s1,s2,s4
    80007192:	cc89                	beqz	s1,800071ac <softfloat_mulAddF64+0x138>
    80007194:	7ff00793          	li	a5,2047
    80007198:	03fd1513          	slli	a0,s10,0x3f
    8000719c:	03479713          	slli	a4,a5,0x34
    800071a0:	953a                	add	a0,a0,a4
    800071a2:	fcfb13e3          	bne	s6,a5,80007168 <softfloat_mulAddF64+0xf4>
    800071a6:	fc55                	bnez	s0,80007162 <softfloat_mulAddF64+0xee>
    800071a8:	fdac80e3          	beq	s9,s10,80007168 <softfloat_mulAddF64+0xf4>
    800071ac:	001867f3          	csrrsi	a5,fflags,16
    800071b0:	00fff537          	lui	a0,0xfff
    800071b4:	151e                	slli	a0,a0,0x27
    800071b6:	b775                	j	80007162 <softfloat_mulAddF64+0xee>
    800071b8:	fa0a11e3          	bnez	s4,8000715a <softfloat_mulAddF64+0xe6>
    800071bc:	014964b3          	or	s1,s2,s4
    800071c0:	bfc9                	j	80007192 <softfloat_mulAddF64+0x11e>
    800071c2:	c801                	beqz	s0,800071d2 <softfloat_mulAddF64+0x15e>
    800071c4:	4501                	li	a0,0
    800071c6:	bf71                	j	80007162 <softfloat_mulAddF64+0xee>
    800071c8:	008b6433          	or	s0,s6,s0
    800071cc:	e019                	bnez	s0,800071d2 <softfloat_mulAddF64+0x15e>
    800071ce:	01ac9463          	bne	s9,s10,800071d6 <softfloat_mulAddF64+0x162>
    800071d2:	8532                	mv	a0,a2
    800071d4:	bf51                	j	80007168 <softfloat_mulAddF64+0xf4>
    800071d6:	0002071b          	sext.w	a4,tp
    800071da:	4789                	li	a5,2
    800071dc:	4501                	li	a0,0
    800071de:	f8f715e3          	bne	a4,a5,80007168 <softfloat_mulAddF64+0xf4>
    800071e2:	557d                	li	a0,-1
    800071e4:	157e                	slli	a0,a0,0x3f
    800071e6:	b749                	j	80007168 <softfloat_mulAddF64+0xf4>
    800071e8:	c0148a9b          	addiw	s5,s1,-1023
    800071ec:	020b1363          	bnez	s6,80007212 <softfloat_mulAddF64+0x19e>
    800071f0:	e479                	bnez	s0,800072be <softfloat_mulAddF64+0x24a>
    800071f2:	0a06                	slli	s4,s4,0x1
    800071f4:	c0048a9b          	addiw	s5,s1,-1024
    800071f8:	5792                	lw	a5,36(sp)
    800071fa:	5702                	lw	a4,32(sp)
    800071fc:	8fd9                	or	a5,a5,a4
    800071fe:	2781                	sext.w	a5,a5
    80007200:	c399                	beqz	a5,80007206 <softfloat_mulAddF64+0x192>
    80007202:	001a6a13          	ori	s4,s4,1
    80007206:	8652                	mv	a2,s4
    80007208:	85d6                	mv	a1,s5
    8000720a:	856a                	mv	a0,s10
    8000720c:	3de000ef          	jal	ra,800075ea <softfloat_roundPackToF64>
    80007210:	bfa1                	j	80007168 <softfloat_mulAddF64+0xf4>
    80007212:	042a                	slli	s0,s0,0xa
    80007214:	416a84bb          	subw	s1,s5,s6
    80007218:	01b46db3          	or	s11,s0,s11
    8000721c:	0a04cd63          	bltz	s1,800072d6 <softfloat_mulAddF64+0x262>
    80007220:	1014                	addi	a3,sp,32
    80007222:	8636                	mv	a2,a3
    80007224:	85b6                	mv	a1,a3
    80007226:	4511                	li	a0,4
    80007228:	379000ef          	jal	ra,80007da0 <softfloat_addM>
    8000722c:	0e049263          	bnez	s1,80007310 <softfloat_mulAddF64+0x29c>
    80007230:	7a22                	ld	s4,40(sp)
    80007232:	0dac8663          	beq	s9,s10,800072fe <softfloat_mulAddF64+0x28a>
    80007236:	41ba0db3          	sub	s11,s4,s11
    8000723a:	140d9363          	bnez	s11,80007380 <softfloat_mulAddF64+0x30c>
    8000723e:	5792                	lw	a5,36(sp)
    80007240:	5702                	lw	a4,32(sp)
    80007242:	8fd9                	or	a5,a5,a4
    80007244:	2781                	sext.w	a5,a5
    80007246:	dbc1                	beqz	a5,800071d6 <softfloat_mulAddF64+0x162>
    80007248:	f402                	sd	zero,40(sp)
    8000724a:	7a22                	ld	s4,40(sp)
    8000724c:	4401                	li	s0,0
    8000724e:	000a1563          	bnez	s4,80007258 <softfloat_mulAddF64+0x1e4>
    80007252:	7a02                	ld	s4,32(sp)
    80007254:	04000413          	li	s0,64
    80007258:	8552                	mv	a0,s4
    8000725a:	3bb000ef          	jal	ra,80007e14 <softfloat_countLeadingZeros64>
    8000725e:	9d21                	addw	a0,a0,s0
    80007260:	fff5061b          	addiw	a2,a0,-1
    80007264:	e239                	bnez	a2,800072aa <softfloat_mulAddF64+0x236>
    80007266:	3afd                	addiw	s5,s5,-1
    80007268:	bf41                	j	800071f8 <softfloat_mulAddF64+0x184>
    8000726a:	042a                	slli	s0,s0,0xa
    8000726c:	416a84bb          	subw	s1,s5,s6
    80007270:	01b46db3          	or	s11,s0,s11
    80007274:	fa04dce3          	bgez	s1,8000722c <softfloat_mulAddF64+0x1b8>
    80007278:	17ac8163          	beq	s9,s10,800073da <softfloat_mulAddF64+0x366>
    8000727c:	11849e63          	bne	s1,s8,80007398 <softfloat_mulAddF64+0x324>
    80007280:	1014                	addi	a3,sp,32
    80007282:	4605                	li	a2,1
    80007284:	85b6                	mv	a1,a3
    80007286:	4511                	li	a0,4
    80007288:	652000ef          	jal	ra,800078da <softfloat_shortShiftRightM>
    8000728c:	8ada                	mv	s5,s6
    8000728e:	54fd                	li	s1,-1
    80007290:	57fd                	li	a5,-1
    80007292:	10f49963          	bne	s1,a5,800073a4 <softfloat_mulAddF64+0x330>
    80007296:	1014                	addi	a3,sp,32
    80007298:	8636                	mv	a2,a3
    8000729a:	180c                	addi	a1,sp,48
    8000729c:	4511                	li	a0,4
    8000729e:	fc6e                	sd	s11,56(sp)
    800072a0:	f802                	sd	zero,48(sp)
    800072a2:	8d66                	mv	s10,s9
    800072a4:	708000ef          	jal	ra,800079ac <softfloat_subM>
    800072a8:	b74d                	j	8000724a <softfloat_mulAddF64+0x1d6>
    800072aa:	1014                	addi	a3,sp,32
    800072ac:	40ca8abb          	subw	s5,s5,a2
    800072b0:	85b6                	mv	a1,a3
    800072b2:	4511                	li	a0,4
    800072b4:	43c000ef          	jal	ra,800076f0 <softfloat_shiftLeftM>
    800072b8:	3afd                	addiw	s5,s5,-1
    800072ba:	7a22                	ld	s4,40(sp)
    800072bc:	bf35                	j	800071f8 <softfloat_mulAddF64+0x184>
    800072be:	8522                	mv	a0,s0
    800072c0:	184000ef          	jal	ra,80007444 <softfloat_normSubnormalF64Sig>
    800072c4:	00050b1b          	sext.w	s6,a0
    800072c8:	05aa                	slli	a1,a1,0xa
    800072ca:	416a84bb          	subw	s1,s5,s6
    800072ce:	01b5edb3          	or	s11,a1,s11
    800072d2:	f404d7e3          	bgez	s1,80007220 <softfloat_mulAddF64+0x1ac>
    800072d6:	0fac8c63          	beq	s9,s10,800073ce <softfloat_mulAddF64+0x35a>
    800072da:	8ada                	mv	s5,s6
    800072dc:	fb848de3          	beq	s1,s8,80007296 <softfloat_mulAddF64+0x222>
    800072e0:	fff4c593          	not	a1,s1
    800072e4:	8552                	mv	a0,s4
    800072e6:	4b6000ef          	jal	ra,8000779c <softfloat_shiftRightJam64>
    800072ea:	8a2a                	mv	s4,a0
    800072ec:	8ada                	mv	s5,s6
    800072ee:	b74d                	j	80007290 <softfloat_mulAddF64+0x21c>
    800072f0:	412b05bb          	subw	a1,s6,s2
    800072f4:	8ada                	mv	s5,s6
    800072f6:	8552                	mv	a0,s4
    800072f8:	4a4000ef          	jal	ra,8000779c <softfloat_shiftRightJam64>
    800072fc:	8a2a                	mv	s4,a0
    800072fe:	9a6e                	add	s4,s4,s11
    80007300:	f60a53e3          	bgez	s4,80007266 <softfloat_mulAddF64+0x1f2>
    80007304:	8552                	mv	a0,s4
    80007306:	4585                	li	a1,1
    80007308:	624000ef          	jal	ra,8000792c <softfloat_shortShiftRightJam64>
    8000730c:	8a2a                	mv	s4,a0
    8000730e:	b5ed                	j	800071f8 <softfloat_mulAddF64+0x184>
    80007310:	1814                	addi	a3,sp,48
    80007312:	8626                	mv	a2,s1
    80007314:	85b6                	mv	a1,a3
    80007316:	4511                	li	a0,4
    80007318:	fc6e                	sd	s11,56(sp)
    8000731a:	f802                	sd	zero,48(sp)
    8000731c:	4a2000ef          	jal	ra,800077be <softfloat_shiftRightJamM>
    80007320:	05ac8863          	beq	s9,s10,80007370 <softfloat_mulAddF64+0x2fc>
    80007324:	1014                	addi	a3,sp,32
    80007326:	1810                	addi	a2,sp,48
    80007328:	85b6                	mv	a1,a3
    8000732a:	4511                	li	a0,4
    8000732c:	680000ef          	jal	ra,800079ac <softfloat_subM>
    80007330:	4785                	li	a5,1
    80007332:	f0f48ce3          	beq	s1,a5,8000724a <softfloat_mulAddF64+0x1d6>
    80007336:	7a22                	ld	s4,40(sp)
    80007338:	17fa                	slli	a5,a5,0x3e
    8000733a:	fffa871b          	addiw	a4,s5,-1
    8000733e:	00fa77b3          	and	a5,s4,a5
    80007342:	e7cd                	bnez	a5,800073ec <softfloat_mulAddF64+0x378>
    80007344:	0a06                	slli	s4,s4,0x1
    80007346:	3af9                	addiw	s5,s5,-2
    80007348:	bd45                	j	800071f8 <softfloat_mulAddF64+0x184>
    8000734a:	8522                	mv	a0,s0
    8000734c:	0f8000ef          	jal	ra,80007444 <softfloat_normSubnormalF64Sig>
    80007350:	00050b1b          	sext.w	s6,a0
    80007354:	05aa                	slli	a1,a1,0xa
    80007356:	416a84bb          	subw	s1,s5,s6
    8000735a:	01b5edb3          	or	s11,a1,s11
    8000735e:	ec04d7e3          	bgez	s1,8000722c <softfloat_mulAddF64+0x1b8>
    80007362:	f9ac87e3          	beq	s9,s10,800072f0 <softfloat_mulAddF64+0x27c>
    80007366:	f1848de3          	beq	s1,s8,80007280 <softfloat_mulAddF64+0x20c>
    8000736a:	412b05bb          	subw	a1,s6,s2
    8000736e:	bf9d                	j	800072e4 <softfloat_mulAddF64+0x270>
    80007370:	1014                	addi	a3,sp,32
    80007372:	1810                	addi	a2,sp,48
    80007374:	85b6                	mv	a1,a3
    80007376:	4511                	li	a0,4
    80007378:	229000ef          	jal	ra,80007da0 <softfloat_addM>
    8000737c:	7a22                	ld	s4,40(sp)
    8000737e:	b749                	j	80007300 <softfloat_mulAddF64+0x28c>
    80007380:	f46e                	sd	s11,40(sp)
    80007382:	ec0dd4e3          	bgez	s11,8000724a <softfloat_mulAddF64+0x1d6>
    80007386:	413b89b3          	sub	s3,s7,s3
    8000738a:	100c                	addi	a1,sp,32
    8000738c:	4511                	li	a0,4
    8000738e:	0019bd13          	seqz	s10,s3
    80007392:	05e000ef          	jal	ra,800073f0 <softfloat_negXM>
    80007396:	bd55                	j	8000724a <softfloat_mulAddF64+0x1d6>
    80007398:	8552                	mv	a0,s4
    8000739a:	415b05bb          	subw	a1,s6,s5
    8000739e:	3fe000ef          	jal	ra,8000779c <softfloat_shiftRightJam64>
    800073a2:	8a2a                	mv	s4,a0
    800073a4:	5792                	lw	a5,36(sp)
    800073a6:	5702                	lw	a4,32(sp)
    800073a8:	414d8a33          	sub	s4,s11,s4
    800073ac:	8fd9                	or	a5,a5,a4
    800073ae:	2781                	sext.w	a5,a5
    800073b0:	c781                	beqz	a5,800073b8 <softfloat_mulAddF64+0x344>
    800073b2:	1a7d                	addi	s4,s4,-1
    800073b4:	001a6a13          	ori	s4,s4,1
    800073b8:	001a1793          	slli	a5,s4,0x1
    800073bc:	fffb0a9b          	addiw	s5,s6,-1
    800073c0:	8d66                	mv	s10,s9
    800073c2:	e407c2e3          	bltz	a5,80007206 <softfloat_mulAddF64+0x192>
    800073c6:	0a06                	slli	s4,s4,0x1
    800073c8:	ffeb0a9b          	addiw	s5,s6,-2
    800073cc:	bd2d                	j	80007206 <softfloat_mulAddF64+0x192>
    800073ce:	fff4c593          	not	a1,s1
    800073d2:	8ada                	mv	s5,s6
    800073d4:	f18d                	bnez	a1,800072f6 <softfloat_mulAddF64+0x282>
    800073d6:	9a6e                	add	s4,s4,s11
    800073d8:	b725                	j	80007300 <softfloat_mulAddF64+0x28c>
    800073da:	415b05bb          	subw	a1,s6,s5
    800073de:	8552                	mv	a0,s4
    800073e0:	3bc000ef          	jal	ra,8000779c <softfloat_shiftRightJam64>
    800073e4:	8a2a                	mv	s4,a0
    800073e6:	8ada                	mv	s5,s6
    800073e8:	9a6e                	add	s4,s4,s11
    800073ea:	bf19                	j	80007300 <softfloat_mulAddF64+0x28c>
    800073ec:	8aba                	mv	s5,a4
    800073ee:	b529                	j	800071f8 <softfloat_mulAddF64+0x184>

00000000800073f0 <softfloat_negXM>:
    800073f0:	419c                	lw	a5,0(a1)
    800073f2:	fff5071b          	addiw	a4,a0,-1
    800073f6:	1702                	slli	a4,a4,0x20
    800073f8:	4681                	li	a3,0
    800073fa:	8379                	srli	a4,a4,0x1e
    800073fc:	40f687bb          	subw	a5,a3,a5
    80007400:	972e                	add	a4,a4,a1
    80007402:	c19c                	sw	a5,0(a1)
    80007404:	00e58b63          	beq	a1,a4,8000741a <softfloat_negXM+0x2a>
    80007408:	c391                	beqz	a5,8000740c <softfloat_negXM+0x1c>
    8000740a:	56fd                	li	a3,-1
    8000740c:	0591                	addi	a1,a1,4
    8000740e:	419c                	lw	a5,0(a1)
    80007410:	40f687bb          	subw	a5,a3,a5
    80007414:	c19c                	sw	a5,0(a1)
    80007416:	fee599e3          	bne	a1,a4,80007408 <softfloat_negXM+0x18>
    8000741a:	8082                	ret

000000008000741c <softfloat_normSubnormalF32Sig>:
    8000741c:	1101                	addi	sp,sp,-32
    8000741e:	e822                	sd	s0,16(sp)
    80007420:	ec06                	sd	ra,24(sp)
    80007422:	842a                	mv	s0,a0
    80007424:	1bf000ef          	jal	ra,80007de2 <softfloat_countLeadingZeros32>
    80007428:	3561                	addiw	a0,a0,-8
    8000742a:	4785                	li	a5,1
    8000742c:	9f89                	subw	a5,a5,a0
    8000742e:	00a4143b          	sllw	s0,s0,a0
    80007432:	02079513          	slli	a0,a5,0x20
    80007436:	1402                	slli	s0,s0,0x20
    80007438:	9101                	srli	a0,a0,0x20
    8000743a:	8d41                	or	a0,a0,s0
    8000743c:	60e2                	ld	ra,24(sp)
    8000743e:	6442                	ld	s0,16(sp)
    80007440:	6105                	addi	sp,sp,32
    80007442:	8082                	ret

0000000080007444 <softfloat_normSubnormalF64Sig>:
    80007444:	1101                	addi	sp,sp,-32
    80007446:	e822                	sd	s0,16(sp)
    80007448:	ec06                	sd	ra,24(sp)
    8000744a:	842a                	mv	s0,a0
    8000744c:	1c9000ef          	jal	ra,80007e14 <softfloat_countLeadingZeros64>
    80007450:	ff55059b          	addiw	a1,a0,-11
    80007454:	4785                	li	a5,1
    80007456:	9f8d                	subw	a5,a5,a1
    80007458:	60e2                	ld	ra,24(sp)
    8000745a:	00b415b3          	sll	a1,s0,a1
    8000745e:	6442                	ld	s0,16(sp)
    80007460:	c03e                	sw	a5,0(sp)
    80007462:	6502                	ld	a0,0(sp)
    80007464:	6105                	addi	sp,sp,32
    80007466:	8082                	ret

0000000080007468 <softfloat_roundMToUI64>:
    80007468:	0085e783          	lwu	a5,8(a1)
    8000746c:	0045e883          	lwu	a7,4(a1)
    80007470:	ffb67813          	andi	a6,a2,-5
    80007474:	1782                	slli	a5,a5,0x20
    80007476:	872a                	mv	a4,a0
    80007478:	0117e533          	or	a0,a5,a7
    8000747c:	419c                	lw	a5,0(a1)
    8000747e:	00080e63          	beqz	a6,8000749a <softfloat_roundMToUI64+0x32>
    80007482:	cb0d                	beqz	a4,800074b4 <softfloat_roundMToUI64+0x4c>
    80007484:	02079593          	slli	a1,a5,0x20
    80007488:	9181                	srli	a1,a1,0x20
    8000748a:	8dc9                	or	a1,a1,a0
    8000748c:	c5b1                	beqz	a1,800074d8 <softfloat_roundMToUI64+0x70>
    8000748e:	4589                	li	a1,2
    80007490:	02b60d63          	beq	a2,a1,800074ca <softfloat_roundMToUI64+0x62>
    80007494:	e91d                	bnez	a0,800074ca <softfloat_roundMToUI64+0x62>
    80007496:	eb99                	bnez	a5,800074ac <softfloat_roundMToUI64+0x44>
    80007498:	8082                	ret
    8000749a:	0207c163          	bltz	a5,800074bc <softfloat_roundMToUI64+0x54>
    8000749e:	df65                	beqz	a4,80007496 <softfloat_roundMToUI64+0x2e>
    800074a0:	d97d                	beqz	a0,80007496 <softfloat_roundMToUI64+0x2e>
    800074a2:	a025                	j	800074ca <softfloat_roundMToUI64+0x62>
    800074a4:	ee05                	bnez	a2,800074dc <softfloat_roundMToUI64+0x74>
    800074a6:	9979                	andi	a0,a0,-2
    800074a8:	c311                	beqz	a4,800074ac <softfloat_roundMToUI64+0x44>
    800074aa:	e105                	bnez	a0,800074ca <softfloat_roundMToUI64+0x62>
    800074ac:	d6f5                	beqz	a3,80007498 <softfloat_roundMToUI64+0x30>
    800074ae:	0010e7f3          	csrrsi	a5,fflags,1
    800074b2:	8082                	ret
    800074b4:	458d                	li	a1,3
    800074b6:	feb610e3          	bne	a2,a1,80007496 <softfloat_roundMToUI64+0x2e>
    800074ba:	dff9                	beqz	a5,80007498 <softfloat_roundMToUI64+0x30>
    800074bc:	0505                	addi	a0,a0,1
    800074be:	c511                	beqz	a0,800074ca <softfloat_roundMToUI64+0x62>
    800074c0:	800005b7          	lui	a1,0x80000
    800074c4:	feb780e3          	beq	a5,a1,800074a4 <softfloat_roundMToUI64+0x3c>
    800074c8:	d779                	beqz	a4,80007496 <softfloat_roundMToUI64+0x2e>
    800074ca:	001867f3          	csrrsi	a5,fflags,16
    800074ce:	00174513          	xori	a0,a4,1
    800074d2:	40a00533          	neg	a0,a0
    800074d6:	8082                	ret
    800074d8:	4501                	li	a0,0
    800074da:	8082                	ret
    800074dc:	f77d                	bnez	a4,800074ca <softfloat_roundMToUI64+0x62>
    800074de:	b7f9                	j	800074ac <softfloat_roundMToUI64+0x44>

00000000800074e0 <softfloat_roundPackToF32>:
    800074e0:	1101                	addi	sp,sp,-32
    800074e2:	0002079b          	sext.w	a5,tp
    800074e6:	e822                	sd	s0,16(sp)
    800074e8:	e426                	sd	s1,8(sp)
    800074ea:	e04a                	sd	s2,0(sp)
    800074ec:	ec06                	sd	ra,24(sp)
    800074ee:	ffb7f713          	andi	a4,a5,-5
    800074f2:	842a                	mv	s0,a0
    800074f4:	0007849b          	sext.w	s1,a5
    800074f8:	04000913          	li	s2,64
    800074fc:	c719                	beqz	a4,8000750a <softfloat_roundPackToF32+0x2a>
    800074fe:	00153793          	seqz	a5,a0
    80007502:	0789                	addi	a5,a5,2
    80007504:	4901                	li	s2,0
    80007506:	0a978d63          	beq	a5,s1,800075c0 <softfloat_roundPackToF32+0xe0>
    8000750a:	0fc00713          	li	a4,252
    8000750e:	07f67793          	andi	a5,a2,127
    80007512:	02b77d63          	bgeu	a4,a1,8000754c <softfloat_roundPackToF32+0x6c>
    80007516:	0605cc63          	bltz	a1,8000758e <softfloat_roundPackToF32+0xae>
    8000751a:	0fd00713          	li	a4,253
    8000751e:	00e59663          	bne	a1,a4,8000752a <softfloat_roundPackToF32+0x4a>
    80007522:	00c9063b          	addw	a2,s2,a2
    80007526:	02065563          	bgez	a2,80007550 <softfloat_roundPackToF32+0x70>
    8000752a:	0012e7f3          	csrrsi	a5,fflags,5
    8000752e:	01f4151b          	slliw	a0,s0,0x1f
    80007532:	7f800437          	lui	s0,0x7f800
    80007536:	9d21                	addw	a0,a0,s0
    80007538:	60e2                	ld	ra,24(sp)
    8000753a:	6442                	ld	s0,16(sp)
    8000753c:	00193913          	seqz	s2,s2
    80007540:	4125053b          	subw	a0,a0,s2
    80007544:	64a2                	ld	s1,8(sp)
    80007546:	6902                	ld	s2,0(sp)
    80007548:	6105                	addi	sp,sp,32
    8000754a:	8082                	ret
    8000754c:	00c9063b          	addw	a2,s2,a2
    80007550:	0076561b          	srliw	a2,a2,0x7
    80007554:	cf89                	beqz	a5,8000756e <softfloat_roundPackToF32+0x8e>
    80007556:	0010e773          	csrrsi	a4,fflags,1
    8000755a:	fc078793          	addi	a5,a5,-64 # 3fffffc0 <_ftext-0x40000040>
    8000755e:	0017b793          	seqz	a5,a5
    80007562:	0014b493          	seqz	s1,s1
    80007566:	8fe5                	and	a5,a5,s1
    80007568:	fff7c793          	not	a5,a5
    8000756c:	8e7d                	and	a2,a2,a5
    8000756e:	4781                	li	a5,0
    80007570:	ee01                	bnez	a2,80007588 <softfloat_roundPackToF32+0xa8>
    80007572:	01f4151b          	slliw	a0,s0,0x1f
    80007576:	60e2                	ld	ra,24(sp)
    80007578:	6442                	ld	s0,16(sp)
    8000757a:	9e29                	addw	a2,a2,a0
    8000757c:	64a2                	ld	s1,8(sp)
    8000757e:	6902                	ld	s2,0(sp)
    80007580:	00f6053b          	addw	a0,a2,a5
    80007584:	6105                	addi	sp,sp,32
    80007586:	8082                	ret
    80007588:	0175979b          	slliw	a5,a1,0x17
    8000758c:	b7dd                	j	80007572 <softfloat_roundPackToF32+0x92>
    8000758e:	57fd                	li	a5,-1
    80007590:	00f59663          	bne	a1,a5,8000759c <softfloat_roundPackToF32+0xbc>
    80007594:	00c907bb          	addw	a5,s2,a2
    80007598:	0207cd63          	bltz	a5,800075d2 <softfloat_roundPackToF32+0xf2>
    8000759c:	8532                	mv	a0,a2
    8000759e:	40b005bb          	negw	a1,a1
    800075a2:	1d8000ef          	jal	ra,8000777a <softfloat_shiftRightJam32>
    800075a6:	0005061b          	sext.w	a2,a0
    800075aa:	07f67793          	andi	a5,a2,127
    800075ae:	cf81                	beqz	a5,800075c6 <softfloat_roundPackToF32+0xe6>
    800075b0:	00116773          	csrrsi	a4,fflags,2
    800075b4:	00c9063b          	addw	a2,s2,a2
    800075b8:	0076561b          	srliw	a2,a2,0x7
    800075bc:	4581                	li	a1,0
    800075be:	bf61                	j	80007556 <softfloat_roundPackToF32+0x76>
    800075c0:	07f00913          	li	s2,127
    800075c4:	b799                	j	8000750a <softfloat_roundPackToF32+0x2a>
    800075c6:	00c9063b          	addw	a2,s2,a2
    800075ca:	0076561b          	srliw	a2,a2,0x7
    800075ce:	4581                	li	a1,0
    800075d0:	bf79                	j	8000756e <softfloat_roundPackToF32+0x8e>
    800075d2:	4585                	li	a1,1
    800075d4:	8532                	mv	a0,a2
    800075d6:	1a4000ef          	jal	ra,8000777a <softfloat_shiftRightJam32>
    800075da:	0005061b          	sext.w	a2,a0
    800075de:	07f67793          	andi	a5,a2,127
    800075e2:	4581                	li	a1,0
    800075e4:	00c9063b          	addw	a2,s2,a2
    800075e8:	b7a5                	j	80007550 <softfloat_roundPackToF32+0x70>

00000000800075ea <softfloat_roundPackToF64>:
    800075ea:	1101                	addi	sp,sp,-32
    800075ec:	0002079b          	sext.w	a5,tp
    800075f0:	e822                	sd	s0,16(sp)
    800075f2:	e426                	sd	s1,8(sp)
    800075f4:	ec06                	sd	ra,24(sp)
    800075f6:	e04a                	sd	s2,0(sp)
    800075f8:	ffb7f713          	andi	a4,a5,-5
    800075fc:	842a                	mv	s0,a0
    800075fe:	0007849b          	sext.w	s1,a5
    80007602:	20000513          	li	a0,512
    80007606:	c719                	beqz	a4,80007614 <softfloat_roundPackToF64+0x2a>
    80007608:	00143793          	seqz	a5,s0
    8000760c:	0789                	addi	a5,a5,2
    8000760e:	4501                	li	a0,0
    80007610:	0a978e63          	beq	a5,s1,800076cc <softfloat_roundPackToF64+0xe2>
    80007614:	03059713          	slli	a4,a1,0x30
    80007618:	9341                	srli	a4,a4,0x30
    8000761a:	7fc00693          	li	a3,2044
    8000761e:	3ff67793          	andi	a5,a2,1023
    80007622:	02e6fc63          	bgeu	a3,a4,8000765a <softfloat_roundPackToF64+0x70>
    80007626:	0605c963          	bltz	a1,80007698 <softfloat_roundPackToF64+0xae>
    8000762a:	7fd00713          	li	a4,2045
    8000762e:	00e59563          	bne	a1,a4,80007638 <softfloat_roundPackToF64+0x4e>
    80007632:	962a                	add	a2,a2,a0
    80007634:	02065463          	bgez	a2,8000765c <softfloat_roundPackToF64+0x72>
    80007638:	0012e7f3          	csrrsi	a5,fflags,5
    8000763c:	7ff00613          	li	a2,2047
    80007640:	147e                	slli	s0,s0,0x3f
    80007642:	1652                	slli	a2,a2,0x34
    80007644:	9432                	add	s0,s0,a2
    80007646:	00153513          	seqz	a0,a0
    8000764a:	40a40533          	sub	a0,s0,a0
    8000764e:	60e2                	ld	ra,24(sp)
    80007650:	6442                	ld	s0,16(sp)
    80007652:	64a2                	ld	s1,8(sp)
    80007654:	6902                	ld	s2,0(sp)
    80007656:	6105                	addi	sp,sp,32
    80007658:	8082                	ret
    8000765a:	962a                	add	a2,a2,a0
    8000765c:	8229                	srli	a2,a2,0xa
    8000765e:	cf89                	beqz	a5,80007678 <softfloat_roundPackToF64+0x8e>
    80007660:	0010e773          	csrrsi	a4,fflags,1
    80007664:	e0078793          	addi	a5,a5,-512
    80007668:	0017b793          	seqz	a5,a5
    8000766c:	0014b493          	seqz	s1,s1
    80007670:	8fe5                	and	a5,a5,s1
    80007672:	fff7c793          	not	a5,a5
    80007676:	8e7d                	and	a2,a2,a5
    80007678:	4781                	li	a5,0
    8000767a:	ee01                	bnez	a2,80007692 <softfloat_roundPackToF64+0xa8>
    8000767c:	03f41513          	slli	a0,s0,0x3f
    80007680:	60e2                	ld	ra,24(sp)
    80007682:	6442                	ld	s0,16(sp)
    80007684:	962a                	add	a2,a2,a0
    80007686:	64a2                	ld	s1,8(sp)
    80007688:	6902                	ld	s2,0(sp)
    8000768a:	00f60533          	add	a0,a2,a5
    8000768e:	6105                	addi	sp,sp,32
    80007690:	8082                	ret
    80007692:	03459793          	slli	a5,a1,0x34
    80007696:	b7dd                	j	8000767c <softfloat_roundPackToF64+0x92>
    80007698:	02051913          	slli	s2,a0,0x20
    8000769c:	57fd                	li	a5,-1
    8000769e:	02095913          	srli	s2,s2,0x20
    800076a2:	00f59663          	bne	a1,a5,800076ae <softfloat_roundPackToF64+0xc4>
    800076a6:	012607b3          	add	a5,a2,s2
    800076aa:	0207c963          	bltz	a5,800076dc <softfloat_roundPackToF64+0xf2>
    800076ae:	40b005bb          	negw	a1,a1
    800076b2:	8532                	mv	a0,a2
    800076b4:	0e8000ef          	jal	ra,8000779c <softfloat_shiftRightJam64>
    800076b8:	3ff57793          	andi	a5,a0,1023
    800076bc:	cb99                	beqz	a5,800076d2 <softfloat_roundPackToF64+0xe8>
    800076be:	00116773          	csrrsi	a4,fflags,2
    800076c2:	01250633          	add	a2,a0,s2
    800076c6:	8229                	srli	a2,a2,0xa
    800076c8:	4581                	li	a1,0
    800076ca:	bf59                	j	80007660 <softfloat_roundPackToF64+0x76>
    800076cc:	3ff00513          	li	a0,1023
    800076d0:	b791                	j	80007614 <softfloat_roundPackToF64+0x2a>
    800076d2:	01250633          	add	a2,a0,s2
    800076d6:	8229                	srli	a2,a2,0xa
    800076d8:	4581                	li	a1,0
    800076da:	bf79                	j	80007678 <softfloat_roundPackToF64+0x8e>
    800076dc:	4585                	li	a1,1
    800076de:	8532                	mv	a0,a2
    800076e0:	0bc000ef          	jal	ra,8000779c <softfloat_shiftRightJam64>
    800076e4:	3ff57793          	andi	a5,a0,1023
    800076e8:	01250633          	add	a2,a0,s2
    800076ec:	4581                	li	a1,0
    800076ee:	b7bd                	j	8000765c <softfloat_roundPackToF64+0x72>

00000000800076f0 <softfloat_shiftLeftM>:
    800076f0:	1101                	addi	sp,sp,-32
    800076f2:	0056581b          	srliw	a6,a2,0x5
    800076f6:	e822                	sd	s0,16(sp)
    800076f8:	e426                	sd	s1,8(sp)
    800076fa:	ec06                	sd	ra,24(sp)
    800076fc:	0008049b          	sext.w	s1,a6
    80007700:	8436                	mv	s0,a3
    80007702:	04a4f163          	bgeu	s1,a0,80007744 <softfloat_shiftLeftM+0x54>
    80007706:	8a7d                	andi	a2,a2,31
    80007708:	410508bb          	subw	a7,a0,a6
    8000770c:	ee29                	bnez	a2,80007766 <softfloat_shiftLeftM+0x76>
    8000770e:	fff8879b          	addiw	a5,a7,-1
    80007712:	02079693          	slli	a3,a5,0x20
    80007716:	fff5079b          	addiw	a5,a0,-1
    8000771a:	9281                	srli	a3,a3,0x20
    8000771c:	1782                	slli	a5,a5,0x20
    8000771e:	872e                	mv	a4,a1
    80007720:	9381                	srli	a5,a5,0x20
    80007722:	00269593          	slli	a1,a3,0x2
    80007726:	fff6c693          	not	a3,a3
    8000772a:	95ba                	add	a1,a1,a4
    8000772c:	078a                	slli	a5,a5,0x2
    8000772e:	00269713          	slli	a4,a3,0x2
    80007732:	97a2                	add	a5,a5,s0
    80007734:	972e                	add	a4,a4,a1
    80007736:	4194                	lw	a3,0(a1)
    80007738:	17f1                	addi	a5,a5,-4
    8000773a:	15f1                	addi	a1,a1,-4
    8000773c:	c3d4                	sw	a3,4(a5)
    8000773e:	feb71ce3          	bne	a4,a1,80007736 <softfloat_shiftLeftM+0x46>
    80007742:	8526                	mv	a0,s1
    80007744:	fff5079b          	addiw	a5,a0,-1
    80007748:	1782                	slli	a5,a5,0x20
    8000774a:	9381                	srli	a5,a5,0x20
    8000774c:	0785                	addi	a5,a5,1
    8000774e:	078a                	slli	a5,a5,0x2
    80007750:	97a2                	add	a5,a5,s0
    80007752:	0411                	addi	s0,s0,4
    80007754:	fe042e23          	sw	zero,-4(s0) # 7f7ffffc <_ftext-0x800004>
    80007758:	fe879de3          	bne	a5,s0,80007752 <softfloat_shiftLeftM+0x62>
    8000775c:	60e2                	ld	ra,24(sp)
    8000775e:	6442                	ld	s0,16(sp)
    80007760:	64a2                	ld	s1,8(sp)
    80007762:	6105                	addi	sp,sp,32
    80007764:	8082                	ret
    80007766:	02081693          	slli	a3,a6,0x20
    8000776a:	82f9                	srli	a3,a3,0x1e
    8000776c:	8546                	mv	a0,a7
    8000776e:	96a2                	add	a3,a3,s0
    80007770:	118000ef          	jal	ra,80007888 <softfloat_shortShiftLeftM>
    80007774:	8526                	mv	a0,s1
    80007776:	f4f9                	bnez	s1,80007744 <softfloat_shiftLeftM+0x54>
    80007778:	b7d5                	j	8000775c <softfloat_shiftLeftM+0x6c>

000000008000777a <softfloat_shiftRightJam32>:
    8000777a:	47f9                	li	a5,30
    8000777c:	00b7ed63          	bltu	a5,a1,80007796 <softfloat_shiftRightJam32+0x1c>
    80007780:	40b007bb          	negw	a5,a1
    80007784:	00f517bb          	sllw	a5,a0,a5
    80007788:	00f037b3          	snez	a5,a5
    8000778c:	00b5553b          	srlw	a0,a0,a1
    80007790:	8d5d                	or	a0,a0,a5
    80007792:	2501                	sext.w	a0,a0
    80007794:	8082                	ret
    80007796:	00a03533          	snez	a0,a0
    8000779a:	8082                	ret

000000008000779c <softfloat_shiftRightJam64>:
    8000779c:	03e00793          	li	a5,62
    800077a0:	00b7ec63          	bltu	a5,a1,800077b8 <softfloat_shiftRightJam64+0x1c>
    800077a4:	40b007bb          	negw	a5,a1
    800077a8:	00f517b3          	sll	a5,a0,a5
    800077ac:	00f037b3          	snez	a5,a5
    800077b0:	00b55533          	srl	a0,a0,a1
    800077b4:	8d5d                	or	a0,a0,a5
    800077b6:	8082                	ret
    800077b8:	00a03533          	snez	a0,a0
    800077bc:	8082                	ret

00000000800077be <softfloat_shiftRightJamM>:
    800077be:	7179                	addi	sp,sp,-48
    800077c0:	ec26                	sd	s1,24(sp)
    800077c2:	e44e                	sd	s3,8(sp)
    800077c4:	f406                	sd	ra,40(sp)
    800077c6:	f022                	sd	s0,32(sp)
    800077c8:	e84a                	sd	s2,16(sp)
    800077ca:	0056549b          	srliw	s1,a2,0x5
    800077ce:	89b6                	mv	s3,a3
    800077d0:	ccc9                	beqz	s1,8000786a <softfloat_shiftRightJamM+0xac>
    800077d2:	8426                	mv	s0,s1
    800077d4:	08956e63          	bltu	a0,s1,80007870 <softfloat_shiftRightJamM+0xb2>
    800077d8:	fff4071b          	addiw	a4,s0,-1
    800077dc:	1702                	slli	a4,a4,0x20
    800077de:	9301                	srli	a4,a4,0x20
    800077e0:	0705                	addi	a4,a4,1
    800077e2:	070a                	slli	a4,a4,0x2
    800077e4:	972e                	add	a4,a4,a1
    800077e6:	87ae                	mv	a5,a1
    800077e8:	a019                	j	800077ee <softfloat_shiftRightJamM+0x30>
    800077ea:	00e78663          	beq	a5,a4,800077f6 <softfloat_shiftRightJamM+0x38>
    800077ee:	0791                	addi	a5,a5,4
    800077f0:	ffc7a483          	lw	s1,-4(a5)
    800077f4:	d8fd                	beqz	s1,800077ea <softfloat_shiftRightJamM+0x2c>
    800077f6:	87ce                	mv	a5,s3
    800077f8:	02a47f63          	bgeu	s0,a0,80007836 <softfloat_shiftRightJamM+0x78>
    800077fc:	02041793          	slli	a5,s0,0x20
    80007800:	83f9                	srli	a5,a5,0x1e
    80007802:	4085093b          	subw	s2,a0,s0
    80007806:	8a7d                	andi	a2,a2,31
    80007808:	95be                	add	a1,a1,a5
    8000780a:	0009051b          	sext.w	a0,s2
    8000780e:	e625                	bnez	a2,80007876 <softfloat_shiftRightJamM+0xb8>
    80007810:	fff9071b          	addiw	a4,s2,-1
    80007814:	1702                	slli	a4,a4,0x20
    80007816:	9301                	srli	a4,a4,0x20
    80007818:	0705                	addi	a4,a4,1
    8000781a:	070a                	slli	a4,a4,0x2
    8000781c:	972e                	add	a4,a4,a1
    8000781e:	87ce                	mv	a5,s3
    80007820:	4194                	lw	a3,0(a1)
    80007822:	0791                	addi	a5,a5,4
    80007824:	0591                	addi	a1,a1,4
    80007826:	fed7ae23          	sw	a3,-4(a5)
    8000782a:	feb71be3          	bne	a4,a1,80007820 <softfloat_shiftRightJamM+0x62>
    8000782e:	02091793          	slli	a5,s2,0x20
    80007832:	83f9                	srli	a5,a5,0x1e
    80007834:	97ce                	add	a5,a5,s3
    80007836:	fff4071b          	addiw	a4,s0,-1
    8000783a:	1702                	slli	a4,a4,0x20
    8000783c:	9301                	srli	a4,a4,0x20
    8000783e:	0705                	addi	a4,a4,1
    80007840:	070a                	slli	a4,a4,0x2
    80007842:	973e                	add	a4,a4,a5
    80007844:	0791                	addi	a5,a5,4
    80007846:	fe07ae23          	sw	zero,-4(a5)
    8000784a:	fef71de3          	bne	a4,a5,80007844 <softfloat_shiftRightJamM+0x86>
    8000784e:	c499                	beqz	s1,8000785c <softfloat_shiftRightJamM+0x9e>
    80007850:	0009a783          	lw	a5,0(s3) # 40000000 <_ftext-0x40000000>
    80007854:	0017e793          	ori	a5,a5,1
    80007858:	00f9a023          	sw	a5,0(s3)
    8000785c:	70a2                	ld	ra,40(sp)
    8000785e:	7402                	ld	s0,32(sp)
    80007860:	64e2                	ld	s1,24(sp)
    80007862:	6942                	ld	s2,16(sp)
    80007864:	69a2                	ld	s3,8(sp)
    80007866:	6145                	addi	sp,sp,48
    80007868:	8082                	ret
    8000786a:	4401                	li	s0,0
    8000786c:	4781                	li	a5,0
    8000786e:	b769                	j	800077f8 <softfloat_shiftRightJamM+0x3a>
    80007870:	0005041b          	sext.w	s0,a0
    80007874:	b795                	j	800077d8 <softfloat_shiftRightJamM+0x1a>
    80007876:	86ce                	mv	a3,s3
    80007878:	0cc000ef          	jal	ra,80007944 <softfloat_shortShiftRightJamM>
    8000787c:	d869                	beqz	s0,8000784e <softfloat_shiftRightJamM+0x90>
    8000787e:	02091793          	slli	a5,s2,0x20
    80007882:	83f9                	srli	a5,a5,0x1e
    80007884:	97ce                	add	a5,a5,s3
    80007886:	bf45                	j	80007836 <softfloat_shiftRightJamM+0x78>

0000000080007888 <softfloat_shortShiftLeftM>:
    80007888:	fff5079b          	addiw	a5,a0,-1
    8000788c:	02079813          	slli	a6,a5,0x20
    80007890:	01e85813          	srli	a6,a6,0x1e
    80007894:	01058733          	add	a4,a1,a6
    80007898:	4318                	lw	a4,0(a4)
    8000789a:	40c00e3b          	negw	t3,a2
    8000789e:	00c7173b          	sllw	a4,a4,a2
    800078a2:	cb95                	beqz	a5,800078d6 <softfloat_shortShiftLeftM+0x4e>
    800078a4:	ffe5079b          	addiw	a5,a0,-2
    800078a8:	1782                	slli	a5,a5,0x20
    800078aa:	83f9                	srli	a5,a5,0x1e
    800078ac:	01fe7e13          	andi	t3,t3,31
    800078b0:	97ae                	add	a5,a5,a1
    800078b2:	01068533          	add	a0,a3,a6
    800078b6:	a011                	j	800078ba <softfloat_shortShiftLeftM+0x32>
    800078b8:	879a                	mv	a5,t1
    800078ba:	0007a803          	lw	a6,0(a5)
    800078be:	1571                	addi	a0,a0,-4
    800078c0:	ffc78313          	addi	t1,a5,-4
    800078c4:	01c858bb          	srlw	a7,a6,t3
    800078c8:	01176733          	or	a4,a4,a7
    800078cc:	c158                	sw	a4,4(a0)
    800078ce:	00c8173b          	sllw	a4,a6,a2
    800078d2:	fef593e3          	bne	a1,a5,800078b8 <softfloat_shortShiftLeftM+0x30>
    800078d6:	c298                	sw	a4,0(a3)
    800078d8:	8082                	ret

00000000800078da <softfloat_shortShiftRightM>:
    800078da:	419c                	lw	a5,0(a1)
    800078dc:	fff50e1b          	addiw	t3,a0,-1
    800078e0:	000e071b          	sext.w	a4,t3
    800078e4:	40c0033b          	negw	t1,a2
    800078e8:	00c7d7bb          	srlw	a5,a5,a2
    800078ec:	cf15                	beqz	a4,80007928 <softfloat_shortShiftRightM+0x4e>
    800078ee:	ffe5081b          	addiw	a6,a0,-2
    800078f2:	1802                	slli	a6,a6,0x20
    800078f4:	00858513          	addi	a0,a1,8 # ffffffff80000008 <_end+0xfffffffefffea008>
    800078f8:	01e85813          	srli	a6,a6,0x1e
    800078fc:	01f37313          	andi	t1,t1,31
    80007900:	0591                	addi	a1,a1,4
    80007902:	8736                	mv	a4,a3
    80007904:	982a                	add	a6,a6,a0
    80007906:	4188                	lw	a0,0(a1)
    80007908:	0711                	addi	a4,a4,4
    8000790a:	0591                	addi	a1,a1,4
    8000790c:	006518bb          	sllw	a7,a0,t1
    80007910:	0117e7b3          	or	a5,a5,a7
    80007914:	fef72e23          	sw	a5,-4(a4) # 7f7ffffc <_ftext-0x800004>
    80007918:	00c557bb          	srlw	a5,a0,a2
    8000791c:	ff0595e3          	bne	a1,a6,80007906 <softfloat_shortShiftRightM+0x2c>
    80007920:	1e02                	slli	t3,t3,0x20
    80007922:	01ee5e13          	srli	t3,t3,0x1e
    80007926:	96f2                	add	a3,a3,t3
    80007928:	c29c                	sw	a5,0(a3)
    8000792a:	8082                	ret

000000008000792c <softfloat_shortShiftRightJam64>:
    8000792c:	57fd                	li	a5,-1
    8000792e:	00b797b3          	sll	a5,a5,a1
    80007932:	fff7c793          	not	a5,a5
    80007936:	8fe9                	and	a5,a5,a0
    80007938:	00f037b3          	snez	a5,a5
    8000793c:	00b55533          	srl	a0,a0,a1
    80007940:	8d5d                	or	a0,a0,a5
    80007942:	8082                	ret

0000000080007944 <softfloat_shortShiftRightJamM>:
    80007944:	0005a803          	lw	a6,0(a1)
    80007948:	fff50e1b          	addiw	t3,a0,-1
    8000794c:	40c0033b          	negw	t1,a2
    80007950:	00c8573b          	srlw	a4,a6,a2
    80007954:	00c71ebb          	sllw	t4,a4,a2
    80007958:	000e089b          	sext.w	a7,t3
    8000795c:	0007079b          	sext.w	a5,a4
    80007960:	010e8563          	beq	t4,a6,8000796a <softfloat_shortShiftRightJamM+0x26>
    80007964:	00176793          	ori	a5,a4,1
    80007968:	2781                	sext.w	a5,a5
    8000796a:	02088f63          	beqz	a7,800079a8 <softfloat_shortShiftRightJamM+0x64>
    8000796e:	ffe5081b          	addiw	a6,a0,-2
    80007972:	1802                	slli	a6,a6,0x20
    80007974:	00858513          	addi	a0,a1,8
    80007978:	01e85813          	srli	a6,a6,0x1e
    8000797c:	01f37313          	andi	t1,t1,31
    80007980:	0591                	addi	a1,a1,4
    80007982:	8736                	mv	a4,a3
    80007984:	982a                	add	a6,a6,a0
    80007986:	4188                	lw	a0,0(a1)
    80007988:	0711                	addi	a4,a4,4
    8000798a:	0591                	addi	a1,a1,4
    8000798c:	006518bb          	sllw	a7,a0,t1
    80007990:	0117e7b3          	or	a5,a5,a7
    80007994:	fef72e23          	sw	a5,-4(a4)
    80007998:	00c557bb          	srlw	a5,a0,a2
    8000799c:	ff0595e3          	bne	a1,a6,80007986 <softfloat_shortShiftRightJamM+0x42>
    800079a0:	1e02                	slli	t3,t3,0x20
    800079a2:	01ee5e13          	srli	t3,t3,0x1e
    800079a6:	96f2                	add	a3,a3,t3
    800079a8:	c29c                	sw	a5,0(a3)
    800079aa:	8082                	ret

00000000800079ac <softfloat_subM>:
    800079ac:	0005a803          	lw	a6,0(a1)
    800079b0:	00062883          	lw	a7,0(a2) # 20000000 <_ftext-0x60000000>
    800079b4:	411807bb          	subw	a5,a6,a7
    800079b8:	c29c                	sw	a5,0(a3)
    800079ba:	4785                	li	a5,1
    800079bc:	04f50563          	beq	a0,a5,80007a06 <softfloat_subM+0x5a>
    800079c0:	3579                	addiw	a0,a0,-2
    800079c2:	1502                	slli	a0,a0,0x20
    800079c4:	00858793          	addi	a5,a1,8
    800079c8:	8179                	srli	a0,a0,0x1e
    800079ca:	953e                	add	a0,a0,a5
    800079cc:	0591                	addi	a1,a1,4
    800079ce:	0611                	addi	a2,a2,4
    800079d0:	0691                	addi	a3,a3,4
    800079d2:	4781                	li	a5,0
    800079d4:	a00d                	j	800079f6 <softfloat_subM+0x4a>
    800079d6:	0007079b          	sext.w	a5,a4
    800079da:	0005a803          	lw	a6,0(a1)
    800079de:	00062883          	lw	a7,0(a2)
    800079e2:	0591                	addi	a1,a1,4
    800079e4:	0611                	addi	a2,a2,4
    800079e6:	4118073b          	subw	a4,a6,a7
    800079ea:	9f1d                	subw	a4,a4,a5
    800079ec:	c298                	sw	a4,0(a3)
    800079ee:	2781                	sext.w	a5,a5
    800079f0:	0691                	addi	a3,a3,4
    800079f2:	00a58a63          	beq	a1,a0,80007a06 <softfloat_subM+0x5a>
    800079f6:	0108b733          	sltu	a4,a7,a6
    800079fa:	00174713          	xori	a4,a4,1
    800079fe:	ffe1                	bnez	a5,800079d6 <softfloat_subM+0x2a>
    80007a00:	011837b3          	sltu	a5,a6,a7
    80007a04:	bfd9                	j	800079da <softfloat_subM+0x2e>
    80007a06:	8082                	ret

0000000080007a08 <softfloat_subMagsF32>:
    80007a08:	7179                	addi	sp,sp,-48
    80007a0a:	0175579b          	srliw	a5,a0,0x17
    80007a0e:	0175d71b          	srliw	a4,a1,0x17
    80007a12:	ec26                	sd	s1,24(sp)
    80007a14:	0ff77713          	andi	a4,a4,255
    80007a18:	0ff7f493          	andi	s1,a5,255
    80007a1c:	008007b7          	lui	a5,0x800
    80007a20:	17fd                	addi	a5,a5,-1
    80007a22:	f406                	sd	ra,40(sp)
    80007a24:	f022                	sd	s0,32(sp)
    80007a26:	e84a                	sd	s2,16(sp)
    80007a28:	e44e                	sd	s3,8(sp)
    80007a2a:	40e4883b          	subw	a6,s1,a4
    80007a2e:	00f57633          	and	a2,a0,a5
    80007a32:	00f5f6b3          	and	a3,a1,a5
    80007a36:	06081363          	bnez	a6,80007a9c <softfloat_subMagsF32+0x94>
    80007a3a:	0ff00713          	li	a4,255
    80007a3e:	0ee48463          	beq	s1,a4,80007b26 <softfloat_subMagsF32+0x11e>
    80007a42:	9e15                	subw	a2,a2,a3
    80007a44:	8932                	mv	s2,a2
    80007a46:	10060263          	beqz	a2,80007b4a <softfloat_subMagsF32+0x142>
    80007a4a:	c091                	beqz	s1,80007a4e <softfloat_subMagsF32+0x46>
    80007a4c:	34fd                	addiw	s1,s1,-1
    80007a4e:	2501                	sext.w	a0,a0
    80007a50:	01f5541b          	srliw	s0,a0,0x1f
    80007a54:	00065963          	bgez	a2,80007a66 <softfloat_subMagsF32+0x5e>
    80007a58:	fff54513          	not	a0,a0
    80007a5c:	40c0093b          	negw	s2,a2
    80007a60:	01f5541b          	srliw	s0,a0,0x1f
    80007a64:	864a                	mv	a2,s2
    80007a66:	8532                	mv	a0,a2
    80007a68:	37a000ef          	jal	ra,80007de2 <softfloat_countLeadingZeros32>
    80007a6c:	3561                	addiw	a0,a0,-8
    80007a6e:	40a4873b          	subw	a4,s1,a0
    80007a72:	02071693          	slli	a3,a4,0x20
    80007a76:	4781                	li	a5,0
    80007a78:	0006c563          	bltz	a3,80007a82 <softfloat_subMagsF32+0x7a>
    80007a7c:	0177179b          	slliw	a5,a4,0x17
    80007a80:	84aa                	mv	s1,a0
    80007a82:	01f4151b          	slliw	a0,s0,0x1f
    80007a86:	70a2                	ld	ra,40(sp)
    80007a88:	7402                	ld	s0,32(sp)
    80007a8a:	9d3d                	addw	a0,a0,a5
    80007a8c:	009917bb          	sllw	a5,s2,s1
    80007a90:	69a2                	ld	s3,8(sp)
    80007a92:	64e2                	ld	s1,24(sp)
    80007a94:	6942                	ld	s2,16(sp)
    80007a96:	9d3d                	addw	a0,a0,a5
    80007a98:	6145                	addi	sp,sp,48
    80007a9a:	8082                	ret
    80007a9c:	0076179b          	slliw	a5,a2,0x7
    80007aa0:	0076961b          	slliw	a2,a3,0x7
    80007aa4:	0005089b          	sext.w	a7,a0
    80007aa8:	0007831b          	sext.w	t1,a5
    80007aac:	00060e1b          	sext.w	t3,a2
    80007ab0:	04084463          	bltz	a6,80007af8 <softfloat_subMagsF32+0xf0>
    80007ab4:	0ff00693          	li	a3,255
    80007ab8:	0ad48863          	beq	s1,a3,80007b68 <softfloat_subMagsF32+0x160>
    80007abc:	40000537          	lui	a0,0x40000
    80007ac0:	8fc9                	or	a5,a5,a0
    80007ac2:	0007899b          	sext.w	s3,a5
    80007ac6:	fff4891b          	addiw	s2,s1,-1
    80007aca:	400007b7          	lui	a5,0x40000
    80007ace:	e311                	bnez	a4,80007ad2 <softfloat_subMagsF32+0xca>
    80007ad0:	87f2                	mv	a5,t3
    80007ad2:	01f8d41b          	srliw	s0,a7,0x1f
    80007ad6:	00f6053b          	addw	a0,a2,a5
    80007ada:	85c2                	mv	a1,a6
    80007adc:	c9fff0ef          	jal	ra,8000777a <softfloat_shiftRightJam32>
    80007ae0:	40a9863b          	subw	a2,s3,a0
    80007ae4:	8522                	mv	a0,s0
    80007ae6:	7402                	ld	s0,32(sp)
    80007ae8:	70a2                	ld	ra,40(sp)
    80007aea:	64e2                	ld	s1,24(sp)
    80007aec:	69a2                	ld	s3,8(sp)
    80007aee:	85ca                	mv	a1,s2
    80007af0:	6942                	ld	s2,16(sp)
    80007af2:	6145                	addi	sp,sp,48
    80007af4:	3640006f          	j	80007e58 <softfloat_normRoundPackToF32>
    80007af8:	fff8c893          	not	a7,a7
    80007afc:	0ff00693          	li	a3,255
    80007b00:	01f8d41b          	srliw	s0,a7,0x1f
    80007b04:	06d70e63          	beq	a4,a3,80007b80 <softfloat_subMagsF32+0x178>
    80007b08:	400006b7          	lui	a3,0x40000
    80007b0c:	8e55                	or	a2,a2,a3
    80007b0e:	fff7091b          	addiw	s2,a4,-1
    80007b12:	0006099b          	sext.w	s3,a2
    80007b16:	40000537          	lui	a0,0x40000
    80007b1a:	e091                	bnez	s1,80007b1e <softfloat_subMagsF32+0x116>
    80007b1c:	851a                	mv	a0,t1
    80007b1e:	9d3d                	addw	a0,a0,a5
    80007b20:	4097083b          	subw	a6,a4,s1
    80007b24:	bf5d                	j	80007ada <softfloat_subMagsF32+0xd2>
    80007b26:	88aa                	mv	a7,a0
    80007b28:	0115e8b3          	or	a7,a1,a7
    80007b2c:	00f8f7b3          	and	a5,a7,a5
    80007b30:	2781                	sext.w	a5,a5
    80007b32:	ef8d                	bnez	a5,80007b6c <softfloat_subMagsF32+0x164>
    80007b34:	001867f3          	csrrsi	a5,fflags,16
    80007b38:	7fc00537          	lui	a0,0x7fc00
    80007b3c:	70a2                	ld	ra,40(sp)
    80007b3e:	7402                	ld	s0,32(sp)
    80007b40:	64e2                	ld	s1,24(sp)
    80007b42:	6942                	ld	s2,16(sp)
    80007b44:	69a2                	ld	s3,8(sp)
    80007b46:	6145                	addi	sp,sp,48
    80007b48:	8082                	ret
    80007b4a:	0002071b          	sext.w	a4,tp
    80007b4e:	4789                	li	a5,2
    80007b50:	80000537          	lui	a0,0x80000
    80007b54:	fef704e3          	beq	a4,a5,80007b3c <softfloat_subMagsF32+0x134>
    80007b58:	70a2                	ld	ra,40(sp)
    80007b5a:	7402                	ld	s0,32(sp)
    80007b5c:	64e2                	ld	s1,24(sp)
    80007b5e:	6942                	ld	s2,16(sp)
    80007b60:	69a2                	ld	s3,8(sp)
    80007b62:	4501                	li	a0,0
    80007b64:	6145                	addi	sp,sp,48
    80007b66:	8082                	ret
    80007b68:	fc030ae3          	beqz	t1,80007b3c <softfloat_subMagsF32+0x134>
    80007b6c:	1b0000ef          	jal	ra,80007d1c <softfloat_propagateNaNF32UI>
    80007b70:	70a2                	ld	ra,40(sp)
    80007b72:	7402                	ld	s0,32(sp)
    80007b74:	64e2                	ld	s1,24(sp)
    80007b76:	6942                	ld	s2,16(sp)
    80007b78:	69a2                	ld	s3,8(sp)
    80007b7a:	2501                	sext.w	a0,a0
    80007b7c:	6145                	addi	sp,sp,48
    80007b7e:	8082                	ret
    80007b80:	fe0e16e3          	bnez	t3,80007b6c <softfloat_subMagsF32+0x164>
    80007b84:	01f4189b          	slliw	a7,s0,0x1f
    80007b88:	7f800537          	lui	a0,0x7f800
    80007b8c:	00a8853b          	addw	a0,a7,a0
    80007b90:	b775                	j	80007b3c <softfloat_subMagsF32+0x134>

0000000080007b92 <softfloat_subMagsF64>:
    80007b92:	7179                	addi	sp,sp,-48
    80007b94:	f022                	sd	s0,32(sp)
    80007b96:	e44e                	sd	s3,8(sp)
    80007b98:	03455413          	srli	s0,a0,0x34
    80007b9c:	0345d993          	srli	s3,a1,0x34
    80007ba0:	7ff47413          	andi	s0,s0,2047
    80007ba4:	587d                	li	a6,-1
    80007ba6:	7ff9f993          	andi	s3,s3,2047
    80007baa:	00c85713          	srli	a4,a6,0xc
    80007bae:	ec26                	sd	s1,24(sp)
    80007bb0:	e052                	sd	s4,0(sp)
    80007bb2:	f406                	sd	ra,40(sp)
    80007bb4:	e84a                	sd	s2,16(sp)
    80007bb6:	413406bb          	subw	a3,s0,s3
    80007bba:	8a32                	mv	s4,a2
    80007bbc:	00e577b3          	and	a5,a0,a4
    80007bc0:	00e5f4b3          	and	s1,a1,a4
    80007bc4:	ea85                	bnez	a3,80007bf4 <softfloat_subMagsF64+0x62>
    80007bc6:	7ff00693          	li	a3,2047
    80007bca:	08d40d63          	beq	s0,a3,80007c64 <softfloat_subMagsF64+0xd2>
    80007bce:	409784b3          	sub	s1,a5,s1
    80007bd2:	e8d5                	bnez	s1,80007c86 <softfloat_subMagsF64+0xf4>
    80007bd4:	0002071b          	sext.w	a4,tp
    80007bd8:	4789                	li	a5,2
    80007bda:	03f81513          	slli	a0,a6,0x3f
    80007bde:	08f70c63          	beq	a4,a5,80007c76 <softfloat_subMagsF64+0xe4>
    80007be2:	70a2                	ld	ra,40(sp)
    80007be4:	7402                	ld	s0,32(sp)
    80007be6:	64e2                	ld	s1,24(sp)
    80007be8:	6942                	ld	s2,16(sp)
    80007bea:	69a2                	ld	s3,8(sp)
    80007bec:	6a02                	ld	s4,0(sp)
    80007bee:	4501                	li	a0,0
    80007bf0:	6145                	addi	sp,sp,48
    80007bf2:	8082                	ret
    80007bf4:	00a79913          	slli	s2,a5,0xa
    80007bf8:	04aa                	slli	s1,s1,0xa
    80007bfa:	7ff00793          	li	a5,2047
    80007bfe:	0206cf63          	bltz	a3,80007c3c <softfloat_subMagsF64+0xaa>
    80007c02:	0cf40463          	beq	s0,a5,80007cca <softfloat_subMagsF64+0x138>
    80007c06:	8526                	mv	a0,s1
    80007c08:	00098463          	beqz	s3,80007c10 <softfloat_subMagsF64+0x7e>
    80007c0c:	4505                	li	a0,1
    80007c0e:	157a                	slli	a0,a0,0x3e
    80007c10:	85b6                	mv	a1,a3
    80007c12:	9526                	add	a0,a0,s1
    80007c14:	b89ff0ef          	jal	ra,8000779c <softfloat_shiftRightJam64>
    80007c18:	4785                	li	a5,1
    80007c1a:	17fa                	slli	a5,a5,0x3e
    80007c1c:	00f967b3          	or	a5,s2,a5
    80007c20:	40a78633          	sub	a2,a5,a0
    80007c24:	fff4059b          	addiw	a1,s0,-1
    80007c28:	7402                	ld	s0,32(sp)
    80007c2a:	70a2                	ld	ra,40(sp)
    80007c2c:	64e2                	ld	s1,24(sp)
    80007c2e:	6942                	ld	s2,16(sp)
    80007c30:	69a2                	ld	s3,8(sp)
    80007c32:	8552                	mv	a0,s4
    80007c34:	6a02                	ld	s4,0(sp)
    80007c36:	6145                	addi	sp,sp,48
    80007c38:	2860006f          	j	80007ebe <softfloat_normRoundPackToF64>
    80007c3c:	00164a13          	xori	s4,a2,1
    80007c40:	0af98163          	beq	s3,a5,80007ce2 <softfloat_subMagsF64+0x150>
    80007c44:	854a                	mv	a0,s2
    80007c46:	c019                	beqz	s0,80007c4c <softfloat_subMagsF64+0xba>
    80007c48:	4505                	li	a0,1
    80007c4a:	157a                	slli	a0,a0,0x3e
    80007c4c:	408985bb          	subw	a1,s3,s0
    80007c50:	954a                	add	a0,a0,s2
    80007c52:	b4bff0ef          	jal	ra,8000779c <softfloat_shiftRightJam64>
    80007c56:	4605                	li	a2,1
    80007c58:	167a                	slli	a2,a2,0x3e
    80007c5a:	8cd1                	or	s1,s1,a2
    80007c5c:	40a48633          	sub	a2,s1,a0
    80007c60:	844e                	mv	s0,s3
    80007c62:	b7c9                	j	80007c24 <softfloat_subMagsF64+0x92>
    80007c64:	00b567b3          	or	a5,a0,a1
    80007c68:	8f7d                	and	a4,a4,a5
    80007c6a:	e335                	bnez	a4,80007cce <softfloat_subMagsF64+0x13c>
    80007c6c:	001867f3          	csrrsi	a5,fflags,16
    80007c70:	00fff537          	lui	a0,0xfff
    80007c74:	151e                	slli	a0,a0,0x27
    80007c76:	70a2                	ld	ra,40(sp)
    80007c78:	7402                	ld	s0,32(sp)
    80007c7a:	64e2                	ld	s1,24(sp)
    80007c7c:	6942                	ld	s2,16(sp)
    80007c7e:	69a2                	ld	s3,8(sp)
    80007c80:	6a02                	ld	s4,0(sp)
    80007c82:	6145                	addi	sp,sp,48
    80007c84:	8082                	ret
    80007c86:	c011                	beqz	s0,80007c8a <softfloat_subMagsF64+0xf8>
    80007c88:	347d                	addiw	s0,s0,-1
    80007c8a:	0004d663          	bgez	s1,80007c96 <softfloat_subMagsF64+0x104>
    80007c8e:	001a4a13          	xori	s4,s4,1
    80007c92:	409004b3          	neg	s1,s1
    80007c96:	8526                	mv	a0,s1
    80007c98:	17c000ef          	jal	ra,80007e14 <softfloat_countLeadingZeros64>
    80007c9c:	3555                	addiw	a0,a0,-11
    80007c9e:	40a4073b          	subw	a4,s0,a0
    80007ca2:	4781                	li	a5,0
    80007ca4:	00074563          	bltz	a4,80007cae <softfloat_subMagsF64+0x11c>
    80007ca8:	03471793          	slli	a5,a4,0x34
    80007cac:	842a                	mv	s0,a0
    80007cae:	03fa1513          	slli	a0,s4,0x3f
    80007cb2:	00849433          	sll	s0,s1,s0
    80007cb6:	953e                	add	a0,a0,a5
    80007cb8:	9522                	add	a0,a0,s0
    80007cba:	70a2                	ld	ra,40(sp)
    80007cbc:	7402                	ld	s0,32(sp)
    80007cbe:	64e2                	ld	s1,24(sp)
    80007cc0:	6942                	ld	s2,16(sp)
    80007cc2:	69a2                	ld	s3,8(sp)
    80007cc4:	6a02                	ld	s4,0(sp)
    80007cc6:	6145                	addi	sp,sp,48
    80007cc8:	8082                	ret
    80007cca:	fa0906e3          	beqz	s2,80007c76 <softfloat_subMagsF64+0xe4>
    80007cce:	088000ef          	jal	ra,80007d56 <softfloat_propagateNaNF64UI>
    80007cd2:	70a2                	ld	ra,40(sp)
    80007cd4:	7402                	ld	s0,32(sp)
    80007cd6:	64e2                	ld	s1,24(sp)
    80007cd8:	6942                	ld	s2,16(sp)
    80007cda:	69a2                	ld	s3,8(sp)
    80007cdc:	6a02                	ld	s4,0(sp)
    80007cde:	6145                	addi	sp,sp,48
    80007ce0:	8082                	ret
    80007ce2:	f4f5                	bnez	s1,80007cce <softfloat_subMagsF64+0x13c>
    80007ce4:	03fa1513          	slli	a0,s4,0x3f
    80007ce8:	19d2                	slli	s3,s3,0x34
    80007cea:	954e                	add	a0,a0,s3
    80007cec:	b769                	j	80007c76 <softfloat_subMagsF64+0xe4>

0000000080007cee <ui64_to_f64>:
    80007cee:	c515                	beqz	a0,80007d1a <ui64_to_f64+0x2c>
    80007cf0:	862a                	mv	a2,a0
    80007cf2:	00054763          	bltz	a0,80007d00 <ui64_to_f64+0x12>
    80007cf6:	43c00593          	li	a1,1084
    80007cfa:	4501                	li	a0,0
    80007cfc:	1c20006f          	j	80007ebe <softfloat_normRoundPackToF64>
    80007d00:	1141                	addi	sp,sp,-16
    80007d02:	4585                	li	a1,1
    80007d04:	e406                	sd	ra,8(sp)
    80007d06:	c27ff0ef          	jal	ra,8000792c <softfloat_shortShiftRightJam64>
    80007d0a:	60a2                	ld	ra,8(sp)
    80007d0c:	862a                	mv	a2,a0
    80007d0e:	43d00593          	li	a1,1085
    80007d12:	4501                	li	a0,0
    80007d14:	0141                	addi	sp,sp,16
    80007d16:	8d5ff06f          	j	800075ea <softfloat_roundPackToF64>
    80007d1a:	8082                	ret

0000000080007d1c <softfloat_propagateNaNF32UI>:
    80007d1c:	7fc007b7          	lui	a5,0x7fc00
    80007d20:	8fe9                	and	a5,a5,a0
    80007d22:	7f800737          	lui	a4,0x7f800
    80007d26:	00e78c63          	beq	a5,a4,80007d3e <softfloat_propagateNaNF32UI+0x22>
    80007d2a:	7fc007b7          	lui	a5,0x7fc00
    80007d2e:	8fed                	and	a5,a5,a1
    80007d30:	7f800737          	lui	a4,0x7f800
    80007d34:	00e78c63          	beq	a5,a4,80007d4c <softfloat_propagateNaNF32UI+0x30>
    80007d38:	7fc00537          	lui	a0,0x7fc00
    80007d3c:	8082                	ret
    80007d3e:	152a                	slli	a0,a0,0x2a
    80007d40:	d56d                	beqz	a0,80007d2a <softfloat_propagateNaNF32UI+0xe>
    80007d42:	001867f3          	csrrsi	a5,fflags,16
    80007d46:	7fc00537          	lui	a0,0x7fc00
    80007d4a:	8082                	ret
    80007d4c:	15aa                	slli	a1,a1,0x2a
    80007d4e:	d5ed                	beqz	a1,80007d38 <softfloat_propagateNaNF32UI+0x1c>
    80007d50:	001867f3          	csrrsi	a5,fflags,16
    80007d54:	bfcd                	j	80007d46 <softfloat_propagateNaNF32UI+0x2a>

0000000080007d56 <softfloat_propagateNaNF64UI>:
    80007d56:	00fff7b7          	lui	a5,0xfff
    80007d5a:	179e                	slli	a5,a5,0x27
    80007d5c:	7ff00713          	li	a4,2047
    80007d60:	8fe9                	and	a5,a5,a0
    80007d62:	1752                	slli	a4,a4,0x34
    80007d64:	00e78f63          	beq	a5,a4,80007d82 <softfloat_propagateNaNF64UI+0x2c>
    80007d68:	00fff7b7          	lui	a5,0xfff
    80007d6c:	179e                	slli	a5,a5,0x27
    80007d6e:	7ff00713          	li	a4,2047
    80007d72:	8fed                	and	a5,a5,a1
    80007d74:	1752                	slli	a4,a4,0x34
    80007d76:	00e78f63          	beq	a5,a4,80007d94 <softfloat_propagateNaNF64UI+0x3e>
    80007d7a:	00fff537          	lui	a0,0xfff
    80007d7e:	151e                	slli	a0,a0,0x27
    80007d80:	8082                	ret
    80007d82:	00d51793          	slli	a5,a0,0xd
    80007d86:	d3ed                	beqz	a5,80007d68 <softfloat_propagateNaNF64UI+0x12>
    80007d88:	001867f3          	csrrsi	a5,fflags,16
    80007d8c:	00fff537          	lui	a0,0xfff
    80007d90:	151e                	slli	a0,a0,0x27
    80007d92:	8082                	ret
    80007d94:	00d59793          	slli	a5,a1,0xd
    80007d98:	d3ed                	beqz	a5,80007d7a <softfloat_propagateNaNF64UI+0x24>
    80007d9a:	001867f3          	csrrsi	a5,fflags,16
    80007d9e:	b7fd                	j	80007d8c <softfloat_propagateNaNF64UI+0x36>

0000000080007da0 <softfloat_addM>:
    80007da0:	4198                	lw	a4,0(a1)
    80007da2:	421c                	lw	a5,0(a2)
    80007da4:	4805                	li	a6,1
    80007da6:	9fb9                	addw	a5,a5,a4
    80007da8:	c29c                	sw	a5,0(a3)
    80007daa:	03050b63          	beq	a0,a6,80007de0 <softfloat_addM+0x40>
    80007dae:	3579                	addiw	a0,a0,-2
    80007db0:	1502                	slli	a0,a0,0x20
    80007db2:	00858813          	addi	a6,a1,8
    80007db6:	8179                	srli	a0,a0,0x1e
    80007db8:	9542                	add	a0,a0,a6
    80007dba:	0591                	addi	a1,a1,4
    80007dbc:	0611                	addi	a2,a2,4
    80007dbe:	0691                	addi	a3,a3,4
    80007dc0:	4801                	li	a6,0
    80007dc2:	00f70463          	beq	a4,a5,80007dca <softfloat_addM+0x2a>
    80007dc6:	00e7b833          	sltu	a6,a5,a4
    80007dca:	4198                	lw	a4,0(a1)
    80007dcc:	421c                	lw	a5,0(a2)
    80007dce:	0591                	addi	a1,a1,4
    80007dd0:	0611                	addi	a2,a2,4
    80007dd2:	9fb9                	addw	a5,a5,a4
    80007dd4:	010787bb          	addw	a5,a5,a6
    80007dd8:	c29c                	sw	a5,0(a3)
    80007dda:	0691                	addi	a3,a3,4
    80007ddc:	fea593e3          	bne	a1,a0,80007dc2 <softfloat_addM+0x22>
    80007de0:	8082                	ret

0000000080007de2 <softfloat_countLeadingZeros32>:
    80007de2:	67c1                	lui	a5,0x10
    80007de4:	4701                	li	a4,0
    80007de6:	00f57563          	bgeu	a0,a5,80007df0 <softfloat_countLeadingZeros32+0xe>
    80007dea:	0105151b          	slliw	a0,a0,0x10
    80007dee:	4741                	li	a4,16
    80007df0:	010007b7          	lui	a5,0x1000
    80007df4:	00f57563          	bgeu	a0,a5,80007dfe <softfloat_countLeadingZeros32+0x1c>
    80007df8:	0085151b          	slliw	a0,a0,0x8
    80007dfc:	2721                	addiw	a4,a4,8
    80007dfe:	00001797          	auipc	a5,0x1
    80007e02:	16a78793          	addi	a5,a5,362 # 80008f68 <softfloat_countLeadingZeros8>
    80007e06:	0185551b          	srliw	a0,a0,0x18
    80007e0a:	953e                	add	a0,a0,a5
    80007e0c:	00054503          	lbu	a0,0(a0) # fff000 <_ftext-0x7f001000>
    80007e10:	9d39                	addw	a0,a0,a4
    80007e12:	8082                	ret

0000000080007e14 <softfloat_countLeadingZeros64>:
    80007e14:	02055793          	srli	a5,a0,0x20
    80007e18:	cb9d                	beqz	a5,80007e4e <softfloat_countLeadingZeros64+0x3a>
    80007e1a:	2781                	sext.w	a5,a5
    80007e1c:	4701                	li	a4,0
    80007e1e:	66c1                	lui	a3,0x10
    80007e20:	00d7f563          	bgeu	a5,a3,80007e2a <softfloat_countLeadingZeros64+0x16>
    80007e24:	0107979b          	slliw	a5,a5,0x10
    80007e28:	2741                	addiw	a4,a4,16
    80007e2a:	010006b7          	lui	a3,0x1000
    80007e2e:	00d7f563          	bgeu	a5,a3,80007e38 <softfloat_countLeadingZeros64+0x24>
    80007e32:	0087979b          	slliw	a5,a5,0x8
    80007e36:	2721                	addiw	a4,a4,8
    80007e38:	00001517          	auipc	a0,0x1
    80007e3c:	13050513          	addi	a0,a0,304 # 80008f68 <softfloat_countLeadingZeros8>
    80007e40:	0187d79b          	srliw	a5,a5,0x18
    80007e44:	97aa                	add	a5,a5,a0
    80007e46:	0007c503          	lbu	a0,0(a5)
    80007e4a:	9d39                	addw	a0,a0,a4
    80007e4c:	8082                	ret
    80007e4e:	0005079b          	sext.w	a5,a0
    80007e52:	02000713          	li	a4,32
    80007e56:	b7e1                	j	80007e1e <softfloat_countLeadingZeros64+0xa>

0000000080007e58 <softfloat_normRoundPackToF32>:
    80007e58:	1101                	addi	sp,sp,-32
    80007e5a:	e04a                	sd	s2,0(sp)
    80007e5c:	892a                	mv	s2,a0
    80007e5e:	8532                	mv	a0,a2
    80007e60:	e822                	sd	s0,16(sp)
    80007e62:	e426                	sd	s1,8(sp)
    80007e64:	8432                	mv	s0,a2
    80007e66:	84ae                	mv	s1,a1
    80007e68:	ec06                	sd	ra,24(sp)
    80007e6a:	f79ff0ef          	jal	ra,80007de2 <softfloat_countLeadingZeros32>
    80007e6e:	2501                	sext.w	a0,a0
    80007e70:	fff5061b          	addiw	a2,a0,-1
    80007e74:	4719                	li	a4,6
    80007e76:	40c485bb          	subw	a1,s1,a2
    80007e7a:	02c75863          	bge	a4,a2,80007eaa <softfloat_normRoundPackToF32+0x52>
    80007e7e:	0fc00713          	li	a4,252
    80007e82:	02b76463          	bltu	a4,a1,80007eaa <softfloat_normRoundPackToF32+0x52>
    80007e86:	01f9191b          	slliw	s2,s2,0x1f
    80007e8a:	4601                	li	a2,0
    80007e8c:	c019                	beqz	s0,80007e92 <softfloat_normRoundPackToF32+0x3a>
    80007e8e:	0175961b          	slliw	a2,a1,0x17
    80007e92:	3561                	addiw	a0,a0,-8
    80007e94:	00a4153b          	sllw	a0,s0,a0
    80007e98:	60e2                	ld	ra,24(sp)
    80007e9a:	6442                	ld	s0,16(sp)
    80007e9c:	0125053b          	addw	a0,a0,s2
    80007ea0:	64a2                	ld	s1,8(sp)
    80007ea2:	6902                	ld	s2,0(sp)
    80007ea4:	9d31                	addw	a0,a0,a2
    80007ea6:	6105                	addi	sp,sp,32
    80007ea8:	8082                	ret
    80007eaa:	00c4163b          	sllw	a2,s0,a2
    80007eae:	6442                	ld	s0,16(sp)
    80007eb0:	60e2                	ld	ra,24(sp)
    80007eb2:	64a2                	ld	s1,8(sp)
    80007eb4:	854a                	mv	a0,s2
    80007eb6:	6902                	ld	s2,0(sp)
    80007eb8:	6105                	addi	sp,sp,32
    80007eba:	e26ff06f          	j	800074e0 <softfloat_roundPackToF32>

0000000080007ebe <softfloat_normRoundPackToF64>:
    80007ebe:	1101                	addi	sp,sp,-32
    80007ec0:	e04a                	sd	s2,0(sp)
    80007ec2:	892a                	mv	s2,a0
    80007ec4:	8532                	mv	a0,a2
    80007ec6:	e822                	sd	s0,16(sp)
    80007ec8:	e426                	sd	s1,8(sp)
    80007eca:	8432                	mv	s0,a2
    80007ecc:	84ae                	mv	s1,a1
    80007ece:	ec06                	sd	ra,24(sp)
    80007ed0:	f45ff0ef          	jal	ra,80007e14 <softfloat_countLeadingZeros64>
    80007ed4:	2501                	sext.w	a0,a0
    80007ed6:	fff5061b          	addiw	a2,a0,-1
    80007eda:	47a5                	li	a5,9
    80007edc:	40c485bb          	subw	a1,s1,a2
    80007ee0:	02c7d663          	bge	a5,a2,80007f0c <softfloat_normRoundPackToF64+0x4e>
    80007ee4:	7fc00793          	li	a5,2044
    80007ee8:	02b7e263          	bltu	a5,a1,80007f0c <softfloat_normRoundPackToF64+0x4e>
    80007eec:	197e                	slli	s2,s2,0x3f
    80007eee:	4601                	li	a2,0
    80007ef0:	c019                	beqz	s0,80007ef6 <softfloat_normRoundPackToF64+0x38>
    80007ef2:	03459613          	slli	a2,a1,0x34
    80007ef6:	3555                	addiw	a0,a0,-11
    80007ef8:	00a41533          	sll	a0,s0,a0
    80007efc:	60e2                	ld	ra,24(sp)
    80007efe:	6442                	ld	s0,16(sp)
    80007f00:	954a                	add	a0,a0,s2
    80007f02:	64a2                	ld	s1,8(sp)
    80007f04:	6902                	ld	s2,0(sp)
    80007f06:	9532                	add	a0,a0,a2
    80007f08:	6105                	addi	sp,sp,32
    80007f0a:	8082                	ret
    80007f0c:	00c41633          	sll	a2,s0,a2
    80007f10:	6442                	ld	s0,16(sp)
    80007f12:	60e2                	ld	ra,24(sp)
    80007f14:	64a2                	ld	s1,8(sp)
    80007f16:	854a                	mv	a0,s2
    80007f18:	6902                	ld	s2,0(sp)
    80007f1a:	6105                	addi	sp,sp,32
    80007f1c:	eceff06f          	j	800075ea <softfloat_roundPackToF64>

0000000080007f20 <vsnprintf>:
    80007f20:	00064783          	lbu	a5,0(a2)
    80007f24:	20078663          	beqz	a5,80008130 <vsnprintf+0x210>
    80007f28:	7179                	addi	sp,sp,-48
    80007f2a:	f422                	sd	s0,40(sp)
    80007f2c:	f026                	sd	s1,32(sp)
    80007f2e:	ec4a                	sd	s2,24(sp)
    80007f30:	e84e                	sd	s3,16(sp)
    80007f32:	e452                	sd	s4,8(sp)
    80007f34:	e056                	sd	s5,0(sp)
    80007f36:	4701                	li	a4,0
    80007f38:	4901                	li	s2,0
    80007f3a:	4801                	li	a6,0
    80007f3c:	02500293          	li	t0,37
    80007f40:	4fd5                	li	t6,21
    80007f42:	00001e97          	auipc	t4,0x1
    80007f46:	126e8e93          	addi	t4,t4,294 # 80009068 <softfloat_countLeadingZeros8+0x100>
    80007f4a:	4329                	li	t1,10
    80007f4c:	02d00493          	li	s1,45
    80007f50:	4f25                	li	t5,9
    80007f52:	5e7d                	li	t3,-1
    80007f54:	07800413          	li	s0,120
    80007f58:	03000393          	li	t2,48
    80007f5c:	0e080b63          	beqz	a6,80008052 <vsnprintf+0x132>
    80007f60:	f9d7879b          	addiw	a5,a5,-99
    80007f64:	0ff7f793          	andi	a5,a5,255
    80007f68:	0cffef63          	bltu	t6,a5,80008046 <vsnprintf+0x126>
    80007f6c:	078a                	slli	a5,a5,0x2
    80007f6e:	97f6                	add	a5,a5,t4
    80007f70:	439c                	lw	a5,0(a5)
    80007f72:	97f6                	add	a5,a5,t4
    80007f74:	8782                	jr	a5
    80007f76:	00868793          	addi	a5,a3,8 # 1000008 <_ftext-0x7efffff8>
    80007f7a:	14090f63          	beqz	s2,800080d8 <vsnprintf+0x1b8>
    80007f7e:	0006ba03          	ld	s4,0(a3)
    80007f82:	4abd                	li	s5,15
    80007f84:	86be                	mv	a3,a5
    80007f86:	a041                	j	80008006 <vsnprintf+0xe6>
    80007f88:	0006b883          	ld	a7,0(a3)
    80007f8c:	06a1                	addi	a3,a3,8
    80007f8e:	0008c803          	lbu	a6,0(a7)
    80007f92:	14080063          	beqz	a6,800080d2 <vsnprintf+0x1b2>
    80007f96:	87ba                	mv	a5,a4
    80007f98:	0785                	addi	a5,a5,1
    80007f9a:	00b7f663          	bgeu	a5,a1,80007fa6 <vsnprintf+0x86>
    80007f9e:	00f50933          	add	s2,a0,a5
    80007fa2:	ff090fa3          	sb	a6,-1(s2)
    80007fa6:	40e78833          	sub	a6,a5,a4
    80007faa:	9846                	add	a6,a6,a7
    80007fac:	00084803          	lbu	a6,0(a6)
    80007fb0:	fe0814e3          	bnez	a6,80007f98 <vsnprintf+0x78>
    80007fb4:	0605                	addi	a2,a2,1
    80007fb6:	873e                	mv	a4,a5
    80007fb8:	00064783          	lbu	a5,0(a2)
    80007fbc:	4901                	li	s2,0
    80007fbe:	ffd9                	bnez	a5,80007f5c <vsnprintf+0x3c>
    80007fc0:	0007079b          	sext.w	a5,a4
    80007fc4:	12b76363          	bltu	a4,a1,800080ea <vsnprintf+0x1ca>
    80007fc8:	c589                	beqz	a1,80007fd2 <vsnprintf+0xb2>
    80007fca:	00b50733          	add	a4,a0,a1
    80007fce:	fe070fa3          	sb	zero,-1(a4) # 7f7fffff <_ftext-0x800001>
    80007fd2:	7422                	ld	s0,40(sp)
    80007fd4:	7482                	ld	s1,32(sp)
    80007fd6:	6962                	ld	s2,24(sp)
    80007fd8:	69c2                	ld	s3,16(sp)
    80007fda:	6a22                	ld	s4,8(sp)
    80007fdc:	6a82                	ld	s5,0(sp)
    80007fde:	853e                	mv	a0,a5
    80007fe0:	6145                	addi	sp,sp,48
    80007fe2:	8082                	ret
    80007fe4:	00170793          	addi	a5,a4,1
    80007fe8:	00b7f663          	bgeu	a5,a1,80007ff4 <vsnprintf+0xd4>
    80007fec:	00e50833          	add	a6,a0,a4
    80007ff0:	00780023          	sb	t2,0(a6)
    80007ff4:	0709                	addi	a4,a4,2
    80007ff6:	00868813          	addi	a6,a3,8
    80007ffa:	0eb76c63          	bltu	a4,a1,800080f2 <vsnprintf+0x1d2>
    80007ffe:	0006ba03          	ld	s4,0(a3)
    80008002:	4abd                	li	s5,15
    80008004:	86c2                	mv	a3,a6
    80008006:	8856                	mv	a6,s5
    80008008:	87ba                	mv	a5,a4
    8000800a:	0785                	addi	a5,a5,1
    8000800c:	02b7f463          	bgeu	a5,a1,80008034 <vsnprintf+0x114>
    80008010:	0028189b          	slliw	a7,a6,0x2
    80008014:	411a58b3          	sra	a7,s4,a7
    80008018:	00f8f893          	andi	a7,a7,15
    8000801c:	0ff8f993          	andi	s3,a7,255
    80008020:	05798913          	addi	s2,s3,87
    80008024:	011f4463          	blt	t5,a7,8000802c <vsnprintf+0x10c>
    80008028:	03098913          	addi	s2,s3,48
    8000802c:	00f508b3          	add	a7,a0,a5
    80008030:	ff288fa3          	sb	s2,-1(a7)
    80008034:	387d                	addiw	a6,a6,-1
    80008036:	fdc81ae3          	bne	a6,t3,8000800a <vsnprintf+0xea>
    8000803a:	0705                	addi	a4,a4,1
    8000803c:	9756                	add	a4,a4,s5
    8000803e:	4901                	li	s2,0
    80008040:	4801                	li	a6,0
    80008042:	a011                	j	80008046 <vsnprintf+0x126>
    80008044:	8942                	mv	s2,a6
    80008046:	0605                	addi	a2,a2,1
    80008048:	00064783          	lbu	a5,0(a2)
    8000804c:	dbb5                	beqz	a5,80007fc0 <vsnprintf+0xa0>
    8000804e:	f00819e3          	bnez	a6,80007f60 <vsnprintf+0x40>
    80008052:	08578863          	beq	a5,t0,800080e2 <vsnprintf+0x1c2>
    80008056:	00170893          	addi	a7,a4,1
    8000805a:	08b8f663          	bgeu	a7,a1,800080e6 <vsnprintf+0x1c6>
    8000805e:	972a                	add	a4,a4,a0
    80008060:	00f70023          	sb	a5,0(a4)
    80008064:	8746                	mv	a4,a7
    80008066:	b7c5                	j	80008046 <vsnprintf+0x126>
    80008068:	00868993          	addi	s3,a3,8
    8000806c:	08090763          	beqz	s2,800080fa <vsnprintf+0x1da>
    80008070:	0006b803          	ld	a6,0(a3)
    80008074:	08084763          	bltz	a6,80008102 <vsnprintf+0x1e2>
    80008078:	026847b3          	div	a5,a6,t1
    8000807c:	c3f9                	beqz	a5,80008142 <vsnprintf+0x222>
    8000807e:	4685                	li	a3,1
    80008080:	0267c7b3          	div	a5,a5,t1
    80008084:	0685                	addi	a3,a3,1
    80008086:	ffed                	bnez	a5,80008080 <vsnprintf+0x160>
    80008088:	fff6879b          	addiw	a5,a3,-1
    8000808c:	88b6                	mv	a7,a3
    8000808e:	0207c863          	bltz	a5,800080be <vsnprintf+0x19e>
    80008092:	00170a13          	addi	s4,a4,1
    80008096:	00fa06b3          	add	a3,s4,a5
    8000809a:	00b6fb63          	bgeu	a3,a1,800080b0 <vsnprintf+0x190>
    8000809e:	026866b3          	rem	a3,a6,t1
    800080a2:	00f70933          	add	s2,a4,a5
    800080a6:	992a                	add	s2,s2,a0
    800080a8:	0306869b          	addiw	a3,a3,48
    800080ac:	00d90023          	sb	a3,0(s2)
    800080b0:	17fd                	addi	a5,a5,-1
    800080b2:	02079693          	slli	a3,a5,0x20
    800080b6:	02684833          	div	a6,a6,t1
    800080ba:	fc06dee3          	bgez	a3,80008096 <vsnprintf+0x176>
    800080be:	9746                	add	a4,a4,a7
    800080c0:	86ce                	mv	a3,s3
    800080c2:	4901                	li	s2,0
    800080c4:	4801                	li	a6,0
    800080c6:	b741                	j	80008046 <vsnprintf+0x126>
    800080c8:	00170793          	addi	a5,a4,1
    800080cc:	04b7e663          	bltu	a5,a1,80008118 <vsnprintf+0x1f8>
    800080d0:	873e                	mv	a4,a5
    800080d2:	4901                	li	s2,0
    800080d4:	4801                	li	a6,0
    800080d6:	bf85                	j	80008046 <vsnprintf+0x126>
    800080d8:	0006aa03          	lw	s4,0(a3)
    800080dc:	4a9d                	li	s5,7
    800080de:	86be                	mv	a3,a5
    800080e0:	b71d                	j	80008006 <vsnprintf+0xe6>
    800080e2:	4805                	li	a6,1
    800080e4:	b78d                	j	80008046 <vsnprintf+0x126>
    800080e6:	8746                	mv	a4,a7
    800080e8:	bfb9                	j	80008046 <vsnprintf+0x126>
    800080ea:	972a                	add	a4,a4,a0
    800080ec:	00070023          	sb	zero,0(a4)
    800080f0:	b5cd                	j	80007fd2 <vsnprintf+0xb2>
    800080f2:	97aa                	add	a5,a5,a0
    800080f4:	00878023          	sb	s0,0(a5)
    800080f8:	b719                	j	80007ffe <vsnprintf+0xde>
    800080fa:	0006a803          	lw	a6,0(a3)
    800080fe:	f6085de3          	bgez	a6,80008078 <vsnprintf+0x158>
    80008102:	00170793          	addi	a5,a4,1
    80008106:	41000833          	neg	a6,a6
    8000810a:	02b7f163          	bgeu	a5,a1,8000812c <vsnprintf+0x20c>
    8000810e:	972a                	add	a4,a4,a0
    80008110:	00970023          	sb	s1,0(a4)
    80008114:	873e                	mv	a4,a5
    80008116:	b78d                	j	80008078 <vsnprintf+0x158>
    80008118:	0006a803          	lw	a6,0(a3)
    8000811c:	972a                	add	a4,a4,a0
    8000811e:	06a1                	addi	a3,a3,8
    80008120:	01070023          	sb	a6,0(a4)
    80008124:	4901                	li	s2,0
    80008126:	873e                	mv	a4,a5
    80008128:	4801                	li	a6,0
    8000812a:	bf31                	j	80008046 <vsnprintf+0x126>
    8000812c:	873e                	mv	a4,a5
    8000812e:	b7a9                	j	80008078 <vsnprintf+0x158>
    80008130:	4701                	li	a4,0
    80008132:	4781                	li	a5,0
    80008134:	00b77a63          	bgeu	a4,a1,80008148 <vsnprintf+0x228>
    80008138:	972a                	add	a4,a4,a0
    8000813a:	00070023          	sb	zero,0(a4)
    8000813e:	853e                	mv	a0,a5
    80008140:	8082                	ret
    80008142:	4885                	li	a7,1
    80008144:	4781                	li	a5,0
    80008146:	b7b1                	j	80008092 <vsnprintf+0x172>
    80008148:	d9fd                	beqz	a1,8000813e <vsnprintf+0x21e>
    8000814a:	00b50733          	add	a4,a0,a1
    8000814e:	fe070fa3          	sb	zero,-1(a4)
    80008152:	b7f5                	j	8000813e <vsnprintf+0x21e>

0000000080008154 <snprintf>:
    80008154:	715d                	addi	sp,sp,-80
    80008156:	02810313          	addi	t1,sp,40
    8000815a:	f436                	sd	a3,40(sp)
    8000815c:	869a                	mv	a3,t1
    8000815e:	ec06                	sd	ra,24(sp)
    80008160:	f83a                	sd	a4,48(sp)
    80008162:	fc3e                	sd	a5,56(sp)
    80008164:	e0c2                	sd	a6,64(sp)
    80008166:	e4c6                	sd	a7,72(sp)
    80008168:	e41a                	sd	t1,8(sp)
    8000816a:	db7ff0ef          	jal	ra,80007f20 <vsnprintf>
    8000816e:	60e2                	ld	ra,24(sp)
    80008170:	6161                	addi	sp,sp,80
    80008172:	8082                	ret

0000000080008174 <memcpy>:
    80008174:	00b56733          	or	a4,a0,a1
    80008178:	8b1d                	andi	a4,a4,7
    8000817a:	87aa                	mv	a5,a0
    8000817c:	e705                	bnez	a4,800081a4 <memcpy+0x30>
    8000817e:	ff960813          	addi	a6,a2,-7
    80008182:	982a                	add	a6,a6,a0
    80008184:	03057063          	bgeu	a0,a6,800081a4 <memcpy+0x30>
    80008188:	872e                	mv	a4,a1
    8000818a:	6314                	ld	a3,0(a4)
    8000818c:	07a1                	addi	a5,a5,8
    8000818e:	0721                	addi	a4,a4,8
    80008190:	fed7bc23          	sd	a3,-8(a5)
    80008194:	ff07ebe3          	bltu	a5,a6,8000818a <memcpy+0x16>
    80008198:	ff860793          	addi	a5,a2,-8
    8000819c:	9be1                	andi	a5,a5,-8
    8000819e:	07a1                	addi	a5,a5,8
    800081a0:	95be                	add	a1,a1,a5
    800081a2:	97aa                	add	a5,a5,a0
    800081a4:	962a                	add	a2,a2,a0
    800081a6:	00c7fd63          	bgeu	a5,a2,800081c0 <memcpy+0x4c>
    800081aa:	8e1d                	sub	a2,a2,a5
    800081ac:	00c58733          	add	a4,a1,a2
    800081b0:	0585                	addi	a1,a1,1
    800081b2:	fff5c683          	lbu	a3,-1(a1)
    800081b6:	0785                	addi	a5,a5,1
    800081b8:	fed78fa3          	sb	a3,-1(a5)
    800081bc:	fee59ae3          	bne	a1,a4,800081b0 <memcpy+0x3c>
    800081c0:	8082                	ret

00000000800081c2 <memset>:
    800081c2:	00c567b3          	or	a5,a0,a2
    800081c6:	8b9d                	andi	a5,a5,7
    800081c8:	962a                	add	a2,a2,a0
    800081ca:	0ff5f593          	andi	a1,a1,255
    800081ce:	cb91                	beqz	a5,800081e2 <memset+0x20>
    800081d0:	87aa                	mv	a5,a0
    800081d2:	02c57a63          	bgeu	a0,a2,80008206 <memset+0x44>
    800081d6:	0785                	addi	a5,a5,1
    800081d8:	feb78fa3          	sb	a1,-1(a5)
    800081dc:	fef61de3          	bne	a2,a5,800081d6 <memset+0x14>
    800081e0:	8082                	ret
    800081e2:	00859793          	slli	a5,a1,0x8
    800081e6:	8ddd                	or	a1,a1,a5
    800081e8:	01059793          	slli	a5,a1,0x10
    800081ec:	8fcd                	or	a5,a5,a1
    800081ee:	02079593          	slli	a1,a5,0x20
    800081f2:	8ddd                	or	a1,a1,a5
    800081f4:	fec576e3          	bgeu	a0,a2,800081e0 <memset+0x1e>
    800081f8:	87aa                	mv	a5,a0
    800081fa:	07a1                	addi	a5,a5,8
    800081fc:	feb7bc23          	sd	a1,-8(a5)
    80008200:	fec7ede3          	bltu	a5,a2,800081fa <memset+0x38>
    80008204:	8082                	ret
    80008206:	8082                	ret

0000000080008208 <strlen>:
    80008208:	00054783          	lbu	a5,0(a0)
    8000820c:	cb89                	beqz	a5,8000821e <strlen+0x16>
    8000820e:	87aa                	mv	a5,a0
    80008210:	0785                	addi	a5,a5,1
    80008212:	0007c703          	lbu	a4,0(a5)
    80008216:	ff6d                	bnez	a4,80008210 <strlen+0x8>
    80008218:	40a78533          	sub	a0,a5,a0
    8000821c:	8082                	ret
    8000821e:	4501                	li	a0,0
    80008220:	8082                	ret

0000000080008222 <strcmp>:
    80008222:	0505                	addi	a0,a0,1
    80008224:	fff54783          	lbu	a5,-1(a0)
    80008228:	0585                	addi	a1,a1,1
    8000822a:	fff5c703          	lbu	a4,-1(a1)
    8000822e:	c799                	beqz	a5,8000823c <strcmp+0x1a>
    80008230:	fee789e3          	beq	a5,a4,80008222 <strcmp>
    80008234:	0007851b          	sext.w	a0,a5
    80008238:	9d19                	subw	a0,a0,a4
    8000823a:	8082                	ret
    8000823c:	4501                	li	a0,0
    8000823e:	bfed                	j	80008238 <strcmp+0x16>

0000000080008240 <strcpy>:
    80008240:	87aa                	mv	a5,a0
    80008242:	0585                	addi	a1,a1,1
    80008244:	fff5c703          	lbu	a4,-1(a1)
    80008248:	0785                	addi	a5,a5,1
    8000824a:	fee78fa3          	sb	a4,-1(a5)
    8000824e:	fb75                	bnez	a4,80008242 <strcpy+0x2>
    80008250:	8082                	ret

0000000080008252 <atol>:
    80008252:	00054783          	lbu	a5,0(a0)
    80008256:	02000713          	li	a4,32
    8000825a:	00e79763          	bne	a5,a4,80008268 <atol+0x16>
    8000825e:	0505                	addi	a0,a0,1
    80008260:	00054783          	lbu	a5,0(a0)
    80008264:	fee78de3          	beq	a5,a4,8000825e <atol+0xc>
    80008268:	fd57871b          	addiw	a4,a5,-43
    8000826c:	0fd77713          	andi	a4,a4,253
    80008270:	c715                	beqz	a4,8000829c <atol+0x4a>
    80008272:	00054683          	lbu	a3,0(a0)
    80008276:	87aa                	mv	a5,a0
    80008278:	4601                	li	a2,0
    8000827a:	ce85                	beqz	a3,800082b2 <atol+0x60>
    8000827c:	4501                	li	a0,0
    8000827e:	0785                	addi	a5,a5,1
    80008280:	fd06859b          	addiw	a1,a3,-48
    80008284:	00251713          	slli	a4,a0,0x2
    80008288:	0007c683          	lbu	a3,0(a5)
    8000828c:	953a                	add	a0,a0,a4
    8000828e:	0506                	slli	a0,a0,0x1
    80008290:	952e                	add	a0,a0,a1
    80008292:	f6f5                	bnez	a3,8000827e <atol+0x2c>
    80008294:	c219                	beqz	a2,8000829a <atol+0x48>
    80008296:	40a00533          	neg	a0,a0
    8000829a:	8082                	ret
    8000829c:	00154683          	lbu	a3,1(a0)
    800082a0:	fd378793          	addi	a5,a5,-45
    800082a4:	0017b613          	seqz	a2,a5
    800082a8:	00150793          	addi	a5,a0,1
    800082ac:	fae1                	bnez	a3,8000827c <atol+0x2a>
    800082ae:	4501                	li	a0,0
    800082b0:	b7d5                	j	80008294 <atol+0x42>
    800082b2:	4501                	li	a0,0
    800082b4:	8082                	ret

Disassembly of section .rodata:

00000000800082b8 <regnames.2671>:
    800082b8:	9178                	0x9178
    800082ba:	8000                	0x8000
    800082bc:	0000                	unimp
    800082be:	0000                	unimp
    800082c0:	91d8                	0x91d8
    800082c2:	8000                	0x8000
    800082c4:	0000                	unimp
    800082c6:	0000                	unimp
    800082c8:	91e0                	0x91e0
    800082ca:	8000                	0x8000
    800082cc:	0000                	unimp
    800082ce:	0000                	unimp
    800082d0:	91e8                	0x91e8
    800082d2:	8000                	0x8000
    800082d4:	0000                	unimp
    800082d6:	0000                	unimp
    800082d8:	91f0                	0x91f0
    800082da:	8000                	0x8000
    800082dc:	0000                	unimp
    800082de:	0000                	unimp
    800082e0:	91f8                	0x91f8
    800082e2:	8000                	0x8000
    800082e4:	0000                	unimp
    800082e6:	0000                	unimp
    800082e8:	9200                	0x9200
    800082ea:	8000                	0x8000
    800082ec:	0000                	unimp
    800082ee:	0000                	unimp
    800082f0:	9208                	0x9208
    800082f2:	8000                	0x8000
    800082f4:	0000                	unimp
    800082f6:	0000                	unimp
    800082f8:	9210                	0x9210
    800082fa:	8000                	0x8000
    800082fc:	0000                	unimp
    800082fe:	0000                	unimp
    80008300:	9218                	0x9218
    80008302:	8000                	0x8000
    80008304:	0000                	unimp
    80008306:	0000                	unimp
    80008308:	9220                	0x9220
    8000830a:	8000                	0x8000
    8000830c:	0000                	unimp
    8000830e:	0000                	unimp
    80008310:	9228                	0x9228
    80008312:	8000                	0x8000
    80008314:	0000                	unimp
    80008316:	0000                	unimp
    80008318:	9230                	0x9230
    8000831a:	8000                	0x8000
    8000831c:	0000                	unimp
    8000831e:	0000                	unimp
    80008320:	9238                	0x9238
    80008322:	8000                	0x8000
    80008324:	0000                	unimp
    80008326:	0000                	unimp
    80008328:	9240                	0x9240
    8000832a:	8000                	0x8000
    8000832c:	0000                	unimp
    8000832e:	0000                	unimp
    80008330:	9248                	0x9248
    80008332:	8000                	0x8000
    80008334:	0000                	unimp
    80008336:	0000                	unimp
    80008338:	9250                	0x9250
    8000833a:	8000                	0x8000
    8000833c:	0000                	unimp
    8000833e:	0000                	unimp
    80008340:	9258                	0x9258
    80008342:	8000                	0x8000
    80008344:	0000                	unimp
    80008346:	0000                	unimp
    80008348:	9260                	0x9260
    8000834a:	8000                	0x8000
    8000834c:	0000                	unimp
    8000834e:	0000                	unimp
    80008350:	9268                	0x9268
    80008352:	8000                	0x8000
    80008354:	0000                	unimp
    80008356:	0000                	unimp
    80008358:	9270                	0x9270
    8000835a:	8000                	0x8000
    8000835c:	0000                	unimp
    8000835e:	0000                	unimp
    80008360:	9278                	0x9278
    80008362:	8000                	0x8000
    80008364:	0000                	unimp
    80008366:	0000                	unimp
    80008368:	9280                	0x9280
    8000836a:	8000                	0x8000
    8000836c:	0000                	unimp
    8000836e:	0000                	unimp
    80008370:	9288                	0x9288
    80008372:	8000                	0x8000
    80008374:	0000                	unimp
    80008376:	0000                	unimp
    80008378:	9290                	0x9290
    8000837a:	8000                	0x8000
    8000837c:	0000                	unimp
    8000837e:	0000                	unimp
    80008380:	9298                	0x9298
    80008382:	8000                	0x8000
    80008384:	0000                	unimp
    80008386:	0000                	unimp
    80008388:	92a0                	0x92a0
    8000838a:	8000                	0x8000
    8000838c:	0000                	unimp
    8000838e:	0000                	unimp
    80008390:	92a8                	0x92a8
    80008392:	8000                	0x8000
    80008394:	0000                	unimp
    80008396:	0000                	unimp
    80008398:	92b0                	0x92b0
    8000839a:	8000                	0x8000
    8000839c:	0000                	unimp
    8000839e:	0000                	unimp
    800083a0:	92b8                	0x92b8
    800083a2:	8000                	0x8000
    800083a4:	0000                	unimp
    800083a6:	0000                	unimp
    800083a8:	92c0                	0x92c0
    800083aa:	8000                	0x8000
    800083ac:	0000                	unimp
    800083ae:	0000                	unimp
    800083b0:	92c8                	0x92c8
    800083b2:	8000                	0x8000
    800083b4:	0000                	unimp
	...

00000000800083b8 <trap_handlers.2793>:
    800083b8:	19fe                	slli	s3,s3,0x3f
    800083ba:	8000                	0x8000
    800083bc:	0000                	unimp
    800083be:	0000                	unimp
    800083c0:	19ea                	slli	s3,s3,0x3a
    800083c2:	8000                	0x8000
    800083c4:	0000                	unimp
    800083c6:	0000                	unimp
    800083c8:	19b4                	addi	a3,sp,248
    800083ca:	8000                	0x8000
    800083cc:	0000                	unimp
    800083ce:	0000                	unimp
    800083d0:	1a42                	slli	s4,s4,0x30
    800083d2:	8000                	0x8000
    800083d4:	0000                	unimp
    800083d6:	0000                	unimp
    800083d8:	19a0                	addi	s0,sp,248
    800083da:	8000                	0x8000
    800083dc:	0000                	unimp
    800083de:	0000                	unimp
    800083e0:	198c                	addi	a1,sp,240
    800083e2:	8000                	0x8000
    800083e4:	0000                	unimp
    800083e6:	0000                	unimp
    800083e8:	1978                	addi	a4,sp,188
    800083ea:	8000                	0x8000
    800083ec:	0000                	unimp
    800083ee:	0000                	unimp
    800083f0:	1964                	addi	s1,sp,188
    800083f2:	8000                	0x8000
    800083f4:	0000                	unimp
    800083f6:	0000                	unimp
    800083f8:	1a12                	slli	s4,s4,0x24
    800083fa:	8000                	0x8000
	...
    80008418:	1ac8                	addi	a0,sp,372
    8000841a:	8000                	0x8000
    8000841c:	0000                	unimp
    8000841e:	0000                	unimp
    80008420:	1a9a                	slli	s5,s5,0x26
    80008422:	8000                	0x8000
	...
    80008430:	1a6c                	addi	a1,sp,316
    80008432:	8000                	0x8000
    80008434:	0000                	unimp
	...

0000000080008438 <old_syscall_table.3128>:
    80008438:	1dba                	slli	s11,s11,0x2e
    8000843a:	8000                	0x8000
    8000843c:	0000                	unimp
    8000843e:	0000                	unimp
    80008440:	20a8                	fld	fa0,64(s1)
    80008442:	8000                	0x8000
    80008444:	0000                	unimp
    80008446:	0000                	unimp
    80008448:	2136                	fld	ft2,328(sp)
    8000844a:	8000                	0x8000
	...
    80008468:	21be                	fld	ft3,456(sp)
    8000846a:	8000                	0x8000
	...
    80008480:	1fae                	slli	t6,t6,0x2b
    80008482:	8000                	0x8000
	...
    800084a8:	23b6                	fld	ft7,328(sp)
    800084aa:	8000                	0x8000
    800084ac:	0000                	unimp
    800084ae:	0000                	unimp
    800084b0:	229e                	fld	ft5,448(sp)
    800084b2:	8000                	0x8000
	...
    80008568:	1b34                	addi	a3,sp,440
    8000856a:	8000                	0x8000
    8000856c:	0000                	unimp
	...

0000000080008570 <syscall_table.3127>:
	...
    800085f8:	23c4                	fld	fs1,128(a5)
    800085fa:	8000                	0x8000
	...
    80008628:	1dc8                	addi	a0,sp,756
    8000862a:	8000                	0x8000
	...
    80008638:	1eec                	addi	a1,sp,892
    8000863a:	8000                	0x8000
	...
    80008658:	1bb2                	slli	s7,s7,0x2c
    8000865a:	8000                	0x8000
	...
    80008680:	2142                	fld	ft2,16(sp)
    80008682:	8000                	0x8000
    80008684:	0000                	unimp
    80008686:	0000                	unimp
    80008688:	20ba                	fld	ft1,392(sp)
    8000868a:	8000                	0x8000
	...
    80008698:	1fba                	slli	t6,t6,0x2e
    8000869a:	8000                	0x8000
    8000869c:	0000                	unimp
    8000869e:	0000                	unimp
    800086a0:	1e0a                	slli	t3,t3,0x22
    800086a2:	8000                	0x8000
	...
    800086e0:	2236                	fld	ft4,328(sp)
    800086e2:	8000                	0x8000
	...
    800086f0:	1f32                	slli	t5,t5,0x2c
    800086f2:	8000                	0x8000
    800086f4:	0000                	unimp
    800086f6:	0000                	unimp
    800086f8:	21ca                	fld	ft3,144(sp)
    800086fa:	8000                	0x8000
	...
    80008730:	1d58                	addi	a4,sp,692
    80008732:	8000                	0x8000
    80008734:	0000                	unimp
    80008736:	0000                	unimp
    80008738:	1df4                	addi	a3,sp,764
    8000873a:	8000                	0x8000
	...
    80008758:	1bae                	slli	s7,s7,0x2b
    8000875a:	8000                	0x8000
    8000875c:	0000                	unimp
    8000875e:	0000                	unimp
    80008760:	2266                	fld	ft4,88(sp)
    80008762:	8000                	0x8000
    80008764:	0000                	unimp
    80008766:	0000                	unimp
    80008768:	1c4a                	slli	s8,s8,0x32
    8000876a:	8000                	0x8000
    8000876c:	0000                	unimp
    8000876e:	0000                	unimp
    80008770:	1cc2                	slli	s9,s9,0x30
    80008772:	8000                	0x8000
	...
    80008780:	1cfa                	slli	s9,s9,0x3e
    80008782:	8000                	0x8000
    80008784:	0000                	unimp
    80008786:	0000                	unimp
    80008788:	1c82                	slli	s9,s9,0x20
    8000878a:	8000                	0x8000
	...
    800087e0:	1bb2                	slli	s7,s7,0x2c
    800087e2:	8000                	0x8000
    800087e4:	0000                	unimp
    800087e6:	0000                	unimp
    800087e8:	2314                	fld	fa3,0(a4)
    800087ea:	8000                	0x8000
    800087ec:	0000                	unimp
    800087ee:	0000                	unimp
    800087f0:	2206                	fld	ft4,64(sp)
    800087f2:	8000                	0x8000
	...
    80008858:	1bb8                	addi	a4,sp,504
    8000885a:	8000                	0x8000
    8000885c:	0000                	unimp
    8000885e:	0000                	unimp
    80008860:	1bb8                	addi	a4,sp,504
    80008862:	8000                	0x8000
	...
    80008870:	1bb2                	slli	s7,s7,0x2c
    80008872:	8000                	0x8000
	...
    80008888:	1bb2                	slli	s7,s7,0x2c
    8000888a:	8000                	0x8000
	...
    800088f8:	1b92                	slli	s7,s7,0x24
    800088fa:	8000                	0x8000
	...
    800089a0:	248c                	fld	fa1,8(s1)
    800089a2:	8000                	0x8000
    800089a4:	0000                	unimp
    800089a6:	0000                	unimp
    800089a8:	24a8                	fld	fa0,72(s1)
    800089aa:	8000                	0x8000
	...
    80008a38:	1b4c                	addi	a1,sp,436
    80008a3a:	8000                	0x8000
	...
    80008a70:	2410                	fld	fa2,8(s0)
    80008a72:	8000                	0x8000
	...
    80008a88:	1bb2                	slli	s7,s7,0x2c
    80008a8a:	8000                	0x8000
    80008a8c:	0000                	unimp
    80008a8e:	0000                	unimp
    80008a90:	1bb2                	slli	s7,s7,0x2c
    80008a92:	8000                	0x8000
    80008a94:	0000                	unimp
    80008a96:	0000                	unimp
    80008a98:	1bb2                	slli	s7,s7,0x2c
    80008a9a:	8000                	0x8000
	...
    80008ab8:	1b6c                	addi	a1,sp,444
    80008aba:	8000                	0x8000
	...
    80008ad0:	1b30                	addi	a2,sp,440
    80008ad2:	8000                	0x8000
	...
    80008ae0:	24ac                	fld	fa1,72(s1)
    80008ae2:	8000                	0x8000
    80008ae4:	0000                	unimp
    80008ae6:	0000                	unimp
    80008ae8:	24ac                	fld	fa1,72(s1)
    80008aea:	8000                	0x8000
    80008aec:	0000                	unimp
    80008aee:	0000                	unimp
    80008af0:	24ac                	fld	fa1,72(s1)
    80008af2:	8000                	0x8000
    80008af4:	0000                	unimp
    80008af6:	0000                	unimp
    80008af8:	24ac                	fld	fa1,72(s1)
    80008afa:	8000                	0x8000
	...
    80008c20:	240c                	fld	fa1,8(s0)
    80008c22:	8000                	0x8000
    80008c24:	0000                	unimp
    80008c26:	0000                	unimp
    80008c28:	2480                	fld	fs0,8(s1)
    80008c2a:	8000                	0x8000
    80008c2c:	0000                	unimp
    80008c2e:	0000                	unimp
    80008c30:	2484                	fld	fs1,8(s1)
    80008c32:	8000                	0x8000
	...
    80008c60:	247c                	fld	fa5,200(s0)
    80008c62:	8000                	0x8000
	...
    80008c80:	2488                	fld	fa0,8(s1)
    80008c82:	8000                	0x8000
	...
    80008cb8:	1bb2                	slli	s7,s7,0x2c
    80008cba:	8000                	0x8000
	...
    80008d98:	1bb2                	slli	s7,s7,0x2c
    80008d9a:	8000                	0x8000
    80008d9c:	0000                	unimp
    80008d9e:	0000                	unimp
    80008da0:	9a58                	0x9a58
    80008da2:	ffff                	0xffff
    80008da4:	9a80                	0x9a80
    80008da6:	ffff                	0xffff
    80008da8:	9a94                	0x9a94
    80008daa:	ffff                	0xffff
    80008dac:	9ac0                	0x9ac0
    80008dae:	ffff                	0xffff
    80008db0:	9ad0                	0x9ad0
    80008db2:	ffff                	0xffff
    80008db4:	9a42                	add	s4,s4,a6
    80008db6:	ffff                	0xffff
    80008db8:	9a54                	0x9a54
    80008dba:	ffff                	0xffff
    80008dbc:	9a54                	0x9a54
    80008dbe:	ffff                	0xffff
    80008dc0:	9adc                	0x9adc
    80008dc2:	ffff                	0xffff

0000000080008dc4 <illegal_insn_trap_table>:
    80008dc4:	4c4a                	lw	s8,144(sp)
    80008dc6:	8000                	0x8000
    80008dc8:	4c4a                	lw	s8,144(sp)
    80008dca:	8000                	0x8000
    80008dcc:	4c4a                	lw	s8,144(sp)
    80008dce:	8000                	0x8000
    80008dd0:	4c4a                	lw	s8,144(sp)
    80008dd2:	8000                	0x8000
    80008dd4:	4c4a                	lw	s8,144(sp)
    80008dd6:	8000                	0x8000
    80008dd8:	4c4a                	lw	s8,144(sp)
    80008dda:	8000                	0x8000
    80008ddc:	4c4a                	lw	s8,144(sp)
    80008dde:	8000                	0x8000
    80008de0:	4c4a                	lw	s8,144(sp)
    80008de2:	8000                	0x8000
    80008de4:	4c4a                	lw	s8,144(sp)
    80008de6:	8000                	0x8000
    80008de8:	4c4a                	lw	s8,144(sp)
    80008dea:	8000                	0x8000
    80008dec:	4c4a                	lw	s8,144(sp)
    80008dee:	8000                	0x8000
    80008df0:	4c4a                	lw	s8,144(sp)
    80008df2:	8000                	0x8000
    80008df4:	4c4a                	lw	s8,144(sp)
    80008df6:	8000                	0x8000
    80008df8:	4c4a                	lw	s8,144(sp)
    80008dfa:	8000                	0x8000
    80008dfc:	4c4a                	lw	s8,144(sp)
    80008dfe:	8000                	0x8000
    80008e00:	4c4a                	lw	s8,144(sp)
    80008e02:	8000                	0x8000
    80008e04:	5784                	lw	s1,40(a5)
    80008e06:	8000                	0x8000
    80008e08:	5784                	lw	s1,40(a5)
    80008e0a:	8000                	0x8000
    80008e0c:	5784                	lw	s1,40(a5)
    80008e0e:	8000                	0x8000
    80008e10:	5784                	lw	s1,40(a5)
    80008e12:	8000                	0x8000
    80008e14:	4e28                	lw	a0,88(a2)
    80008e16:	8000                	0x8000
    80008e18:	4c4a                	lw	s8,144(sp)
    80008e1a:	8000                	0x8000
    80008e1c:	4c4a                	lw	s8,144(sp)
    80008e1e:	8000                	0x8000
    80008e20:	4c4a                	lw	s8,144(sp)
    80008e22:	8000                	0x8000
    80008e24:	4c4a                	lw	s8,144(sp)
    80008e26:	8000                	0x8000
    80008e28:	4c4a                	lw	s8,144(sp)
    80008e2a:	8000                	0x8000
    80008e2c:	4c4a                	lw	s8,144(sp)
    80008e2e:	8000                	0x8000
    80008e30:	4c4a                	lw	s8,144(sp)
    80008e32:	8000                	0x8000
    80008e34:	4c54                	lw	a3,28(s0)
    80008e36:	8000                	0x8000
    80008e38:	4c4a                	lw	s8,144(sp)
    80008e3a:	8000                	0x8000
    80008e3c:	4c4a                	lw	s8,144(sp)
    80008e3e:	8000                	0x8000
    80008e40:	4c4a                	lw	s8,144(sp)
    80008e42:	8000                	0x8000
    80008e44:	be66                	fsd	fs9,312(sp)
    80008e46:	ffff                	0xffff
    80008e48:	bf2e                	fsd	fa1,440(sp)
    80008e4a:	ffff                	0xffff
    80008e4c:	bf98                	fsd	fa4,56(a5)
    80008e4e:	ffff                	0xffff
    80008e50:	bf8a                	fsd	ft2,504(sp)
    80008e52:	ffff                	0xffff
    80008e54:	be66                	fsd	fs9,312(sp)
    80008e56:	ffff                	0xffff
    80008e58:	bf2c                	fsd	fa1,120(a4)
    80008e5a:	ffff                	0xffff
    80008e5c:	bf66                	fsd	fs9,440(sp)
    80008e5e:	ffff                	0xffff
    80008e60:	bf7c                	fsd	fa5,248(a4)
    80008e62:	ffff                	0xffff

0000000080008e64 <fp_emulation_table>:
    80008e64:	4f22                	lw	t5,8(sp)
    80008e66:	8000                	0x8000
    80008e68:	4f28                	lw	a0,88(a4)
    80008e6a:	8000                	0x8000
    80008e6c:	4f30                	lw	a2,88(a4)
    80008e6e:	8000                	0x8000
    80008e70:	4fda                	lw	t6,148(sp)
    80008e72:	8000                	0x8000
    80008e74:	510c                	lw	a1,32(a0)
    80008e76:	8000                	0x8000
    80008e78:	51de                	lw	gp,244(sp)
    80008e7a:	8000                	0x8000
    80008e7c:	4c4a                	lw	s8,144(sp)
    80008e7e:	8000                	0x8000
    80008e80:	4c4a                	lw	s8,144(sp)
    80008e82:	8000                	0x8000
    80008e84:	530c                	lw	a1,32(a4)
    80008e86:	8000                	0x8000
    80008e88:	4c4a                	lw	s8,144(sp)
    80008e8a:	8000                	0x8000
    80008e8c:	4c4a                	lw	s8,144(sp)
    80008e8e:	8000                	0x8000
    80008e90:	5084                	lw	s1,32(s1)
    80008e92:	8000                	0x8000
    80008e94:	4c4a                	lw	s8,144(sp)
    80008e96:	8000                	0x8000
    80008e98:	4c4a                	lw	s8,144(sp)
    80008e9a:	8000                	0x8000
    80008e9c:	4c4a                	lw	s8,144(sp)
    80008e9e:	8000                	0x8000
    80008ea0:	4c4a                	lw	s8,144(sp)
    80008ea2:	8000                	0x8000
    80008ea4:	4c4a                	lw	s8,144(sp)
    80008ea6:	8000                	0x8000
    80008ea8:	4c4a                	lw	s8,144(sp)
    80008eaa:	8000                	0x8000
    80008eac:	4c4a                	lw	s8,144(sp)
    80008eae:	8000                	0x8000
    80008eb0:	4c4a                	lw	s8,144(sp)
    80008eb2:	8000                	0x8000
    80008eb4:	558e                	lw	a1,224(sp)
    80008eb6:	8000                	0x8000
    80008eb8:	4c4a                	lw	s8,144(sp)
    80008eba:	8000                	0x8000
    80008ebc:	4c4a                	lw	s8,144(sp)
    80008ebe:	8000                	0x8000
    80008ec0:	4c4a                	lw	s8,144(sp)
    80008ec2:	8000                	0x8000
    80008ec4:	5458                	lw	a4,44(s0)
    80008ec6:	8000                	0x8000
    80008ec8:	4c4a                	lw	s8,144(sp)
    80008eca:	8000                	0x8000
    80008ecc:	5398                	lw	a4,32(a5)
    80008ece:	8000                	0x8000
    80008ed0:	4c4a                	lw	s8,144(sp)
    80008ed2:	8000                	0x8000
    80008ed4:	5672                	lw	a2,60(sp)
    80008ed6:	8000                	0x8000
    80008ed8:	4c4a                	lw	s8,144(sp)
    80008eda:	8000                	0x8000
    80008edc:	571c                	lw	a5,40(a4)
    80008ede:	8000                	0x8000
    80008ee0:	4c4a                	lw	s8,144(sp)
    80008ee2:	8000                	0x8000
    80008ee4:	0000                	unimp
	...

0000000080008ee8 <softfloat_approxRecip_1k1s>:
    80008ee8:	f0f1                	bnez	s1,80008eac <fp_emulation_table+0x48>
    80008eea:	d62c                	sw	a1,104(a2)
    80008eec:	bfa1                	j	80008e44 <illegal_insn_trap_table+0x80>
    80008eee:	9c0aac77          	0x9c0aac77
    80008ef2:	81858ddb          	0x81858ddb
    80008ef6:	76ba                	ld	a3,424(sp)
    80008ef8:	64d46d3b          	0x64d46d3b
    80008efc:	5d5c                	lw	a5,60(a0)
    80008efe:	56b1                	li	a3,-20
    80008f00:	50b6                	lw	ra,108(sp)
    80008f02:	4b55                	li	s6,21
    80008f04:	4679                	li	a2,30
    80008f06:	4211                	li	tp,4

0000000080008f08 <softfloat_approxRecip_1k0s>:
    80008f08:	ffc4                	sd	s1,184(a5)
    80008f0a:	f0be                	sd	a5,96(sp)
    80008f0c:	d76fe363          	bltu	t6,s6,80008472 <old_syscall_table.3128+0x3a>
    80008f10:	ccad                	beqz	s1,80008f8a <softfloat_countLeadingZeros8+0x22>
    80008f12:	c2f0                	sw	a2,68(a3)
    80008f14:	ba16                	fsd	ft5,304(sp)
    80008f16:	b201                	j	80008816 <syscall_table.3127+0x2a6>
    80008f18:	a3c6aa97          	auipc	s5,0xa3c6a
    80008f1c:	9d7a                	add	s10,s10,t5
    80008f1e:	97a6                	add	a5,a5,s1
    80008f20:	923c                	0x923c
    80008f22:	8d32                	mv	s10,a2
    80008f24:	887e                	mv	a6,t6
    80008f26:	          	auipc	s0,0xa5a58

0000000080008f28 <softfloat_approxRecipSqrt_1k1s>:
    80008f28:	a5a5                	j	80009590 <softfloat_countLeadingZeros8+0x628>
    80008f2a:	ea42                	sd	a6,272(sp)
    80008f2c:	8c21                	xor	s0,s0,s0
    80008f2e:	c62d                	beqz	a2,80008f98 <softfloat_countLeadingZeros8+0x30>
    80008f30:	aa7f788f          	0xaa7f788f
    80008f34:	6928                	ld	a0,80(a0)
    80008f36:	94b6                	add	s1,s1,a3
    80008f38:	83355cc7          	fmsub.d	fs9,fa0,fs3,fa6,unknown
    80008f3c:	52a6                	lw	t0,104(sp)
    80008f3e:	74e2                	ld	s1,56(sp)
    80008f40:	4a3e                	lw	s4,204(sp)
    80008f42:	68fe                	ld	a7,472(sp)
    80008f44:	5efd432b          	0x5efd432b

0000000080008f48 <softfloat_approxRecipSqrt_1k0s>:
    80008f48:	b4c9                	j	80008a0a <syscall_table.3127+0x49a>
    80008f4a:	aa7dffab          	0xaa7dffab
    80008f4e:	f11c                	sd	a5,32(a0)
    80008f50:	a1c5                	j	80009430 <softfloat_countLeadingZeros8+0x4c8>
    80008f52:	9a43e4c7          	fmsub.d	fs1,ft7,ft4,fs3,unknown
    80008f56:	da29                	beqz	a2,80008ea8 <fp_emulation_table+0x44>
    80008f58:	93b5                	srli	a5,a5,0x2d
    80008f5a:	d0e5                	beqz	s1,80008f3a <softfloat_approxRecipSqrt_1k1s+0x12>
    80008f5c:	8ded                	and	a1,a1,a1
    80008f5e:	88c6c8b7          	lui	a7,0x88c6c
    80008f62:	c16d                	beqz	a0,80009044 <softfloat_countLeadingZeros8+0xdc>
    80008f64:	8424                	0x8424
    80008f66:	bae1                	j	8000893e <syscall_table.3127+0x3ce>

0000000080008f68 <softfloat_countLeadingZeros8>:
    80008f68:	0708                	addi	a0,sp,896
    80008f6a:	0606                	slli	a2,a2,0x1
    80008f6c:	0505                	addi	a0,a0,1
    80008f6e:	0505                	addi	a0,a0,1
    80008f70:	0404                	addi	s1,sp,512
    80008f72:	0404                	addi	s1,sp,512
    80008f74:	0404                	addi	s1,sp,512
    80008f76:	0404                	addi	s1,sp,512
    80008f78:	03030303          	lb	t1,48(t1)
    80008f7c:	03030303          	lb	t1,48(t1)
    80008f80:	03030303          	lb	t1,48(t1)
    80008f84:	03030303          	lb	t1,48(t1)
    80008f88:	0202                	c.slli64	tp
    80008f8a:	0202                	c.slli64	tp
    80008f8c:	0202                	c.slli64	tp
    80008f8e:	0202                	c.slli64	tp
    80008f90:	0202                	c.slli64	tp
    80008f92:	0202                	c.slli64	tp
    80008f94:	0202                	c.slli64	tp
    80008f96:	0202                	c.slli64	tp
    80008f98:	0202                	c.slli64	tp
    80008f9a:	0202                	c.slli64	tp
    80008f9c:	0202                	c.slli64	tp
    80008f9e:	0202                	c.slli64	tp
    80008fa0:	0202                	c.slli64	tp
    80008fa2:	0202                	c.slli64	tp
    80008fa4:	0202                	c.slli64	tp
    80008fa6:	0202                	c.slli64	tp
    80008fa8:	0101                	addi	sp,sp,0
    80008faa:	0101                	addi	sp,sp,0
    80008fac:	0101                	addi	sp,sp,0
    80008fae:	0101                	addi	sp,sp,0
    80008fb0:	0101                	addi	sp,sp,0
    80008fb2:	0101                	addi	sp,sp,0
    80008fb4:	0101                	addi	sp,sp,0
    80008fb6:	0101                	addi	sp,sp,0
    80008fb8:	0101                	addi	sp,sp,0
    80008fba:	0101                	addi	sp,sp,0
    80008fbc:	0101                	addi	sp,sp,0
    80008fbe:	0101                	addi	sp,sp,0
    80008fc0:	0101                	addi	sp,sp,0
    80008fc2:	0101                	addi	sp,sp,0
    80008fc4:	0101                	addi	sp,sp,0
    80008fc6:	0101                	addi	sp,sp,0
    80008fc8:	0101                	addi	sp,sp,0
    80008fca:	0101                	addi	sp,sp,0
    80008fcc:	0101                	addi	sp,sp,0
    80008fce:	0101                	addi	sp,sp,0
    80008fd0:	0101                	addi	sp,sp,0
    80008fd2:	0101                	addi	sp,sp,0
    80008fd4:	0101                	addi	sp,sp,0
    80008fd6:	0101                	addi	sp,sp,0
    80008fd8:	0101                	addi	sp,sp,0
    80008fda:	0101                	addi	sp,sp,0
    80008fdc:	0101                	addi	sp,sp,0
    80008fde:	0101                	addi	sp,sp,0
    80008fe0:	0101                	addi	sp,sp,0
    80008fe2:	0101                	addi	sp,sp,0
    80008fe4:	0101                	addi	sp,sp,0
    80008fe6:	0101                	addi	sp,sp,0
	...
    80009068:	f060                	sd	s0,224(s0)
    8000906a:	ffff                	0xffff
    8000906c:	f000                	sd	s0,32(s0)
    8000906e:	ffff                	0xffff
    80009070:	efde                	sd	s7,472(sp)
    80009072:	ffff                	0xffff
    80009074:	efde                	sd	s7,472(sp)
    80009076:	ffff                	0xffff
    80009078:	efde                	sd	s7,472(sp)
    8000907a:	ffff                	0xffff
    8000907c:	efde                	sd	s7,472(sp)
    8000907e:	ffff                	0xffff
    80009080:	efde                	sd	s7,472(sp)
    80009082:	ffff                	0xffff
    80009084:	efde                	sd	s7,472(sp)
    80009086:	ffff                	0xffff
    80009088:	efde                	sd	s7,472(sp)
    8000908a:	ffff                	0xffff
    8000908c:	efdc                	sd	a5,152(a5)
    8000908e:	ffff                	0xffff
    80009090:	efde                	sd	s7,472(sp)
    80009092:	ffff                	0xffff
    80009094:	efde                	sd	s7,472(sp)
    80009096:	ffff                	0xffff
    80009098:	efde                	sd	s7,472(sp)
    8000909a:	ffff                	0xffff
    8000909c:	ef7c                	sd	a5,216(a4)
    8000909e:	ffff                	0xffff
    800090a0:	efde                	sd	s7,472(sp)
    800090a2:	ffff                	0xffff
    800090a4:	efde                	sd	s7,472(sp)
    800090a6:	ffff                	0xffff
    800090a8:	ef20                	sd	s0,88(a4)
    800090aa:	ffff                	0xffff
    800090ac:	efde                	sd	s7,472(sp)
    800090ae:	ffff                	0xffff
    800090b0:	efde                	sd	s7,472(sp)
    800090b2:	ffff                	0xffff
    800090b4:	efde                	sd	s7,472(sp)
    800090b6:	ffff                	0xffff
    800090b8:	efde                	sd	s7,472(sp)
    800090ba:	ffff                	0xffff
    800090bc:	ef0e                	sd	gp,408(sp)
    800090be:	ffff                	0xffff
    800090c0:	2072                	fld	ft0,280(sp)
    800090c2:	3d3d                	addiw	s10,s10,-17
    800090c4:	3020                	fld	fs0,96(s0)
    800090c6:	0000                	unimp
    800090c8:	6e75                	lui	t3,0x1d
    800090ca:	6572                	ld	a0,280(sp)
    800090cc:	6e676f63          	bltu	a4,t1,800097ca <softfloat_countLeadingZeros8+0x862>
    800090d0:	7a69                	lui	s4,0xffffa
    800090d2:	6465                	lui	s0,0x19
    800090d4:	6f20                	ld	s0,88(a4)
    800090d6:	7470                	ld	a2,232(s0)
    800090d8:	6f69                	lui	t5,0x1a
    800090da:	3a6e                	fld	fs4,248(sp)
    800090dc:	6020                	ld	s0,64(s0)
    800090de:	6325                	lui	t1,0x9
    800090e0:	00000a27          	0xa27
    800090e4:	0000                	unimp
    800090e6:	0000                	unimp
    800090e8:	6574                	ld	a3,200(a0)
    800090ea:	6c6c                	ld	a1,216(s0)
    800090ec:	6d20                	ld	s0,88(a0)
    800090ee:	2065                	0x2065
    800090f0:	74616877          	0x74616877
    800090f4:	4520                	lw	s0,72(a0)
    800090f6:	464c                	lw	a1,12(a2)
    800090f8:	7420                	ld	s0,104(s0)
    800090fa:	6f6c206f          	j	800cb7f0 <_end+0xb57f0>
    800090fe:	6461                	lui	s0,0x18
    80009100:	0a21                	addi	s4,s4,8
    80009102:	0000                	unimp
    80009104:	0000                	unimp
    80009106:	0000                	unimp
    80009108:	7270                	ld	a2,224(a2)
    8000910a:	7665                	lui	a2,0xffff9
    8000910c:	3e20                	fld	fs0,120(a2)
    8000910e:	3020                	fld	fs0,96(s0)
	...
    80009118:	5349                	li	t1,-14
    8000911a:	455f 464c 3436      	0x3436464c455f
    80009120:	6528                	ld	a0,72(a0)
    80009122:	2968                	fld	fa0,208(a0)
    80009124:	0000                	unimp
    80009126:	0000                	unimp
    80009128:	2e2e                	fld	ft8,200(sp)
    8000912a:	2f6b702f          	0x2f6b702f
    8000912e:	6c65                	lui	s8,0x19
    80009130:	2e66                	fld	ft8,88(sp)
    80009132:	00000063          	beqz	zero,80009132 <softfloat_countLeadingZeros8+0x1ca>
    80009136:	0000                	unimp
    80009138:	7325                	lui	t1,0xfffe9
    8000913a:	253a                	fld	fa0,392(sp)
    8000913c:	3a64                	fld	fs1,240(a2)
    8000913e:	6120                	ld	s0,64(a0)
    80009140:	72657373          	csrrci	t1,0x726,10
    80009144:	6974                	ld	a3,208(a0)
    80009146:	66206e6f          	jal	t3,8000f7a8 <stacks+0x27a8>
    8000914a:	6961                	lui	s2,0x18
    8000914c:	656c                	ld	a1,200(a0)
    8000914e:	3a64                	fld	fs1,240(a2)
    80009150:	2520                	fld	fs0,72(a0)
    80009152:	00000a73          	0xa73
    80009156:	0000                	unimp
    80009158:	6c756f63          	bltu	a0,t2,80009836 <softfloat_countLeadingZeros8+0x8ce>
    8000915c:	6e64                	ld	s1,216(a2)
    8000915e:	6f207427          	0x6f207427
    80009162:	6570                	ld	a2,200(a0)
    80009164:	206e                	fld	ft0,216(sp)
    80009166:	4c45                	li	s8,17
    80009168:	2046                	fld	ft0,80(sp)
    8000916a:	7270                	ld	a2,224(a2)
    8000916c:	6172676f          	jal	a4,8002ff82 <_end+0x19f82>
    80009170:	3a6d                	addiw	s4,s4,-5
    80009172:	2520                	fld	fs0,72(a0)
    80009174:	000a2173          	csrrs	sp,ustatus,s4
    80009178:	207a                	fld	ft0,408(sp)
    8000917a:	0000                	unimp
    8000917c:	0000                	unimp
    8000917e:	0000                	unimp
    80009180:	7325                	lui	t1,0xfffe9
    80009182:	2520                	fld	fs0,72(a0)
    80009184:	786c                	ld	a1,240(s0)
    80009186:	6325                	lui	t1,0x9
	...
    80009190:	6370                	ld	a2,192(a4)
    80009192:	2520                	fld	fs0,72(a0)
    80009194:	786c                	ld	a1,240(s0)
    80009196:	7620                	ld	s0,104(a2)
    80009198:	2061                	0x2061
    8000919a:	6c25                	lui	s8,0x9
    8000919c:	2078                	fld	fa4,192(s0)
    8000919e:	6e69                	lui	t3,0x1a
    800091a0:	20206e73          	csrrsi	t3,hedeleg,0
    800091a4:	2020                	fld	fs0,64(s0)
    800091a6:	2020                	fld	fs0,64(s0)
    800091a8:	2520                	fld	fs0,72(a0)
    800091aa:	2078                	fld	fa4,192(s0)
    800091ac:	25207273          	csrrci	tp,0x252,0
    800091b0:	786c                	ld	a1,240(s0)
    800091b2:	000a                	c.slli	zero,0x2
    800091b4:	0000                	unimp
    800091b6:	0000                	unimp
    800091b8:	7361                	lui	t1,0xffff8
    800091ba:	74726573          	csrrsi	a0,0x747,4
    800091be:	6f69                	lui	t5,0x1a
    800091c0:	206e                	fld	ft0,216(sp)
    800091c2:	6166                	ld	sp,88(sp)
    800091c4:	6c69                	lui	s8,0x1a
    800091c6:	6465                	lui	s0,0x19
    800091c8:	4020                	lw	s0,64(s0)
    800091ca:	2520                	fld	fs0,72(a0)
    800091cc:	3a70                	fld	fa2,240(a2)
    800091ce:	2520                	fld	fs0,72(a0)
    800091d0:	00000a73          	0xa73
    800091d4:	0000                	unimp
    800091d6:	0000                	unimp
    800091d8:	6172                	ld	sp,280(sp)
    800091da:	0000                	unimp
    800091dc:	0000                	unimp
    800091de:	0000                	unimp
    800091e0:	00007073          	csrci	ustatus,0
    800091e4:	0000                	unimp
    800091e6:	0000                	unimp
    800091e8:	00007067          	0x7067
    800091ec:	0000                	unimp
    800091ee:	0000                	unimp
    800091f0:	7074                	ld	a3,224(s0)
    800091f2:	0000                	unimp
    800091f4:	0000                	unimp
    800091f6:	0000                	unimp
    800091f8:	3074                	fld	fa3,224(s0)
    800091fa:	0000                	unimp
    800091fc:	0000                	unimp
    800091fe:	0000                	unimp
    80009200:	3174                	fld	fa3,224(a0)
    80009202:	0000                	unimp
    80009204:	0000                	unimp
    80009206:	0000                	unimp
    80009208:	3274                	fld	fa3,224(a2)
    8000920a:	0000                	unimp
    8000920c:	0000                	unimp
    8000920e:	0000                	unimp
    80009210:	00003073          	csrc	ustatus,zero
    80009214:	0000                	unimp
    80009216:	0000                	unimp
    80009218:	00003173          	csrrc	sp,ustatus,zero
    8000921c:	0000                	unimp
    8000921e:	0000                	unimp
    80009220:	3061                	0x3061
    80009222:	0000                	unimp
    80009224:	0000                	unimp
    80009226:	0000                	unimp
    80009228:	3161                	addiw	sp,sp,-8
    8000922a:	0000                	unimp
    8000922c:	0000                	unimp
    8000922e:	0000                	unimp
    80009230:	3261                	addiw	tp,tp,-8
    80009232:	0000                	unimp
    80009234:	0000                	unimp
    80009236:	0000                	unimp
    80009238:	3361                	addiw	t1,t1,-8
    8000923a:	0000                	unimp
    8000923c:	0000                	unimp
    8000923e:	0000                	unimp
    80009240:	3461                	addiw	s0,s0,-8
    80009242:	0000                	unimp
    80009244:	0000                	unimp
    80009246:	0000                	unimp
    80009248:	3561                	addiw	a0,a0,-8
    8000924a:	0000                	unimp
    8000924c:	0000                	unimp
    8000924e:	0000                	unimp
    80009250:	3661                	addiw	a2,a2,-8
    80009252:	0000                	unimp
    80009254:	0000                	unimp
    80009256:	0000                	unimp
    80009258:	3761                	addiw	a4,a4,-8
    8000925a:	0000                	unimp
    8000925c:	0000                	unimp
    8000925e:	0000                	unimp
    80009260:	00003273          	csrrc	tp,ustatus,zero
    80009264:	0000                	unimp
    80009266:	0000                	unimp
    80009268:	00003373          	csrrc	t1,ustatus,zero
    8000926c:	0000                	unimp
    8000926e:	0000                	unimp
    80009270:	00003473          	csrrc	s0,ustatus,zero
    80009274:	0000                	unimp
    80009276:	0000                	unimp
    80009278:	00003573          	csrrc	a0,ustatus,zero
    8000927c:	0000                	unimp
    8000927e:	0000                	unimp
    80009280:	00003673          	csrrc	a2,ustatus,zero
    80009284:	0000                	unimp
    80009286:	0000                	unimp
    80009288:	00003773          	csrrc	a4,ustatus,zero
    8000928c:	0000                	unimp
    8000928e:	0000                	unimp
    80009290:	00003873          	csrrc	a6,ustatus,zero
    80009294:	0000                	unimp
    80009296:	0000                	unimp
    80009298:	00003973          	csrrc	s2,ustatus,zero
    8000929c:	0000                	unimp
    8000929e:	0000                	unimp
    800092a0:	00004173          	0x4173
    800092a4:	0000                	unimp
    800092a6:	0000                	unimp
    800092a8:	00004273          	0x4273
    800092ac:	0000                	unimp
    800092ae:	0000                	unimp
    800092b0:	3374                	fld	fa3,224(a4)
    800092b2:	0000                	unimp
    800092b4:	0000                	unimp
    800092b6:	0000                	unimp
    800092b8:	3474                	fld	fa3,232(s0)
    800092ba:	0000                	unimp
    800092bc:	0000                	unimp
    800092be:	0000                	unimp
    800092c0:	3574                	fld	fa3,232(a0)
    800092c2:	0000                	unimp
    800092c4:	0000                	unimp
    800092c6:	0000                	unimp
    800092c8:	3674                	fld	fa3,232(a2)
    800092ca:	0000                	unimp
    800092cc:	0000                	unimp
    800092ce:	0000                	unimp
    800092d0:	656e                	ld	a0,216(sp)
    800092d2:	7478                	ld	a4,232(s0)
    800092d4:	665f 6572 5f65      	0x5f656572665f
    800092da:	6170                	ld	a2,192(a0)
    800092dc:	21206567          	0x21206567
    800092e0:	203d                	0x203d
    800092e2:	7266                	ld	tp,120(sp)
    800092e4:	6565                	lui	a0,0x19
    800092e6:	705f 6761 7365      	0x73656761705f
    800092ec:	0000                	unimp
    800092ee:	0000                	unimp
    800092f0:	6572                	ld	a0,280(sp)
    800092f2:	2074                	fld	fa3,192(s0)
    800092f4:	203e                	fld	ft0,456(sp)
    800092f6:	0030                	addi	a2,sp,8
    800092f8:	7470                	ld	a2,232(s0)
    800092fa:	0065                	c.nop	25
    800092fc:	0000                	unimp
    800092fe:	0000                	unimp
    80009300:	5f5f 6168 646e      	0x646e61685f5f
    80009306:	656c                	ld	a1,200(a0)
    80009308:	705f 6761 5f65      	0x5f656761705f
    8000930e:	6166                	ld	sp,88(sp)
    80009310:	6c75                	lui	s8,0x1d
    80009312:	2874                	fld	fa3,208(s0)
    80009314:	2c61                	addiw	s8,s8,24
    80009316:	7020                	ld	s0,96(s0)
    80009318:	6f72                	ld	t5,280(sp)
    8000931a:	2974                	fld	fa3,208(a0)
    8000931c:	3d20                	fld	fs0,120(a0)
    8000931e:	203d                	0x203d
    80009320:	0030                	addi	a2,sp,8
    80009322:	0000                	unimp
    80009324:	0000                	unimp
    80009326:	0000                	unimp
    80009328:	5f5f 6f64 6d5f      	0x6d5f6f645f5f
    8000932e:	616d                	addi	sp,sp,240
    80009330:	2870                	fld	fa2,208(s0)
    80009332:	72727563          	bgeu	tp,t2,80009a5c <softfloat_countLeadingZeros8+0xaf4>
    80009336:	6e65                	lui	t3,0x19
    80009338:	2e74                	fld	fa3,216(a2)
    8000933a:	7262                	ld	tp,56(sp)
    8000933c:	6e202c6b          	0x6e202c6b
    80009340:	7765                	lui	a4,0xffff9
    80009342:	7262                	ld	tp,56(sp)
    80009344:	61705f6b          	0x61705f6b
    80009348:	2d206567          	0x2d206567
    8000934c:	6320                	ld	s0,64(a4)
    8000934e:	7275                	lui	tp,0xffffd
    80009350:	6572                	ld	a0,280(sp)
    80009352:	746e                	ld	s0,248(sp)
    80009354:	622e                	ld	tp,200(sp)
    80009356:	6b72                	ld	s6,280(sp)
    80009358:	202c                	fld	fa1,64(s0)
    8000935a:	312d                	addiw	sp,sp,-21
    8000935c:	202c                	fld	fa1,64(s0)
    8000935e:	414d                	li	sp,19
    80009360:	5f50                	lw	a2,60(a4)
    80009362:	4946                	lw	s2,80(sp)
    80009364:	4558                	lw	a4,12(a0)
    80009366:	7c44                	ld	s1,184(s0)
    80009368:	414d                	li	sp,19
    8000936a:	5f50                	lw	a2,60(a4)
    8000936c:	5250                	lw	a2,36(a2)
    8000936e:	5649                	li	a2,-14
    80009370:	5441                	li	s0,-16
    80009372:	7c45                	lui	s8,0xffff1
    80009374:	414d                	li	sp,19
    80009376:	5f50                	lw	a2,60(a4)
    80009378:	4e41                	li	t3,16
    8000937a:	4d594e4f          	0x4d594e4f
    8000937e:	2c53554f          	0x2c53554f
    80009382:	3020                	fld	fs0,96(s0)
    80009384:	202c                	fld	fa1,64(s0)
    80009386:	2930                	fld	fa2,80(a0)
    80009388:	3d20                	fld	fs0,120(a0)
    8000938a:	203d                	0x203d
    8000938c:	72727563          	bgeu	tp,t2,80009ab6 <softfloat_countLeadingZeros8+0xb4e>
    80009390:	6e65                	lui	t3,0x19
    80009392:	2e74                	fld	fa3,216(a2)
    80009394:	7262                	ld	tp,56(sp)
    80009396:	7473006b          	0x7473006b
    8000939a:	6361                	lui	t1,0x18
    8000939c:	6f625f6b          	0x6f625f6b
    800093a0:	7474                	ld	a3,232(s0)
    800093a2:	21206d6f          	jal	s10,8000f5b4 <stacks+0x25b4>
    800093a6:	203d                	0x203d
    800093a8:	7528                	ld	a0,104(a0)
    800093aa:	6e69                	lui	t3,0x1a
    800093ac:	7074                	ld	a3,224(s0)
    800093ae:	7274                	ld	a3,224(a2)
    800093b0:	745f 2d29 0031      	0x312d29745f
    800093b6:	0000                	unimp
    800093b8:	6e72654b          	fnmsub.q	fa0,ft4,ft7,fa3,unknown
    800093bc:	6c65                	lui	s8,0x19
    800093be:	0000                	unimp
    800093c0:	7355                	lui	t1,0xffff5
    800093c2:	7265                	lui	tp,0xffff9
    800093c4:	0000                	unimp
    800093c6:	0000                	unimp
    800093c8:	7325                	lui	t1,0xfffe9
    800093ca:	2520                	fld	fs0,72(a0)
    800093cc:	65732073          	csrs	0x657,t1
    800093d0:	75616667          	0x75616667
    800093d4:	746c                	ld	a1,232(s0)
    800093d6:	4020                	lw	s0,64(s0)
    800093d8:	2520                	fld	fs0,72(a0)
    800093da:	0a70                	addi	a2,sp,284
    800093dc:	0000                	unimp
    800093de:	0000                	unimp
    800093e0:	726f7453          	0x726f7453
    800093e4:	2f65                	addiw	t5,t5,25
    800093e6:	4d41                	li	s10,16
    800093e8:	6361204f          	fnmadd.d	ft0,ft2,fs6,fa2,rdn
    800093ec:	73736563          	bltu	t1,s7,80009b16 <softfloat_countLeadingZeros8+0xbae>
    800093f0:	6620                	ld	s0,72(a2)
    800093f2:	7561                	lui	a0,0xffff8
    800093f4:	746c                	ld	a1,232(s0)
    800093f6:	0a21                	addi	s4,s4,8
	...
    80009400:	694d                	lui	s2,0x13
    80009402:	696c6173          	csrrsi	sp,0x696,24
    80009406:	64656e67          	0x64656e67
    8000940a:	4120                	lw	s0,64(a0)
    8000940c:	4f4d                	li	t5,19
    8000940e:	0a21                	addi	s4,s4,8
	...
    80009418:	6f4c                	ld	a1,152(a4)
    8000941a:	6461                	lui	s0,0x18
    8000941c:	6120                	ld	s0,64(a0)
    8000941e:	73656363          	bltu	a0,s6,80009b44 <softfloat_countLeadingZeros8+0xbdc>
    80009422:	61662073          	csrs	0x616,a2
    80009426:	6c75                	lui	s8,0x1d
    80009428:	2174                	fld	fa3,192(a0)
    8000942a:	000a                	c.slli	zero,0x2
    8000942c:	0000                	unimp
    8000942e:	0000                	unimp
    80009430:	694d                	lui	s2,0x13
    80009432:	696c6173          	csrrsi	sp,0x696,24
    80009436:	64656e67          	0x64656e67
    8000943a:	4c20                	lw	s0,88(s0)
    8000943c:	2164616f          	jal	sp,8004f652 <_end+0x39652>
    80009440:	000a                	c.slli	zero,0x2
    80009442:	0000                	unimp
    80009444:	0000                	unimp
    80009446:	0000                	unimp
    80009448:	6e41                	lui	t3,0x10
    8000944a:	6920                	ld	s0,80(a0)
    8000944c:	6c6c                	ld	a1,216(s0)
    8000944e:	6765                	lui	a4,0x19
    80009450:	6c61                	lui	s8,0x18
    80009452:	6920                	ld	s0,80(a0)
    80009454:	736e                	ld	t1,248(sp)
    80009456:	7274                	ld	a3,224(a2)
    80009458:	6375                	lui	t1,0x1d
    8000945a:	6974                	ld	a3,208(a0)
    8000945c:	77206e6f          	jal	t3,8000fbce <stacks+0x2bce>
    80009460:	7361                	lui	t1,0xffff8
    80009462:	6520                	ld	s0,72(a0)
    80009464:	6578                	ld	a4,200(a0)
    80009466:	65747563          	bgeu	s0,s7,80009ab0 <softfloat_countLeadingZeros8+0xb48>
    8000946a:	2164                	fld	fs1,192(a0)
    8000946c:	000a                	c.slli	zero,0x2
    8000946e:	0000                	unimp
    80009470:	6e49                	lui	t3,0x12
    80009472:	75727473          	csrrci	s0,0x757,4
    80009476:	6f697463          	bgeu	s2,s6,80009b5e <softfloat_countLeadingZeros8+0xbf6>
    8000947a:	206e                	fld	ft0,216(sp)
    8000947c:	6361                	lui	t1,0x18
    8000947e:	73736563          	bltu	t1,s7,80009ba8 <softfloat_countLeadingZeros8+0xc40>
    80009482:	6620                	ld	s0,72(a2)
    80009484:	7561                	lui	a0,0xffff8
    80009486:	746c                	ld	a1,232(s0)
    80009488:	0a21                	addi	s4,s4,8
    8000948a:	0000                	unimp
    8000948c:	0000                	unimp
    8000948e:	0000                	unimp
    80009490:	694d                	lui	s2,0x13
    80009492:	696c6173          	csrrsi	sp,0x696,24
    80009496:	64656e67          	0x64656e67
    8000949a:	6920                	ld	s0,80(a0)
    8000949c:	736e                	ld	t1,248(sp)
    8000949e:	7274                	ld	a3,224(a2)
    800094a0:	6375                	lui	t1,0x1d
    800094a2:	6974                	ld	a3,208(a0)
    800094a4:	61206e6f          	jal	t3,8000fab6 <stacks+0x2ab6>
    800094a8:	73656363          	bltu	a0,s6,80009bce <softfloat_countLeadingZeros8+0xc66>
    800094ac:	000a2173          	csrrs	sp,ustatus,s4
    800094b0:	7242                	ld	tp,48(sp)
    800094b2:	6165                	addi	sp,sp,112
    800094b4:	696f706b          	0x696f706b
    800094b8:	746e                	ld	s0,248(sp)
    800094ba:	0a21                	addi	s4,s4,8
    800094bc:	0000                	unimp
    800094be:	0000                	unimp
    800094c0:	726f7473          	csrrci	s0,0x726,30
    800094c4:	0065                	c.nop	25
    800094c6:	0000                	unimp
    800094c8:	6f6c                	ld	a1,216(a4)
    800094ca:	6461                	lui	s0,0x18
    800094cc:	0000                	unimp
    800094ce:	0000                	unimp
    800094d0:	6566                	ld	a0,88(sp)
    800094d2:	6374                	ld	a3,192(a4)
    800094d4:	0068                	addi	a0,sp,12
    800094d6:	0000                	unimp
    800094d8:	6674                	ld	a3,200(a2)
    800094da:	3e2d                	addiw	t3,t3,-21
    800094dc:	73756163          	bltu	a0,s7,80009bfe <softfloat_countLeadingZeros8+0xc96>
    800094e0:	2065                	0x2065
    800094e2:	203c                	fld	fa5,64(s0)
    800094e4:	5241                	li	tp,-16
    800094e6:	4152                	lw	sp,20(sp)
    800094e8:	5f59                	li	t5,-10
    800094ea:	455a4953          	0x455a4953
    800094ee:	7428                	ld	a0,104(s0)
    800094f0:	6172                	ld	sp,280(sp)
    800094f2:	5f70                	lw	a2,124(a4)
    800094f4:	6168                	ld	a0,192(a0)
    800094f6:	646e                	ld	s0,216(sp)
    800094f8:	656c                	ld	a1,200(a0)
    800094fa:	7372                	ld	t1,312(sp)
    800094fc:	2029                	0x2029
    800094fe:	2626                	fld	fa2,72(sp)
    80009500:	7420                	ld	s0,104(s0)
    80009502:	6172                	ld	sp,280(sp)
    80009504:	5f70                	lw	a2,124(a4)
    80009506:	6168                	ld	a0,192(a0)
    80009508:	646e                	ld	s0,216(sp)
    8000950a:	656c                	ld	a1,200(a0)
    8000950c:	7372                	ld	t1,312(sp)
    8000950e:	2d66745b          	0x2d66745b
    80009512:	633e                	ld	t1,456(sp)
    80009514:	7561                	lui	a0,0xffff8
    80009516:	005d6573          	csrrsi	a0,utvec,26
    8000951a:	0000                	unimp
    8000951c:	0000                	unimp
    8000951e:	0000                	unimp
    80009520:	6c25                	lui	s8,0x9
    80009522:	2064                	fld	fs1,192(s0)
    80009524:	6974                	ld	a3,208(a0)
    80009526:	0a736b63          	bltu	t1,t2,800095dc <softfloat_countLeadingZeros8+0x674>
    8000952a:	0000                	unimp
    8000952c:	0000                	unimp
    8000952e:	0000                	unimp
    80009530:	6c25                	lui	s8,0x9
    80009532:	2064                	fld	fs1,192(s0)
    80009534:	6c637963          	bgeu	t1,t1,80009c06 <softfloat_countLeadingZeros8+0xc9e>
    80009538:	7365                	lui	t1,0xffff9
    8000953a:	000a                	c.slli	zero,0x2
    8000953c:	0000                	unimp
    8000953e:	0000                	unimp
    80009540:	6c25                	lui	s8,0x9
    80009542:	2064                	fld	fs1,192(s0)
    80009544:	6e69                	lui	t3,0x1a
    80009546:	75727473          	csrrci	s0,0x757,4
    8000954a:	6f697463          	bgeu	s2,s6,80009c32 <softfloat_countLeadingZeros8+0xcca>
    8000954e:	736e                	ld	t1,248(sp)
    80009550:	000a                	c.slli	zero,0x2
    80009552:	0000                	unimp
    80009554:	0000                	unimp
    80009556:	0000                	unimp
    80009558:	6425                	lui	s0,0x9
    8000955a:	252e                	fld	fa0,200(sp)
    8000955c:	2564                	fld	fs1,200(a0)
    8000955e:	2064                	fld	fs1,192(s0)
    80009560:	0a495043          	fmadd.d	ft0,fs2,ft4,ft1,unknown
    80009564:	0000                	unimp
    80009566:	0000                	unimp
    80009568:	7250                	ld	a2,160(a2)
    8000956a:	2079786f          	jal	a6,800a0f70 <_end+0x8af70>
    8000956e:	6e72654b          	fnmsub.q	fa0,ft4,ft7,fa3,unknown
    80009572:	6c65                	lui	s8,0x19
    80009574:	0000                	unimp
    80009576:	0000                	unimp
    80009578:	2e34                	fld	fa3,88(a2)
    8000957a:	3531                	addiw	a0,a0,-20
    8000957c:	302e                	fld	ft0,232(sp)
    8000957e:	0000                	unimp
    80009580:	6162                	ld	sp,24(sp)
    80009582:	2064                	fld	fs1,192(s0)
    80009584:	63737973          	csrrci	s2,0x637,6
    80009588:	6c61                	lui	s8,0x18
    8000958a:	206c                	fld	fa1,192(s0)
    8000958c:	646c2523          	sw	t1,1610(s8) # 1864a <_ftext-0x7ffe79b6>
    80009590:	0a21                	addi	s4,s4,8
    80009592:	0000                	unimp
    80009594:	0000                	unimp
    80009596:	0000                	unimp
    80009598:	6f50                	ld	a2,152(a4)
    8000959a:	20726577          	0x20726577
    8000959e:	0d66666f          	jal	a2,8006f674 <_end+0x59674>
    800095a2:	000a                	c.slli	zero,0x2
    800095a4:	0000                	unimp
    800095a6:	0000                	unimp
    800095a8:	2e2e                	fld	ft8,200(sp)
    800095aa:	63616d2f          	0x63616d2f
    800095ae:	6968                	ld	a0,208(a0)
    800095b0:	656e                	ld	a0,216(sp)
    800095b2:	72746d2f          	0x72746d2f
    800095b6:	7061                	c.lui	zero,0xffff8
    800095b8:	632e                	ld	t1,200(sp)
    800095ba:	0000                	unimp
    800095bc:	0000                	unimp
    800095be:	0000                	unimp
    800095c0:	7325                	lui	t1,0xfffe9
    800095c2:	253a                	fld	fa0,392(sp)
    800095c4:	3a64                	fld	fs1,240(a2)
    800095c6:	6d20                	ld	s0,88(a0)
    800095c8:	6361                	lui	t1,0x18
    800095ca:	6968                	ld	a0,208(a0)
    800095cc:	656e                	ld	a0,216(sp)
    800095ce:	6d20                	ld	s0,88(a0)
    800095d0:	3a65646f          	jal	s0,8005f976 <_end+0x49976>
    800095d4:	7520                	ld	s0,104(a0)
    800095d6:	686e                	ld	a6,216(sp)
    800095d8:	6e61                	lui	t3,0x18
    800095da:	6c64                	ld	s1,216(s0)
    800095dc:	6261                	lui	tp,0x18
    800095de:	656c                	ld	a1,200(a0)
    800095e0:	7420                	ld	s0,104(s0)
    800095e2:	6172                	ld	sp,280(sp)
    800095e4:	2070                	fld	fa2,192(s0)
    800095e6:	6425                	lui	s0,0x9
    800095e8:	4020                	lw	s0,64(s0)
    800095ea:	2520                	fld	fs0,72(a0)
    800095ec:	0a70                	addi	a2,sp,284
    800095ee:	0000                	unimp
    800095f0:	6572                	ld	a0,280(sp)
    800095f2:	6461                	lui	s0,0x18
    800095f4:	635f 7273 6d28      	0x6d287273635f
    800095fa:	74617473          	csrrci	s0,0x746,2
    800095fe:	7375                	lui	t1,0xffffd
    80009600:	2029                	0x2029
    80009602:	2026                	fld	ft0,72(sp)
    80009604:	534d                	li	t1,-13
    80009606:	4154                	lw	a3,4(a0)
    80009608:	5554                	lw	a3,44(a0)
    8000960a:	53465f53          	0x53465f53
    8000960e:	0000                	unimp
    80009610:	2e2e                	fld	ft8,200(sp)
    80009612:	63616d2f          	0x63616d2f
    80009616:	6968                	ld	a0,208(a0)
    80009618:	656e                	ld	a0,216(sp)
    8000961a:	6e696d2f          	0x6e696d2f
    8000961e:	7469                	lui	s0,0xffffa
    80009620:	632e                	ld	t1,200(sp)
    80009622:	0000                	unimp
    80009624:	0000                	unimp
    80009626:	0000                	unimp
    80009628:	6572                	ld	a0,280(sp)
    8000962a:	6461                	lui	s0,0x18
    8000962c:	635f 7273 6d28      	0x6d287273635f
    80009632:	6469                	lui	s0,0x1a
    80009634:	6c65                	lui	s8,0x19
    80009636:	6765                	lui	a4,0x19
    80009638:	2029                	0x2029
    8000963a:	3d3d                	addiw	s10,s10,-17
    8000963c:	6920                	ld	s0,80(a0)
    8000963e:	746e                	ld	s0,248(sp)
    80009640:	7265                	lui	tp,0xffff9
    80009642:	7572                	ld	a0,312(sp)
    80009644:	7470                	ld	a2,232(s0)
    80009646:	65720073          	0x65720073
    8000964a:	6461                	lui	s0,0x18
    8000964c:	635f 7273 6d28      	0x6d287273635f
    80009652:	6465                	lui	s0,0x19
    80009654:	6c65                	lui	s8,0x19
    80009656:	6765                	lui	a4,0x19
    80009658:	2029                	0x2029
    8000965a:	3d3d                	addiw	s10,s10,-17
    8000965c:	6520                	ld	s0,72(a0)
    8000965e:	6378                	ld	a4,192(a4)
    80009660:	7065                	c.lui	zero,0xffff9
    80009662:	6974                	ld	a3,208(a0)
    80009664:	00736e6f          	jal	t3,8003fe6a <_end+0x29e6a>
    80009668:	6262                	ld	tp,24(sp)
    8000966a:	206c                	fld	fa1,192(s0)
    8000966c:	6f6c                	ld	a1,216(a4)
    8000966e:	6461                	lui	s0,0x18
    80009670:	7265                	lui	tp,0xffff9
    80009672:	0a0d                	addi	s4,s4,3
    80009674:	0000                	unimp
    80009676:	0000                	unimp
    80009678:	5246                	lw	tp,112(sp)
    8000967a:	4f484d4f          	fnmadd.q	fs10,fa6,fs4,fs1,rmm
    8000967e:	445f5453          	0x445f5453
    80009682:	5645                	li	a2,-15
    80009684:	6628                	ld	a0,72(a2)
    80009686:	2968                	fld	fa0,208(a0)
    80009688:	3d20                	fld	fs0,120(a0)
    8000968a:	203d                	0x203d
    8000968c:	0031                	c.nop	12
    8000968e:	0000                	unimp
    80009690:	2e2e                	fld	ft8,200(sp)
    80009692:	63616d2f          	0x63616d2f
    80009696:	6968                	ld	a0,208(a0)
    80009698:	656e                	ld	a0,216(sp)
    8000969a:	6974682f          	0x6974682f
    8000969e:	2e66                	fld	ft8,88(sp)
    800096a0:	00000063          	beqz	zero,800096a0 <softfloat_countLeadingZeros8+0x738>
    800096a4:	0000                	unimp
    800096a6:	0000                	unimp
    800096a8:	706d6f63          	bltu	s10,t1,80009dc6 <softfloat_countLeadingZeros8+0xe5e>
    800096ac:	7461                	lui	s0,0xffff8
    800096ae:	6269                	lui	tp,0x1a
    800096b0:	656c                	ld	a1,200(a0)
    800096b2:	0000                	unimp
    800096b4:	0000                	unimp
    800096b6:	0000                	unimp
    800096b8:	6375                	lui	t1,0x1d
    800096ba:	2c62                	fld	fs8,24(sp)
    800096bc:	7468                	ld	a0,232(s0)
    800096be:	6669                	lui	a2,0x1a
    800096c0:	0030                	addi	a2,sp,8
    800096c2:	0000                	unimp
    800096c4:	0000                	unimp
    800096c6:	0000                	unimp
    800096c8:	69666973          	csrrsi	s2,0x696,12
    800096cc:	6576                	ld	a0,344(sp)
    800096ce:	752c                	ld	a1,104(a0)
    800096d0:	7261                	lui	tp,0xffff8
    800096d2:	3074                	fld	fa3,224(s0)
    800096d4:	0000                	unimp
    800096d6:	0000                	unimp
    800096d8:	6572                	ld	a0,280(sp)
    800096da:	00000067          	jr	zero # 0 <_ftext-0x80000000>
    800096de:	0000                	unimp
    800096e0:	736e                	ld	t1,248(sp)
    800096e2:	3631                	addiw	a2,a2,-20
    800096e4:	3535                	addiw	a0,a0,-19
    800096e6:	6130                	ld	a2,64(a0)
	...
    800096f0:	69666973          	csrrsi	s2,0x696,12
    800096f4:	6576                	ld	a0,344(sp)
    800096f6:	742c                	ld	a1,104(s0)
    800096f8:	7365                	lui	t1,0xffff9
    800096fa:	3074                	fld	fa3,224(s0)
    800096fc:	0000                	unimp
    800096fe:	0000                	unimp
    80009700:	6e616373          	csrrsi	t1,0x6e6,2
    80009704:	3e2d                	addiw	t3,t3,-21
    80009706:	6572                	ld	a0,280(sp)
    80009708:	3d212067          	0x3d212067
    8000970c:	3020                	fld	fs0,96(s0)
    8000970e:	0000                	unimp
    80009710:	2e2e                	fld	ft8,200(sp)
    80009712:	63616d2f          	0x63616d2f
    80009716:	6968                	ld	a0,208(a0)
    80009718:	656e                	ld	a0,216(sp)
    8000971a:	7464662f          	0x7464662f
    8000971e:	632e                	ld	t1,200(sp)
	...
    80009728:	6e616373          	csrrsi	t1,0x6e6,2
    8000972c:	3e2d                	addiw	t3,t3,-21
    8000972e:	6e69                	lui	t3,0x1a
    80009730:	5f74                	lw	a3,124(a4)
    80009732:	6176                	ld	sp,344(sp)
    80009734:	756c                	ld	a1,232(a0)
    80009736:	2065                	0x2065
    80009738:	2626                	fld	fa2,72(sp)
    8000973a:	7320                	ld	s0,96(a4)
    8000973c:	2d6e6163          	bltu	t3,s6,800099fe <softfloat_countLeadingZeros8+0xa96>
    80009740:	693e                	ld	s2,456(sp)
    80009742:	746e                	ld	s0,248(sp)
    80009744:	6c5f 6e65 2520      	0x25206e656c5f
    8000974a:	3120                	fld	fs0,96(a0)
    8000974c:	2036                	fld	ft0,328(sp)
    8000974e:	3d3d                	addiw	s10,s10,-17
    80009750:	3020                	fld	fs0,96(s0)
    80009752:	0000                	unimp
    80009754:	0000                	unimp
    80009756:	0000                	unimp
    80009758:	7321                	lui	t1,0xfffe8
    8000975a:	2d6e6163          	bltu	t3,s6,80009a1c <softfloat_countLeadingZeros8+0xab4>
    8000975e:	643e                	ld	s0,456(sp)
    80009760:	00656e6f          	jal	t3,8005f766 <_end+0x49766>
    80009764:	0000                	unimp
    80009766:	0000                	unimp
    80009768:	6e616373          	csrrsi	t1,0x6e6,2
    8000976c:	3e2d                	addiw	t3,t3,-21
    8000976e:	6e69                	lui	t3,0x1a
    80009770:	5f74                	lw	a3,124(a4)
    80009772:	6176                	ld	sp,344(sp)
    80009774:	756c                	ld	a1,232(a0)
    80009776:	2065                	0x2065
    80009778:	2626                	fld	fa2,72(sp)
    8000977a:	7320                	ld	s0,96(a4)
    8000977c:	2d6e6163          	bltu	t3,s6,80009a3e <softfloat_countLeadingZeros8+0xad6>
    80009780:	693e                	ld	s2,456(sp)
    80009782:	746e                	ld	s0,248(sp)
    80009784:	6c5f 6e65 2520      	0x25206e656c5f
    8000978a:	3820                	fld	fs0,112(s0)
    8000978c:	3d20                	fld	fs0,120(a0)
    8000978e:	203d                	0x203d
    80009790:	0030                	addi	a2,sp,8
    80009792:	0000                	unimp
    80009794:	0000                	unimp
    80009796:	0000                	unimp
    80009798:	6e616373          	csrrsi	t1,0x6e6,2
    8000979c:	3e2d                	addiw	t3,t3,-21
    8000979e:	646e                	ld	s0,216(sp)
    800097a0:	7665                	lui	a2,0xffff9
    800097a2:	3e20                	fld	fs0,120(a2)
    800097a4:	203d                	0x203d
    800097a6:	2030                	fld	fa2,64(s0)
    800097a8:	2626                	fld	fa2,72(sp)
    800097aa:	7320                	ld	s0,96(a4)
    800097ac:	2d6e6163          	bltu	t3,s6,80009a6e <softfloat_countLeadingZeros8+0xb06>
    800097b0:	6e3e                	ld	t3,456(sp)
    800097b2:	6564                	ld	s1,200(a0)
    800097b4:	2076                	fld	ft0,344(sp)
    800097b6:	203c                	fld	fa5,64(s0)
    800097b8:	3031                	0x3031
    800097ba:	3432                	fld	fs0,296(sp)
    800097bc:	0000                	unimp
    800097be:	0000                	unimp
    800097c0:	4c50                	lw	a2,28(s0)
    800097c2:	4349                	li	t1,18
    800097c4:	7720                	ld	s0,104(a4)
    800097c6:	7269                	lui	tp,0xffffa
    800097c8:	6465                	lui	s0,0x19
    800097ca:	6820                	ld	s0,80(s0)
    800097cc:	7261                	lui	tp,0xffff8
    800097ce:	2074                	fld	fa3,192(s0)
    800097d0:	6425                	lui	s0,0x9
    800097d2:	7420                	ld	s0,104(s0)
    800097d4:	7277206f          	j	8007c6fa <_end+0x666fa>
    800097d8:	20676e6f          	jal	t3,8007f9de <_end+0x699de>
    800097dc:	6e69                	lui	t3,0x1a
    800097de:	6574                	ld	a3,200(a0)
    800097e0:	7272                	ld	tp,312(sp)
    800097e2:	7075                	c.lui	zero,0xffffd
    800097e4:	2074                	fld	fa3,192(s0)
    800097e6:	6425                	lui	s0,0x9
	...
    800097f0:	6e616373          	csrrsi	t1,0x6e6,2
    800097f4:	3e2d                	addiw	t3,t3,-21
    800097f6:	6572                	ld	a0,280(sp)
    800097f8:	61765f67          	0x61765f67
    800097fc:	756c                	ld	a1,232(a0)
    800097fe:	2065                	0x2065
    80009800:	2626                	fld	fa2,72(sp)
    80009802:	7320                	ld	s0,96(a4)
    80009804:	2d6e6163          	bltu	t3,s6,80009ac6 <softfloat_countLeadingZeros8+0xb5e>
    80009808:	723e                	ld	tp,488(sp)
    8000980a:	6765                	lui	a4,0x19
    8000980c:	6c5f 6e65 2520      	0x25206e656c5f
    80009812:	3420                	fld	fs0,104(s0)
    80009814:	3d20                	fld	fs0,120(a0)
    80009816:	203d                	0x203d
    80009818:	0030                	addi	a2,sp,8
    8000981a:	0000                	unimp
    8000981c:	0000                	unimp
    8000981e:	0000                	unimp
    80009820:	6e65                	lui	t3,0x19
    80009822:	2064                	fld	fs1,192(s0)
    80009824:	3d3d                	addiw	s10,s10,-17
    80009826:	7620                	ld	s0,104(a2)
    80009828:	6c61                	lui	s8,0x18
    8000982a:	6575                	lui	a0,0x1d
    8000982c:	0000                	unimp
    8000982e:	0000                	unimp
    80009830:	6564                	ld	s1,200(a0)
    80009832:	6976                	ld	s2,344(sp)
    80009834:	745f6563          	bltu	t5,t0,80009f7e <softfloat_countLeadingZeros8+0x1016>
    80009838:	7079                	c.lui	zero,0xffffe
    8000983a:	0065                	c.nop	25
    8000983c:	0000                	unimp
    8000983e:	0000                	unimp
    80009840:	656d                	lui	a0,0x1b
    80009842:	6f6d                	lui	t5,0x1b
    80009844:	7972                	ld	s2,312(sp)
    80009846:	0000                	unimp
    80009848:	736f6863          	bltu	t5,s6,80009f78 <softfloat_countLeadingZeros8+0x1010>
    8000984c:	6e65                	lui	t3,0x19
    8000984e:	0000                	unimp
    80009850:	00757063          	bgeu	a0,t2,80009850 <softfloat_countLeadingZeros8+0x8e8>
    80009854:	0000                	unimp
    80009856:	0000                	unimp
    80009858:	7321                	lui	t1,0xfffe8
    8000985a:	2d6e6163          	bltu	t3,s6,80009b1c <softfloat_countLeadingZeros8+0xbb4>
    8000985e:	633e                	ld	t1,456(sp)
    80009860:	7570                	ld	a2,232(a0)
    80009862:	0000                	unimp
    80009864:	0000                	unimp
    80009866:	0000                	unimp
    80009868:	6e69                	lui	t3,0x1a
    8000986a:	6574                	ld	a3,200(a0)
    8000986c:	7272                	ld	tp,312(sp)
    8000986e:	7075                	c.lui	zero,0xffffd
    80009870:	2d74                	fld	fa3,216(a0)
    80009872:	746e6f63          	bltu	t3,t1,80009fd0 <softfloat_countLeadingZeros8+0x1068>
    80009876:	6f72                	ld	t5,280(sp)
    80009878:	6c6c                	ld	a1,216(s0)
    8000987a:	7265                	lui	tp,0xffff9
    8000987c:	0000                	unimp
    8000987e:	0000                	unimp
    80009880:	7321                	lui	t1,0xfffe8
    80009882:	2d6e6163          	bltu	t3,s6,80009b44 <softfloat_countLeadingZeros8+0xbdc>
    80009886:	633e                	ld	t1,456(sp)
    80009888:	72746e6f          	jal	t3,800507ae <_end+0x3a7ae>
    8000988c:	656c6c6f          	jal	s8,800cfee2 <_end+0xb9ee2>
    80009890:	0072                	c.slli	zero,0x1c
    80009892:	0000                	unimp
    80009894:	0000                	unimp
    80009896:	0000                	unimp
    80009898:	746e6923          	0x746e6923
    8000989c:	7265                	lui	tp,0xffff9
    8000989e:	7572                	ld	a0,312(sp)
    800098a0:	7470                	ld	a2,232(s0)
    800098a2:	632d                	lui	t1,0xb
    800098a4:	6c65                	lui	s8,0x19
    800098a6:	736c                	ld	a1,224(a4)
	...
    800098b0:	6870                	ld	a2,208(s0)
    800098b2:	6e61                	lui	t3,0x18
    800098b4:	6c64                	ld	s1,216(s0)
    800098b6:	0065                	c.nop	25
    800098b8:	6d6d                	lui	s10,0x1b
    800098ba:	2d75                	addiw	s10,s10,29
    800098bc:	7974                	ld	a3,240(a0)
    800098be:	6570                	ld	a2,200(a0)
	...
    800098c8:	6c21                	lui	s8,0x8
    800098ca:	7361                	lui	t1,0xffff8
    800098cc:	0074                	addi	a3,sp,12
    800098ce:	0000                	unimp
    800098d0:	64646123          	0x64646123
    800098d4:	6572                	ld	a0,280(sp)
    800098d6:	632d7373          	csrrci	t1,0x632,26
    800098da:	6c65                	lui	s8,0x19
    800098dc:	736c                	ld	a1,224(a4)
    800098de:	0000                	unimp
    800098e0:	7a697323          	0x7a697323
    800098e4:	2d65                	addiw	s10,s10,25
    800098e6:	6c6c6563          	bltu	s8,t1,80009fb0 <softfloat_countLeadingZeros8+0x1048>
    800098ea:	00000073          	ecall
    800098ee:	0000                	unimp
    800098f0:	6e616373          	csrrsi	t1,0x6e6,2
    800098f4:	3e2d                	addiw	t3,t3,-21
    800098f6:	6168                	ld	a0,192(a0)
    800098f8:	7472                	ld	s0,312(sp)
    800098fa:	3e20                	fld	fs0,120(a2)
    800098fc:	203d                	0x203d
    800098fe:	0030                	addi	a2,sp,8
    80009900:	6e616373          	csrrsi	t1,0x6e6,2
    80009904:	3e2d                	addiw	t3,t3,-21
    80009906:	6870                	ld	a2,208(s0)
    80009908:	6e61                	lui	t3,0x18
    8000990a:	6c64                	ld	s1,216(s0)
    8000990c:	2065                	0x2065
    8000990e:	203e                	fld	ft0,456(sp)
    80009910:	0030                	addi	a2,sp,8
    80009912:	0000                	unimp
    80009914:	0000                	unimp
    80009916:	0000                	unimp
    80009918:	6e616373          	csrrsi	t1,0x6e6,2
    8000991c:	3e2d                	addiw	t3,t3,-21
    8000991e:	6c6c6563          	bltu	s8,t1,80009fe8 <softfloat_countLeadingZeros8+0x1080>
    80009922:	3d3d2073          	csrs	0x3d3,s10
    80009926:	3120                	fld	fs0,96(a0)
	...
    80009930:	6966                	ld	s2,88(sp)
    80009932:	746c                	ld	a1,232(s0)
    80009934:	7265                	lui	tp,0xffff9
    80009936:	3e2d                	addiw	t3,t3,-21
    80009938:	74617473          	csrrci	s0,0x746,2
    8000993c:	7375                	lui	t1,0xffffd
    8000993e:	0000                	unimp
    80009940:	6966                	ld	s2,88(sp)
    80009942:	746c                	ld	a1,232(s0)
    80009944:	7265                	lui	tp,0xffff9
    80009946:	3e2d                	addiw	t3,t3,-21
    80009948:	6168                	ld	a0,192(a0)
    8000994a:	7472                	ld	s0,312(sp)
    8000994c:	3e20                	fld	fs0,120(a2)
    8000994e:	203d                	0x203d
    80009950:	0030                	addi	a2,sp,8
    80009952:	0000                	unimp
    80009954:	0000                	unimp
    80009956:	0000                	unimp
    80009958:	79616b6f          	jal	s6,800200ee <_end+0xa0ee>
    8000995c:	0000                	unimp
    8000995e:	0000                	unimp
    80009960:	6972                	ld	s2,280(sp)
    80009962:	2c766373          	csrrsi	t1,0x2c7,12
    80009966:	39337673          	csrrci	a2,0x393,6
    8000996a:	0000                	unimp
    8000996c:	0000                	unimp
    8000996e:	0000                	unimp
    80009970:	6972                	ld	s2,280(sp)
    80009972:	2c766373          	csrrsi	t1,0x2c7,12
    80009976:	38347673          	csrrci	a2,mibound,8
    8000997a:	0000                	unimp
    8000997c:	0000                	unimp
    8000997e:	0000                	unimp
    80009980:	6168                	ld	a0,192(a0)
    80009982:	7472                	ld	s0,312(sp)
    80009984:	665f 6c69 6574      	0x65746c69665f
    8000998a:	5f72                	lw	t5,60(sp)
    8000998c:	616d                	addi	sp,sp,240
    8000998e:	73206b73          	csrrsi	s6,0x732,0
    80009992:	7761                	lui	a4,0xffff8
    80009994:	7520                	ld	s0,104(a0)
    80009996:	6b6e                	ld	s6,216(sp)
    80009998:	6f6e                	ld	t5,216(sp)
    8000999a:	68206e77          	0x68206e77
    8000999e:	7261                	lui	tp,0xffff8
    800099a0:	2074                	fld	fa3,192(s0)
    800099a2:	7974                	ld	a3,240(a0)
    800099a4:	6570                	ld	a2,200(a0)
    800099a6:	203a                	fld	ft0,392(sp)
    800099a8:	74617473          	csrrci	s0,0x746,2
    800099ac:	7375                	lui	t1,0xffffd
    800099ae:	223d                	addiw	tp,tp,15
    800099b0:	7325                	lui	t1,0xfffe9
    800099b2:	2c22                	fld	fs8,8(sp)
    800099b4:	6d20                	ld	s0,88(a0)
    800099b6:	756d                	lui	a0,0xffffb
    800099b8:	745f 7079 3d65      	0x3d657079745f
    800099be:	2522                	fld	fa0,8(sp)
    800099c0:	000a2273          	csrrs	tp,ustatus,s4
    800099c4:	0000                	unimp
    800099c6:	0000                	unimp
    800099c8:	616d                	addi	sp,sp,240
    800099ca:	64656b73          	csrrsi	s6,0x646,10
    800099ce:	0000                	unimp
    800099d0:	6972                	ld	s2,280(sp)
    800099d2:	2c766373          	csrrsi	t1,0x2c7,12
    800099d6:	6e72656b          	0x6e72656b
    800099da:	6c65                	lui	s8,0x19
    800099dc:	732d                	lui	t1,0xfffeb
    800099de:	6174                	ld	a3,192(a0)
    800099e0:	7472                	ld	s0,312(sp)
    800099e2:	0000                	unimp
    800099e4:	0000                	unimp
    800099e6:	0000                	unimp
    800099e8:	6972                	ld	s2,280(sp)
    800099ea:	2c766373          	csrrsi	t1,0x2c7,12
    800099ee:	6e72656b          	0x6e72656b
    800099f2:	6c65                	lui	s8,0x19
    800099f4:	652d                	lui	a0,0xb
    800099f6:	646e                	ld	s0,216(sp)
	...
    80009a00:	6972                	ld	s2,280(sp)
    80009a02:	2c766373          	csrrsi	t1,0x2c7,12
    80009a06:	6e696c63          	bltu	s2,t1,8000a0fe <tohost+0xf6>
    80009a0a:	3074                	fld	fa3,224(s0)
    80009a0c:	0000                	unimp
    80009a0e:	0000                	unimp
    80009a10:	6e69                	lui	t3,0x1a
    80009a12:	6574                	ld	a3,200(a0)
    80009a14:	7272                	ld	tp,312(sp)
    80009a16:	7075                	c.lui	zero,0xffffd
    80009a18:	7374                	ld	a3,224(a4)
    80009a1a:	652d                	lui	a0,0xb
    80009a1c:	7478                	ld	a4,232(s0)
    80009a1e:	6e65                	lui	t3,0x19
    80009a20:	6564                	ld	s1,200(a0)
    80009a22:	0064                	addi	s1,sp,12
    80009a24:	0000                	unimp
    80009a26:	0000                	unimp
    80009a28:	6972                	ld	s2,280(sp)
    80009a2a:	2c766373          	csrrsi	t1,0x2c7,12
    80009a2e:	6c70                	ld	a2,216(s0)
    80009a30:	6369                	lui	t1,0x1a
    80009a32:	0030                	addi	a2,sp,8
    80009a34:	0000                	unimp
    80009a36:	0000                	unimp
    80009a38:	6972                	ld	s2,280(sp)
    80009a3a:	2c766373          	csrrsi	t1,0x2c7,12
    80009a3e:	646e                	ld	s0,216(sp)
    80009a40:	7665                	lui	a2,0xffff9
    80009a42:	0000                	unimp
    80009a44:	0000                	unimp
    80009a46:	0000                	unimp
    80009a48:	656d                	lui	a0,0x1b
    80009a4a:	5f6d                	li	t5,-5
    80009a4c:	657a6973          	csrrsi	s2,0x657,20
    80009a50:	3e20                	fld	fs0,120(a2)
    80009a52:	3020                	fld	fs0,96(s0)
    80009a54:	0000                	unimp
    80009a56:	0000                	unimp
    80009a58:	6828                	ld	a0,80(s0)
    80009a5a:	7261                	lui	tp,0xffff8
    80009a5c:	5f74                	lw	a3,124(a4)
    80009a5e:	616d                	addi	sp,sp,240
    80009a60:	3e206b73          	csrrsi	s6,0x3e2,0
    80009a64:	203e                	fld	ft0,456(sp)
    80009a66:	6572                	ld	a0,280(sp)
    80009a68:	6461                	lui	s0,0x18
    80009a6a:	635f 7273 6d28      	0x6d287273635f
    80009a70:	6168                	ld	a0,192(a0)
    80009a72:	7472                	ld	s0,312(sp)
    80009a74:	6469                	lui	s0,0x1a
    80009a76:	2929                	addiw	s2,s2,10
    80009a78:	2120                	fld	fs0,64(a0)
    80009a7a:	203d                	0x203d
    80009a7c:	0030                	addi	a2,sp,8
    80009a7e:	0000                	unimp
    80009a80:	6e616373          	csrrsi	t1,0x6e6,2
    80009a84:	642e                	ld	s0,200(sp)
    80009a86:	00656e6f          	jal	t3,8005fa8c <_end+0x49a8c>
    80009a8a:	0000                	unimp
    80009a8c:	0000                	unimp
	...

Disassembly of section .htif:

000000008000a000 <fromhost>:
	...

000000008000a008 <tohost>:
	...

Disassembly of section .data:

000000008000b000 <files>:
    8000b000:	ffff                	0xffff
    8000b002:	ffff                	0xffff
    8000b004:	0000                	unimp
    8000b006:	0000                	unimp
    8000b008:	ffff                	0xffff
    8000b00a:	ffff                	0xffff
    8000b00c:	0000                	unimp
    8000b00e:	0000                	unimp
    8000b010:	ffff                	0xffff
    8000b012:	ffff                	0xffff
    8000b014:	0000                	unimp
    8000b016:	0000                	unimp
    8000b018:	ffff                	0xffff
    8000b01a:	ffff                	0xffff
    8000b01c:	0000                	unimp
    8000b01e:	0000                	unimp
    8000b020:	ffff                	0xffff
    8000b022:	ffff                	0xffff
    8000b024:	0000                	unimp
    8000b026:	0000                	unimp
    8000b028:	ffff                	0xffff
    8000b02a:	ffff                	0xffff
    8000b02c:	0000                	unimp
    8000b02e:	0000                	unimp
    8000b030:	ffff                	0xffff
    8000b032:	ffff                	0xffff
    8000b034:	0000                	unimp
    8000b036:	0000                	unimp
    8000b038:	ffff                	0xffff
    8000b03a:	ffff                	0xffff
    8000b03c:	0000                	unimp
    8000b03e:	0000                	unimp
    8000b040:	ffff                	0xffff
    8000b042:	ffff                	0xffff
    8000b044:	0000                	unimp
    8000b046:	0000                	unimp
    8000b048:	ffff                	0xffff
    8000b04a:	ffff                	0xffff
    8000b04c:	0000                	unimp
    8000b04e:	0000                	unimp
    8000b050:	ffff                	0xffff
    8000b052:	ffff                	0xffff
    8000b054:	0000                	unimp
    8000b056:	0000                	unimp
    8000b058:	ffff                	0xffff
    8000b05a:	ffff                	0xffff
    8000b05c:	0000                	unimp
    8000b05e:	0000                	unimp
    8000b060:	ffff                	0xffff
    8000b062:	ffff                	0xffff
    8000b064:	0000                	unimp
    8000b066:	0000                	unimp
    8000b068:	ffff                	0xffff
    8000b06a:	ffff                	0xffff
    8000b06c:	0000                	unimp
    8000b06e:	0000                	unimp
    8000b070:	ffff                	0xffff
    8000b072:	ffff                	0xffff
    8000b074:	0000                	unimp
    8000b076:	0000                	unimp
    8000b078:	ffff                	0xffff
    8000b07a:	ffff                	0xffff
    8000b07c:	0000                	unimp
    8000b07e:	0000                	unimp
    8000b080:	ffff                	0xffff
    8000b082:	ffff                	0xffff
    8000b084:	0000                	unimp
    8000b086:	0000                	unimp
    8000b088:	ffff                	0xffff
    8000b08a:	ffff                	0xffff
    8000b08c:	0000                	unimp
    8000b08e:	0000                	unimp
    8000b090:	ffff                	0xffff
    8000b092:	ffff                	0xffff
    8000b094:	0000                	unimp
    8000b096:	0000                	unimp
    8000b098:	ffff                	0xffff
    8000b09a:	ffff                	0xffff
    8000b09c:	0000                	unimp
    8000b09e:	0000                	unimp
    8000b0a0:	ffff                	0xffff
    8000b0a2:	ffff                	0xffff
    8000b0a4:	0000                	unimp
    8000b0a6:	0000                	unimp
    8000b0a8:	ffff                	0xffff
    8000b0aa:	ffff                	0xffff
    8000b0ac:	0000                	unimp
    8000b0ae:	0000                	unimp
    8000b0b0:	ffff                	0xffff
    8000b0b2:	ffff                	0xffff
    8000b0b4:	0000                	unimp
    8000b0b6:	0000                	unimp
    8000b0b8:	ffff                	0xffff
    8000b0ba:	ffff                	0xffff
    8000b0bc:	0000                	unimp
    8000b0be:	0000                	unimp
    8000b0c0:	ffff                	0xffff
    8000b0c2:	ffff                	0xffff
    8000b0c4:	0000                	unimp
    8000b0c6:	0000                	unimp
    8000b0c8:	ffff                	0xffff
    8000b0ca:	ffff                	0xffff
    8000b0cc:	0000                	unimp
    8000b0ce:	0000                	unimp
    8000b0d0:	ffff                	0xffff
    8000b0d2:	ffff                	0xffff
    8000b0d4:	0000                	unimp
    8000b0d6:	0000                	unimp
    8000b0d8:	ffff                	0xffff
    8000b0da:	ffff                	0xffff
    8000b0dc:	0000                	unimp
    8000b0de:	0000                	unimp
    8000b0e0:	ffff                	0xffff
    8000b0e2:	ffff                	0xffff
    8000b0e4:	0000                	unimp
    8000b0e6:	0000                	unimp
    8000b0e8:	ffff                	0xffff
    8000b0ea:	ffff                	0xffff
    8000b0ec:	0000                	unimp
    8000b0ee:	0000                	unimp
    8000b0f0:	ffff                	0xffff
    8000b0f2:	ffff                	0xffff
    8000b0f4:	0000                	unimp
    8000b0f6:	0000                	unimp
    8000b0f8:	ffff                	0xffff
    8000b0fa:	ffff                	0xffff
    8000b0fc:	0000                	unimp
    8000b0fe:	0000                	unimp
    8000b100:	ffff                	0xffff
    8000b102:	ffff                	0xffff
    8000b104:	0000                	unimp
    8000b106:	0000                	unimp
    8000b108:	ffff                	0xffff
    8000b10a:	ffff                	0xffff
    8000b10c:	0000                	unimp
    8000b10e:	0000                	unimp
    8000b110:	ffff                	0xffff
    8000b112:	ffff                	0xffff
    8000b114:	0000                	unimp
    8000b116:	0000                	unimp
    8000b118:	ffff                	0xffff
    8000b11a:	ffff                	0xffff
    8000b11c:	0000                	unimp
    8000b11e:	0000                	unimp
    8000b120:	ffff                	0xffff
    8000b122:	ffff                	0xffff
    8000b124:	0000                	unimp
    8000b126:	0000                	unimp
    8000b128:	ffff                	0xffff
    8000b12a:	ffff                	0xffff
    8000b12c:	0000                	unimp
    8000b12e:	0000                	unimp
    8000b130:	ffff                	0xffff
    8000b132:	ffff                	0xffff
    8000b134:	0000                	unimp
    8000b136:	0000                	unimp
    8000b138:	ffff                	0xffff
    8000b13a:	ffff                	0xffff
    8000b13c:	0000                	unimp
    8000b13e:	0000                	unimp
    8000b140:	ffff                	0xffff
    8000b142:	ffff                	0xffff
    8000b144:	0000                	unimp
    8000b146:	0000                	unimp
    8000b148:	ffff                	0xffff
    8000b14a:	ffff                	0xffff
    8000b14c:	0000                	unimp
    8000b14e:	0000                	unimp
    8000b150:	ffff                	0xffff
    8000b152:	ffff                	0xffff
    8000b154:	0000                	unimp
    8000b156:	0000                	unimp
    8000b158:	ffff                	0xffff
    8000b15a:	ffff                	0xffff
    8000b15c:	0000                	unimp
    8000b15e:	0000                	unimp
    8000b160:	ffff                	0xffff
    8000b162:	ffff                	0xffff
    8000b164:	0000                	unimp
    8000b166:	0000                	unimp
    8000b168:	ffff                	0xffff
    8000b16a:	ffff                	0xffff
    8000b16c:	0000                	unimp
    8000b16e:	0000                	unimp
    8000b170:	ffff                	0xffff
    8000b172:	ffff                	0xffff
    8000b174:	0000                	unimp
    8000b176:	0000                	unimp
    8000b178:	ffff                	0xffff
    8000b17a:	ffff                	0xffff
    8000b17c:	0000                	unimp
    8000b17e:	0000                	unimp
    8000b180:	ffff                	0xffff
    8000b182:	ffff                	0xffff
    8000b184:	0000                	unimp
    8000b186:	0000                	unimp
    8000b188:	ffff                	0xffff
    8000b18a:	ffff                	0xffff
    8000b18c:	0000                	unimp
    8000b18e:	0000                	unimp
    8000b190:	ffff                	0xffff
    8000b192:	ffff                	0xffff
    8000b194:	0000                	unimp
    8000b196:	0000                	unimp
    8000b198:	ffff                	0xffff
    8000b19a:	ffff                	0xffff
    8000b19c:	0000                	unimp
    8000b19e:	0000                	unimp
    8000b1a0:	ffff                	0xffff
    8000b1a2:	ffff                	0xffff
    8000b1a4:	0000                	unimp
    8000b1a6:	0000                	unimp
    8000b1a8:	ffff                	0xffff
    8000b1aa:	ffff                	0xffff
    8000b1ac:	0000                	unimp
    8000b1ae:	0000                	unimp
    8000b1b0:	ffff                	0xffff
    8000b1b2:	ffff                	0xffff
    8000b1b4:	0000                	unimp
    8000b1b6:	0000                	unimp
    8000b1b8:	ffff                	0xffff
    8000b1ba:	ffff                	0xffff
    8000b1bc:	0000                	unimp
    8000b1be:	0000                	unimp
    8000b1c0:	ffff                	0xffff
    8000b1c2:	ffff                	0xffff
    8000b1c4:	0000                	unimp
    8000b1c6:	0000                	unimp
    8000b1c8:	ffff                	0xffff
    8000b1ca:	ffff                	0xffff
    8000b1cc:	0000                	unimp
    8000b1ce:	0000                	unimp
    8000b1d0:	ffff                	0xffff
    8000b1d2:	ffff                	0xffff
    8000b1d4:	0000                	unimp
    8000b1d6:	0000                	unimp
    8000b1d8:	ffff                	0xffff
    8000b1da:	ffff                	0xffff
    8000b1dc:	0000                	unimp
    8000b1de:	0000                	unimp
    8000b1e0:	ffff                	0xffff
    8000b1e2:	ffff                	0xffff
    8000b1e4:	0000                	unimp
    8000b1e6:	0000                	unimp
    8000b1e8:	ffff                	0xffff
    8000b1ea:	ffff                	0xffff
    8000b1ec:	0000                	unimp
    8000b1ee:	0000                	unimp
    8000b1f0:	ffff                	0xffff
    8000b1f2:	ffff                	0xffff
    8000b1f4:	0000                	unimp
    8000b1f6:	0000                	unimp
    8000b1f8:	ffff                	0xffff
    8000b1fa:	ffff                	0xffff
    8000b1fc:	0000                	unimp
    8000b1fe:	0000                	unimp
    8000b200:	ffff                	0xffff
    8000b202:	ffff                	0xffff
    8000b204:	0000                	unimp
    8000b206:	0000                	unimp
    8000b208:	ffff                	0xffff
    8000b20a:	ffff                	0xffff
    8000b20c:	0000                	unimp
    8000b20e:	0000                	unimp
    8000b210:	ffff                	0xffff
    8000b212:	ffff                	0xffff
    8000b214:	0000                	unimp
    8000b216:	0000                	unimp
    8000b218:	ffff                	0xffff
    8000b21a:	ffff                	0xffff
    8000b21c:	0000                	unimp
    8000b21e:	0000                	unimp
    8000b220:	ffff                	0xffff
    8000b222:	ffff                	0xffff
    8000b224:	0000                	unimp
    8000b226:	0000                	unimp
    8000b228:	ffff                	0xffff
    8000b22a:	ffff                	0xffff
    8000b22c:	0000                	unimp
    8000b22e:	0000                	unimp
    8000b230:	ffff                	0xffff
    8000b232:	ffff                	0xffff
    8000b234:	0000                	unimp
    8000b236:	0000                	unimp
    8000b238:	ffff                	0xffff
    8000b23a:	ffff                	0xffff
    8000b23c:	0000                	unimp
    8000b23e:	0000                	unimp
    8000b240:	ffff                	0xffff
    8000b242:	ffff                	0xffff
    8000b244:	0000                	unimp
    8000b246:	0000                	unimp
    8000b248:	ffff                	0xffff
    8000b24a:	ffff                	0xffff
    8000b24c:	0000                	unimp
    8000b24e:	0000                	unimp
    8000b250:	ffff                	0xffff
    8000b252:	ffff                	0xffff
    8000b254:	0000                	unimp
    8000b256:	0000                	unimp
    8000b258:	ffff                	0xffff
    8000b25a:	ffff                	0xffff
    8000b25c:	0000                	unimp
    8000b25e:	0000                	unimp
    8000b260:	ffff                	0xffff
    8000b262:	ffff                	0xffff
    8000b264:	0000                	unimp
    8000b266:	0000                	unimp
    8000b268:	ffff                	0xffff
    8000b26a:	ffff                	0xffff
    8000b26c:	0000                	unimp
    8000b26e:	0000                	unimp
    8000b270:	ffff                	0xffff
    8000b272:	ffff                	0xffff
    8000b274:	0000                	unimp
    8000b276:	0000                	unimp
    8000b278:	ffff                	0xffff
    8000b27a:	ffff                	0xffff
    8000b27c:	0000                	unimp
    8000b27e:	0000                	unimp
    8000b280:	ffff                	0xffff
    8000b282:	ffff                	0xffff
    8000b284:	0000                	unimp
    8000b286:	0000                	unimp
    8000b288:	ffff                	0xffff
    8000b28a:	ffff                	0xffff
    8000b28c:	0000                	unimp
    8000b28e:	0000                	unimp
    8000b290:	ffff                	0xffff
    8000b292:	ffff                	0xffff
    8000b294:	0000                	unimp
    8000b296:	0000                	unimp
    8000b298:	ffff                	0xffff
    8000b29a:	ffff                	0xffff
    8000b29c:	0000                	unimp
    8000b29e:	0000                	unimp
    8000b2a0:	ffff                	0xffff
    8000b2a2:	ffff                	0xffff
    8000b2a4:	0000                	unimp
    8000b2a6:	0000                	unimp
    8000b2a8:	ffff                	0xffff
    8000b2aa:	ffff                	0xffff
    8000b2ac:	0000                	unimp
    8000b2ae:	0000                	unimp
    8000b2b0:	ffff                	0xffff
    8000b2b2:	ffff                	0xffff
    8000b2b4:	0000                	unimp
    8000b2b6:	0000                	unimp
    8000b2b8:	ffff                	0xffff
    8000b2ba:	ffff                	0xffff
    8000b2bc:	0000                	unimp
    8000b2be:	0000                	unimp
    8000b2c0:	ffff                	0xffff
    8000b2c2:	ffff                	0xffff
    8000b2c4:	0000                	unimp
    8000b2c6:	0000                	unimp
    8000b2c8:	ffff                	0xffff
    8000b2ca:	ffff                	0xffff
    8000b2cc:	0000                	unimp
    8000b2ce:	0000                	unimp
    8000b2d0:	ffff                	0xffff
    8000b2d2:	ffff                	0xffff
    8000b2d4:	0000                	unimp
    8000b2d6:	0000                	unimp
    8000b2d8:	ffff                	0xffff
    8000b2da:	ffff                	0xffff
    8000b2dc:	0000                	unimp
    8000b2de:	0000                	unimp
    8000b2e0:	ffff                	0xffff
    8000b2e2:	ffff                	0xffff
    8000b2e4:	0000                	unimp
    8000b2e6:	0000                	unimp
    8000b2e8:	ffff                	0xffff
    8000b2ea:	ffff                	0xffff
    8000b2ec:	0000                	unimp
    8000b2ee:	0000                	unimp
    8000b2f0:	ffff                	0xffff
    8000b2f2:	ffff                	0xffff
    8000b2f4:	0000                	unimp
    8000b2f6:	0000                	unimp
    8000b2f8:	ffff                	0xffff
    8000b2fa:	ffff                	0xffff
    8000b2fc:	0000                	unimp
    8000b2fe:	0000                	unimp
    8000b300:	ffff                	0xffff
    8000b302:	ffff                	0xffff
    8000b304:	0000                	unimp
    8000b306:	0000                	unimp
    8000b308:	ffff                	0xffff
    8000b30a:	ffff                	0xffff
    8000b30c:	0000                	unimp
    8000b30e:	0000                	unimp
    8000b310:	ffff                	0xffff
    8000b312:	ffff                	0xffff
    8000b314:	0000                	unimp
    8000b316:	0000                	unimp
    8000b318:	ffff                	0xffff
    8000b31a:	ffff                	0xffff
    8000b31c:	0000                	unimp
    8000b31e:	0000                	unimp
    8000b320:	ffff                	0xffff
    8000b322:	ffff                	0xffff
    8000b324:	0000                	unimp
    8000b326:	0000                	unimp
    8000b328:	ffff                	0xffff
    8000b32a:	ffff                	0xffff
    8000b32c:	0000                	unimp
    8000b32e:	0000                	unimp
    8000b330:	ffff                	0xffff
    8000b332:	ffff                	0xffff
    8000b334:	0000                	unimp
    8000b336:	0000                	unimp
    8000b338:	ffff                	0xffff
    8000b33a:	ffff                	0xffff
    8000b33c:	0000                	unimp
    8000b33e:	0000                	unimp
    8000b340:	ffff                	0xffff
    8000b342:	ffff                	0xffff
    8000b344:	0000                	unimp
    8000b346:	0000                	unimp
    8000b348:	ffff                	0xffff
    8000b34a:	ffff                	0xffff
    8000b34c:	0000                	unimp
    8000b34e:	0000                	unimp
    8000b350:	ffff                	0xffff
    8000b352:	ffff                	0xffff
    8000b354:	0000                	unimp
    8000b356:	0000                	unimp
    8000b358:	ffff                	0xffff
    8000b35a:	ffff                	0xffff
    8000b35c:	0000                	unimp
    8000b35e:	0000                	unimp
    8000b360:	ffff                	0xffff
    8000b362:	ffff                	0xffff
    8000b364:	0000                	unimp
    8000b366:	0000                	unimp
    8000b368:	ffff                	0xffff
    8000b36a:	ffff                	0xffff
    8000b36c:	0000                	unimp
    8000b36e:	0000                	unimp
    8000b370:	ffff                	0xffff
    8000b372:	ffff                	0xffff
    8000b374:	0000                	unimp
    8000b376:	0000                	unimp
    8000b378:	ffff                	0xffff
    8000b37a:	ffff                	0xffff
    8000b37c:	0000                	unimp
    8000b37e:	0000                	unimp
    8000b380:	ffff                	0xffff
    8000b382:	ffff                	0xffff
    8000b384:	0000                	unimp
    8000b386:	0000                	unimp
    8000b388:	ffff                	0xffff
    8000b38a:	ffff                	0xffff
    8000b38c:	0000                	unimp
    8000b38e:	0000                	unimp
    8000b390:	ffff                	0xffff
    8000b392:	ffff                	0xffff
    8000b394:	0000                	unimp
    8000b396:	0000                	unimp
    8000b398:	ffff                	0xffff
    8000b39a:	ffff                	0xffff
    8000b39c:	0000                	unimp
    8000b39e:	0000                	unimp
    8000b3a0:	ffff                	0xffff
    8000b3a2:	ffff                	0xffff
    8000b3a4:	0000                	unimp
    8000b3a6:	0000                	unimp
    8000b3a8:	ffff                	0xffff
    8000b3aa:	ffff                	0xffff
    8000b3ac:	0000                	unimp
    8000b3ae:	0000                	unimp
    8000b3b0:	ffff                	0xffff
    8000b3b2:	ffff                	0xffff
    8000b3b4:	0000                	unimp
    8000b3b6:	0000                	unimp
    8000b3b8:	ffff                	0xffff
    8000b3ba:	ffff                	0xffff
    8000b3bc:	0000                	unimp
    8000b3be:	0000                	unimp
    8000b3c0:	ffff                	0xffff
    8000b3c2:	ffff                	0xffff
    8000b3c4:	0000                	unimp
    8000b3c6:	0000                	unimp
    8000b3c8:	ffff                	0xffff
    8000b3ca:	ffff                	0xffff
    8000b3cc:	0000                	unimp
    8000b3ce:	0000                	unimp
    8000b3d0:	ffff                	0xffff
    8000b3d2:	ffff                	0xffff
    8000b3d4:	0000                	unimp
    8000b3d6:	0000                	unimp
    8000b3d8:	ffff                	0xffff
    8000b3da:	ffff                	0xffff
    8000b3dc:	0000                	unimp
    8000b3de:	0000                	unimp
    8000b3e0:	ffff                	0xffff
    8000b3e2:	ffff                	0xffff
    8000b3e4:	0000                	unimp
    8000b3e6:	0000                	unimp
    8000b3e8:	ffff                	0xffff
    8000b3ea:	ffff                	0xffff
    8000b3ec:	0000                	unimp
    8000b3ee:	0000                	unimp
    8000b3f0:	ffff                	0xffff
    8000b3f2:	ffff                	0xffff
    8000b3f4:	0000                	unimp
    8000b3f6:	0000                	unimp
    8000b3f8:	ffff                	0xffff
    8000b3fa:	ffff                	0xffff
    8000b3fc:	0000                	unimp
	...

000000008000b400 <trap_table>:
    8000b400:	2744                	fld	fs1,136(a4)
    8000b402:	8000                	0x8000
    8000b404:	26fe                	fld	fa3,472(sp)
    8000b406:	8000                	0x8000
    8000b408:	4bc4                	lw	s1,20(a5)
    8000b40a:	8000                	0x8000
    8000b40c:	2744                	fld	fs1,136(a4)
    8000b40e:	8000                	0x8000
    8000b410:	58ce                	lw	a7,240(sp)
    8000b412:	8000                	0x8000
    8000b414:	26fe                	fld	fa3,472(sp)
    8000b416:	8000                	0x8000
    8000b418:	5aa8                	lw	a0,112(a3)
    8000b41a:	8000                	0x8000
    8000b41c:	26fe                	fld	fa3,472(sp)
    8000b41e:	8000                	0x8000
    8000b420:	2744                	fld	fs1,136(a4)
    8000b422:	8000                	0x8000
    8000b424:	27b6                	fld	fa5,328(sp)
    8000b426:	8000                	0x8000
    8000b428:	2744                	fld	fs1,136(a4)
    8000b42a:	8000                	0x8000
    8000b42c:	2744                	fld	fs1,136(a4)
    8000b42e:	8000                	0x8000
    8000b430:	2744                	fld	fs1,136(a4)
    8000b432:	8000                	0x8000
    8000b434:	01f0                	addi	a2,sp,204
    8000b436:	8000                	0x8000
    8000b438:	2744                	fld	fs1,136(a4)
    8000b43a:	8000                	0x8000
    8000b43c:	2744                	fld	fs1,136(a4)
    8000b43e:	8000                	0x8000
    8000b440:	457f                	0x457f
    8000b442:	464c                	lw	a1,12(a2)
    8000b444:	0002                	c.slli64	zero
    8000b446:	0000                	unimp
    8000b448:	707f                	0x707f
    8000b44a:	fff0                	sd	a2,248(a5)
    8000b44c:	0000                	unimp
    8000b44e:	0000                	unimp
    8000b450:	3a434347          	fmsub.d	ft6,ft6,ft4,ft7,rmm
    8000b454:	2820                	fld	fs0,80(s0)
    8000b456:	29554e47          	fmsub.s	ft8,fa0,fs5,ft5,rmm
    8000b45a:	3820                	fld	fs0,112(s0)
    8000b45c:	332e                	fld	ft6,232(sp)
    8000b45e:	302e                	fld	ft0,232(sp)
	...

Disassembly of section .sdata:

000000008000b464 <demand_paging>:
    8000b464:	0001                	nop
	...

Disassembly of section .bss:

000000008000c000 <fds>:
	...

000000008000c400 <magic_mem.2342>:
	...

000000008000d000 <stacks>:
	...

0000000080015000 <hart_phandles>:
	...

0000000080015020 <lock.2343>:
	...

0000000080015028 <free_pages>:
	...

0000000080015030 <next_free_page>:
	...

0000000080015038 <first_free_page>:
	...

0000000080015040 <vmrs>:
	...

0000000080015048 <vm_lock>:
	...

0000000080015050 <htif_lock>:
	...

0000000080015058 <disabled_hart_mask>:
	...

0000000080015060 <current>:
	...

00000000800150d0 <first_free_paddr>:
	...

00000000800150d8 <plic_ndevs>:
	...

00000000800150e0 <plic_priorities>:
	...

00000000800150e8 <mem_size>:
	...

00000000800150f0 <kernel_end>:
	...

00000000800150f8 <mtime>:
	...

0000000080015100 <root_page_table>:
	...

0000000080015108 <kernel_start>:
	...

0000000080015110 <htif>:
	...

0000000080015118 <htif_console_buf>:
	...

0000000080015120 <uart>:
	...

0000000080015128 <uart16550>:
	...

0000000080015130 <finisher>:
	...

0000000080015138 <hart_mask>:
	...

Disassembly of section .riscv.attributes:

0000000000000000 <.riscv.attributes>:
   0:	3241                	addiw	tp,tp,-16
   2:	0000                	unimp
   4:	7200                	ld	s0,32(a2)
   6:	7369                	lui	t1,0xffffa
   8:	01007663          	bgeu	zero,a6,14 <_ftext-0x7fffffec>
   c:	0028                	addi	a0,sp,8
   e:	0000                	unimp
  10:	7205                	lui	tp,0xfffe1
  12:	3676                	fld	fa2,376(sp)
  14:	6934                	ld	a3,80(a0)
  16:	7032                	0x7032
  18:	5f30                	lw	a2,120(a4)
  1a:	326d                	addiw	tp,tp,-5
  1c:	3070                	fld	fa2,224(s0)
  1e:	615f 7032 5f30      	0x5f307032615f
  24:	3266                	fld	ft4,120(sp)
  26:	3070                	fld	fa2,224(s0)
  28:	645f 7032 5f30      	0x5f307032645f
  2e:	30703263          	0x30703263
	...
