
/opt/riscv/rv64gc/riscv64-unknown-elf/bin/pk:     file format elf64-littleriscv


Disassembly of section .text:

0000000080000000 <_ftext>:
    80000000:	1f80006f          	j	800001f8 <do_reset>

0000000080000004 <trap_vector>:
    80000004:	34011173          	csrrw	sp,mscratch,sp
    80000008:	1a010863          	beqz	sp,800001b8 <restore_regs+0x80>
    8000000c:	04a13823          	sd	a0,80(sp)
    80000010:	04b13c23          	sd	a1,88(sp)
    80000014:	342025f3          	csrr	a1,mcause
    80000018:	0805d263          	bgez	a1,8000009c <trap_vector+0x98>
    8000001c:	00159593          	slli	a1,a1,0x1
    80000020:	00e00513          	li	a0,14
    80000024:	02b51263          	bne	a0,a1,80000048 <trap_vector+0x44>
    80000028:	08000513          	li	a0,128
    8000002c:	30453073          	csrc	mie,a0
    80000030:	02000513          	li	a0,32
    80000034:	34452073          	csrs	mip,a0
    80000038:	05013503          	ld	a0,80(sp)
    8000003c:	05813583          	ld	a1,88(sp)
    80000040:	34011173          	csrrw	sp,mscratch,sp
    80000044:	30200073          	mret
    80000048:	00600513          	li	a0,6
    8000004c:	18b51263          	bne	a0,a1,800001d0 <restore_regs+0x98>
    80000050:	10013503          	ld	a0,256(sp)
    80000054:	00052023          	sw	zero,0(a0)
    80000058:	0ff0000f          	fence
    8000005c:	10810513          	addi	a0,sp,264
    80000060:	0805252f          	amoswap.w	a0,zero,(a0)
    80000064:	00157593          	andi	a1,a0,1
    80000068:	00058463          	beqz	a1,80000070 <trap_vector+0x6c>
    8000006c:	34416073          	csrsi	mip,2
    80000070:	00257593          	andi	a1,a0,2
    80000074:	00058463          	beqz	a1,8000007c <trap_vector+0x78>
    80000078:	0000100f          	fence.i
    8000007c:	00457593          	andi	a1,a0,4
    80000080:	00058463          	beqz	a1,80000088 <trap_vector+0x84>
    80000084:	12000073          	sfence.vma
    80000088:	00857593          	andi	a1,a0,8
    8000008c:	00058663          	beqz	a1,80000098 <trap_vector+0x94>
    80000090:	10500073          	wfi
    80000094:	ff5ff06f          	j	80000088 <trap_vector+0x84>
    80000098:	fa1ff06f          	j	80000038 <trap_vector+0x34>
    8000009c:	00113423          	sd	ra,8(sp)
    800000a0:	00313c23          	sd	gp,24(sp)
    800000a4:	02413023          	sd	tp,32(sp)
    800000a8:	02513423          	sd	t0,40(sp)
    800000ac:	0000b297          	auipc	t0,0xb
    800000b0:	02613823          	sd	t1,48(sp)
    800000b4:	00259313          	slli	t1,a1,0x2
    800000b8:	02713c23          	sd	t2,56(sp)
    800000bc:	00628333          	add	t1,t0,t1
    800000c0:	04813023          	sd	s0,64(sp)
    800000c4:	35436303          	lwu	t1,852(t1)
    800000c8:	04913423          	sd	s1,72(sp)
    800000cc:	00010513          	mv	a0,sp
    800000d0:	06c13023          	sd	a2,96(sp)
    800000d4:	34102673          	csrr	a2,mepc
    800000d8:	06d13423          	sd	a3,104(sp)
    800000dc:	340012f3          	csrrw	t0,mscratch,zero
    800000e0:	06e13823          	sd	a4,112(sp)
    800000e4:	06f13c23          	sd	a5,120(sp)
    800000e8:	09013023          	sd	a6,128(sp)
    800000ec:	09113423          	sd	a7,136(sp)
    800000f0:	09213823          	sd	s2,144(sp)
    800000f4:	09313c23          	sd	s3,152(sp)
    800000f8:	0b413023          	sd	s4,160(sp)
    800000fc:	0b513423          	sd	s5,168(sp)
    80000100:	0b613823          	sd	s6,176(sp)
    80000104:	0b713c23          	sd	s7,184(sp)
    80000108:	0d813023          	sd	s8,192(sp)
    8000010c:	0d913423          	sd	s9,200(sp)
    80000110:	0da13823          	sd	s10,208(sp)
    80000114:	0db13c23          	sd	s11,216(sp)
    80000118:	0fc13023          	sd	t3,224(sp)
    8000011c:	0fd13423          	sd	t4,232(sp)
    80000120:	0fe13823          	sd	t5,240(sp)
    80000124:	0ff13c23          	sd	t6,248(sp)
    80000128:	00513823          	sd	t0,16(sp)
    8000012c:	00013023          	sd	zero,0(sp)
    80000130:	000300e7          	jalr	t1

0000000080000134 <restore_mscratch>:
    80000134:	34011073          	csrw	mscratch,sp

0000000080000138 <restore_regs>:
    80000138:	00813083          	ld	ra,8(sp)
    8000013c:	01813183          	ld	gp,24(sp)
    80000140:	02013203          	ld	tp,32(sp)
    80000144:	02813283          	ld	t0,40(sp)
    80000148:	03013303          	ld	t1,48(sp)
    8000014c:	03813383          	ld	t2,56(sp)
    80000150:	04013403          	ld	s0,64(sp)
    80000154:	04813483          	ld	s1,72(sp)
    80000158:	05013503          	ld	a0,80(sp)
    8000015c:	05813583          	ld	a1,88(sp)
    80000160:	06013603          	ld	a2,96(sp)
    80000164:	06813683          	ld	a3,104(sp)
    80000168:	07013703          	ld	a4,112(sp)
    8000016c:	07813783          	ld	a5,120(sp)
    80000170:	08013803          	ld	a6,128(sp)
    80000174:	08813883          	ld	a7,136(sp)
    80000178:	09013903          	ld	s2,144(sp)
    8000017c:	09813983          	ld	s3,152(sp)
    80000180:	0a013a03          	ld	s4,160(sp)
    80000184:	0a813a83          	ld	s5,168(sp)
    80000188:	0b013b03          	ld	s6,176(sp)
    8000018c:	0b813b83          	ld	s7,184(sp)
    80000190:	0c013c03          	ld	s8,192(sp)
    80000194:	0c813c83          	ld	s9,200(sp)
    80000198:	0d013d03          	ld	s10,208(sp)
    8000019c:	0d813d83          	ld	s11,216(sp)
    800001a0:	0e013e03          	ld	t3,224(sp)
    800001a4:	0e813e83          	ld	t4,232(sp)
    800001a8:	0f013f03          	ld	t5,240(sp)
    800001ac:	0f813f83          	ld	t6,248(sp)
    800001b0:	01013103          	ld	sp,16(sp)
    800001b4:	30200073          	mret
    800001b8:	34002173          	csrr	sp,mscratch
    800001bc:	f0010113          	addi	sp,sp,-256
    800001c0:	04a13823          	sd	a0,80(sp)
    800001c4:	04b13c23          	sd	a1,88(sp)
    800001c8:	00d00593          	li	a1,13
    800001cc:	ed1ff06f          	j	8000009c <trap_vector+0x98>
    800001d0:	00000593          	li	a1,0
    800001d4:	ec9ff06f          	j	8000009c <trap_vector+0x98>

00000000800001d8 <__redirect_trap>:
    800001d8:	000012b7          	lui	t0,0x1
    800001dc:	00510133          	add	sp,sp,t0
    800001e0:	405002b3          	neg	t0,t0
    800001e4:	00517133          	and	sp,sp,t0
    800001e8:	ec010113          	addi	sp,sp,-320
    800001ec:	f49ff06f          	j	80000134 <restore_mscratch>

00000000800001f0 <__trap_from_machine_mode>:
    800001f0:	57c020ef          	jal	ra,8000276c <trap_from_machine_mode>
    800001f4:	f45ff06f          	j	80000138 <restore_regs>

00000000800001f8 <do_reset>:
    800001f8:	00000093          	li	ra,0
    800001fc:	00000113          	li	sp,0
    80000200:	00000193          	li	gp,0
    80000204:	00000213          	li	tp,0
    80000208:	00000293          	li	t0,0
    8000020c:	00000313          	li	t1,0
    80000210:	00000393          	li	t2,0
    80000214:	00000413          	li	s0,0
    80000218:	00000493          	li	s1,0
    8000021c:	00000613          	li	a2,0
    80000220:	00000693          	li	a3,0
    80000224:	00000713          	li	a4,0
    80000228:	00000793          	li	a5,0
    8000022c:	00000813          	li	a6,0
    80000230:	00000893          	li	a7,0
    80000234:	00000913          	li	s2,0
    80000238:	00000993          	li	s3,0
    8000023c:	00000a13          	li	s4,0
    80000240:	00000a93          	li	s5,0
    80000244:	00000b13          	li	s6,0
    80000248:	00000b93          	li	s7,0
    8000024c:	00000c13          	li	s8,0
    80000250:	00000c93          	li	s9,0
    80000254:	00000d13          	li	s10,0
    80000258:	00000d93          	li	s11,0
    8000025c:	00000e13          	li	t3,0
    80000260:	00000e93          	li	t4,0
    80000264:	00000f13          	li	t5,0
    80000268:	00000f93          	li	t6,0
    8000026c:	34001073          	csrw	mscratch,zero
    80000270:	00000297          	auipc	t0,0x0
    80000274:	d9428293          	addi	t0,t0,-620 # 80000004 <trap_vector>
    80000278:	30529073          	csrw	mtvec,t0
    8000027c:	30502373          	csrr	t1,mtvec
    80000280:	00629063          	bne	t0,t1,80000280 <do_reset+0x88>
    80000284:	0000e117          	auipc	sp,0xe
    80000288:	c3c10113          	addi	sp,sp,-964 # 8000dec0 <stacks+0xec0>
    8000028c:	f14026f3          	csrr	a3,mhartid
    80000290:	00c69613          	slli	a2,a3,0xc
    80000294:	00c10133          	add	sp,sp,a2
    80000298:	00069463          	bnez	a3,800002a0 <do_reset+0xa8>
    8000029c:	7b00206f          	j	80002a4c <init_first_hart>
    800002a0:	00800613          	li	a2,8
    800002a4:	30461073          	csrw	mie,a2
    800002a8:	10500073          	wfi
    800002ac:	00015717          	auipc	a4,0x15
    800002b0:	dac70713          	addi	a4,a4,-596 # 80015058 <disabled_hart_mask>
    800002b4:	00073703          	ld	a4,0(a4)
    800002b8:	00d75733          	srl	a4,a4,a3
    800002bc:	00177713          	andi	a4,a4,1
    800002c0:	fe0714e3          	bnez	a4,800002a8 <do_reset+0xb0>
    800002c4:	34402673          	csrr	a2,mip
    800002c8:	00867613          	andi	a2,a2,8
    800002cc:	fc060ee3          	beqz	a2,800002a8 <do_reset+0xb0>
    800002d0:	0ff0000f          	fence
    800002d4:	00800613          	li	a2,8
    800002d8:	00c6f463          	bgeu	a3,a2,800002e0 <do_reset+0xe8>
    800002dc:	0670206f          	j	80002b42 <init_other_hart>
    800002e0:	10500073          	wfi
    800002e4:	fc5ff06f          	j	800002a8 <do_reset+0xb0>

00000000800002e8 <rest_of_boot_loader>:
    800002e8:	711d                	addi	sp,sp,-96
    800002ea:	e8a2                	sd	s0,80(sp)
    800002ec:	fc4e                	sd	s3,56(sp)
    800002ee:	ec86                	sd	ra,88(sp)
    800002f0:	e4a6                	sd	s1,72(sp)
    800002f2:	e0ca                	sd	s2,64(sp)
    800002f4:	f852                	sd	s4,48(sp)
    800002f6:	f456                	sd	s5,40(sp)
    800002f8:	f05a                	sd	s6,32(sp)
    800002fa:	ec5e                	sd	s7,24(sp)
    800002fc:	800007b7          	lui	a5,0x80000
    80000300:	86010113          	addi	sp,sp,-1952
    80000304:	1b00                	addi	s0,sp,432
    80000306:	fff7c793          	not	a5,a5
    8000030a:	89aa                	mv	s3,a0
    8000030c:	85a2                	mv	a1,s0
    8000030e:	0087e863          	bltu	a5,s0,8000031e <rest_of_boot_loader+0x36>
    80000312:	00015797          	auipc	a5,0x15
    80000316:	dbe78793          	addi	a5,a5,-578 # 800150d0 <first_free_paddr>
    8000031a:	638c                	ld	a1,0(a5)
    8000031c:	95a2                	add	a1,a1,s0
    8000031e:	4881                	li	a7,0
    80000320:	4801                	li	a6,0
    80000322:	4781                	li	a5,0
    80000324:	4701                	li	a4,0
    80000326:	4681                	li	a3,0
    80000328:	20000613          	li	a2,512
    8000032c:	7db00513          	li	a0,2011
    80000330:	676000ef          	jal	ra,800009a6 <frontend_syscall>
    80000334:	20051463          	bnez	a0,8000053c <rest_of_boot_loader+0x254>
    80000338:	77da                	ld	a5,432(sp)
    8000033a:	4705                	li	a4,1
    8000033c:	1ef77863          	bgeu	a4,a5,8000052c <rest_of_boot_loader+0x244>
    80000340:	671e                	ld	a4,448(sp)
    80000342:	02d00693          	li	a3,45
    80000346:	00074603          	lbu	a2,0(a4)
    8000034a:	04d61c63          	bne	a2,a3,800003a2 <rest_of_boot_loader+0xba>
    8000034e:	03b4                	addi	a3,sp,456
    80000350:	4905                	li	s2,1
    80000352:	07000313          	li	t1,112
    80000356:	07300893          	li	a7,115
    8000035a:	4805                	li	a6,1
    8000035c:	02d00513          	li	a0,45
    80000360:	a831                	j	8000037c <rest_of_boot_loader+0x94>
    80000362:	0000b717          	auipc	a4,0xb
    80000366:	10072123          	sw	zero,258(a4) # 8000b464 <demand_paging>
    8000036a:	0905                	addi	s2,s2,1
    8000036c:	03278563          	beq	a5,s2,80000396 <rest_of_boot_loader+0xae>
    80000370:	6298                	ld	a4,0(a3)
    80000372:	06a1                	addi	a3,a3,8
    80000374:	00074603          	lbu	a2,0(a4)
    80000378:	02a61663          	bne	a2,a0,800003a4 <rest_of_boot_loader+0xbc>
    8000037c:	00174583          	lbu	a1,1(a4)
    80000380:	fe6581e3          	beq	a1,t1,80000362 <rest_of_boot_loader+0x7a>
    80000384:	1b159663          	bne	a1,a7,80000530 <rest_of_boot_loader+0x248>
    80000388:	00015717          	auipc	a4,0x15
    8000038c:	d3073c23          	sd	a6,-712(a4) # 800150c0 <current+0x60>
    80000390:	0905                	addi	s2,s2,1
    80000392:	fd279fe3          	bne	a5,s2,80000370 <rest_of_boot_loader+0x88>
    80000396:	00009517          	auipc	a0,0x9
    8000039a:	d5250513          	addi	a0,a0,-686 # 800090e8 <softfloat_countLeadingZeros8+0x180>
    8000039e:	22f000ef          	jal	ra,80000dcc <do_panic>
    800003a2:	4905                	li	s2,1
    800003a4:	00391593          	slli	a1,s2,0x3
    800003a8:	8722                	mv	a4,s0
    800003aa:	86ca                	mv	a3,s2
    800003ac:	00b70633          	add	a2,a4,a1
    800003b0:	6610                	ld	a2,8(a2)
    800003b2:	0721                	addi	a4,a4,8
    800003b4:	0685                	addi	a3,a3,1
    800003b6:	fec73c23          	sd	a2,-8(a4)
    800003ba:	fef6e9e3          	bltu	a3,a5,800003ac <rest_of_boot_loader+0xc4>
    800003be:	41278933          	sub	s2,a5,s2
    800003c2:	fc090ae3          	beqz	s2,80000396 <rest_of_boot_loader+0xae>
    800003c6:	755a                	ld	a0,432(sp)
    800003c8:	00015a97          	auipc	s5,0x15
    800003cc:	c98a8a93          	addi	s5,s5,-872 # 80015060 <current>
    800003d0:	1f1c                	addi	a5,sp,944
    800003d2:	85d6                	mv	a1,s5
    800003d4:	00015717          	auipc	a4,0x15
    800003d8:	c8f73e23          	sd	a5,-868(a4) # 80015070 <current+0x10>
    800003dc:	40000793          	li	a5,1024
    800003e0:	00015717          	auipc	a4,0x15
    800003e4:	c8f73c23          	sd	a5,-872(a4) # 80015078 <current+0x18>
    800003e8:	6c2000ef          	jal	ra,80000aaa <load_elf>
    800003ec:	018ab783          	ld	a5,24(s5)
    800003f0:	050ab483          	ld	s1,80(s5)
    800003f4:	010ab583          	ld	a1,16(s5)
    800003f8:	863e                	mv	a2,a5
    800003fa:	8c9d                	sub	s1,s1,a5
    800003fc:	8526                	mv	a0,s1
    800003fe:	00391a13          	slli	s4,s2,0x3
    80000402:	573070ef          	jal	ra,80008174 <memcpy>
    80000406:	01440bb3          	add	s7,s0,s4
    8000040a:	00015797          	auipc	a5,0x15
    8000040e:	c697b323          	sd	s1,-922(a5) # 80015070 <current+0x10>
    80000412:	00043b03          	ld	s6,0(s0)
    80000416:	0421                	addi	s0,s0,8
    80000418:	855a                	mv	a0,s6
    8000041a:	5ef070ef          	jal	ra,80008208 <strlen>
    8000041e:	00150613          	addi	a2,a0,1
    80000422:	8c91                	sub	s1,s1,a2
    80000424:	85da                	mv	a1,s6
    80000426:	8526                	mv	a0,s1
    80000428:	54d070ef          	jal	ra,80008174 <memcpy>
    8000042c:	fe943c23          	sd	s1,-8(s0)
    80000430:	fe8b91e3          	bne	s7,s0,80000412 <rest_of_boot_loader+0x12a>
    80000434:	010ab783          	ld	a5,16(s5)
    80000438:	028ab603          	ld	a2,40(s5)
    8000043c:	004aa683          	lw	a3,4(s5)
    80000440:	000aa703          	lw	a4,0(s5)
    80000444:	e0be                	sd	a5,64(sp)
    80000446:	4799                	li	a5,6
    80000448:	e4be                	sd	a5,72(sp)
    8000044a:	6785                	lui	a5,0x1
    8000044c:	98e1                	andi	s1,s1,-8
    8000044e:	e8be                	sd	a5,80(sp)
    80000450:	098a0413          	addi	s0,s4,152
    80000454:	47dd                	li	a5,23
    80000456:	e832                	sd	a2,16(sp)
    80000458:	f036                	sd	a3,32(sp)
    8000045a:	f83a                	sd	a4,48(sp)
    8000045c:	4691                	li	a3,4
    8000045e:	470d                	li	a4,3
    80000460:	ecbe                	sd	a5,88(sp)
    80000462:	40848433          	sub	s0,s1,s0
    80000466:	47e5                	li	a5,25
    80000468:	45a5                	li	a1,9
    8000046a:	4615                	li	a2,5
    8000046c:	9841                	andi	s0,s0,-16
    8000046e:	f436                	sd	a3,40(sp)
    80000470:	fc3a                	sd	a4,56(sp)
    80000472:	f4be                	sd	a5,104(sp)
    80000474:	e42e                	sd	a1,8(sp)
    80000476:	ec32                	sd	a2,24(sp)
    80000478:	f082                	sd	zero,96(sp)
    8000047a:	f8a6                	sd	s1,112(sp)
    8000047c:	fc82                	sd	zero,120(sp)
    8000047e:	e102                	sd	zero,128(sp)
    80000480:	01243023          	sd	s2,0(s0)
    80000484:	00840693          	addi	a3,s0,8
    80000488:	4701                	li	a4,0
    8000048a:	4781                	li	a5,0
    8000048c:	7b010613          	addi	a2,sp,1968
    80000490:	078e                	slli	a5,a5,0x3
    80000492:	97b2                	add	a5,a5,a2
    80000494:	a007b603          	ld	a2,-1536(a5) # a00 <_ftext-0x7ffff600>
    80000498:	2705                	addiw	a4,a4,1
    8000049a:	02071793          	slli	a5,a4,0x20
    8000049e:	e290                	sd	a2,0(a3)
    800004a0:	9381                	srli	a5,a5,0x20
    800004a2:	8636                	mv	a2,a3
    800004a4:	06a1                	addi	a3,a3,8
    800004a6:	ff27e3e3          	bltu	a5,s2,8000048c <rest_of_boot_loader+0x1a4>
    800004aa:	0006b023          	sd	zero,0(a3)
    800004ae:	00063823          	sd	zero,16(a2)
    800004b2:	01860793          	addi	a5,a2,24
    800004b6:	0038                	addi	a4,sp,8
    800004b8:	09860613          	addi	a2,a2,152
    800004bc:	6314                	ld	a3,0(a4)
    800004be:	07c1                	addi	a5,a5,16
    800004c0:	0741                	addi	a4,a4,16
    800004c2:	fed7b823          	sd	a3,-16(a5)
    800004c6:	ff873683          	ld	a3,-8(a4)
    800004ca:	fed7bc23          	sd	a3,-8(a5)
    800004ce:	fec797e3          	bne	a5,a2,800004bc <rest_of_boot_loader+0x1d4>
    800004d2:	060ab783          	ld	a5,96(s5)
    800004d6:	c39d                	beqz	a5,800004fc <rest_of_boot_loader+0x214>
    800004d8:	c01027f3          	rdtime	a5
    800004dc:	00015717          	auipc	a4,0x15
    800004e0:	bcf73e23          	sd	a5,-1060(a4) # 800150b8 <current+0x58>
    800004e4:	c00027f3          	rdcycle	a5
    800004e8:	00015717          	auipc	a4,0x15
    800004ec:	bcf73c23          	sd	a5,-1064(a4) # 800150c0 <current+0x60>
    800004f0:	c02027f3          	rdinstret	a5
    800004f4:	00015717          	auipc	a4,0x15
    800004f8:	bcf73a23          	sd	a5,-1068(a4) # 800150c8 <current+0x68>
    800004fc:	12800613          	li	a2,296
    80000500:	4581                	li	a1,0
    80000502:	0128                	addi	a0,sp,136
    80000504:	028ab483          	ld	s1,40(s5)
    80000508:	4bb070ef          	jal	ra,800081c2 <memset>
    8000050c:	100027f3          	csrr	a5,sstatus
    80000510:	edd7f793          	andi	a5,a5,-291
    80000514:	0207e793          	ori	a5,a5,32
    80000518:	e73e                	sd	a5,392(sp)
    8000051a:	ed22                	sd	s0,152(sp)
    8000051c:	eb26                	sd	s1,400(sp)
    8000051e:	0000100f          	fence.i
    80000522:	14099073          	csrw	sscratch,s3
    80000526:	0128                	addi	a0,sp,136
    80000528:	37c010ef          	jal	ra,800018a4 <start_user>
    8000052c:	4905                	li	s2,1
    8000052e:	bd41                	j	800003be <rest_of_boot_loader+0xd6>
    80000530:	00009517          	auipc	a0,0x9
    80000534:	b9850513          	addi	a0,a0,-1128 # 800090c8 <softfloat_countLeadingZeros8+0x160>
    80000538:	095000ef          	jal	ra,80000dcc <do_panic>
    8000053c:	00009517          	auipc	a0,0x9
    80000540:	b8450513          	addi	a0,a0,-1148 # 800090c0 <softfloat_countLeadingZeros8+0x158>
    80000544:	0ad000ef          	jal	ra,80000df0 <kassert_fail>

0000000080000548 <boot_loader>:
    80000548:	1141                	addi	sp,sp,-16
    8000054a:	e406                	sd	ra,8(sp)
    8000054c:	00001797          	auipc	a5,0x1
    80000550:	2d878793          	addi	a5,a5,728 # 80001824 <trap_entry>
    80000554:	10579073          	csrw	stvec,a5
    80000558:	14005073          	csrwi	sscratch,0
    8000055c:	10405073          	csrwi	sie,0
    80000560:	000467b7          	lui	a5,0x46
    80000564:	1007a7f3          	csrrs	a5,sstatus,a5
    80000568:	104000ef          	jal	ra,8000066c <file_init>
    8000056c:	194010ef          	jal	ra,80001700 <pk_vm_init>
    80000570:	85aa                	mv	a1,a0
    80000572:	4601                	li	a2,0
    80000574:	00000517          	auipc	a0,0x0
    80000578:	d7450513          	addi	a0,a0,-652 # 800002e8 <rest_of_boot_loader>
    8000057c:	602020ef          	jal	ra,80002b7e <enter_supervisor_mode>

0000000080000580 <boot_other_hart>:
    80000580:	10500073          	wfi
    80000584:	bff5                	j	80000580 <boot_other_hart>

0000000080000586 <file_get_free>:
    80000586:	0000b517          	auipc	a0,0xb
    8000058a:	a7a50513          	addi	a0,a0,-1414 # 8000b000 <files>
    8000058e:	4689                	li	a3,2
    80000590:	0000b717          	auipc	a4,0xb
    80000594:	e7070713          	addi	a4,a4,-400 # 8000b400 <trap_table>
    80000598:	a021                	j	800005a0 <file_get_free+0x1a>
    8000059a:	0521                	addi	a0,a0,8
    8000059c:	02e50363          	beq	a0,a4,800005c2 <file_get_free+0x3c>
    800005a0:	415c                	lw	a5,4(a0)
    800005a2:	2781                	sext.w	a5,a5
    800005a4:	fbfd                	bnez	a5,8000059a <file_get_free+0x14>
    800005a6:	00450613          	addi	a2,a0,4
    800005aa:	0f50000f          	fence	iorw,ow
    800005ae:	140627af          	lr.w.aq	a5,(a2)
    800005b2:	00079563          	bnez	a5,800005bc <file_get_free+0x36>
    800005b6:	1cd625af          	sc.w.aq	a1,a3,(a2)
    800005ba:	f9f5                	bnez	a1,800005ae <file_get_free+0x28>
    800005bc:	2781                	sext.w	a5,a5
    800005be:	fff1                	bnez	a5,8000059a <file_get_free+0x14>
    800005c0:	8082                	ret
    800005c2:	4501                	li	a0,0
    800005c4:	8082                	ret

00000000800005c6 <file_incref>:
    800005c6:	4705                	li	a4,1
    800005c8:	00450693          	addi	a3,a0,4
    800005cc:	0f50000f          	fence	iorw,ow
    800005d0:	04e6a7af          	amoadd.w.aq	a5,a4,(a3)
    800005d4:	2781                	sext.w	a5,a5
    800005d6:	c391                	beqz	a5,800005da <file_incref+0x14>
    800005d8:	8082                	ret
    800005da:	1141                	addi	sp,sp,-16
    800005dc:	00009517          	auipc	a0,0x9
    800005e0:	b2c50513          	addi	a0,a0,-1236 # 80009108 <softfloat_countLeadingZeros8+0x1a0>
    800005e4:	e406                	sd	ra,8(sp)
    800005e6:	00b000ef          	jal	ra,80000df0 <kassert_fail>

00000000800005ea <file_decref>:
    800005ea:	577d                	li	a4,-1
    800005ec:	00450693          	addi	a3,a0,4
    800005f0:	0f50000f          	fence	iorw,ow
    800005f4:	04e6a7af          	amoadd.w.aq	a5,a4,(a3)
    800005f8:	2781                	sext.w	a5,a5
    800005fa:	4709                	li	a4,2
    800005fc:	00e78363          	beq	a5,a4,80000602 <file_decref+0x18>
    80000600:	8082                	ret
    80000602:	410c                	lw	a1,0(a0)
    80000604:	0ff0000f          	fence
    80000608:	4881                	li	a7,0
    8000060a:	00052223          	sw	zero,4(a0)
    8000060e:	4801                	li	a6,0
    80000610:	4781                	li	a5,0
    80000612:	4701                	li	a4,0
    80000614:	4681                	li	a3,0
    80000616:	4601                	li	a2,0
    80000618:	03900513          	li	a0,57
    8000061c:	38a0006f          	j	800009a6 <frontend_syscall>

0000000080000620 <file_dup>:
    80000620:	1141                	addi	sp,sp,-16
    80000622:	e022                	sd	s0,0(sp)
    80000624:	e406                	sd	ra,8(sp)
    80000626:	0000c797          	auipc	a5,0xc
    8000062a:	9da78793          	addi	a5,a5,-1574 # 8000c000 <fds>
    8000062e:	4401                	li	s0,0
    80000630:	08000693          	li	a3,128
    80000634:	a029                	j	8000063e <file_dup+0x1e>
    80000636:	2405                	addiw	s0,s0,1
    80000638:	07a1                	addi	a5,a5,8
    8000063a:	02d40363          	beq	s0,a3,80000660 <file_dup+0x40>
    8000063e:	0f50000f          	fence	iorw,ow
    80000642:	1407b72f          	lr.d.aq	a4,(a5)
    80000646:	00071563          	bnez	a4,80000650 <file_dup+0x30>
    8000064a:	1ca7b62f          	sc.d.aq	a2,a0,(a5)
    8000064e:	fa75                	bnez	a2,80000642 <file_dup+0x22>
    80000650:	f37d                	bnez	a4,80000636 <file_dup+0x16>
    80000652:	f75ff0ef          	jal	ra,800005c6 <file_incref>
    80000656:	8522                	mv	a0,s0
    80000658:	60a2                	ld	ra,8(sp)
    8000065a:	6402                	ld	s0,0(sp)
    8000065c:	0141                	addi	sp,sp,16
    8000065e:	8082                	ret
    80000660:	547d                	li	s0,-1
    80000662:	8522                	mv	a0,s0
    80000664:	60a2                	ld	ra,8(sp)
    80000666:	6402                	ld	s0,0(sp)
    80000668:	0141                	addi	sp,sp,16
    8000066a:	8082                	ret

000000008000066c <file_init>:
    8000066c:	1101                	addi	sp,sp,-32
    8000066e:	e822                	sd	s0,16(sp)
    80000670:	e426                	sd	s1,8(sp)
    80000672:	ec06                	sd	ra,24(sp)
    80000674:	4401                	li	s0,0
    80000676:	448d                	li	s1,3
    80000678:	f0fff0ef          	jal	ra,80000586 <file_get_free>
    8000067c:	c100                	sw	s0,0(a0)
    8000067e:	2405                	addiw	s0,s0,1
    80000680:	fa1ff0ef          	jal	ra,80000620 <file_dup>
    80000684:	fe941ae3          	bne	s0,s1,80000678 <file_init+0xc>
    80000688:	60e2                	ld	ra,24(sp)
    8000068a:	6442                	ld	s0,16(sp)
    8000068c:	64a2                	ld	s1,8(sp)
    8000068e:	6105                	addi	sp,sp,32
    80000690:	8082                	ret

0000000080000692 <file_get>:
    80000692:	07f00793          	li	a5,127
    80000696:	02a7ee63          	bltu	a5,a0,800006d2 <file_get+0x40>
    8000069a:	050e                	slli	a0,a0,0x3
    8000069c:	0000c797          	auipc	a5,0xc
    800006a0:	96478793          	addi	a5,a5,-1692 # 8000c000 <fds>
    800006a4:	953e                	add	a0,a0,a5
    800006a6:	6108                	ld	a0,0(a0)
    800006a8:	e105                	bnez	a0,800006c8 <file_get+0x36>
    800006aa:	a025                	j	800006d2 <file_get+0x40>
    800006ac:	00450613          	addi	a2,a0,4
    800006b0:	0f50000f          	fence	iorw,ow
    800006b4:	1406272f          	lr.w.aq	a4,(a2)
    800006b8:	00f71563          	bne	a4,a5,800006c2 <file_get+0x30>
    800006bc:	1cd625af          	sc.w.aq	a1,a3,(a2)
    800006c0:	f9f5                	bnez	a1,800006b4 <file_get+0x22>
    800006c2:	2701                	sext.w	a4,a4
    800006c4:	00e78963          	beq	a5,a4,800006d6 <file_get+0x44>
    800006c8:	415c                	lw	a5,4(a0)
    800006ca:	2781                	sext.w	a5,a5
    800006cc:	0017869b          	addiw	a3,a5,1
    800006d0:	fff1                	bnez	a5,800006ac <file_get+0x1a>
    800006d2:	4501                	li	a0,0
    800006d4:	8082                	ret
    800006d6:	8082                	ret

00000000800006d8 <file_openat>:
    800006d8:	7179                	addi	sp,sp,-48
    800006da:	f022                	sd	s0,32(sp)
    800006dc:	e84a                	sd	s2,16(sp)
    800006de:	e44e                	sd	s3,8(sp)
    800006e0:	e052                	sd	s4,0(sp)
    800006e2:	f406                	sd	ra,40(sp)
    800006e4:	ec26                	sd	s1,24(sp)
    800006e6:	892a                	mv	s2,a0
    800006e8:	842e                	mv	s0,a1
    800006ea:	89b2                	mv	s3,a2
    800006ec:	8a36                	mv	s4,a3
    800006ee:	e99ff0ef          	jal	ra,80000586 <file_get_free>
    800006f2:	c12d                	beqz	a0,80000754 <file_openat+0x7c>
    800006f4:	84aa                	mv	s1,a0
    800006f6:	8522                	mv	a0,s0
    800006f8:	311070ef          	jal	ra,80008208 <strlen>
    800006fc:	800007b7          	lui	a5,0x80000
    80000700:	fff7c793          	not	a5,a5
    80000704:	8622                	mv	a2,s0
    80000706:	00150693          	addi	a3,a0,1
    8000070a:	0287f863          	bgeu	a5,s0,8000073a <file_openat+0x62>
    8000070e:	4881                	li	a7,0
    80000710:	4801                	li	a6,0
    80000712:	87d2                	mv	a5,s4
    80000714:	874e                	mv	a4,s3
    80000716:	85ca                	mv	a1,s2
    80000718:	03800513          	li	a0,56
    8000071c:	28a000ef          	jal	ra,800009a6 <frontend_syscall>
    80000720:	842a                	mv	s0,a0
    80000722:	02054463          	bltz	a0,8000074a <file_openat+0x72>
    80000726:	c088                	sw	a0,0(s1)
    80000728:	70a2                	ld	ra,40(sp)
    8000072a:	7402                	ld	s0,32(sp)
    8000072c:	8526                	mv	a0,s1
    8000072e:	6942                	ld	s2,16(sp)
    80000730:	64e2                	ld	s1,24(sp)
    80000732:	69a2                	ld	s3,8(sp)
    80000734:	6a02                	ld	s4,0(sp)
    80000736:	6145                	addi	sp,sp,48
    80000738:	8082                	ret
    8000073a:	00015797          	auipc	a5,0x15
    8000073e:	99678793          	addi	a5,a5,-1642 # 800150d0 <first_free_paddr>
    80000742:	639c                	ld	a5,0(a5)
    80000744:	00f40633          	add	a2,s0,a5
    80000748:	b7d9                	j	8000070e <file_openat+0x36>
    8000074a:	8526                	mv	a0,s1
    8000074c:	e9fff0ef          	jal	ra,800005ea <file_decref>
    80000750:	84a2                	mv	s1,s0
    80000752:	bfd9                	j	80000728 <file_openat+0x50>
    80000754:	54d1                	li	s1,-12
    80000756:	bfc9                	j	80000728 <file_openat+0x50>

0000000080000758 <file_open>:
    80000758:	86b2                	mv	a3,a2
    8000075a:	862e                	mv	a2,a1
    8000075c:	85aa                	mv	a1,a0
    8000075e:	f9c00513          	li	a0,-100
    80000762:	f77ff06f          	j	800006d8 <file_openat>

0000000080000766 <fd_close>:
    80000766:	1101                	addi	sp,sp,-32
    80000768:	e426                	sd	s1,8(sp)
    8000076a:	ec06                	sd	ra,24(sp)
    8000076c:	e822                	sd	s0,16(sp)
    8000076e:	84aa                	mv	s1,a0
    80000770:	f23ff0ef          	jal	ra,80000692 <file_get>
    80000774:	cd15                	beqz	a0,800007b0 <fd_close+0x4a>
    80000776:	048e                	slli	s1,s1,0x3
    80000778:	0000c797          	auipc	a5,0xc
    8000077c:	88878793          	addi	a5,a5,-1912 # 8000c000 <fds>
    80000780:	842a                	mv	s0,a0
    80000782:	97a6                	add	a5,a5,s1
    80000784:	0f50000f          	fence	iorw,ow
    80000788:	1407b4af          	lr.d.aq	s1,(a5)
    8000078c:	00a49563          	bne	s1,a0,80000796 <fd_close+0x30>
    80000790:	1c07b72f          	sc.d.aq	a4,zero,(a5)
    80000794:	fb75                	bnez	a4,80000788 <fd_close+0x22>
    80000796:	e55ff0ef          	jal	ra,800005ea <file_decref>
    8000079a:	00941b63          	bne	s0,s1,800007b0 <fd_close+0x4a>
    8000079e:	8522                	mv	a0,s0
    800007a0:	e4bff0ef          	jal	ra,800005ea <file_decref>
    800007a4:	4501                	li	a0,0
    800007a6:	60e2                	ld	ra,24(sp)
    800007a8:	6442                	ld	s0,16(sp)
    800007aa:	64a2                	ld	s1,8(sp)
    800007ac:	6105                	addi	sp,sp,32
    800007ae:	8082                	ret
    800007b0:	557d                	li	a0,-1
    800007b2:	bfd5                	j	800007a6 <fd_close+0x40>

00000000800007b4 <file_read>:
    800007b4:	1101                	addi	sp,sp,-32
    800007b6:	e822                	sd	s0,16(sp)
    800007b8:	e426                	sd	s1,8(sp)
    800007ba:	842e                	mv	s0,a1
    800007bc:	84b2                	mv	s1,a2
    800007be:	e04a                	sd	s2,0(sp)
    800007c0:	4609                	li	a2,2
    800007c2:	892a                	mv	s2,a0
    800007c4:	85a6                	mv	a1,s1
    800007c6:	8522                	mv	a0,s0
    800007c8:	ec06                	sd	ra,24(sp)
    800007ca:	711000ef          	jal	ra,800016da <populate_mapping>
    800007ce:	800007b7          	lui	a5,0x80000
    800007d2:	fff7c793          	not	a5,a5
    800007d6:	8622                	mv	a2,s0
    800007d8:	00092583          	lw	a1,0(s2)
    800007dc:	0087e963          	bltu	a5,s0,800007ee <file_read+0x3a>
    800007e0:	00015797          	auipc	a5,0x15
    800007e4:	8f078793          	addi	a5,a5,-1808 # 800150d0 <first_free_paddr>
    800007e8:	639c                	ld	a5,0(a5)
    800007ea:	00f40633          	add	a2,s0,a5
    800007ee:	6442                	ld	s0,16(sp)
    800007f0:	60e2                	ld	ra,24(sp)
    800007f2:	6902                	ld	s2,0(sp)
    800007f4:	86a6                	mv	a3,s1
    800007f6:	64a2                	ld	s1,8(sp)
    800007f8:	4881                	li	a7,0
    800007fa:	4801                	li	a6,0
    800007fc:	4781                	li	a5,0
    800007fe:	4701                	li	a4,0
    80000800:	03f00513          	li	a0,63
    80000804:	6105                	addi	sp,sp,32
    80000806:	1a00006f          	j	800009a6 <frontend_syscall>

000000008000080a <file_pread>:
    8000080a:	7179                	addi	sp,sp,-48
    8000080c:	f022                	sd	s0,32(sp)
    8000080e:	ec26                	sd	s1,24(sp)
    80000810:	842e                	mv	s0,a1
    80000812:	84b2                	mv	s1,a2
    80000814:	e44e                	sd	s3,8(sp)
    80000816:	4609                	li	a2,2
    80000818:	89aa                	mv	s3,a0
    8000081a:	85a6                	mv	a1,s1
    8000081c:	8522                	mv	a0,s0
    8000081e:	e84a                	sd	s2,16(sp)
    80000820:	f406                	sd	ra,40(sp)
    80000822:	8936                	mv	s2,a3
    80000824:	6b7000ef          	jal	ra,800016da <populate_mapping>
    80000828:	800007b7          	lui	a5,0x80000
    8000082c:	fff7c793          	not	a5,a5
    80000830:	8622                	mv	a2,s0
    80000832:	0009a583          	lw	a1,0(s3)
    80000836:	0087e963          	bltu	a5,s0,80000848 <file_pread+0x3e>
    8000083a:	00015797          	auipc	a5,0x15
    8000083e:	89678793          	addi	a5,a5,-1898 # 800150d0 <first_free_paddr>
    80000842:	639c                	ld	a5,0(a5)
    80000844:	00f40633          	add	a2,s0,a5
    80000848:	7402                	ld	s0,32(sp)
    8000084a:	70a2                	ld	ra,40(sp)
    8000084c:	69a2                	ld	s3,8(sp)
    8000084e:	874a                	mv	a4,s2
    80000850:	86a6                	mv	a3,s1
    80000852:	6942                	ld	s2,16(sp)
    80000854:	64e2                	ld	s1,24(sp)
    80000856:	4881                	li	a7,0
    80000858:	4801                	li	a6,0
    8000085a:	4781                	li	a5,0
    8000085c:	04300513          	li	a0,67
    80000860:	6145                	addi	sp,sp,48
    80000862:	1440006f          	j	800009a6 <frontend_syscall>

0000000080000866 <file_write>:
    80000866:	1101                	addi	sp,sp,-32
    80000868:	e822                	sd	s0,16(sp)
    8000086a:	e426                	sd	s1,8(sp)
    8000086c:	842e                	mv	s0,a1
    8000086e:	84b2                	mv	s1,a2
    80000870:	e04a                	sd	s2,0(sp)
    80000872:	4605                	li	a2,1
    80000874:	892a                	mv	s2,a0
    80000876:	85a6                	mv	a1,s1
    80000878:	8522                	mv	a0,s0
    8000087a:	ec06                	sd	ra,24(sp)
    8000087c:	65f000ef          	jal	ra,800016da <populate_mapping>
    80000880:	800007b7          	lui	a5,0x80000
    80000884:	fff7c793          	not	a5,a5
    80000888:	8622                	mv	a2,s0
    8000088a:	00092583          	lw	a1,0(s2)
    8000088e:	0087e963          	bltu	a5,s0,800008a0 <file_write+0x3a>
    80000892:	00015797          	auipc	a5,0x15
    80000896:	83e78793          	addi	a5,a5,-1986 # 800150d0 <first_free_paddr>
    8000089a:	639c                	ld	a5,0(a5)
    8000089c:	00f40633          	add	a2,s0,a5
    800008a0:	6442                	ld	s0,16(sp)
    800008a2:	60e2                	ld	ra,24(sp)
    800008a4:	6902                	ld	s2,0(sp)
    800008a6:	86a6                	mv	a3,s1
    800008a8:	64a2                	ld	s1,8(sp)
    800008aa:	4881                	li	a7,0
    800008ac:	4801                	li	a6,0
    800008ae:	4781                	li	a5,0
    800008b0:	4701                	li	a4,0
    800008b2:	04000513          	li	a0,64
    800008b6:	6105                	addi	sp,sp,32
    800008b8:	0ee0006f          	j	800009a6 <frontend_syscall>

00000000800008bc <file_pwrite>:
    800008bc:	7179                	addi	sp,sp,-48
    800008be:	f022                	sd	s0,32(sp)
    800008c0:	ec26                	sd	s1,24(sp)
    800008c2:	842e                	mv	s0,a1
    800008c4:	84b2                	mv	s1,a2
    800008c6:	e44e                	sd	s3,8(sp)
    800008c8:	4605                	li	a2,1
    800008ca:	89aa                	mv	s3,a0
    800008cc:	85a6                	mv	a1,s1
    800008ce:	8522                	mv	a0,s0
    800008d0:	e84a                	sd	s2,16(sp)
    800008d2:	f406                	sd	ra,40(sp)
    800008d4:	8936                	mv	s2,a3
    800008d6:	605000ef          	jal	ra,800016da <populate_mapping>
    800008da:	800007b7          	lui	a5,0x80000
    800008de:	fff7c793          	not	a5,a5
    800008e2:	8622                	mv	a2,s0
    800008e4:	0009a583          	lw	a1,0(s3)
    800008e8:	0087e963          	bltu	a5,s0,800008fa <file_pwrite+0x3e>
    800008ec:	00014797          	auipc	a5,0x14
    800008f0:	7e478793          	addi	a5,a5,2020 # 800150d0 <first_free_paddr>
    800008f4:	639c                	ld	a5,0(a5)
    800008f6:	00f40633          	add	a2,s0,a5
    800008fa:	7402                	ld	s0,32(sp)
    800008fc:	70a2                	ld	ra,40(sp)
    800008fe:	69a2                	ld	s3,8(sp)
    80000900:	874a                	mv	a4,s2
    80000902:	86a6                	mv	a3,s1
    80000904:	6942                	ld	s2,16(sp)
    80000906:	64e2                	ld	s1,24(sp)
    80000908:	4881                	li	a7,0
    8000090a:	4801                	li	a6,0
    8000090c:	4781                	li	a5,0
    8000090e:	04400513          	li	a0,68
    80000912:	6145                	addi	sp,sp,48
    80000914:	0920006f          	j	800009a6 <frontend_syscall>

0000000080000918 <file_stat>:
    80000918:	7135                	addi	sp,sp,-160
    8000091a:	800007b7          	lui	a5,0x80000
    8000091e:	e922                	sd	s0,144(sp)
    80000920:	e14a                	sd	s2,128(sp)
    80000922:	840a                	mv	s0,sp
    80000924:	ed06                	sd	ra,152(sp)
    80000926:	e526                	sd	s1,136(sp)
    80000928:	fff7c793          	not	a5,a5
    8000092c:	892e                	mv	s2,a1
    8000092e:	8622                	mv	a2,s0
    80000930:	410c                	lw	a1,0(a0)
    80000932:	0087e863          	bltu	a5,s0,80000942 <file_stat+0x2a>
    80000936:	00014797          	auipc	a5,0x14
    8000093a:	79a78793          	addi	a5,a5,1946 # 800150d0 <first_free_paddr>
    8000093e:	6390                	ld	a2,0(a5)
    80000940:	9622                	add	a2,a2,s0
    80000942:	4881                	li	a7,0
    80000944:	4801                	li	a6,0
    80000946:	4781                	li	a5,0
    80000948:	4701                	li	a4,0
    8000094a:	4681                	li	a3,0
    8000094c:	05000513          	li	a0,80
    80000950:	056000ef          	jal	ra,800009a6 <frontend_syscall>
    80000954:	84aa                	mv	s1,a0
    80000956:	85a2                	mv	a1,s0
    80000958:	854a                	mv	a0,s2
    8000095a:	0f6000ef          	jal	ra,80000a50 <copy_stat>
    8000095e:	60ea                	ld	ra,152(sp)
    80000960:	644a                	ld	s0,144(sp)
    80000962:	0004851b          	sext.w	a0,s1
    80000966:	690a                	ld	s2,128(sp)
    80000968:	64aa                	ld	s1,136(sp)
    8000096a:	610d                	addi	sp,sp,160
    8000096c:	8082                	ret

000000008000096e <file_truncate>:
    8000096e:	862e                	mv	a2,a1
    80000970:	410c                	lw	a1,0(a0)
    80000972:	1141                	addi	sp,sp,-16
    80000974:	4881                	li	a7,0
    80000976:	4801                	li	a6,0
    80000978:	4781                	li	a5,0
    8000097a:	4701                	li	a4,0
    8000097c:	4681                	li	a3,0
    8000097e:	02e00513          	li	a0,46
    80000982:	e406                	sd	ra,8(sp)
    80000984:	022000ef          	jal	ra,800009a6 <frontend_syscall>
    80000988:	60a2                	ld	ra,8(sp)
    8000098a:	2501                	sext.w	a0,a0
    8000098c:	0141                	addi	sp,sp,16
    8000098e:	8082                	ret

0000000080000990 <file_lseek>:
    80000990:	86b2                	mv	a3,a2
    80000992:	862e                	mv	a2,a1
    80000994:	410c                	lw	a1,0(a0)
    80000996:	4881                	li	a7,0
    80000998:	4801                	li	a6,0
    8000099a:	4781                	li	a5,0
    8000099c:	4701                	li	a4,0
    8000099e:	03e00513          	li	a0,62
    800009a2:	0040006f          	j	800009a6 <frontend_syscall>

00000000800009a6 <frontend_syscall>:
    800009a6:	1141                	addi	sp,sp,-16
    800009a8:	e406                	sd	ra,8(sp)
    800009aa:	e022                	sd	s0,0(sp)
    800009ac:	00014317          	auipc	t1,0x14
    800009b0:	67430313          	addi	t1,t1,1652 # 80015020 <lock.2343>
    800009b4:	5efd                	li	t4,-1
    800009b6:	00032e03          	lw	t3,0(t1)
    800009ba:	2e01                	sext.w	t3,t3
    800009bc:	fe0e1de3          	bnez	t3,800009b6 <frontend_syscall+0x10>
    800009c0:	8e76                	mv	t3,t4
    800009c2:	0dc32e2f          	amoswap.w.aq	t3,t3,(t1)
    800009c6:	2e01                	sext.w	t3,t3
    800009c8:	0ff0000f          	fence
    800009cc:	fe0e15e3          	bnez	t3,800009b6 <frontend_syscall+0x10>
    800009d0:	0000c417          	auipc	s0,0xc
    800009d4:	a2a43823          	sd	a0,-1488(s0) # 8000c400 <magic_mem.2342>
    800009d8:	0000c517          	auipc	a0,0xc
    800009dc:	a2b53823          	sd	a1,-1488(a0) # 8000c408 <magic_mem.2342+0x8>
    800009e0:	0000c597          	auipc	a1,0xc
    800009e4:	a2c5b823          	sd	a2,-1488(a1) # 8000c410 <magic_mem.2342+0x10>
    800009e8:	0000c617          	auipc	a2,0xc
    800009ec:	a2d63823          	sd	a3,-1488(a2) # 8000c418 <magic_mem.2342+0x18>
    800009f0:	0000c697          	auipc	a3,0xc
    800009f4:	a2e6b823          	sd	a4,-1488(a3) # 8000c420 <magic_mem.2342+0x20>
    800009f8:	0000c717          	auipc	a4,0xc
    800009fc:	a2f73823          	sd	a5,-1488(a4) # 8000c428 <magic_mem.2342+0x28>
    80000a00:	0000c417          	auipc	s0,0xc
    80000a04:	a0040413          	addi	s0,s0,-1536 # 8000c400 <magic_mem.2342>
    80000a08:	0000c797          	auipc	a5,0xc
    80000a0c:	a307b423          	sd	a6,-1496(a5) # 8000c430 <magic_mem.2342+0x30>
    80000a10:	8522                	mv	a0,s0
    80000a12:	0000c797          	auipc	a5,0xc
    80000a16:	a317b323          	sd	a7,-1498(a5) # 8000c438 <magic_mem.2342+0x38>
    80000a1a:	330020ef          	jal	ra,80002d4a <htif_syscall>
    80000a1e:	6008                	ld	a0,0(s0)
    80000a20:	0ff0000f          	fence
    80000a24:	60a2                	ld	ra,8(sp)
    80000a26:	6402                	ld	s0,0(sp)
    80000a28:	00014797          	auipc	a5,0x14
    80000a2c:	5e07ac23          	sw	zero,1528(a5) # 80015020 <lock.2343>
    80000a30:	0141                	addi	sp,sp,16
    80000a32:	8082                	ret

0000000080000a34 <shutdown>:
    80000a34:	1141                	addi	sp,sp,-16
    80000a36:	85aa                	mv	a1,a0
    80000a38:	4881                	li	a7,0
    80000a3a:	4801                	li	a6,0
    80000a3c:	4781                	li	a5,0
    80000a3e:	4701                	li	a4,0
    80000a40:	4681                	li	a3,0
    80000a42:	4601                	li	a2,0
    80000a44:	05d00513          	li	a0,93
    80000a48:	e406                	sd	ra,8(sp)
    80000a4a:	f5dff0ef          	jal	ra,800009a6 <frontend_syscall>
    80000a4e:	a001                	j	80000a4e <shutdown+0x1a>

0000000080000a50 <copy_stat>:
    80000a50:	0005b383          	ld	t2,0(a1)
    80000a54:	0085b283          	ld	t0,8(a1)
    80000a58:	0105af83          	lw	t6,16(a1)
    80000a5c:	0145af03          	lw	t5,20(a1)
    80000a60:	0185ae83          	lw	t4,24(a1)
    80000a64:	01c5ae03          	lw	t3,28(a1)
    80000a68:	0205b303          	ld	t1,32(a1)
    80000a6c:	0305b883          	ld	a7,48(a1)
    80000a70:	0385e803          	lwu	a6,56(a1)
    80000a74:	61b0                	ld	a2,64(a1)
    80000a76:	65b4                	ld	a3,72(a1)
    80000a78:	6db8                	ld	a4,88(a1)
    80000a7a:	75bc                	ld	a5,104(a1)
    80000a7c:	00751023          	sh	t2,0(a0)
    80000a80:	00551123          	sh	t0,2(a0)
    80000a84:	01f52223          	sw	t6,4(a0)
    80000a88:	01e51423          	sh	t5,8(a0)
    80000a8c:	01d51523          	sh	t4,10(a0)
    80000a90:	01c51623          	sh	t3,12(a0)
    80000a94:	00651723          	sh	t1,14(a0)
    80000a98:	01153823          	sd	a7,16(a0)
    80000a9c:	05053423          	sd	a6,72(a0)
    80000aa0:	e930                	sd	a2,80(a0)
    80000aa2:	ed14                	sd	a3,24(a0)
    80000aa4:	f518                	sd	a4,40(a0)
    80000aa6:	fd1c                	sd	a5,56(a0)
    80000aa8:	8082                	ret

0000000080000aaa <load_elf>:
    80000aaa:	7131                	addi	sp,sp,-192
    80000aac:	ed4e                	sd	s3,152(sp)
    80000aae:	4601                	li	a2,0
    80000ab0:	89ae                	mv	s3,a1
    80000ab2:	4581                	li	a1,0
    80000ab4:	fd06                	sd	ra,184(sp)
    80000ab6:	f922                	sd	s0,176(sp)
    80000ab8:	f526                	sd	s1,168(sp)
    80000aba:	f14a                	sd	s2,160(sp)
    80000abc:	e952                	sd	s4,144(sp)
    80000abe:	e556                	sd	s5,136(sp)
    80000ac0:	e15a                	sd	s6,128(sp)
    80000ac2:	fcde                	sd	s7,120(sp)
    80000ac4:	f8e2                	sd	s8,112(sp)
    80000ac6:	f4e6                	sd	s9,104(sp)
    80000ac8:	f0ea                	sd	s10,96(sp)
    80000aca:	ecee                	sd	s11,88(sp)
    80000acc:	e42a                	sd	a0,8(sp)
    80000ace:	c8bff0ef          	jal	ra,80000758 <file_open>
    80000ad2:	77fd                	lui	a5,0xfffff
    80000ad4:	18f57463          	bgeu	a0,a5,80000c5c <load_elf+0x1b2>
    80000ad8:	4681                	li	a3,0
    80000ada:	04000613          	li	a2,64
    80000ade:	080c                	addi	a1,sp,16
    80000ae0:	8aaa                	mv	s5,a0
    80000ae2:	d29ff0ef          	jal	ra,8000080a <file_pread>
    80000ae6:	03f00793          	li	a5,63
    80000aea:	16a7d963          	bge	a5,a0,80000c5c <load_elf+0x1b2>
    80000aee:	67c2                	ld	a5,16(sp)
    80000af0:	464c4737          	lui	a4,0x464c4
    80000af4:	57f70713          	addi	a4,a4,1407 # 464c457f <_ftext-0x39b3ba81>
    80000af8:	02079693          	slli	a3,a5,0x20
    80000afc:	9281                	srli	a3,a3,0x20
    80000afe:	54fd                	li	s1,-1
    80000b00:	14e69e63          	bne	a3,a4,80000c5c <load_elf+0x1b2>
    80000b04:	0000b717          	auipc	a4,0xb
    80000b08:	93c70713          	addi	a4,a4,-1732 # 8000b440 <trap_table+0x40>
    80000b0c:	6318                	ld	a4,0(a4)
    80000b0e:	0184d693          	srli	a3,s1,0x18
    80000b12:	8ff5                	and	a5,a5,a3
    80000b14:	18e79563          	bne	a5,a4,80000c9e <load_elf+0x1f4>
    80000b18:	04815783          	lhu	a5,72(sp)
    80000b1c:	0189b703          	ld	a4,24(s3)
    80000b20:	00379413          	slli	s0,a5,0x3
    80000b24:	8c1d                	sub	s0,s0,a5
    80000b26:	040e                	slli	s0,s0,0x3
    80000b28:	12876a63          	bltu	a4,s0,80000c5c <load_elf+0x1b2>
    80000b2c:	76c2                	ld	a3,48(sp)
    80000b2e:	0109b583          	ld	a1,16(s3)
    80000b32:	8622                	mv	a2,s0
    80000b34:	8556                	mv	a0,s5
    80000b36:	cd5ff0ef          	jal	ra,8000080a <file_pread>
    80000b3a:	12854163          	blt	a0,s0,80000c5c <load_elf+0x1b2>
    80000b3e:	02015a03          	lhu	s4,32(sp)
    80000b42:	04815683          	lhu	a3,72(sp)
    80000b46:	7722                	ld	a4,40(sp)
    80000b48:	1a75                	addi	s4,s4,-3
    80000b4a:	001a3a13          	seqz	s4,s4
    80000b4e:	0a32                	slli	s4,s4,0xc
    80000b50:	0006879b          	sext.w	a5,a3
    80000b54:	9752                	add	a4,a4,s4
    80000b56:	03800613          	li	a2,56
    80000b5a:	00f9a223          	sw	a5,4(s3)
    80000b5e:	00c9a023          	sw	a2,0(s3)
    80000b62:	02e9b423          	sd	a4,40(s3)
    80000b66:	37fd                	addiw	a5,a5,-1
    80000b68:	0109b583          	ld	a1,16(s3)
    80000b6c:	10978763          	beq	a5,s1,80000c7a <load_elf+0x1d0>
    80000b70:	fff6871b          	addiw	a4,a3,-1
    80000b74:	02071613          	slli	a2,a4,0x20
    80000b78:	00369893          	slli	a7,a3,0x3
    80000b7c:	9201                	srli	a2,a2,0x20
    80000b7e:	40d888b3          	sub	a7,a7,a3
    80000b82:	00379413          	slli	s0,a5,0x3
    80000b86:	088e                	slli	a7,a7,0x3
    80000b88:	00361713          	slli	a4,a2,0x3
    80000b8c:	8c1d                	sub	s0,s0,a5
    80000b8e:	f9088893          	addi	a7,a7,-112
    80000b92:	8f11                	sub	a4,a4,a2
    80000b94:	040e                	slli	s0,s0,0x3
    80000b96:	98ae                	add	a7,a7,a1
    80000b98:	070e                	slli	a4,a4,0x3
    80000b9a:	6b21                	lui	s6,0x8
    80000b9c:	6b85                	lui	s7,0x1
    80000b9e:	942e                	add	s0,s0,a1
    80000ba0:	40e88c33          	sub	s8,a7,a4
    80000ba4:	4d05                	li	s10,1
    80000ba6:	0b49                	addi	s6,s6,18
    80000ba8:	a029                	j	80000bb2 <load_elf+0x108>
    80000baa:	fc840413          	addi	s0,s0,-56
    80000bae:	0d840663          	beq	s0,s8,80000c7a <load_elf+0x1d0>
    80000bb2:	401c                	lw	a5,0(s0)
    80000bb4:	ffa79be3          	bne	a5,s10,80000baa <load_elf+0x100>
    80000bb8:	741c                	ld	a5,40(s0)
    80000bba:	dbe5                	beqz	a5,80000baa <load_elf+0x100>
    80000bbc:	01043803          	ld	a6,16(s0)
    80000bc0:	0309b703          	ld	a4,48(s3)
    80000bc4:	6685                	lui	a3,0x1
    80000bc6:	01480933          	add	s2,a6,s4
    80000bca:	16fd                	addi	a3,a3,-1
    80000bcc:	97ca                	add	a5,a5,s2
    80000bce:	00d87cb3          	and	s9,a6,a3
    80000bd2:	00f77463          	bgeu	a4,a5,80000bda <load_elf+0x130>
    80000bd6:	02f9b823          	sd	a5,48(s3)
    80000bda:	86da                	mv	a3,s6
    80000bdc:	000c9363          	bnez	s9,80000be2 <load_elf+0x138>
    80000be0:	46c9                	li	a3,18
    80000be2:	4058                	lw	a4,4(s0)
    80000be4:	641c                	ld	a5,8(s0)
    80000be6:	700c                	ld	a1,32(s0)
    80000be8:	0007061b          	sext.w	a2,a4
    80000bec:	0026149b          	slliw	s1,a2,0x2
    80000bf0:	0027571b          	srliw	a4,a4,0x2
    80000bf4:	8891                	andi	s1,s1,4
    80000bf6:	8b05                	andi	a4,a4,1
    80000bf8:	8f45                	or	a4,a4,s1
    80000bfa:	00267493          	andi	s1,a2,2
    80000bfe:	41990db3          	sub	s11,s2,s9
    80000c02:	8cd9                	or	s1,s1,a4
    80000c04:	419787b3          	sub	a5,a5,s9
    80000c08:	8756                	mv	a4,s5
    80000c0a:	0024e613          	ori	a2,s1,2
    80000c0e:	95e6                	add	a1,a1,s9
    80000c10:	856e                	mv	a0,s11
    80000c12:	4e0000ef          	jal	ra,800010f2 <__do_mmap>
    80000c16:	04ad9363          	bne	s11,a0,80000c5c <load_elf+0x1b2>
    80000c1a:	8666                	mv	a2,s9
    80000c1c:	4581                	li	a1,0
    80000c1e:	5a4070ef          	jal	ra,800081c2 <memset>
    80000c22:	0024f793          	andi	a5,s1,2
    80000c26:	c3b1                	beqz	a5,80000c6a <load_elf+0x1c0>
    80000c28:	701c                	ld	a5,32(s0)
    80000c2a:	740c                	ld	a1,40(s0)
    80000c2c:	419b8733          	sub	a4,s7,s9
    80000c30:	17fd                	addi	a5,a5,-1
    80000c32:	01978833          	add	a6,a5,s9
    80000c36:	77fd                	lui	a5,0xfffff
    80000c38:	00f87833          	and	a6,a6,a5
    80000c3c:	983a                	add	a6,a6,a4
    80000c3e:	f6b876e3          	bgeu	a6,a1,80000baa <load_elf+0x100>
    80000c42:	9942                	add	s2,s2,a6
    80000c44:	4781                	li	a5,0
    80000c46:	4701                	li	a4,0
    80000c48:	03200693          	li	a3,50
    80000c4c:	8626                	mv	a2,s1
    80000c4e:	410585b3          	sub	a1,a1,a6
    80000c52:	854a                	mv	a0,s2
    80000c54:	49e000ef          	jal	ra,800010f2 <__do_mmap>
    80000c58:	f4a909e3          	beq	s2,a0,80000baa <load_elf+0x100>
    80000c5c:	65a2                	ld	a1,8(sp)
    80000c5e:	00008517          	auipc	a0,0x8
    80000c62:	4fa50513          	addi	a0,a0,1274 # 80009158 <softfloat_countLeadingZeros8+0x1f0>
    80000c66:	166000ef          	jal	ra,80000dcc <do_panic>
    80000c6a:	700c                	ld	a1,32(s0)
    80000c6c:	8626                	mv	a2,s1
    80000c6e:	856e                	mv	a0,s11
    80000c70:	95e6                	add	a1,a1,s9
    80000c72:	049000ef          	jal	ra,800014ba <do_mprotect>
    80000c76:	d94d                	beqz	a0,80000c28 <load_elf+0x17e>
    80000c78:	b7d5                	j	80000c5c <load_elf+0x1b2>
    80000c7a:	8556                	mv	a0,s5
    80000c7c:	96fff0ef          	jal	ra,800005ea <file_decref>
    80000c80:	70ea                	ld	ra,184(sp)
    80000c82:	744a                	ld	s0,176(sp)
    80000c84:	74aa                	ld	s1,168(sp)
    80000c86:	790a                	ld	s2,160(sp)
    80000c88:	69ea                	ld	s3,152(sp)
    80000c8a:	6a4a                	ld	s4,144(sp)
    80000c8c:	6aaa                	ld	s5,136(sp)
    80000c8e:	6b0a                	ld	s6,128(sp)
    80000c90:	7be6                	ld	s7,120(sp)
    80000c92:	7c46                	ld	s8,112(sp)
    80000c94:	7ca6                	ld	s9,104(sp)
    80000c96:	7d06                	ld	s10,96(sp)
    80000c98:	6de6                	ld	s11,88(sp)
    80000c9a:	6129                	addi	sp,sp,192
    80000c9c:	8082                	ret
    80000c9e:	00008517          	auipc	a0,0x8
    80000ca2:	49a50513          	addi	a0,a0,1178 # 80009138 <softfloat_countLeadingZeros8+0x1d0>
    80000ca6:	00008697          	auipc	a3,0x8
    80000caa:	47268693          	addi	a3,a3,1138 # 80009118 <softfloat_countLeadingZeros8+0x1b0>
    80000cae:	02800613          	li	a2,40
    80000cb2:	00008597          	auipc	a1,0x8
    80000cb6:	47658593          	addi	a1,a1,1142 # 80009128 <softfloat_countLeadingZeros8+0x1c0>
    80000cba:	1e1010ef          	jal	ra,8000269a <printm>
    80000cbe:	6541                	lui	a0,0x10
    80000cc0:	157d                	addi	a0,a0,-1
    80000cc2:	24b010ef          	jal	ra,8000270c <poweroff>

0000000080000cc6 <vprintk>:
    80000cc6:	716d                	addi	sp,sp,-272
    80000cc8:	862a                	mv	a2,a0
    80000cca:	86ae                	mv	a3,a1
    80000ccc:	850a                	mv	a0,sp
    80000cce:	10000593          	li	a1,256
    80000cd2:	e606                	sd	ra,264(sp)
    80000cd4:	24c070ef          	jal	ra,80007f20 <vsnprintf>
    80000cd8:	0005071b          	sext.w	a4,a0
    80000cdc:	0ff00793          	li	a5,255
    80000ce0:	10000613          	li	a2,256
    80000ce4:	00e7e363          	bltu	a5,a4,80000cea <vprintk+0x24>
    80000ce8:	862a                	mv	a2,a0
    80000cea:	858a                	mv	a1,sp
    80000cec:	0000a517          	auipc	a0,0xa
    80000cf0:	32450513          	addi	a0,a0,804 # 8000b010 <files+0x10>
    80000cf4:	b73ff0ef          	jal	ra,80000866 <file_write>
    80000cf8:	60b2                	ld	ra,264(sp)
    80000cfa:	6151                	addi	sp,sp,272
    80000cfc:	8082                	ret

0000000080000cfe <printk>:
    80000cfe:	711d                	addi	sp,sp,-96
    80000d00:	02810313          	addi	t1,sp,40
    80000d04:	f42e                	sd	a1,40(sp)
    80000d06:	859a                	mv	a1,t1
    80000d08:	ec06                	sd	ra,24(sp)
    80000d0a:	f832                	sd	a2,48(sp)
    80000d0c:	fc36                	sd	a3,56(sp)
    80000d0e:	e0ba                	sd	a4,64(sp)
    80000d10:	e4be                	sd	a5,72(sp)
    80000d12:	e8c2                	sd	a6,80(sp)
    80000d14:	ecc6                	sd	a7,88(sp)
    80000d16:	e41a                	sd	t1,8(sp)
    80000d18:	fafff0ef          	jal	ra,80000cc6 <vprintk>
    80000d1c:	60e2                	ld	ra,24(sp)
    80000d1e:	6125                	addi	sp,sp,96
    80000d20:	8082                	ret

0000000080000d22 <dump_tf>:
    80000d22:	7139                	addi	sp,sp,-64
    80000d24:	f426                	sd	s1,40(sp)
    80000d26:	f04a                	sd	s2,32(sp)
    80000d28:	ec4e                	sd	s3,24(sp)
    80000d2a:	e852                	sd	s4,16(sp)
    80000d2c:	e456                	sd	s5,8(sp)
    80000d2e:	e05a                	sd	s6,0(sp)
    80000d30:	fc06                	sd	ra,56(sp)
    80000d32:	f822                	sd	s0,48(sp)
    80000d34:	00007a17          	auipc	s4,0x7
    80000d38:	584a0a13          	addi	s4,s4,1412 # 800082b8 <regnames.2671>
    80000d3c:	892a                	mv	s2,a0
    80000d3e:	00053023          	sd	zero,0(a0)
    80000d42:	8ad2                	mv	s5,s4
    80000d44:	02000493          	li	s1,32
    80000d48:	00008597          	auipc	a1,0x8
    80000d4c:	43058593          	addi	a1,a1,1072 # 80009178 <softfloat_countLeadingZeros8+0x210>
    80000d50:	4601                	li	a2,0
    80000d52:	00008997          	auipc	s3,0x8
    80000d56:	42e98993          	addi	s3,s3,1070 # 80009180 <softfloat_countLeadingZeros8+0x218>
    80000d5a:	10000b13          	li	s6,256
    80000d5e:	fe848413          	addi	s0,s1,-24
    80000d62:	02000693          	li	a3,32
    80000d66:	854e                	mv	a0,s3
    80000d68:	f97ff0ef          	jal	ra,80000cfe <printk>
    80000d6c:	008a0733          	add	a4,s4,s0
    80000d70:	008907b3          	add	a5,s2,s0
    80000d74:	0421                	addi	s0,s0,8
    80000d76:	630c                	ld	a1,0(a4)
    80000d78:	6390                	ld	a2,0(a5)
    80000d7a:	fe9414e3          	bne	s0,s1,80000d62 <dump_tf+0x40>
    80000d7e:	46a9                	li	a3,10
    80000d80:	854e                	mv	a0,s3
    80000d82:	f7dff0ef          	jal	ra,80000cfe <printk>
    80000d86:	020a8a93          	addi	s5,s5,32
    80000d8a:	01640a63          	beq	s0,s6,80000d9e <dump_tf+0x7c>
    80000d8e:	009907b3          	add	a5,s2,s1
    80000d92:	6390                	ld	a2,0(a5)
    80000d94:	000ab583          	ld	a1,0(s5)
    80000d98:	02048493          	addi	s1,s1,32
    80000d9c:	b7c9                	j	80000d5e <dump_tf+0x3c>
    80000d9e:	7442                	ld	s0,48(sp)
    80000da0:	10093703          	ld	a4,256(s2)
    80000da4:	12092683          	lw	a3,288(s2)
    80000da8:	11093603          	ld	a2,272(s2)
    80000dac:	10893583          	ld	a1,264(s2)
    80000db0:	70e2                	ld	ra,56(sp)
    80000db2:	74a2                	ld	s1,40(sp)
    80000db4:	7902                	ld	s2,32(sp)
    80000db6:	69e2                	ld	s3,24(sp)
    80000db8:	6a42                	ld	s4,16(sp)
    80000dba:	6aa2                	ld	s5,8(sp)
    80000dbc:	6b02                	ld	s6,0(sp)
    80000dbe:	00008517          	auipc	a0,0x8
    80000dc2:	3d250513          	addi	a0,a0,978 # 80009190 <softfloat_countLeadingZeros8+0x228>
    80000dc6:	6121                	addi	sp,sp,64
    80000dc8:	f37ff06f          	j	80000cfe <printk>

0000000080000dcc <do_panic>:
    80000dcc:	711d                	addi	sp,sp,-96
    80000dce:	02810313          	addi	t1,sp,40
    80000dd2:	f42e                	sd	a1,40(sp)
    80000dd4:	859a                	mv	a1,t1
    80000dd6:	ec06                	sd	ra,24(sp)
    80000dd8:	f832                	sd	a2,48(sp)
    80000dda:	fc36                	sd	a3,56(sp)
    80000ddc:	e0ba                	sd	a4,64(sp)
    80000dde:	e4be                	sd	a5,72(sp)
    80000de0:	e8c2                	sd	a6,80(sp)
    80000de2:	ecc6                	sd	a7,88(sp)
    80000de4:	e41a                	sd	t1,8(sp)
    80000de6:	ee1ff0ef          	jal	ra,80000cc6 <vprintk>
    80000dea:	557d                	li	a0,-1
    80000dec:	c49ff0ef          	jal	ra,80000a34 <shutdown>

0000000080000df0 <kassert_fail>:
    80000df0:	1141                	addi	sp,sp,-16
    80000df2:	862a                	mv	a2,a0
    80000df4:	8586                	mv	a1,ra
    80000df6:	00008517          	auipc	a0,0x8
    80000dfa:	3c250513          	addi	a0,a0,962 # 800091b8 <softfloat_countLeadingZeros8+0x250>
    80000dfe:	e406                	sd	ra,8(sp)
    80000e00:	fcdff0ef          	jal	ra,80000dcc <do_panic>

0000000080000e04 <__page_alloc>:
    80000e04:	00014797          	auipc	a5,0x14
    80000e08:	22c78793          	addi	a5,a5,556 # 80015030 <next_free_page>
    80000e0c:	00014717          	auipc	a4,0x14
    80000e10:	21c70713          	addi	a4,a4,540 # 80015028 <free_pages>
    80000e14:	639c                	ld	a5,0(a5)
    80000e16:	6318                	ld	a4,0(a4)
    80000e18:	1141                	addi	sp,sp,-16
    80000e1a:	e406                	sd	ra,8(sp)
    80000e1c:	02e78763          	beq	a5,a4,80000e4a <__page_alloc+0x46>
    80000e20:	00014717          	auipc	a4,0x14
    80000e24:	21870713          	addi	a4,a4,536 # 80015038 <first_free_page>
    80000e28:	6314                	ld	a3,0(a4)
    80000e2a:	00c79713          	slli	a4,a5,0xc
    80000e2e:	6605                	lui	a2,0x1
    80000e30:	9736                	add	a4,a4,a3
    80000e32:	0785                	addi	a5,a5,1
    80000e34:	853a                	mv	a0,a4
    80000e36:	4581                	li	a1,0
    80000e38:	00014717          	auipc	a4,0x14
    80000e3c:	1ef73c23          	sd	a5,504(a4) # 80015030 <next_free_page>
    80000e40:	382070ef          	jal	ra,800081c2 <memset>
    80000e44:	60a2                	ld	ra,8(sp)
    80000e46:	0141                	addi	sp,sp,16
    80000e48:	8082                	ret
    80000e4a:	00008517          	auipc	a0,0x8
    80000e4e:	48650513          	addi	a0,a0,1158 # 800092d0 <softfloat_countLeadingZeros8+0x368>
    80000e52:	f9fff0ef          	jal	ra,80000df0 <kassert_fail>

0000000080000e56 <__continue_walk_create>:
    80000e56:	1101                	addi	sp,sp,-32
    80000e58:	e822                	sd	s0,16(sp)
    80000e5a:	e426                	sd	s1,8(sp)
    80000e5c:	ec06                	sd	ra,24(sp)
    80000e5e:	84ae                	mv	s1,a1
    80000e60:	842a                	mv	s0,a0
    80000e62:	fa3ff0ef          	jal	ra,80000e04 <__page_alloc>
    80000e66:	8131                	srli	a0,a0,0xc
    80000e68:	052a                	slli	a0,a0,0xa
    80000e6a:	00156513          	ori	a0,a0,1
    80000e6e:	e088                	sd	a0,0(s1)
    80000e70:	8522                	mv	a0,s0
    80000e72:	6442                	ld	s0,16(sp)
    80000e74:	60e2                	ld	ra,24(sp)
    80000e76:	64a2                	ld	s1,8(sp)
    80000e78:	4585                	li	a1,1
    80000e7a:	6105                	addi	sp,sp,32
    80000e7c:	0040006f          	j	80000e80 <__walk_internal>

0000000080000e80 <__walk_internal>:
    80000e80:	00014797          	auipc	a5,0x14
    80000e84:	28078793          	addi	a5,a5,640 # 80015100 <root_page_table>
    80000e88:	01e55713          	srli	a4,a0,0x1e
    80000e8c:	639c                	ld	a5,0(a5)
    80000e8e:	1ff77713          	andi	a4,a4,511
    80000e92:	070e                	slli	a4,a4,0x3
    80000e94:	97ba                	add	a5,a5,a4
    80000e96:	6398                	ld	a4,0(a5)
    80000e98:	00177693          	andi	a3,a4,1
    80000e9c:	c695                	beqz	a3,80000ec8 <__walk_internal+0x48>
    80000e9e:	01555793          	srli	a5,a0,0x15
    80000ea2:	8329                	srli	a4,a4,0xa
    80000ea4:	1ff7f793          	andi	a5,a5,511
    80000ea8:	0732                	slli	a4,a4,0xc
    80000eaa:	078e                	slli	a5,a5,0x3
    80000eac:	97ba                	add	a5,a5,a4
    80000eae:	6398                	ld	a4,0(a5)
    80000eb0:	00177693          	andi	a3,a4,1
    80000eb4:	ca91                	beqz	a3,80000ec8 <__walk_internal+0x48>
    80000eb6:	8131                	srli	a0,a0,0xc
    80000eb8:	8329                	srli	a4,a4,0xa
    80000eba:	1ff57513          	andi	a0,a0,511
    80000ebe:	0732                	slli	a4,a4,0xc
    80000ec0:	050e                	slli	a0,a0,0x3
    80000ec2:	972a                	add	a4,a4,a0
    80000ec4:	853a                	mv	a0,a4
    80000ec6:	8082                	ret
    80000ec8:	4701                	li	a4,0
    80000eca:	dded                	beqz	a1,80000ec4 <__walk_internal+0x44>
    80000ecc:	85be                	mv	a1,a5
    80000ece:	f89ff06f          	j	80000e56 <__continue_walk_create>

0000000080000ed2 <__handle_page_fault>:
    80000ed2:	7179                	addi	sp,sp,-48
    80000ed4:	ec26                	sd	s1,24(sp)
    80000ed6:	74fd                	lui	s1,0xfffff
    80000ed8:	8ce9                	and	s1,s1,a0
    80000eda:	e84a                	sd	s2,16(sp)
    80000edc:	e44e                	sd	s3,8(sp)
    80000ede:	892a                	mv	s2,a0
    80000ee0:	89ae                	mv	s3,a1
    80000ee2:	8526                	mv	a0,s1
    80000ee4:	4581                	li	a1,0
    80000ee6:	f406                	sd	ra,40(sp)
    80000ee8:	f022                	sd	s0,32(sp)
    80000eea:	e052                	sd	s4,0(sp)
    80000eec:	f95ff0ef          	jal	ra,80000e80 <__walk_internal>
    80000ef0:	12050f63          	beqz	a0,8000102e <__handle_page_fault+0x15c>
    80000ef4:	6100                	ld	s0,0(a0)
    80000ef6:	8a2a                	mv	s4,a0
    80000ef8:	12040b63          	beqz	s0,8000102e <__handle_page_fault+0x15c>
    80000efc:	00014797          	auipc	a5,0x14
    80000f00:	16478793          	addi	a5,a5,356 # 80015060 <current>
    80000f04:	67b8                	ld	a4,72(a5)
    80000f06:	00148793          	addi	a5,s1,1 # fffffffffffff001 <_end+0xffffffff7ffe9001>
    80000f0a:	12f76263          	bltu	a4,a5,8000102e <__handle_page_fault+0x15c>
    80000f0e:	00147793          	andi	a5,s0,1
    80000f12:	ebc1                	bnez	a5,80000fa2 <__handle_page_fault+0xd0>
    80000f14:	00014797          	auipc	a5,0x14
    80000f18:	1bc78793          	addi	a5,a5,444 # 800150d0 <first_free_paddr>
    80000f1c:	639c                	ld	a5,0(a5)
    80000f1e:	00c95913          	srli	s2,s2,0xc
    80000f22:	83b1                	srli	a5,a5,0xc
    80000f24:	993e                	add	s2,s2,a5
    80000f26:	092a                	slli	s2,s2,0xa
    80000f28:	0c796793          	ori	a5,s2,199
    80000f2c:	e11c                	sd	a5,0(a0)
    80000f2e:	12000073          	sfence.vma
    80000f32:	6808                	ld	a0,16(s0)
    80000f34:	c16d                	beqz	a0,80001016 <__handle_page_fault+0x144>
    80000f36:	601c                	ld	a5,0(s0)
    80000f38:	6410                	ld	a2,8(s0)
    80000f3a:	6c14                	ld	a3,24(s0)
    80000f3c:	6705                	lui	a4,0x1
    80000f3e:	963e                	add	a2,a2,a5
    80000f40:	96a6                	add	a3,a3,s1
    80000f42:	8e05                	sub	a2,a2,s1
    80000f44:	8e9d                	sub	a3,a3,a5
    80000f46:	0ac76a63          	bltu	a4,a2,80000ffa <__handle_page_fault+0x128>
    80000f4a:	85a6                	mv	a1,s1
    80000f4c:	8bfff0ef          	jal	ra,8000080a <file_pread>
    80000f50:	0ea05163          	blez	a0,80001032 <__handle_page_fault+0x160>
    80000f54:	6605                	lui	a2,0x1
    80000f56:	0cc54663          	blt	a0,a2,80001022 <__handle_page_fault+0x150>
    80000f5a:	501c                	lw	a5,32(s0)
    80000f5c:	6808                	ld	a0,16(s0)
    80000f5e:	fff7871b          	addiw	a4,a5,-1
    80000f62:	d018                	sw	a4,32(s0)
    80000f64:	e701                	bnez	a4,80000f6c <__handle_page_fault+0x9a>
    80000f66:	c119                	beqz	a0,80000f6c <__handle_page_fault+0x9a>
    80000f68:	e82ff0ef          	jal	ra,800005ea <file_decref>
    80000f6c:	505c                	lw	a5,36(s0)
    80000f6e:	0027f713          	andi	a4,a5,2
    80000f72:	0047f693          	andi	a3,a5,4
    80000f76:	8b85                	andi	a5,a5,1
    80000f78:	2701                	sext.w	a4,a4
    80000f7a:	2681                	sext.w	a3,a3
    80000f7c:	e799                	bnez	a5,80000f8a <__handle_page_fault+0xb8>
    80000f7e:	e341                	bnez	a4,80000ffe <__handle_page_fault+0x12c>
    80000f80:	04800413          	li	s0,72
    80000f84:	ea89                	bnez	a3,80000f96 <__handle_page_fault+0xc4>
    80000f86:	4409                	li	s0,2
    80000f88:	a039                	j	80000f96 <__handle_page_fault+0xc4>
    80000f8a:	e341                	bnez	a4,8000100a <__handle_page_fault+0x138>
    80000f8c:	04a00413          	li	s0,74
    80000f90:	e299                	bnez	a3,80000f96 <__handle_page_fault+0xc4>
    80000f92:	04200413          	li	s0,66
    80000f96:	00896433          	or	s0,s2,s0
    80000f9a:	01146413          	ori	s0,s0,17
    80000f9e:	008a3023          	sd	s0,0(s4)
    80000fa2:	0029f793          	andi	a5,s3,2
    80000fa6:	0049f713          	andi	a4,s3,4
    80000faa:	0019f593          	andi	a1,s3,1
    80000fae:	2781                	sext.w	a5,a5
    80000fb0:	2701                	sext.w	a4,a4
    80000fb2:	c19d                	beqz	a1,80000fd8 <__handle_page_fault+0x106>
    80000fb4:	e3a1                	bnez	a5,80000ff4 <__handle_page_fault+0x122>
    80000fb6:	05b00793          	li	a5,91
    80000fba:	cb39                	beqz	a4,80001010 <__handle_page_fault+0x13e>
    80000fbc:	8c7d                	and	s0,s0,a5
    80000fbe:	06f41863          	bne	s0,a5,8000102e <__handle_page_fault+0x15c>
    80000fc2:	12000073          	sfence.vma
    80000fc6:	4501                	li	a0,0
    80000fc8:	70a2                	ld	ra,40(sp)
    80000fca:	7402                	ld	s0,32(sp)
    80000fcc:	64e2                	ld	s1,24(sp)
    80000fce:	6942                	ld	s2,16(sp)
    80000fd0:	69a2                	ld	s3,8(sp)
    80000fd2:	6a02                	ld	s4,0(sp)
    80000fd4:	6145                	addi	sp,sp,48
    80000fd6:	8082                	ret
    80000fd8:	e791                	bnez	a5,80000fe4 <__handle_page_fault+0x112>
    80000fda:	05900793          	li	a5,89
    80000fde:	ff79                	bnez	a4,80000fbc <__handle_page_fault+0xea>
    80000fe0:	47cd                	li	a5,19
    80000fe2:	bfe9                	j	80000fbc <__handle_page_fault+0xea>
    80000fe4:	08400693          	li	a3,132
    80000fe8:	0596e793          	ori	a5,a3,89
    80000fec:	fb61                	bnez	a4,80000fbc <__handle_page_fault+0xea>
    80000fee:	0116e793          	ori	a5,a3,17
    80000ff2:	b7e9                	j	80000fbc <__handle_page_fault+0xea>
    80000ff4:	0c600693          	li	a3,198
    80000ff8:	bfc5                	j	80000fe8 <__handle_page_fault+0x116>
    80000ffa:	6605                	lui	a2,0x1
    80000ffc:	b7b9                	j	80000f4a <__handle_page_fault+0x78>
    80000ffe:	08400413          	li	s0,132
    80001002:	dad1                	beqz	a3,80000f96 <__handle_page_fault+0xc4>
    80001004:	04846413          	ori	s0,s0,72
    80001008:	b779                	j	80000f96 <__handle_page_fault+0xc4>
    8000100a:	0c600413          	li	s0,198
    8000100e:	bfd5                	j	80001002 <__handle_page_fault+0x130>
    80001010:	05300793          	li	a5,83
    80001014:	b765                	j	80000fbc <__handle_page_fault+0xea>
    80001016:	6605                	lui	a2,0x1
    80001018:	4581                	li	a1,0
    8000101a:	8526                	mv	a0,s1
    8000101c:	1a6070ef          	jal	ra,800081c2 <memset>
    80001020:	bf2d                	j	80000f5a <__handle_page_fault+0x88>
    80001022:	8e09                	sub	a2,a2,a0
    80001024:	4581                	li	a1,0
    80001026:	9526                	add	a0,a0,s1
    80001028:	19a070ef          	jal	ra,800081c2 <memset>
    8000102c:	b73d                	j	80000f5a <__handle_page_fault+0x88>
    8000102e:	557d                	li	a0,-1
    80001030:	bf61                	j	80000fc8 <__handle_page_fault+0xf6>
    80001032:	00008517          	auipc	a0,0x8
    80001036:	2be50513          	addi	a0,a0,702 # 800092f0 <softfloat_countLeadingZeros8+0x388>
    8000103a:	db7ff0ef          	jal	ra,80000df0 <kassert_fail>

000000008000103e <__do_munmap>:
    8000103e:	7179                	addi	sp,sp,-48
    80001040:	e84a                	sd	s2,16(sp)
    80001042:	f406                	sd	ra,40(sp)
    80001044:	f022                	sd	s0,32(sp)
    80001046:	ec26                	sd	s1,24(sp)
    80001048:	e44e                	sd	s3,8(sp)
    8000104a:	00b50933          	add	s2,a0,a1
    8000104e:	03257d63          	bgeu	a0,s2,80001088 <__do_munmap+0x4a>
    80001052:	842a                	mv	s0,a0
    80001054:	6985                	lui	s3,0x1
    80001056:	8522                	mv	a0,s0
    80001058:	4581                	li	a1,0
    8000105a:	e27ff0ef          	jal	ra,80000e80 <__walk_internal>
    8000105e:	84aa                	mv	s1,a0
    80001060:	944e                	add	s0,s0,s3
    80001062:	c10d                	beqz	a0,80001084 <__do_munmap+0x46>
    80001064:	611c                	ld	a5,0(a0)
    80001066:	0017f713          	andi	a4,a5,1
    8000106a:	cf89                	beqz	a5,80001084 <__do_munmap+0x46>
    8000106c:	eb11                	bnez	a4,80001080 <__do_munmap+0x42>
    8000106e:	5398                	lw	a4,32(a5)
    80001070:	6b94                	ld	a3,16(a5)
    80001072:	377d                	addiw	a4,a4,-1
    80001074:	d398                	sw	a4,32(a5)
    80001076:	e709                	bnez	a4,80001080 <__do_munmap+0x42>
    80001078:	8536                	mv	a0,a3
    8000107a:	c299                	beqz	a3,80001080 <__do_munmap+0x42>
    8000107c:	d6eff0ef          	jal	ra,800005ea <file_decref>
    80001080:	0004b023          	sd	zero,0(s1)
    80001084:	fd2469e3          	bltu	s0,s2,80001056 <__do_munmap+0x18>
    80001088:	12000073          	sfence.vma
    8000108c:	70a2                	ld	ra,40(sp)
    8000108e:	7402                	ld	s0,32(sp)
    80001090:	64e2                	ld	s1,24(sp)
    80001092:	6942                	ld	s2,16(sp)
    80001094:	69a2                	ld	s3,8(sp)
    80001096:	6145                	addi	sp,sp,48
    80001098:	8082                	ret

000000008000109a <__valid_user_range>:
    8000109a:	95aa                	add	a1,a1,a0
    8000109c:	00a5ed63          	bltu	a1,a0,800010b6 <__valid_user_range+0x1c>
    800010a0:	00014797          	auipc	a5,0x14
    800010a4:	fc078793          	addi	a5,a5,-64 # 80015060 <current>
    800010a8:	67a8                	ld	a0,72(a5)
    800010aa:	00b53533          	sltu	a0,a0,a1
    800010ae:	00154513          	xori	a0,a0,1
    800010b2:	2501                	sext.w	a0,a0
    800010b4:	8082                	ret
    800010b6:	4501                	li	a0,0
    800010b8:	8082                	ret

00000000800010ba <handle_page_fault>:
    800010ba:	1141                	addi	sp,sp,-16
    800010bc:	e406                	sd	ra,8(sp)
    800010be:	00014797          	auipc	a5,0x14
    800010c2:	f8a78793          	addi	a5,a5,-118 # 80015048 <vm_lock>
    800010c6:	56fd                	li	a3,-1
    800010c8:	4398                	lw	a4,0(a5)
    800010ca:	2701                	sext.w	a4,a4
    800010cc:	ff75                	bnez	a4,800010c8 <handle_page_fault+0xe>
    800010ce:	8736                	mv	a4,a3
    800010d0:	0ce7a72f          	amoswap.w.aq	a4,a4,(a5)
    800010d4:	2701                	sext.w	a4,a4
    800010d6:	0ff0000f          	fence
    800010da:	f77d                	bnez	a4,800010c8 <handle_page_fault+0xe>
    800010dc:	df7ff0ef          	jal	ra,80000ed2 <__handle_page_fault>
    800010e0:	0ff0000f          	fence
    800010e4:	60a2                	ld	ra,8(sp)
    800010e6:	00014797          	auipc	a5,0x14
    800010ea:	f607a123          	sw	zero,-158(a5) # 80015048 <vm_lock>
    800010ee:	0141                	addi	sp,sp,16
    800010f0:	8082                	ret

00000000800010f2 <__do_mmap>:
    800010f2:	7159                	addi	sp,sp,-112
    800010f4:	fc56                	sd	s5,56(sp)
    800010f6:	8ab6                	mv	s5,a3
    800010f8:	fff58693          	addi	a3,a1,-1
    800010fc:	eca6                	sd	s1,88(sp)
    800010fe:	e8ca                	sd	s2,80(sp)
    80001100:	e0d2                	sd	s4,64(sp)
    80001102:	f85a                	sd	s6,48(sp)
    80001104:	f45e                	sd	s7,40(sp)
    80001106:	8b2e                	mv	s6,a1
    80001108:	82b1                	srli	a3,a3,0xc
    8000110a:	f486                	sd	ra,104(sp)
    8000110c:	f0a2                	sd	s0,96(sp)
    8000110e:	e4ce                	sd	s3,72(sp)
    80001110:	f062                	sd	s8,32(sp)
    80001112:	ec66                	sd	s9,24(sp)
    80001114:	e86a                	sd	s10,16(sp)
    80001116:	e46e                	sd	s11,8(sp)
    80001118:	010af593          	andi	a1,s5,16
    8000111c:	8a32                	mv	s4,a2
    8000111e:	84ba                	mv	s1,a4
    80001120:	893e                	mv	s2,a5
    80001122:	00168b93          	addi	s7,a3,1
    80001126:	10058663          	beqz	a1,80001232 <__do_mmap+0x140>
    8000112a:	03451793          	slli	a5,a0,0x34
    8000112e:	e3ed                	bnez	a5,80001210 <__do_mmap+0x11e>
    80001130:	00ab07b3          	add	a5,s6,a0
    80001134:	0ca7ee63          	bltu	a5,a0,80001210 <__do_mmap+0x11e>
    80001138:	00014717          	auipc	a4,0x14
    8000113c:	f2870713          	addi	a4,a4,-216 # 80015060 <current>
    80001140:	6738                	ld	a4,72(a4)
    80001142:	89aa                	mv	s3,a0
    80001144:	0cf76663          	bltu	a4,a5,80001210 <__do_mmap+0x11e>
    80001148:	00014417          	auipc	s0,0x14
    8000114c:	ef840413          	addi	s0,s0,-264 # 80015040 <vmrs>
    80001150:	601c                	ld	a5,0(s0)
    80001152:	2b81                	sext.w	s7,s7
    80001154:	12078d63          	beqz	a5,8000128e <__do_mmap+0x19c>
    80001158:	0ff0000f          	fence
    8000115c:	6000                	ld	s0,0(s0)
    8000115e:	6705                	lui	a4,0x1
    80001160:	1741                	addi	a4,a4,-16
    80001162:	501c                	lw	a5,32(s0)
    80001164:	9722                	add	a4,a4,s0
    80001166:	c799                	beqz	a5,80001174 <__do_mmap+0x82>
    80001168:	02840413          	addi	s0,s0,40
    8000116c:	0ae40263          	beq	s0,a4,80001210 <__do_mmap+0x11e>
    80001170:	501c                	lw	a5,32(s0)
    80001172:	fbfd                	bnez	a5,80001168 <__do_mmap+0x76>
    80001174:	c481                	beqz	s1,8000117c <__do_mmap+0x8a>
    80001176:	8526                	mv	a0,s1
    80001178:	c4eff0ef          	jal	ra,800005c6 <file_incref>
    8000117c:	01343023          	sd	s3,0(s0)
    80001180:	01643423          	sd	s6,8(s0)
    80001184:	e804                	sd	s1,16(s0)
    80001186:	01243c23          	sd	s2,24(s0)
    8000118a:	03742023          	sw	s7,32(s0)
    8000118e:	03442223          	sw	s4,36(s0)
    80001192:	cc3d                	beqz	s0,80001210 <__do_mmap+0x11e>
    80001194:	9b4e                	add	s6,s6,s3
    80001196:	84ce                	mv	s1,s3
    80001198:	0169e963          	bltu	s3,s6,800011aa <__do_mmap+0xb8>
    8000119c:	a89d                	j	80001212 <__do_mmap+0x120>
    8000119e:	6785                	lui	a5,0x1
    800011a0:	00893023          	sd	s0,0(s2)
    800011a4:	94be                	add	s1,s1,a5
    800011a6:	0364f563          	bgeu	s1,s6,800011d0 <__do_mmap+0xde>
    800011aa:	4585                	li	a1,1
    800011ac:	8526                	mv	a0,s1
    800011ae:	cd3ff0ef          	jal	ra,80000e80 <__walk_internal>
    800011b2:	892a                	mv	s2,a0
    800011b4:	10050e63          	beqz	a0,800012d0 <__do_mmap+0x1de>
    800011b8:	611c                	ld	a5,0(a0)
    800011ba:	d3f5                	beqz	a5,8000119e <__do_mmap+0xac>
    800011bc:	8526                	mv	a0,s1
    800011be:	6585                	lui	a1,0x1
    800011c0:	e7fff0ef          	jal	ra,8000103e <__do_munmap>
    800011c4:	6785                	lui	a5,0x1
    800011c6:	00893023          	sd	s0,0(s2)
    800011ca:	94be                	add	s1,s1,a5
    800011cc:	fd64efe3          	bltu	s1,s6,800011aa <__do_mmap+0xb8>
    800011d0:	0000a797          	auipc	a5,0xa
    800011d4:	29478793          	addi	a5,a5,660 # 8000b464 <demand_paging>
    800011d8:	439c                	lw	a5,0(a5)
    800011da:	844e                	mv	s0,s3
    800011dc:	c789                	beqz	a5,800011e6 <__do_mmap+0xf4>
    800011de:	030a9793          	slli	a5,s5,0x30
    800011e2:	0207d863          	bgez	a5,80001212 <__do_mmap+0x120>
    800011e6:	6485                	lui	s1,0x1
    800011e8:	a021                	j	800011f0 <__do_mmap+0xfe>
    800011ea:	9426                	add	s0,s0,s1
    800011ec:	03647363          	bgeu	s0,s6,80001212 <__do_mmap+0x120>
    800011f0:	85d2                	mv	a1,s4
    800011f2:	8522                	mv	a0,s0
    800011f4:	cdfff0ef          	jal	ra,80000ed2 <__handle_page_fault>
    800011f8:	d96d                	beqz	a0,800011ea <__do_mmap+0xf8>
    800011fa:	00008517          	auipc	a0,0x8
    800011fe:	10650513          	addi	a0,a0,262 # 80009300 <softfloat_countLeadingZeros8+0x398>
    80001202:	befff0ef          	jal	ra,80000df0 <kassert_fail>
    80001206:	99ea                	add	s3,s3,s10
    80001208:	07346863          	bltu	s0,s3,80001278 <__do_mmap+0x186>
    8000120c:	f2099ee3          	bnez	s3,80001148 <__do_mmap+0x56>
    80001210:	59fd                	li	s3,-1
    80001212:	70a6                	ld	ra,104(sp)
    80001214:	7406                	ld	s0,96(sp)
    80001216:	854e                	mv	a0,s3
    80001218:	64e6                	ld	s1,88(sp)
    8000121a:	6946                	ld	s2,80(sp)
    8000121c:	69a6                	ld	s3,72(sp)
    8000121e:	6a06                	ld	s4,64(sp)
    80001220:	7ae2                	ld	s5,56(sp)
    80001222:	7b42                	ld	s6,48(sp)
    80001224:	7ba2                	ld	s7,40(sp)
    80001226:	7c02                	ld	s8,32(sp)
    80001228:	6ce2                	ld	s9,24(sp)
    8000122a:	6d42                	ld	s10,16(sp)
    8000122c:	6da2                	ld	s11,8(sp)
    8000122e:	6165                	addi	sp,sp,112
    80001230:	8082                	ret
    80001232:	00014797          	auipc	a5,0x14
    80001236:	e2e78793          	addi	a5,a5,-466 # 80015060 <current>
    8000123a:	0487bc83          	ld	s9,72(a5)
    8000123e:	7f80                	ld	s0,56(a5)
    80001240:	00cb9c13          	slli	s8,s7,0xc
    80001244:	418c8cb3          	sub	s9,s9,s8
    80001248:	fc8ce4e3          	bltu	s9,s0,80001210 <__do_mmap+0x11e>
    8000124c:	7d7d                	lui	s10,0xfffff
    8000124e:	4581                	li	a1,0
    80001250:	8522                	mv	a0,s0
    80001252:	9c6a                	add	s8,s8,s10
    80001254:	6d85                	lui	s11,0x1
    80001256:	c2bff0ef          	jal	ra,80000e80 <__walk_internal>
    8000125a:	c919                	beqz	a0,80001270 <__do_mmap+0x17e>
    8000125c:	611c                	ld	a5,0(a0)
    8000125e:	cb89                	beqz	a5,80001270 <__do_mmap+0x17e>
    80001260:	946e                	add	s0,s0,s11
    80001262:	fa8ce7e3          	bltu	s9,s0,80001210 <__do_mmap+0x11e>
    80001266:	4581                	li	a1,0
    80001268:	8522                	mv	a0,s0
    8000126a:	c17ff0ef          	jal	ra,80000e80 <__walk_internal>
    8000126e:	f57d                	bnez	a0,8000125c <__do_mmap+0x16a>
    80001270:	008c09b3          	add	s3,s8,s0
    80001274:	f9347ce3          	bgeu	s0,s3,8000120c <__do_mmap+0x11a>
    80001278:	4581                	li	a1,0
    8000127a:	854e                	mv	a0,s3
    8000127c:	c05ff0ef          	jal	ra,80000e80 <__walk_internal>
    80001280:	d159                	beqz	a0,80001206 <__do_mmap+0x114>
    80001282:	611c                	ld	a5,0(a0)
    80001284:	d3c9                	beqz	a5,80001206 <__do_mmap+0x114>
    80001286:	ed3471e3          	bgeu	s0,s3,80001148 <__do_mmap+0x56>
    8000128a:	844e                	mv	s0,s3
    8000128c:	bfd1                	j	80001260 <__do_mmap+0x16e>
    8000128e:	00014717          	auipc	a4,0x14
    80001292:	dba70713          	addi	a4,a4,-582 # 80015048 <vm_lock>
    80001296:	56fd                	li	a3,-1
    80001298:	431c                	lw	a5,0(a4)
    8000129a:	2781                	sext.w	a5,a5
    8000129c:	fff5                	bnez	a5,80001298 <__do_mmap+0x1a6>
    8000129e:	87b6                	mv	a5,a3
    800012a0:	0cf727af          	amoswap.w.aq	a5,a5,(a4)
    800012a4:	2781                	sext.w	a5,a5
    800012a6:	0ff0000f          	fence
    800012aa:	f7fd                	bnez	a5,80001298 <__do_mmap+0x1a6>
    800012ac:	601c                	ld	a5,0(s0)
    800012ae:	cb81                	beqz	a5,800012be <__do_mmap+0x1cc>
    800012b0:	0ff0000f          	fence
    800012b4:	00014797          	auipc	a5,0x14
    800012b8:	d807aa23          	sw	zero,-620(a5) # 80015048 <vm_lock>
    800012bc:	bd71                	j	80001158 <__do_mmap+0x66>
    800012be:	b47ff0ef          	jal	ra,80000e04 <__page_alloc>
    800012c2:	0ff0000f          	fence
    800012c6:	00014797          	auipc	a5,0x14
    800012ca:	d6a7bd23          	sd	a0,-646(a5) # 80015040 <vmrs>
    800012ce:	b7cd                	j	800012b0 <__do_mmap+0x1be>
    800012d0:	00008517          	auipc	a0,0x8
    800012d4:	02850513          	addi	a0,a0,40 # 800092f8 <softfloat_countLeadingZeros8+0x390>
    800012d8:	b19ff0ef          	jal	ra,80000df0 <kassert_fail>

00000000800012dc <do_munmap>:
    800012dc:	1141                	addi	sp,sp,-16
    800012de:	e406                	sd	ra,8(sp)
    800012e0:	e022                	sd	s0,0(sp)
    800012e2:	03451793          	slli	a5,a0,0x34
    800012e6:	eba9                	bnez	a5,80001338 <do_munmap+0x5c>
    800012e8:	00b507b3          	add	a5,a0,a1
    800012ec:	5429                	li	s0,-22
    800012ee:	04a7e063          	bltu	a5,a0,8000132e <do_munmap+0x52>
    800012f2:	00014717          	auipc	a4,0x14
    800012f6:	d6e70713          	addi	a4,a4,-658 # 80015060 <current>
    800012fa:	6738                	ld	a4,72(a4)
    800012fc:	02f76963          	bltu	a4,a5,8000132e <do_munmap+0x52>
    80001300:	00014717          	auipc	a4,0x14
    80001304:	d4870713          	addi	a4,a4,-696 # 80015048 <vm_lock>
    80001308:	56fd                	li	a3,-1
    8000130a:	4300                	lw	s0,0(a4)
    8000130c:	2401                	sext.w	s0,s0
    8000130e:	fc75                	bnez	s0,8000130a <do_munmap+0x2e>
    80001310:	87b6                	mv	a5,a3
    80001312:	0cf727af          	amoswap.w.aq	a5,a5,(a4)
    80001316:	2781                	sext.w	a5,a5
    80001318:	0ff0000f          	fence
    8000131c:	f7fd                	bnez	a5,8000130a <do_munmap+0x2e>
    8000131e:	d21ff0ef          	jal	ra,8000103e <__do_munmap>
    80001322:	0ff0000f          	fence
    80001326:	00014797          	auipc	a5,0x14
    8000132a:	d207a123          	sw	zero,-734(a5) # 80015048 <vm_lock>
    8000132e:	8522                	mv	a0,s0
    80001330:	60a2                	ld	ra,8(sp)
    80001332:	6402                	ld	s0,0(sp)
    80001334:	0141                	addi	sp,sp,16
    80001336:	8082                	ret
    80001338:	5429                	li	s0,-22
    8000133a:	bfd5                	j	8000132e <do_munmap+0x52>

000000008000133c <do_mmap>:
    8000133c:	7139                	addi	sp,sp,-64
    8000133e:	f822                	sd	s0,48(sp)
    80001340:	fc06                	sd	ra,56(sp)
    80001342:	f426                	sd	s1,40(sp)
    80001344:	0026f813          	andi	a6,a3,2
    80001348:	5429                	li	s0,-22
    8000134a:	08080163          	beqz	a6,800013cc <do_mmap+0x90>
    8000134e:	cdbd                	beqz	a1,800013cc <do_mmap+0x90>
    80001350:	03479493          	slli	s1,a5,0x34
    80001354:	eca5                	bnez	s1,800013cc <do_mmap+0x90>
    80001356:	842a                	mv	s0,a0
    80001358:	0206f513          	andi	a0,a3,32
    8000135c:	ed35                	bnez	a0,800013d8 <do_mmap+0x9c>
    8000135e:	853a                	mv	a0,a4
    80001360:	ec3e                	sd	a5,24(sp)
    80001362:	e832                	sd	a2,16(sp)
    80001364:	e42e                	sd	a1,8(sp)
    80001366:	e036                	sd	a3,0(sp)
    80001368:	b2aff0ef          	jal	ra,80000692 <file_get>
    8000136c:	84aa                	mv	s1,a0
    8000136e:	6682                	ld	a3,0(sp)
    80001370:	65a2                	ld	a1,8(sp)
    80001372:	6642                	ld	a2,16(sp)
    80001374:	67e2                	ld	a5,24(sp)
    80001376:	c13d                	beqz	a0,800013dc <do_mmap+0xa0>
    80001378:	00014817          	auipc	a6,0x14
    8000137c:	cd080813          	addi	a6,a6,-816 # 80015048 <vm_lock>
    80001380:	557d                	li	a0,-1
    80001382:	00082703          	lw	a4,0(a6)
    80001386:	2701                	sext.w	a4,a4
    80001388:	ff6d                	bnez	a4,80001382 <do_mmap+0x46>
    8000138a:	872a                	mv	a4,a0
    8000138c:	0ce8272f          	amoswap.w.aq	a4,a4,(a6)
    80001390:	2701                	sext.w	a4,a4
    80001392:	0ff0000f          	fence
    80001396:	f775                	bnez	a4,80001382 <do_mmap+0x46>
    80001398:	8522                	mv	a0,s0
    8000139a:	8726                	mv	a4,s1
    8000139c:	d57ff0ef          	jal	ra,800010f2 <__do_mmap>
    800013a0:	00014797          	auipc	a5,0x14
    800013a4:	cc078793          	addi	a5,a5,-832 # 80015060 <current>
    800013a8:	63bc                	ld	a5,64(a5)
    800013aa:	842a                	mv	s0,a0
    800013ac:	00f57663          	bgeu	a0,a5,800013b8 <do_mmap+0x7c>
    800013b0:	00014797          	auipc	a5,0x14
    800013b4:	cea7b823          	sd	a0,-784(a5) # 800150a0 <current+0x40>
    800013b8:	0ff0000f          	fence
    800013bc:	00014797          	auipc	a5,0x14
    800013c0:	c807a623          	sw	zero,-884(a5) # 80015048 <vm_lock>
    800013c4:	c481                	beqz	s1,800013cc <do_mmap+0x90>
    800013c6:	8526                	mv	a0,s1
    800013c8:	a22ff0ef          	jal	ra,800005ea <file_decref>
    800013cc:	8522                	mv	a0,s0
    800013ce:	70e2                	ld	ra,56(sp)
    800013d0:	7442                	ld	s0,48(sp)
    800013d2:	74a2                	ld	s1,40(sp)
    800013d4:	6121                	addi	sp,sp,64
    800013d6:	8082                	ret
    800013d8:	4481                	li	s1,0
    800013da:	bf79                	j	80001378 <do_mmap+0x3c>
    800013dc:	545d                	li	s0,-9
    800013de:	b7fd                	j	800013cc <do_mmap+0x90>

00000000800013e0 <__do_brk>:
    800013e0:	1101                	addi	sp,sp,-32
    800013e2:	e04a                	sd	s2,0(sp)
    800013e4:	00014917          	auipc	s2,0x14
    800013e8:	c7c90913          	addi	s2,s2,-900 # 80015060 <current>
    800013ec:	03093783          	ld	a5,48(s2)
    800013f0:	e426                	sd	s1,8(sp)
    800013f2:	ec06                	sd	ra,24(sp)
    800013f4:	e822                	sd	s0,16(sp)
    800013f6:	84be                	mv	s1,a5
    800013f8:	00f56663          	bltu	a0,a5,80001404 <__do_brk+0x24>
    800013fc:	04093483          	ld	s1,64(s2)
    80001400:	04956363          	bltu	a0,s1,80001446 <__do_brk+0x66>
    80001404:	03893503          	ld	a0,56(s2)
    80001408:	e911                	bnez	a0,8000141c <__do_brk+0x3c>
    8000140a:	757d                	lui	a0,0xfffff
    8000140c:	17fd                	addi	a5,a5,-1
    8000140e:	8fe9                	and	a5,a5,a0
    80001410:	6505                	lui	a0,0x1
    80001412:	953e                	add	a0,a0,a5
    80001414:	00014797          	auipc	a5,0x14
    80001418:	c8a7b223          	sd	a0,-892(a5) # 80015098 <current+0x38>
    8000141c:	77fd                	lui	a5,0xfffff
    8000141e:	fff48413          	addi	s0,s1,-1 # fff <_ftext-0x7ffff001>
    80001422:	8c7d                	and	s0,s0,a5
    80001424:	6785                	lui	a5,0x1
    80001426:	943e                	add	s0,s0,a5
    80001428:	04a46463          	bltu	s0,a0,80001470 <__do_brk+0x90>
    8000142c:	00856f63          	bltu	a0,s0,8000144a <__do_brk+0x6a>
    80001430:	00014797          	auipc	a5,0x14
    80001434:	c687b423          	sd	s0,-920(a5) # 80015098 <current+0x38>
    80001438:	60e2                	ld	ra,24(sp)
    8000143a:	6442                	ld	s0,16(sp)
    8000143c:	8526                	mv	a0,s1
    8000143e:	6902                	ld	s2,0(sp)
    80001440:	64a2                	ld	s1,8(sp)
    80001442:	6105                	addi	sp,sp,32
    80001444:	8082                	ret
    80001446:	84aa                	mv	s1,a0
    80001448:	bf75                	j	80001404 <__do_brk+0x24>
    8000144a:	4781                	li	a5,0
    8000144c:	4701                	li	a4,0
    8000144e:	03200693          	li	a3,50
    80001452:	567d                	li	a2,-1
    80001454:	40a405b3          	sub	a1,s0,a0
    80001458:	c9bff0ef          	jal	ra,800010f2 <__do_mmap>
    8000145c:	03893783          	ld	a5,56(s2)
    80001460:	fcf508e3          	beq	a0,a5,80001430 <__do_brk+0x50>
    80001464:	00008517          	auipc	a0,0x8
    80001468:	ec450513          	addi	a0,a0,-316 # 80009328 <softfloat_countLeadingZeros8+0x3c0>
    8000146c:	985ff0ef          	jal	ra,80000df0 <kassert_fail>
    80001470:	408505b3          	sub	a1,a0,s0
    80001474:	8522                	mv	a0,s0
    80001476:	bc9ff0ef          	jal	ra,8000103e <__do_munmap>
    8000147a:	bf5d                	j	80001430 <__do_brk+0x50>

000000008000147c <do_brk>:
    8000147c:	1141                	addi	sp,sp,-16
    8000147e:	e406                	sd	ra,8(sp)
    80001480:	00014797          	auipc	a5,0x14
    80001484:	bc878793          	addi	a5,a5,-1080 # 80015048 <vm_lock>
    80001488:	56fd                	li	a3,-1
    8000148a:	4398                	lw	a4,0(a5)
    8000148c:	2701                	sext.w	a4,a4
    8000148e:	ff75                	bnez	a4,8000148a <do_brk+0xe>
    80001490:	8736                	mv	a4,a3
    80001492:	0ce7a72f          	amoswap.w.aq	a4,a4,(a5)
    80001496:	2701                	sext.w	a4,a4
    80001498:	0ff0000f          	fence
    8000149c:	f77d                	bnez	a4,8000148a <do_brk+0xe>
    8000149e:	f43ff0ef          	jal	ra,800013e0 <__do_brk>
    800014a2:	0ff0000f          	fence
    800014a6:	60a2                	ld	ra,8(sp)
    800014a8:	00014797          	auipc	a5,0x14
    800014ac:	ba07a023          	sw	zero,-1120(a5) # 80015048 <vm_lock>
    800014b0:	0141                	addi	sp,sp,16
    800014b2:	8082                	ret

00000000800014b4 <do_mremap>:
    800014b4:	fa800513          	li	a0,-88
    800014b8:	8082                	ret

00000000800014ba <do_mprotect>:
    800014ba:	715d                	addi	sp,sp,-80
    800014bc:	ec56                	sd	s5,24(sp)
    800014be:	03451a93          	slli	s5,a0,0x34
    800014c2:	e486                	sd	ra,72(sp)
    800014c4:	e0a2                	sd	s0,64(sp)
    800014c6:	fc26                	sd	s1,56(sp)
    800014c8:	f84a                	sd	s2,48(sp)
    800014ca:	f44e                	sd	s3,40(sp)
    800014cc:	f052                	sd	s4,32(sp)
    800014ce:	e85a                	sd	s6,16(sp)
    800014d0:	e45e                	sd	s7,8(sp)
    800014d2:	e062                	sd	s8,0(sp)
    800014d4:	034ada93          	srli	s5,s5,0x34
    800014d8:	120a9563          	bnez	s5,80001602 <do_mprotect+0x148>
    800014dc:	8c2a                	mv	s8,a0
    800014de:	8932                	mv	s2,a2
    800014e0:	00014717          	auipc	a4,0x14
    800014e4:	b6870713          	addi	a4,a4,-1176 # 80015048 <vm_lock>
    800014e8:	56fd                	li	a3,-1
    800014ea:	431c                	lw	a5,0(a4)
    800014ec:	2781                	sext.w	a5,a5
    800014ee:	fff5                	bnez	a5,800014ea <do_mprotect+0x30>
    800014f0:	87b6                	mv	a5,a3
    800014f2:	0cf727af          	amoswap.w.aq	a5,a5,(a4)
    800014f6:	2781                	sext.w	a5,a5
    800014f8:	0ff0000f          	fence
    800014fc:	f7fd                	bnez	a5,800014ea <do_mprotect+0x30>
    800014fe:	00bc09b3          	add	s3,s8,a1
    80001502:	093c7763          	bgeu	s8,s3,80001590 <do_mprotect+0xd6>
    80001506:	00197a13          	andi	s4,s2,1
    8000150a:	4b01                	li	s6,0
    8000150c:	0e0a1663          	bnez	s4,800015f8 <do_mprotect+0x13e>
    80001510:	00297413          	andi	s0,s2,2
    80001514:	00497493          	andi	s1,s2,4
    80001518:	084b6b93          	ori	s7,s6,132
    8000151c:	2401                	sext.w	s0,s0
    8000151e:	2481                	sext.w	s1,s1
    80001520:	0ccb6b13          	ori	s6,s6,204
    80001524:	a821                	j	8000153c <do_mprotect+0x82>
    80001526:	53d8                	lw	a4,36(a5)
    80001528:	00e966b3          	or	a3,s2,a4
    8000152c:	0ce69963          	bne	a3,a4,800015fe <do_mprotect+0x144>
    80001530:	0327a223          	sw	s2,36(a5)
    80001534:	6785                	lui	a5,0x1
    80001536:	9c3e                	add	s8,s8,a5
    80001538:	053c7c63          	bgeu	s8,s3,80001590 <do_mprotect+0xd6>
    8000153c:	4581                	li	a1,0
    8000153e:	8562                	mv	a0,s8
    80001540:	941ff0ef          	jal	ra,80000e80 <__walk_internal>
    80001544:	c169                	beqz	a0,80001606 <do_mprotect+0x14c>
    80001546:	611c                	ld	a5,0(a0)
    80001548:	cfdd                	beqz	a5,80001606 <do_mprotect+0x14c>
    8000154a:	0017f713          	andi	a4,a5,1
    8000154e:	df61                	beqz	a4,80001526 <do_mprotect+0x6c>
    80001550:	0107f713          	andi	a4,a5,16
    80001554:	c74d                	beqz	a4,800015fe <do_mprotect+0x144>
    80001556:	000a0563          	beqz	s4,80001560 <do_mprotect+0xa6>
    8000155a:	0027f713          	andi	a4,a5,2
    8000155e:	c345                	beqz	a4,800015fe <do_mprotect+0x144>
    80001560:	c401                	beqz	s0,80001568 <do_mprotect+0xae>
    80001562:	0047f713          	andi	a4,a5,4
    80001566:	cf41                	beqz	a4,800015fe <do_mprotect+0x144>
    80001568:	c481                	beqz	s1,80001570 <do_mprotect+0xb6>
    8000156a:	0087f713          	andi	a4,a5,8
    8000156e:	cb41                	beqz	a4,800015fe <do_mprotect+0x144>
    80001570:	040a1f63          	bnez	s4,800015ce <do_mprotect+0x114>
    80001574:	e039                	bnez	s0,800015ba <do_mprotect+0x100>
    80001576:	04800713          	li	a4,72
    8000157a:	c4bd                	beqz	s1,800015e8 <do_mprotect+0x12e>
    8000157c:	c007f793          	andi	a5,a5,-1024
    80001580:	8fd9                	or	a5,a5,a4
    80001582:	0117e793          	ori	a5,a5,17
    80001586:	e11c                	sd	a5,0(a0)
    80001588:	6785                	lui	a5,0x1
    8000158a:	9c3e                	add	s8,s8,a5
    8000158c:	fb3c68e3          	bltu	s8,s3,8000153c <do_mprotect+0x82>
    80001590:	0ff0000f          	fence
    80001594:	00014797          	auipc	a5,0x14
    80001598:	aa07aa23          	sw	zero,-1356(a5) # 80015048 <vm_lock>
    8000159c:	12000073          	sfence.vma
    800015a0:	60a6                	ld	ra,72(sp)
    800015a2:	6406                	ld	s0,64(sp)
    800015a4:	8556                	mv	a0,s5
    800015a6:	74e2                	ld	s1,56(sp)
    800015a8:	7942                	ld	s2,48(sp)
    800015aa:	79a2                	ld	s3,40(sp)
    800015ac:	7a02                	ld	s4,32(sp)
    800015ae:	6ae2                	ld	s5,24(sp)
    800015b0:	6b42                	ld	s6,16(sp)
    800015b2:	6ba2                	ld	s7,8(sp)
    800015b4:	6c02                	ld	s8,0(sp)
    800015b6:	6161                	addi	sp,sp,80
    800015b8:	8082                	ret
    800015ba:	875e                	mv	a4,s7
    800015bc:	d0e1                	beqz	s1,8000157c <do_mprotect+0xc2>
    800015be:	875a                	mv	a4,s6
    800015c0:	c007f793          	andi	a5,a5,-1024
    800015c4:	8fd9                	or	a5,a5,a4
    800015c6:	0117e793          	ori	a5,a5,17
    800015ca:	e11c                	sd	a5,0(a0)
    800015cc:	bf75                	j	80001588 <do_mprotect+0xce>
    800015ce:	f475                	bnez	s0,800015ba <do_mprotect+0x100>
    800015d0:	04a00713          	li	a4,74
    800015d4:	f4c5                	bnez	s1,8000157c <do_mprotect+0xc2>
    800015d6:	04200713          	li	a4,66
    800015da:	c007f793          	andi	a5,a5,-1024
    800015de:	8fd9                	or	a5,a5,a4
    800015e0:	0117e793          	ori	a5,a5,17
    800015e4:	e11c                	sd	a5,0(a0)
    800015e6:	b74d                	j	80001588 <do_mprotect+0xce>
    800015e8:	4709                	li	a4,2
    800015ea:	c007f793          	andi	a5,a5,-1024
    800015ee:	8fd9                	or	a5,a5,a4
    800015f0:	0117e793          	ori	a5,a5,17
    800015f4:	e11c                	sd	a5,0(a0)
    800015f6:	bf49                	j	80001588 <do_mprotect+0xce>
    800015f8:	04200b13          	li	s6,66
    800015fc:	bf11                	j	80001510 <do_mprotect+0x56>
    800015fe:	5acd                	li	s5,-13
    80001600:	bf41                	j	80001590 <do_mprotect+0xd6>
    80001602:	5aa9                	li	s5,-22
    80001604:	bf71                	j	800015a0 <do_mprotect+0xe6>
    80001606:	5ad1                	li	s5,-12
    80001608:	b761                	j	80001590 <do_mprotect+0xd6>

000000008000160a <__map_kernel_range>:
    8000160a:	715d                	addi	sp,sp,-80
    8000160c:	e0a2                	sd	s0,64(sp)
    8000160e:	fff60413          	addi	s0,a2,-1 # fff <_ftext-0x7ffff001>
    80001612:	767d                	lui	a2,0xfffff
    80001614:	8c71                	and	s0,s0,a2
    80001616:	6785                	lui	a5,0x1
    80001618:	943e                	add	s0,s0,a5
    8000161a:	f052                	sd	s4,32(sp)
    8000161c:	e486                	sd	ra,72(sp)
    8000161e:	fc26                	sd	s1,56(sp)
    80001620:	f84a                	sd	s2,48(sp)
    80001622:	f44e                	sd	s3,40(sp)
    80001624:	ec56                	sd	s5,24(sp)
    80001626:	e85a                	sd	s6,16(sp)
    80001628:	e45e                	sd	s7,8(sp)
    8000162a:	8031                	srli	s0,s0,0xc
    8000162c:	40a58a33          	sub	s4,a1,a0
    80001630:	cc2d                	beqz	s0,800016aa <__map_kernel_range+0xa0>
    80001632:	0016f993          	andi	s3,a3,1
    80001636:	8baa                	mv	s7,a0
    80001638:	4b01                	li	s6,0
    8000163a:	08099763          	bnez	s3,800016c8 <__map_kernel_range+0xbe>
    8000163e:	0026f913          	andi	s2,a3,2
    80001642:	0432                	slli	s0,s0,0xc
    80001644:	8a91                	andi	a3,a3,4
    80001646:	084b6a93          	ori	s5,s6,132
    8000164a:	945e                	add	s0,s0,s7
    8000164c:	2901                	sext.w	s2,s2
    8000164e:	0006849b          	sext.w	s1,a3
    80001652:	0ccb6b13          	ori	s6,s6,204
    80001656:	a005                	j	80001676 <__map_kernel_range+0x6c>
    80001658:	06091463          	bnez	s2,800016c0 <__map_kernel_range+0xb6>
    8000165c:	04800713          	li	a4,72
    80001660:	e091                	bnez	s1,80001664 <__map_kernel_range+0x5a>
    80001662:	4709                	li	a4,2
    80001664:	07aa                	slli	a5,a5,0xa
    80001666:	8fd9                	or	a5,a5,a4
    80001668:	0017e793          	ori	a5,a5,1
    8000166c:	e11c                	sd	a5,0(a0)
    8000166e:	6785                	lui	a5,0x1
    80001670:	9bbe                	add	s7,s7,a5
    80001672:	028b8c63          	beq	s7,s0,800016aa <__map_kernel_range+0xa0>
    80001676:	4585                	li	a1,1
    80001678:	855e                	mv	a0,s7
    8000167a:	807ff0ef          	jal	ra,80000e80 <__walk_internal>
    8000167e:	c921                	beqz	a0,800016ce <__map_kernel_range+0xc4>
    80001680:	017a07b3          	add	a5,s4,s7
    80001684:	83b1                	srli	a5,a5,0xc
    80001686:	fc0989e3          	beqz	s3,80001658 <__map_kernel_range+0x4e>
    8000168a:	02091b63          	bnez	s2,800016c0 <__map_kernel_range+0xb6>
    8000168e:	04a00713          	li	a4,74
    80001692:	f8e9                	bnez	s1,80001664 <__map_kernel_range+0x5a>
    80001694:	04200713          	li	a4,66
    80001698:	07aa                	slli	a5,a5,0xa
    8000169a:	8fd9                	or	a5,a5,a4
    8000169c:	0017e793          	ori	a5,a5,1
    800016a0:	e11c                	sd	a5,0(a0)
    800016a2:	6785                	lui	a5,0x1
    800016a4:	9bbe                	add	s7,s7,a5
    800016a6:	fc8b98e3          	bne	s7,s0,80001676 <__map_kernel_range+0x6c>
    800016aa:	60a6                	ld	ra,72(sp)
    800016ac:	6406                	ld	s0,64(sp)
    800016ae:	74e2                	ld	s1,56(sp)
    800016b0:	7942                	ld	s2,48(sp)
    800016b2:	79a2                	ld	s3,40(sp)
    800016b4:	7a02                	ld	s4,32(sp)
    800016b6:	6ae2                	ld	s5,24(sp)
    800016b8:	6b42                	ld	s6,16(sp)
    800016ba:	6ba2                	ld	s7,8(sp)
    800016bc:	6161                	addi	sp,sp,80
    800016be:	8082                	ret
    800016c0:	8756                	mv	a4,s5
    800016c2:	d0cd                	beqz	s1,80001664 <__map_kernel_range+0x5a>
    800016c4:	875a                	mv	a4,s6
    800016c6:	bf79                	j	80001664 <__map_kernel_range+0x5a>
    800016c8:	04200b13          	li	s6,66
    800016cc:	bf8d                	j	8000163e <__map_kernel_range+0x34>
    800016ce:	00008517          	auipc	a0,0x8
    800016d2:	c2a50513          	addi	a0,a0,-982 # 800092f8 <softfloat_countLeadingZeros8+0x390>
    800016d6:	f1aff0ef          	jal	ra,80000df0 <kassert_fail>

00000000800016da <populate_mapping>:
    800016da:	77fd                	lui	a5,0xfffff
    800016dc:	8a09                	andi	a2,a2,2
    800016de:	8fe9                	and	a5,a5,a0
    800016e0:	95aa                	add	a1,a1,a0
    800016e2:	2601                	sext.w	a2,a2
    800016e4:	6705                	lui	a4,0x1
    800016e6:	00b7f763          	bgeu	a5,a1,800016f4 <populate_mapping+0x1a>
    800016ea:	e611                	bnez	a2,800016f6 <populate_mapping+0x1c>
    800016ec:	4394                	lw	a3,0(a5)
    800016ee:	97ba                	add	a5,a5,a4
    800016f0:	feb7ede3          	bltu	a5,a1,800016ea <populate_mapping+0x10>
    800016f4:	8082                	ret
    800016f6:	0f50000f          	fence	iorw,ow
    800016fa:	0407a02f          	amoadd.w.aq	zero,zero,(a5)
    800016fe:	bfc5                	j	800016ee <populate_mapping+0x14>

0000000080001700 <pk_vm_init>:
    80001700:	7179                	addi	sp,sp,-48
    80001702:	e44e                	sd	s3,8(sp)
    80001704:	00014997          	auipc	s3,0x14
    80001708:	9e498993          	addi	s3,s3,-1564 # 800150e8 <mem_size>
    8000170c:	f022                	sd	s0,32(sp)
    8000170e:	0009b403          	ld	s0,0(s3)
    80001712:	4785                	li	a5,1
    80001714:	f406                	sd	ra,40(sp)
    80001716:	ec26                	sd	s1,24(sp)
    80001718:	e84a                	sd	s2,16(sp)
    8000171a:	07fe                	slli	a5,a5,0x1f
    8000171c:	0087f363          	bgeu	a5,s0,80001722 <pk_vm_init+0x22>
    80001720:	843e                	mv	s0,a5
    80001722:	00014797          	auipc	a5,0x14
    80001726:	9c87b323          	sd	s0,-1594(a5) # 800150e8 <mem_size>
    8000172a:	01445713          	srli	a4,s0,0x14
    8000172e:	47a1                	li	a5,8
    80001730:	00f77363          	bgeu	a4,a5,80001736 <pk_vm_init+0x36>
    80001734:	4721                	li	a4,8
    80001736:	76fd                	lui	a3,0xfffff
    80001738:	00015797          	auipc	a5,0x15
    8000173c:	8c778793          	addi	a5,a5,-1849 # 80015fff <hart_mask+0xec7>
    80001740:	8ff5                	and	a5,a5,a3
    80001742:	6685                	lui	a3,0x1
    80001744:	97b6                	add	a5,a5,a3
    80001746:	00c71693          	slli	a3,a4,0xc
    8000174a:	96be                	add	a3,a3,a5
    8000174c:	00014617          	auipc	a2,0x14
    80001750:	8ce63e23          	sd	a4,-1828(a2) # 80015028 <free_pages>
    80001754:	00014917          	auipc	s2,0x14
    80001758:	97c90913          	addi	s2,s2,-1668 # 800150d0 <first_free_paddr>
    8000175c:	00014717          	auipc	a4,0x14
    80001760:	8cf73e23          	sd	a5,-1828(a4) # 80015038 <first_free_page>
    80001764:	00014797          	auipc	a5,0x14
    80001768:	96d7b623          	sd	a3,-1684(a5) # 800150d0 <first_free_paddr>
    8000176c:	e98ff0ef          	jal	ra,80000e04 <__page_alloc>
    80001770:	00093783          	ld	a5,0(s2)
    80001774:	4485                	li	s1,1
    80001776:	01f49593          	slli	a1,s1,0x1f
    8000177a:	80000637          	lui	a2,0x80000
    8000177e:	00014717          	auipc	a4,0x14
    80001782:	98a73123          	sd	a0,-1662(a4) # 80015100 <root_page_table>
    80001786:	963e                	add	a2,a2,a5
    80001788:	852e                	mv	a0,a1
    8000178a:	469d                	li	a3,7
    8000178c:	e7fff0ef          	jal	ra,8000160a <__map_kernel_range>
    80001790:	0009b503          	ld	a0,0(s3)
    80001794:	00093703          	ld	a4,0(s2)
    80001798:	01f49793          	slli	a5,s1,0x1f
    8000179c:	953e                	add	a0,a0,a5
    8000179e:	8d19                	sub	a0,a0,a4
    800017a0:	00a7f363          	bgeu	a5,a0,800017a6 <pk_vm_init+0xa6>
    800017a4:	853e                	mv	a0,a5
    800017a6:	00014797          	auipc	a5,0x14
    800017aa:	8ea7bd23          	sd	a0,-1798(a5) # 800150a0 <current+0x40>
    800017ae:	00014797          	auipc	a5,0x14
    800017b2:	8ea7bd23          	sd	a0,-1798(a5) # 800150a8 <current+0x48>
    800017b6:	6785                	lui	a5,0x1
    800017b8:	8045                	srli	s0,s0,0x11
    800017ba:	80078793          	addi	a5,a5,-2048 # 800 <_ftext-0x7ffff800>
    800017be:	0087f363          	bgeu	a5,s0,800017c4 <pk_vm_init+0xc4>
    800017c2:	843e                	mv	s0,a5
    800017c4:	0432                	slli	s0,s0,0xc
    800017c6:	4701                	li	a4,0
    800017c8:	4781                	li	a5,0
    800017ca:	03200693          	li	a3,50
    800017ce:	461d                	li	a2,7
    800017d0:	85a2                	mv	a1,s0
    800017d2:	8d01                	sub	a0,a0,s0
    800017d4:	91fff0ef          	jal	ra,800010f2 <__do_mmap>
    800017d8:	577d                	li	a4,-1
    800017da:	02e50e63          	beq	a0,a4,80001816 <pk_vm_init+0x116>
    800017de:	942a                	add	s0,s0,a0
    800017e0:	00014797          	auipc	a5,0x14
    800017e4:	8c87b823          	sd	s0,-1840(a5) # 800150b0 <current+0x50>
    800017e8:	12000073          	sfence.vma
    800017ec:	00014797          	auipc	a5,0x14
    800017f0:	91478793          	addi	a5,a5,-1772 # 80015100 <root_page_table>
    800017f4:	639c                	ld	a5,0(a5)
    800017f6:	177e                	slli	a4,a4,0x3f
    800017f8:	83b1                	srli	a5,a5,0xc
    800017fa:	8fd9                	or	a5,a5,a4
    800017fc:	18079073          	csrw	satp,a5
    80001800:	e04ff0ef          	jal	ra,80000e04 <__page_alloc>
    80001804:	70a2                	ld	ra,40(sp)
    80001806:	7402                	ld	s0,32(sp)
    80001808:	6785                	lui	a5,0x1
    8000180a:	64e2                	ld	s1,24(sp)
    8000180c:	6942                	ld	s2,16(sp)
    8000180e:	69a2                	ld	s3,8(sp)
    80001810:	953e                	add	a0,a0,a5
    80001812:	6145                	addi	sp,sp,48
    80001814:	8082                	ret
    80001816:	00008517          	auipc	a0,0x8
    8000181a:	b8250513          	addi	a0,a0,-1150 # 80009398 <softfloat_countLeadingZeros8+0x430>
    8000181e:	dd2ff0ef          	jal	ra,80000df0 <kassert_fail>
	...

0000000080001824 <trap_entry>:
    80001824:	14011173          	csrrw	sp,sscratch,sp
    80001828:	00011463          	bnez	sp,80001830 <trap_entry+0xc>
    8000182c:	14002173          	csrr	sp,sscratch
    80001830:	7129                	addi	sp,sp,-320
    80001832:	e406                	sd	ra,8(sp)
    80001834:	ec0e                	sd	gp,24(sp)
    80001836:	f012                	sd	tp,32(sp)
    80001838:	f416                	sd	t0,40(sp)
    8000183a:	f81a                	sd	t1,48(sp)
    8000183c:	fc1e                	sd	t2,56(sp)
    8000183e:	e0a2                	sd	s0,64(sp)
    80001840:	e4a6                	sd	s1,72(sp)
    80001842:	e8aa                	sd	a0,80(sp)
    80001844:	ecae                	sd	a1,88(sp)
    80001846:	f0b2                	sd	a2,96(sp)
    80001848:	f4b6                	sd	a3,104(sp)
    8000184a:	f8ba                	sd	a4,112(sp)
    8000184c:	fcbe                	sd	a5,120(sp)
    8000184e:	e142                	sd	a6,128(sp)
    80001850:	e546                	sd	a7,136(sp)
    80001852:	e94a                	sd	s2,144(sp)
    80001854:	ed4e                	sd	s3,152(sp)
    80001856:	f152                	sd	s4,160(sp)
    80001858:	f556                	sd	s5,168(sp)
    8000185a:	f95a                	sd	s6,176(sp)
    8000185c:	fd5e                	sd	s7,184(sp)
    8000185e:	e1e2                	sd	s8,192(sp)
    80001860:	e5e6                	sd	s9,200(sp)
    80001862:	e9ea                	sd	s10,208(sp)
    80001864:	edee                	sd	s11,216(sp)
    80001866:	f1f2                	sd	t3,224(sp)
    80001868:	f5f6                	sd	t4,232(sp)
    8000186a:	f9fa                	sd	t5,240(sp)
    8000186c:	fdfe                	sd	t6,248(sp)
    8000186e:	140012f3          	csrrw	t0,sscratch,zero
    80001872:	10002473          	csrr	s0,sstatus
    80001876:	14102373          	csrr	t1,sepc
    8000187a:	143023f3          	csrr	t2,stval
    8000187e:	14202e73          	csrr	t3,scause
    80001882:	e816                	sd	t0,16(sp)
    80001884:	e222                	sd	s0,256(sp)
    80001886:	e61a                	sd	t1,264(sp)
    80001888:	ea1e                	sd	t2,272(sp)
    8000188a:	ee72                	sd	t3,280(sp)
    8000188c:	52fd                	li	t0,-1
    8000188e:	f216                	sd	t0,288(sp)
    80001890:	850a                	mv	a0,sp
    80001892:	264000ef          	jal	ra,80001af6 <handle_trap>
    80001896:	850a                	mv	a0,sp
    80001898:	10047413          	andi	s0,s0,256
    8000189c:	e401                	bnez	s0,800018a4 <start_user>
    8000189e:	6131                	addi	sp,sp,320
    800018a0:	14011073          	csrw	sscratch,sp

00000000800018a4 <start_user>:
    800018a4:	10053283          	ld	t0,256(a0)
    800018a8:	10853303          	ld	t1,264(a0)
    800018ac:	10029073          	csrw	sstatus,t0
    800018b0:	14131073          	csrw	sepc,t1
    800018b4:	00853083          	ld	ra,8(a0)
    800018b8:	01053103          	ld	sp,16(a0)
    800018bc:	01853183          	ld	gp,24(a0)
    800018c0:	02053203          	ld	tp,32(a0)
    800018c4:	02853283          	ld	t0,40(a0)
    800018c8:	03053303          	ld	t1,48(a0)
    800018cc:	03853383          	ld	t2,56(a0)
    800018d0:	6120                	ld	s0,64(a0)
    800018d2:	6524                	ld	s1,72(a0)
    800018d4:	6d2c                	ld	a1,88(a0)
    800018d6:	7130                	ld	a2,96(a0)
    800018d8:	7534                	ld	a3,104(a0)
    800018da:	7938                	ld	a4,112(a0)
    800018dc:	7d3c                	ld	a5,120(a0)
    800018de:	08053803          	ld	a6,128(a0)
    800018e2:	08853883          	ld	a7,136(a0)
    800018e6:	09053903          	ld	s2,144(a0)
    800018ea:	09853983          	ld	s3,152(a0)
    800018ee:	0a053a03          	ld	s4,160(a0)
    800018f2:	0a853a83          	ld	s5,168(a0)
    800018f6:	0b053b03          	ld	s6,176(a0)
    800018fa:	0b853b83          	ld	s7,184(a0)
    800018fe:	0c053c03          	ld	s8,192(a0)
    80001902:	0c853c83          	ld	s9,200(a0)
    80001906:	0d053d03          	ld	s10,208(a0)
    8000190a:	0d853d83          	ld	s11,216(a0)
    8000190e:	0e053e03          	ld	t3,224(a0)
    80001912:	0e853e83          	ld	t4,232(a0)
    80001916:	0f053f03          	ld	t5,240(a0)
    8000191a:	0f853f83          	ld	t6,248(a0)
    8000191e:	6928                	ld	a0,80(a0)
    80001920:	10200073          	sret
	...

0000000080001926 <segfault>:
    80001926:	1101                	addi	sp,sp,-32
    80001928:	e822                	sd	s0,16(sp)
    8000192a:	e426                	sd	s1,8(sp)
    8000192c:	e04a                	sd	s2,0(sp)
    8000192e:	84ae                	mv	s1,a1
    80001930:	892a                	mv	s2,a0
    80001932:	ec06                	sd	ra,24(sp)
    80001934:	8432                	mv	s0,a2
    80001936:	becff0ef          	jal	ra,80000d22 <dump_tf>
    8000193a:	10093783          	ld	a5,256(s2)
    8000193e:	00008597          	auipc	a1,0x8
    80001942:	a8258593          	addi	a1,a1,-1406 # 800093c0 <softfloat_countLeadingZeros8+0x458>
    80001946:	1007f793          	andi	a5,a5,256
    8000194a:	c789                	beqz	a5,80001954 <segfault+0x2e>
    8000194c:	00008597          	auipc	a1,0x8
    80001950:	a6c58593          	addi	a1,a1,-1428 # 800093b8 <softfloat_countLeadingZeros8+0x450>
    80001954:	86a6                	mv	a3,s1
    80001956:	8622                	mv	a2,s0
    80001958:	00008517          	auipc	a0,0x8
    8000195c:	a7050513          	addi	a0,a0,-1424 # 800093c8 <softfloat_countLeadingZeros8+0x460>
    80001960:	c6cff0ef          	jal	ra,80000dcc <do_panic>

0000000080001964 <handle_store_access_fault>:
    80001964:	1141                	addi	sp,sp,-16
    80001966:	e406                	sd	ra,8(sp)
    80001968:	bbaff0ef          	jal	ra,80000d22 <dump_tf>
    8000196c:	00008517          	auipc	a0,0x8
    80001970:	a7450513          	addi	a0,a0,-1420 # 800093e0 <softfloat_countLeadingZeros8+0x478>
    80001974:	c58ff0ef          	jal	ra,80000dcc <do_panic>

0000000080001978 <handle_misaligned_store>:
    80001978:	1141                	addi	sp,sp,-16
    8000197a:	e406                	sd	ra,8(sp)
    8000197c:	ba6ff0ef          	jal	ra,80000d22 <dump_tf>
    80001980:	00008517          	auipc	a0,0x8
    80001984:	a8050513          	addi	a0,a0,-1408 # 80009400 <softfloat_countLeadingZeros8+0x498>
    80001988:	c44ff0ef          	jal	ra,80000dcc <do_panic>

000000008000198c <handle_load_access_fault>:
    8000198c:	1141                	addi	sp,sp,-16
    8000198e:	e406                	sd	ra,8(sp)
    80001990:	b92ff0ef          	jal	ra,80000d22 <dump_tf>
    80001994:	00008517          	auipc	a0,0x8
    80001998:	a8450513          	addi	a0,a0,-1404 # 80009418 <softfloat_countLeadingZeros8+0x4b0>
    8000199c:	c30ff0ef          	jal	ra,80000dcc <do_panic>

00000000800019a0 <handle_misaligned_load>:
    800019a0:	1141                	addi	sp,sp,-16
    800019a2:	e406                	sd	ra,8(sp)
    800019a4:	b7eff0ef          	jal	ra,80000d22 <dump_tf>
    800019a8:	00008517          	auipc	a0,0x8
    800019ac:	a8850513          	addi	a0,a0,-1400 # 80009430 <softfloat_countLeadingZeros8+0x4c8>
    800019b0:	c1cff0ef          	jal	ra,80000dcc <do_panic>

00000000800019b4 <handle_illegal_instruction>:
    800019b4:	10853703          	ld	a4,264(a0)
    800019b8:	1141                	addi	sp,sp,-16
    800019ba:	e406                	sd	ra,8(sp)
    800019bc:	00075783          	lhu	a5,0(a4)
    800019c0:	468d                	li	a3,3
    800019c2:	12f53023          	sd	a5,288(a0)
    800019c6:	0037f613          	andi	a2,a5,3
    800019ca:	00d61863          	bne	a2,a3,800019da <handle_illegal_instruction+0x26>
    800019ce:	00275703          	lhu	a4,2(a4)
    800019d2:	0742                	slli	a4,a4,0x10
    800019d4:	8fd9                	or	a5,a5,a4
    800019d6:	12f53023          	sd	a5,288(a0)
    800019da:	b48ff0ef          	jal	ra,80000d22 <dump_tf>
    800019de:	00008517          	auipc	a0,0x8
    800019e2:	a6a50513          	addi	a0,a0,-1430 # 80009448 <softfloat_countLeadingZeros8+0x4e0>
    800019e6:	be6ff0ef          	jal	ra,80000dcc <do_panic>

00000000800019ea <handle_instruction_access_fault>:
    800019ea:	1141                	addi	sp,sp,-16
    800019ec:	e406                	sd	ra,8(sp)
    800019ee:	b34ff0ef          	jal	ra,80000d22 <dump_tf>
    800019f2:	00008517          	auipc	a0,0x8
    800019f6:	a7e50513          	addi	a0,a0,-1410 # 80009470 <softfloat_countLeadingZeros8+0x508>
    800019fa:	bd2ff0ef          	jal	ra,80000dcc <do_panic>

00000000800019fe <handle_misaligned_fetch>:
    800019fe:	1141                	addi	sp,sp,-16
    80001a00:	e406                	sd	ra,8(sp)
    80001a02:	b20ff0ef          	jal	ra,80000d22 <dump_tf>
    80001a06:	00008517          	auipc	a0,0x8
    80001a0a:	a8a50513          	addi	a0,a0,-1398 # 80009490 <softfloat_countLeadingZeros8+0x528>
    80001a0e:	bbeff0ef          	jal	ra,80000dcc <do_panic>

0000000080001a12 <handle_syscall>:
    80001a12:	1141                	addi	sp,sp,-16
    80001a14:	e022                	sd	s0,0(sp)
    80001a16:	7d3c                	ld	a5,120(a0)
    80001a18:	842a                	mv	s0,a0
    80001a1a:	08853803          	ld	a6,136(a0)
    80001a1e:	7938                	ld	a4,112(a0)
    80001a20:	7534                	ld	a3,104(a0)
    80001a22:	7130                	ld	a2,96(a0)
    80001a24:	6d2c                	ld	a1,88(a0)
    80001a26:	6928                	ld	a0,80(a0)
    80001a28:	e406                	sd	ra,8(sp)
    80001a2a:	287000ef          	jal	ra,800024b0 <do_syscall>
    80001a2e:	10843783          	ld	a5,264(s0)
    80001a32:	e828                	sd	a0,80(s0)
    80001a34:	60a2                	ld	ra,8(sp)
    80001a36:	0791                	addi	a5,a5,4
    80001a38:	10f43423          	sd	a5,264(s0)
    80001a3c:	6402                	ld	s0,0(sp)
    80001a3e:	0141                	addi	sp,sp,16
    80001a40:	8082                	ret

0000000080001a42 <handle_breakpoint>:
    80001a42:	1141                	addi	sp,sp,-16
    80001a44:	e406                	sd	ra,8(sp)
    80001a46:	e022                	sd	s0,0(sp)
    80001a48:	842a                	mv	s0,a0
    80001a4a:	ad8ff0ef          	jal	ra,80000d22 <dump_tf>
    80001a4e:	00008517          	auipc	a0,0x8
    80001a52:	a6250513          	addi	a0,a0,-1438 # 800094b0 <softfloat_countLeadingZeros8+0x548>
    80001a56:	aa8ff0ef          	jal	ra,80000cfe <printk>
    80001a5a:	10843783          	ld	a5,264(s0)
    80001a5e:	60a2                	ld	ra,8(sp)
    80001a60:	0791                	addi	a5,a5,4
    80001a62:	10f43423          	sd	a5,264(s0)
    80001a66:	6402                	ld	s0,0(sp)
    80001a68:	0141                	addi	sp,sp,16
    80001a6a:	8082                	ret

0000000080001a6c <handle_fault_store>:
    80001a6c:	1141                	addi	sp,sp,-16
    80001a6e:	e022                	sd	s0,0(sp)
    80001a70:	842a                	mv	s0,a0
    80001a72:	11053503          	ld	a0,272(a0)
    80001a76:	4589                	li	a1,2
    80001a78:	e406                	sd	ra,8(sp)
    80001a7a:	e40ff0ef          	jal	ra,800010ba <handle_page_fault>
    80001a7e:	e509                	bnez	a0,80001a88 <handle_fault_store+0x1c>
    80001a80:	60a2                	ld	ra,8(sp)
    80001a82:	6402                	ld	s0,0(sp)
    80001a84:	0141                	addi	sp,sp,16
    80001a86:	8082                	ret
    80001a88:	11043583          	ld	a1,272(s0)
    80001a8c:	00008617          	auipc	a2,0x8
    80001a90:	a3460613          	addi	a2,a2,-1484 # 800094c0 <softfloat_countLeadingZeros8+0x558>
    80001a94:	8522                	mv	a0,s0
    80001a96:	e91ff0ef          	jal	ra,80001926 <segfault>

0000000080001a9a <handle_fault_load>:
    80001a9a:	1141                	addi	sp,sp,-16
    80001a9c:	e022                	sd	s0,0(sp)
    80001a9e:	842a                	mv	s0,a0
    80001aa0:	11053503          	ld	a0,272(a0)
    80001aa4:	4585                	li	a1,1
    80001aa6:	e406                	sd	ra,8(sp)
    80001aa8:	e12ff0ef          	jal	ra,800010ba <handle_page_fault>
    80001aac:	e509                	bnez	a0,80001ab6 <handle_fault_load+0x1c>
    80001aae:	60a2                	ld	ra,8(sp)
    80001ab0:	6402                	ld	s0,0(sp)
    80001ab2:	0141                	addi	sp,sp,16
    80001ab4:	8082                	ret
    80001ab6:	11043583          	ld	a1,272(s0)
    80001aba:	00008617          	auipc	a2,0x8
    80001abe:	a0e60613          	addi	a2,a2,-1522 # 800094c8 <softfloat_countLeadingZeros8+0x560>
    80001ac2:	8522                	mv	a0,s0
    80001ac4:	e63ff0ef          	jal	ra,80001926 <segfault>

0000000080001ac8 <handle_fault_fetch>:
    80001ac8:	1141                	addi	sp,sp,-16
    80001aca:	e022                	sd	s0,0(sp)
    80001acc:	842a                	mv	s0,a0
    80001ace:	11053503          	ld	a0,272(a0)
    80001ad2:	4591                	li	a1,4
    80001ad4:	e406                	sd	ra,8(sp)
    80001ad6:	de4ff0ef          	jal	ra,800010ba <handle_page_fault>
    80001ada:	e509                	bnez	a0,80001ae4 <handle_fault_fetch+0x1c>
    80001adc:	60a2                	ld	ra,8(sp)
    80001ade:	6402                	ld	s0,0(sp)
    80001ae0:	0141                	addi	sp,sp,16
    80001ae2:	8082                	ret
    80001ae4:	11043583          	ld	a1,272(s0)
    80001ae8:	00008617          	auipc	a2,0x8
    80001aec:	9e860613          	addi	a2,a2,-1560 # 800094d0 <softfloat_countLeadingZeros8+0x568>
    80001af0:	8522                	mv	a0,s0
    80001af2:	e35ff0ef          	jal	ra,80001926 <segfault>

0000000080001af6 <handle_trap>:
    80001af6:	11853783          	ld	a5,280(a0)
    80001afa:	0207c063          	bltz	a5,80001b1a <handle_trap+0x24>
    80001afe:	473d                	li	a4,15
    80001b00:	02f74063          	blt	a4,a5,80001b20 <handle_trap+0x2a>
    80001b04:	078e                	slli	a5,a5,0x3
    80001b06:	00007717          	auipc	a4,0x7
    80001b0a:	8b270713          	addi	a4,a4,-1870 # 800083b8 <trap_handlers.2793>
    80001b0e:	97ba                	add	a5,a5,a4
    80001b10:	0007b303          	ld	t1,0(a5) # 1000 <_ftext-0x7ffff000>
    80001b14:	00030663          	beqz	t1,80001b20 <handle_trap+0x2a>
    80001b18:	8302                	jr	t1
    80001b1a:	144177f3          	csrrci	a5,sip,2
    80001b1e:	8082                	ret
    80001b20:	1141                	addi	sp,sp,-16
    80001b22:	00008517          	auipc	a0,0x8
    80001b26:	9b650513          	addi	a0,a0,-1610 # 800094d8 <softfloat_countLeadingZeros8+0x570>
    80001b2a:	e406                	sd	ra,8(sp)
    80001b2c:	ac4ff0ef          	jal	ra,80000df0 <kassert_fail>

0000000080001b30 <sys_getpid>:
    80001b30:	4501                	li	a0,0
    80001b32:	8082                	ret

0000000080001b34 <sys_time>:
    80001b34:	c00027f3          	rdcycle	a5
    80001b38:	3b9ad737          	lui	a4,0x3b9ad
    80001b3c:	a0070713          	addi	a4,a4,-1536 # 3b9aca00 <_ftext-0x44653600>
    80001b40:	02e7d7b3          	divu	a5,a5,a4
    80001b44:	c111                	beqz	a0,80001b48 <sys_time+0x14>
    80001b46:	e11c                	sd	a5,0(a0)
    80001b48:	853e                	mv	a0,a5
    80001b4a:	8082                	ret

0000000080001b4c <sys_times>:
    80001b4c:	87aa                	mv	a5,a0
    80001b4e:	c0002773          	rdcycle	a4
    80001b52:	3e800693          	li	a3,1000
    80001b56:	02d75733          	divu	a4,a4,a3
    80001b5a:	00053423          	sd	zero,8(a0)
    80001b5e:	00053823          	sd	zero,16(a0)
    80001b62:	00053c23          	sd	zero,24(a0)
    80001b66:	4501                	li	a0,0
    80001b68:	e398                	sd	a4,0(a5)
    80001b6a:	8082                	ret

0000000080001b6c <sys_gettimeofday>:
    80001b6c:	862a                	mv	a2,a0
    80001b6e:	c00027f3          	rdcycle	a5
    80001b72:	3b9ad737          	lui	a4,0x3b9ad
    80001b76:	a0070713          	addi	a4,a4,-1536 # 3b9aca00 <_ftext-0x44653600>
    80001b7a:	02e7f6b3          	remu	a3,a5,a4
    80001b7e:	4501                	li	a0,0
    80001b80:	02e7d7b3          	divu	a5,a5,a4
    80001b84:	3e800713          	li	a4,1000
    80001b88:	02e6d733          	divu	a4,a3,a4
    80001b8c:	e21c                	sd	a5,0(a2)
    80001b8e:	e618                	sd	a4,8(a2)
    80001b90:	8082                	ret

0000000080001b92 <sys_clock_gettime>:
    80001b92:	c00027f3          	rdcycle	a5
    80001b96:	3b9ad737          	lui	a4,0x3b9ad
    80001b9a:	a0070713          	addi	a4,a4,-1536 # 3b9aca00 <_ftext-0x44653600>
    80001b9e:	02e7d6b3          	divu	a3,a5,a4
    80001ba2:	4501                	li	a0,0
    80001ba4:	02e7f7b3          	remu	a5,a5,a4
    80001ba8:	e194                	sd	a3,0(a1)
    80001baa:	e59c                	sd	a5,8(a1)
    80001bac:	8082                	ret

0000000080001bae <sys_getdents>:
    80001bae:	4501                	li	a0,0
    80001bb0:	8082                	ret

0000000080001bb2 <sys_stub_nosys>:
    80001bb2:	fa800513          	li	a0,-88
    80001bb6:	8082                	ret

0000000080001bb8 <sys_exit>:
    80001bb8:	00013797          	auipc	a5,0x13
    80001bbc:	4a878793          	addi	a5,a5,1192 # 80015060 <current>
    80001bc0:	73b8                	ld	a4,96(a5)
    80001bc2:	1101                	addi	sp,sp,-32
    80001bc4:	e04a                	sd	s2,0(sp)
    80001bc6:	ec06                	sd	ra,24(sp)
    80001bc8:	e822                	sd	s0,16(sp)
    80001bca:	e426                	sd	s1,8(sp)
    80001bcc:	892a                	mv	s2,a0
    80001bce:	e701                	bnez	a4,80001bd6 <sys_exit+0x1e>
    80001bd0:	854a                	mv	a0,s2
    80001bd2:	e63fe0ef          	jal	ra,80000a34 <shutdown>
    80001bd6:	c01025f3          	rdtime	a1
    80001bda:	c00024f3          	rdcycle	s1
    80001bde:	8c99                	sub	s1,s1,a4
    80001be0:	c0202473          	rdinstret	s0
    80001be4:	6fb8                	ld	a4,88(a5)
    80001be6:	77bc                	ld	a5,104(a5)
    80001be8:	00008517          	auipc	a0,0x8
    80001bec:	93850513          	addi	a0,a0,-1736 # 80009520 <softfloat_countLeadingZeros8+0x5b8>
    80001bf0:	8d99                	sub	a1,a1,a4
    80001bf2:	8c1d                	sub	s0,s0,a5
    80001bf4:	90aff0ef          	jal	ra,80000cfe <printk>
    80001bf8:	85a6                	mv	a1,s1
    80001bfa:	00008517          	auipc	a0,0x8
    80001bfe:	93650513          	addi	a0,a0,-1738 # 80009530 <softfloat_countLeadingZeros8+0x5c8>
    80001c02:	8fcff0ef          	jal	ra,80000cfe <printk>
    80001c06:	85a2                	mv	a1,s0
    80001c08:	00008517          	auipc	a0,0x8
    80001c0c:	93850513          	addi	a0,a0,-1736 # 80009540 <softfloat_countLeadingZeros8+0x5d8>
    80001c10:	8eeff0ef          	jal	ra,80000cfe <printk>
    80001c14:	06400693          	li	a3,100
    80001c18:	47a9                	li	a5,10
    80001c1a:	02d486b3          	mul	a3,s1,a3
    80001c1e:	00145713          	srli	a4,s0,0x1
    80001c22:	00008517          	auipc	a0,0x8
    80001c26:	93650513          	addi	a0,a0,-1738 # 80009558 <softfloat_countLeadingZeros8+0x5f0>
    80001c2a:	02f48633          	mul	a2,s1,a5
    80001c2e:	96ba                	add	a3,a3,a4
    80001c30:	0286d6b3          	divu	a3,a3,s0
    80001c34:	02865633          	divu	a2,a2,s0
    80001c38:	02f6f6b3          	remu	a3,a3,a5
    80001c3c:	02f67633          	remu	a2,a2,a5
    80001c40:	0284d5b3          	divu	a1,s1,s0
    80001c44:	8baff0ef          	jal	ra,80000cfe <printk>
    80001c48:	b761                	j	80001bd0 <sys_exit+0x18>

0000000080001c4a <sys_read>:
    80001c4a:	1101                	addi	sp,sp,-32
    80001c4c:	e426                	sd	s1,8(sp)
    80001c4e:	e04a                	sd	s2,0(sp)
    80001c50:	ec06                	sd	ra,24(sp)
    80001c52:	e822                	sd	s0,16(sp)
    80001c54:	84ae                	mv	s1,a1
    80001c56:	8932                	mv	s2,a2
    80001c58:	a3bfe0ef          	jal	ra,80000692 <file_get>
    80001c5c:	c10d                	beqz	a0,80001c7e <sys_read+0x34>
    80001c5e:	85a6                	mv	a1,s1
    80001c60:	864a                	mv	a2,s2
    80001c62:	842a                	mv	s0,a0
    80001c64:	b51fe0ef          	jal	ra,800007b4 <file_read>
    80001c68:	84aa                	mv	s1,a0
    80001c6a:	8522                	mv	a0,s0
    80001c6c:	97ffe0ef          	jal	ra,800005ea <file_decref>
    80001c70:	60e2                	ld	ra,24(sp)
    80001c72:	6442                	ld	s0,16(sp)
    80001c74:	8526                	mv	a0,s1
    80001c76:	6902                	ld	s2,0(sp)
    80001c78:	64a2                	ld	s1,8(sp)
    80001c7a:	6105                	addi	sp,sp,32
    80001c7c:	8082                	ret
    80001c7e:	54dd                	li	s1,-9
    80001c80:	bfc5                	j	80001c70 <sys_read+0x26>

0000000080001c82 <sys_pread>:
    80001c82:	7179                	addi	sp,sp,-48
    80001c84:	ec26                	sd	s1,24(sp)
    80001c86:	e84a                	sd	s2,16(sp)
    80001c88:	e44e                	sd	s3,8(sp)
    80001c8a:	f406                	sd	ra,40(sp)
    80001c8c:	f022                	sd	s0,32(sp)
    80001c8e:	84ae                	mv	s1,a1
    80001c90:	8932                	mv	s2,a2
    80001c92:	89b6                	mv	s3,a3
    80001c94:	9fffe0ef          	jal	ra,80000692 <file_get>
    80001c98:	c11d                	beqz	a0,80001cbe <sys_pread+0x3c>
    80001c9a:	85a6                	mv	a1,s1
    80001c9c:	86ce                	mv	a3,s3
    80001c9e:	864a                	mv	a2,s2
    80001ca0:	842a                	mv	s0,a0
    80001ca2:	b69fe0ef          	jal	ra,8000080a <file_pread>
    80001ca6:	84aa                	mv	s1,a0
    80001ca8:	8522                	mv	a0,s0
    80001caa:	941fe0ef          	jal	ra,800005ea <file_decref>
    80001cae:	70a2                	ld	ra,40(sp)
    80001cb0:	7402                	ld	s0,32(sp)
    80001cb2:	8526                	mv	a0,s1
    80001cb4:	6942                	ld	s2,16(sp)
    80001cb6:	64e2                	ld	s1,24(sp)
    80001cb8:	69a2                	ld	s3,8(sp)
    80001cba:	6145                	addi	sp,sp,48
    80001cbc:	8082                	ret
    80001cbe:	54dd                	li	s1,-9
    80001cc0:	b7fd                	j	80001cae <sys_pread+0x2c>

0000000080001cc2 <sys_write>:
    80001cc2:	1101                	addi	sp,sp,-32
    80001cc4:	e426                	sd	s1,8(sp)
    80001cc6:	e04a                	sd	s2,0(sp)
    80001cc8:	ec06                	sd	ra,24(sp)
    80001cca:	e822                	sd	s0,16(sp)
    80001ccc:	84ae                	mv	s1,a1
    80001cce:	8932                	mv	s2,a2
    80001cd0:	9c3fe0ef          	jal	ra,80000692 <file_get>
    80001cd4:	c10d                	beqz	a0,80001cf6 <sys_write+0x34>
    80001cd6:	85a6                	mv	a1,s1
    80001cd8:	864a                	mv	a2,s2
    80001cda:	842a                	mv	s0,a0
    80001cdc:	b8bfe0ef          	jal	ra,80000866 <file_write>
    80001ce0:	84aa                	mv	s1,a0
    80001ce2:	8522                	mv	a0,s0
    80001ce4:	907fe0ef          	jal	ra,800005ea <file_decref>
    80001ce8:	60e2                	ld	ra,24(sp)
    80001cea:	6442                	ld	s0,16(sp)
    80001cec:	8526                	mv	a0,s1
    80001cee:	6902                	ld	s2,0(sp)
    80001cf0:	64a2                	ld	s1,8(sp)
    80001cf2:	6105                	addi	sp,sp,32
    80001cf4:	8082                	ret
    80001cf6:	54dd                	li	s1,-9
    80001cf8:	bfc5                	j	80001ce8 <sys_write+0x26>

0000000080001cfa <sys_writev>:
    80001cfa:	04c05d63          	blez	a2,80001d54 <sys_writev+0x5a>
    80001cfe:	7179                	addi	sp,sp,-48
    80001d00:	ec26                	sd	s1,24(sp)
    80001d02:	fff6049b          	addiw	s1,a2,-1
    80001d06:	1482                	slli	s1,s1,0x20
    80001d08:	80f1                	srli	s1,s1,0x1c
    80001d0a:	01058793          	addi	a5,a1,16
    80001d0e:	f022                	sd	s0,32(sp)
    80001d10:	e84a                	sd	s2,16(sp)
    80001d12:	e44e                	sd	s3,8(sp)
    80001d14:	f406                	sd	ra,40(sp)
    80001d16:	89aa                	mv	s3,a0
    80001d18:	842e                	mv	s0,a1
    80001d1a:	94be                	add	s1,s1,a5
    80001d1c:	4901                	li	s2,0
    80001d1e:	a021                	j	80001d26 <sys_writev+0x2c>
    80001d20:	992a                	add	s2,s2,a0
    80001d22:	02940163          	beq	s0,s1,80001d44 <sys_writev+0x4a>
    80001d26:	6410                	ld	a2,8(s0)
    80001d28:	600c                	ld	a1,0(s0)
    80001d2a:	854e                	mv	a0,s3
    80001d2c:	0441                	addi	s0,s0,16
    80001d2e:	f95ff0ef          	jal	ra,80001cc2 <sys_write>
    80001d32:	fe0557e3          	bgez	a0,80001d20 <sys_writev+0x26>
    80001d36:	70a2                	ld	ra,40(sp)
    80001d38:	7402                	ld	s0,32(sp)
    80001d3a:	64e2                	ld	s1,24(sp)
    80001d3c:	6942                	ld	s2,16(sp)
    80001d3e:	69a2                	ld	s3,8(sp)
    80001d40:	6145                	addi	sp,sp,48
    80001d42:	8082                	ret
    80001d44:	70a2                	ld	ra,40(sp)
    80001d46:	7402                	ld	s0,32(sp)
    80001d48:	854a                	mv	a0,s2
    80001d4a:	64e2                	ld	s1,24(sp)
    80001d4c:	6942                	ld	s2,16(sp)
    80001d4e:	69a2                	ld	s3,8(sp)
    80001d50:	6145                	addi	sp,sp,48
    80001d52:	8082                	ret
    80001d54:	4501                	li	a0,0
    80001d56:	8082                	ret

0000000080001d58 <sys_openat>:
    80001d58:	1101                	addi	sp,sp,-32
    80001d5a:	e822                	sd	s0,16(sp)
    80001d5c:	e426                	sd	s1,8(sp)
    80001d5e:	e04a                	sd	s2,0(sp)
    80001d60:	ec06                	sd	ra,24(sp)
    80001d62:	f9c00713          	li	a4,-100
    80001d66:	842e                	mv	s0,a1
    80001d68:	84b2                	mv	s1,a2
    80001d6a:	8936                	mv	s2,a3
    80001d6c:	04e50563          	beq	a0,a4,80001db6 <sys_openat+0x5e>
    80001d70:	923fe0ef          	jal	ra,80000692 <file_get>
    80001d74:	cd1d                	beqz	a0,80001db2 <sys_openat+0x5a>
    80001d76:	411c                	lw	a5,0(a0)
    80001d78:	577d                	li	a4,-1
    80001d7a:	02e78c63          	beq	a5,a4,80001db2 <sys_openat+0x5a>
    80001d7e:	85a2                	mv	a1,s0
    80001d80:	853e                	mv	a0,a5
    80001d82:	86ca                	mv	a3,s2
    80001d84:	8626                	mv	a2,s1
    80001d86:	953fe0ef          	jal	ra,800006d8 <file_openat>
    80001d8a:	77fd                	lui	a5,0xfffff
    80001d8c:	842a                	mv	s0,a0
    80001d8e:	00f56963          	bltu	a0,a5,80001da0 <sys_openat+0x48>
    80001d92:	2501                	sext.w	a0,a0
    80001d94:	60e2                	ld	ra,24(sp)
    80001d96:	6442                	ld	s0,16(sp)
    80001d98:	64a2                	ld	s1,8(sp)
    80001d9a:	6902                	ld	s2,0(sp)
    80001d9c:	6105                	addi	sp,sp,32
    80001d9e:	8082                	ret
    80001da0:	881fe0ef          	jal	ra,80000620 <file_dup>
    80001da4:	fe0558e3          	bgez	a0,80001d94 <sys_openat+0x3c>
    80001da8:	8522                	mv	a0,s0
    80001daa:	841fe0ef          	jal	ra,800005ea <file_decref>
    80001dae:	5551                	li	a0,-12
    80001db0:	b7d5                	j	80001d94 <sys_openat+0x3c>
    80001db2:	555d                	li	a0,-9
    80001db4:	b7c5                	j	80001d94 <sys_openat+0x3c>
    80001db6:	87aa                	mv	a5,a0
    80001db8:	b7d9                	j	80001d7e <sys_openat+0x26>

0000000080001dba <sys_open>:
    80001dba:	86b2                	mv	a3,a2
    80001dbc:	862e                	mv	a2,a1
    80001dbe:	85aa                	mv	a1,a0
    80001dc0:	f9c00513          	li	a0,-100
    80001dc4:	f95ff06f          	j	80001d58 <sys_openat>

0000000080001dc8 <sys_dup>:
    80001dc8:	1101                	addi	sp,sp,-32
    80001dca:	ec06                	sd	ra,24(sp)
    80001dcc:	e822                	sd	s0,16(sp)
    80001dce:	e426                	sd	s1,8(sp)
    80001dd0:	8c3fe0ef          	jal	ra,80000692 <file_get>
    80001dd4:	cd11                	beqz	a0,80001df0 <sys_dup+0x28>
    80001dd6:	842a                	mv	s0,a0
    80001dd8:	849fe0ef          	jal	ra,80000620 <file_dup>
    80001ddc:	84aa                	mv	s1,a0
    80001dde:	8522                	mv	a0,s0
    80001de0:	80bfe0ef          	jal	ra,800005ea <file_decref>
    80001de4:	60e2                	ld	ra,24(sp)
    80001de6:	6442                	ld	s0,16(sp)
    80001de8:	8526                	mv	a0,s1
    80001dea:	64a2                	ld	s1,8(sp)
    80001dec:	6105                	addi	sp,sp,32
    80001dee:	8082                	ret
    80001df0:	54dd                	li	s1,-9
    80001df2:	bfcd                	j	80001de4 <sys_dup+0x1c>

0000000080001df4 <sys_close>:
    80001df4:	1141                	addi	sp,sp,-16
    80001df6:	e406                	sd	ra,8(sp)
    80001df8:	96ffe0ef          	jal	ra,80000766 <fd_close>
    80001dfc:	00054563          	bltz	a0,80001e06 <sys_close+0x12>
    80001e00:	60a2                	ld	ra,8(sp)
    80001e02:	0141                	addi	sp,sp,16
    80001e04:	8082                	ret
    80001e06:	555d                	li	a0,-9
    80001e08:	bfe5                	j	80001e00 <sys_close+0xc>

0000000080001e0a <sys_renameat>:
    80001e0a:	7179                	addi	sp,sp,-48
    80001e0c:	f022                	sd	s0,32(sp)
    80001e0e:	ec26                	sd	s1,24(sp)
    80001e10:	e44e                	sd	s3,8(sp)
    80001e12:	e052                	sd	s4,0(sp)
    80001e14:	f406                	sd	ra,40(sp)
    80001e16:	e84a                	sd	s2,16(sp)
    80001e18:	f9c00413          	li	s0,-100
    80001e1c:	84ae                	mv	s1,a1
    80001e1e:	8a32                	mv	s4,a2
    80001e20:	89b6                	mv	s3,a3
    80001e22:	0a850463          	beq	a0,s0,80001eca <sys_renameat+0xc0>
    80001e26:	86dfe0ef          	jal	ra,80000692 <file_get>
    80001e2a:	c949                	beqz	a0,80001ebc <sys_renameat+0xb2>
    80001e2c:	00052903          	lw	s2,0(a0)
    80001e30:	0a8a0663          	beq	s4,s0,80001edc <sys_renameat+0xd2>
    80001e34:	8552                	mv	a0,s4
    80001e36:	85dfe0ef          	jal	ra,80000692 <file_get>
    80001e3a:	c551                	beqz	a0,80001ec6 <sys_renameat+0xbc>
    80001e3c:	57fd                	li	a5,-1
    80001e3e:	4118                	lw	a4,0(a0)
    80001e40:	08f90363          	beq	s2,a5,80001ec6 <sys_renameat+0xbc>
    80001e44:	57fd                	li	a5,-1
    80001e46:	08f70063          	beq	a4,a5,80001ec6 <sys_renameat+0xbc>
    80001e4a:	843a                	mv	s0,a4
    80001e4c:	8526                	mv	a0,s1
    80001e4e:	3ba060ef          	jal	ra,80008208 <strlen>
    80001e52:	00150a13          	addi	s4,a0,1
    80001e56:	854e                	mv	a0,s3
    80001e58:	3b0060ef          	jal	ra,80008208 <strlen>
    80001e5c:	80000737          	lui	a4,0x80000
    80001e60:	fff74713          	not	a4,a4
    80001e64:	8626                	mv	a2,s1
    80001e66:	00150813          	addi	a6,a0,1
    80001e6a:	00976963          	bltu	a4,s1,80001e7c <sys_renameat+0x72>
    80001e6e:	00013797          	auipc	a5,0x13
    80001e72:	26278793          	addi	a5,a5,610 # 800150d0 <first_free_paddr>
    80001e76:	639c                	ld	a5,0(a5)
    80001e78:	00f48633          	add	a2,s1,a5
    80001e7c:	80000737          	lui	a4,0x80000
    80001e80:	fff74713          	not	a4,a4
    80001e84:	87ce                	mv	a5,s3
    80001e86:	03377363          	bgeu	a4,s3,80001eac <sys_renameat+0xa2>
    80001e8a:	4881                	li	a7,0
    80001e8c:	8722                	mv	a4,s0
    80001e8e:	86d2                	mv	a3,s4
    80001e90:	85ca                	mv	a1,s2
    80001e92:	02600513          	li	a0,38
    80001e96:	b11fe0ef          	jal	ra,800009a6 <frontend_syscall>
    80001e9a:	2501                	sext.w	a0,a0
    80001e9c:	70a2                	ld	ra,40(sp)
    80001e9e:	7402                	ld	s0,32(sp)
    80001ea0:	64e2                	ld	s1,24(sp)
    80001ea2:	6942                	ld	s2,16(sp)
    80001ea4:	69a2                	ld	s3,8(sp)
    80001ea6:	6a02                	ld	s4,0(sp)
    80001ea8:	6145                	addi	sp,sp,48
    80001eaa:	8082                	ret
    80001eac:	00013717          	auipc	a4,0x13
    80001eb0:	22470713          	addi	a4,a4,548 # 800150d0 <first_free_paddr>
    80001eb4:	6318                	ld	a4,0(a4)
    80001eb6:	00e987b3          	add	a5,s3,a4
    80001eba:	bfc1                	j	80001e8a <sys_renameat+0x80>
    80001ebc:	008a0563          	beq	s4,s0,80001ec6 <sys_renameat+0xbc>
    80001ec0:	8552                	mv	a0,s4
    80001ec2:	fd0fe0ef          	jal	ra,80000692 <file_get>
    80001ec6:	555d                	li	a0,-9
    80001ec8:	bfd1                	j	80001e9c <sys_renameat+0x92>
    80001eca:	892a                	mv	s2,a0
    80001ecc:	00a60d63          	beq	a2,a0,80001ee6 <sys_renameat+0xdc>
    80001ed0:	8552                	mv	a0,s4
    80001ed2:	fc0fe0ef          	jal	ra,80000692 <file_get>
    80001ed6:	d965                	beqz	a0,80001ec6 <sys_renameat+0xbc>
    80001ed8:	4118                	lw	a4,0(a0)
    80001eda:	b7ad                	j	80001e44 <sys_renameat+0x3a>
    80001edc:	57fd                	li	a5,-1
    80001ede:	f6f917e3          	bne	s2,a5,80001e4c <sys_renameat+0x42>
    80001ee2:	555d                	li	a0,-9
    80001ee4:	bf65                	j	80001e9c <sys_renameat+0x92>
    80001ee6:	f9c00413          	li	s0,-100
    80001eea:	b78d                	j	80001e4c <sys_renameat+0x42>

0000000080001eec <sys_fcntl>:
    80001eec:	1101                	addi	sp,sp,-32
    80001eee:	e426                	sd	s1,8(sp)
    80001ef0:	e04a                	sd	s2,0(sp)
    80001ef2:	ec06                	sd	ra,24(sp)
    80001ef4:	e822                	sd	s0,16(sp)
    80001ef6:	84ae                	mv	s1,a1
    80001ef8:	8932                	mv	s2,a2
    80001efa:	f98fe0ef          	jal	ra,80000692 <file_get>
    80001efe:	c905                	beqz	a0,80001f2e <sys_fcntl+0x42>
    80001f00:	410c                	lw	a1,0(a0)
    80001f02:	842a                	mv	s0,a0
    80001f04:	8626                	mv	a2,s1
    80001f06:	4881                	li	a7,0
    80001f08:	4801                	li	a6,0
    80001f0a:	4781                	li	a5,0
    80001f0c:	4701                	li	a4,0
    80001f0e:	86ca                	mv	a3,s2
    80001f10:	4565                	li	a0,25
    80001f12:	a95fe0ef          	jal	ra,800009a6 <frontend_syscall>
    80001f16:	0005049b          	sext.w	s1,a0
    80001f1a:	8522                	mv	a0,s0
    80001f1c:	ecefe0ef          	jal	ra,800005ea <file_decref>
    80001f20:	60e2                	ld	ra,24(sp)
    80001f22:	6442                	ld	s0,16(sp)
    80001f24:	8526                	mv	a0,s1
    80001f26:	6902                	ld	s2,0(sp)
    80001f28:	64a2                	ld	s1,8(sp)
    80001f2a:	6105                	addi	sp,sp,32
    80001f2c:	8082                	ret
    80001f2e:	54dd                	li	s1,-9
    80001f30:	bfc5                	j	80001f20 <sys_fcntl+0x34>

0000000080001f32 <sys_faccessat>:
    80001f32:	1101                	addi	sp,sp,-32
    80001f34:	e822                	sd	s0,16(sp)
    80001f36:	e04a                	sd	s2,0(sp)
    80001f38:	ec06                	sd	ra,24(sp)
    80001f3a:	e426                	sd	s1,8(sp)
    80001f3c:	f9c00793          	li	a5,-100
    80001f40:	842e                	mv	s0,a1
    80001f42:	8932                	mv	s2,a2
    80001f44:	06f50263          	beq	a0,a5,80001fa8 <sys_faccessat+0x76>
    80001f48:	f4afe0ef          	jal	ra,80000692 <file_get>
    80001f4c:	c539                	beqz	a0,80001f9a <sys_faccessat+0x68>
    80001f4e:	410c                	lw	a1,0(a0)
    80001f50:	57fd                	li	a5,-1
    80001f52:	04f58463          	beq	a1,a5,80001f9a <sys_faccessat+0x68>
    80001f56:	84ae                	mv	s1,a1
    80001f58:	8522                	mv	a0,s0
    80001f5a:	2ae060ef          	jal	ra,80008208 <strlen>
    80001f5e:	800007b7          	lui	a5,0x80000
    80001f62:	fff7c793          	not	a5,a5
    80001f66:	8622                	mv	a2,s0
    80001f68:	00150693          	addi	a3,a0,1
    80001f6c:	0087e963          	bltu	a5,s0,80001f7e <sys_faccessat+0x4c>
    80001f70:	00013797          	auipc	a5,0x13
    80001f74:	16078793          	addi	a5,a5,352 # 800150d0 <first_free_paddr>
    80001f78:	639c                	ld	a5,0(a5)
    80001f7a:	00f40633          	add	a2,s0,a5
    80001f7e:	6442                	ld	s0,16(sp)
    80001f80:	60e2                	ld	ra,24(sp)
    80001f82:	874a                	mv	a4,s2
    80001f84:	85a6                	mv	a1,s1
    80001f86:	6902                	ld	s2,0(sp)
    80001f88:	64a2                	ld	s1,8(sp)
    80001f8a:	4881                	li	a7,0
    80001f8c:	4801                	li	a6,0
    80001f8e:	4781                	li	a5,0
    80001f90:	03000513          	li	a0,48
    80001f94:	6105                	addi	sp,sp,32
    80001f96:	a11fe06f          	j	800009a6 <frontend_syscall>
    80001f9a:	60e2                	ld	ra,24(sp)
    80001f9c:	6442                	ld	s0,16(sp)
    80001f9e:	64a2                	ld	s1,8(sp)
    80001fa0:	6902                	ld	s2,0(sp)
    80001fa2:	555d                	li	a0,-9
    80001fa4:	6105                	addi	sp,sp,32
    80001fa6:	8082                	ret
    80001fa8:	f9c00493          	li	s1,-100
    80001fac:	b775                	j	80001f58 <sys_faccessat+0x26>

0000000080001fae <sys_access>:
    80001fae:	862e                	mv	a2,a1
    80001fb0:	85aa                	mv	a1,a0
    80001fb2:	f9c00513          	li	a0,-100
    80001fb6:	f7dff06f          	j	80001f32 <sys_faccessat>

0000000080001fba <sys_linkat>:
    80001fba:	7139                	addi	sp,sp,-64
    80001fbc:	f426                	sd	s1,40(sp)
    80001fbe:	f04a                	sd	s2,32(sp)
    80001fc0:	ec4e                	sd	s3,24(sp)
    80001fc2:	e852                	sd	s4,16(sp)
    80001fc4:	e456                	sd	s5,8(sp)
    80001fc6:	fc06                	sd	ra,56(sp)
    80001fc8:	f822                	sd	s0,48(sp)
    80001fca:	f9c00493          	li	s1,-100
    80001fce:	892e                	mv	s2,a1
    80001fd0:	8ab2                	mv	s5,a2
    80001fd2:	89b6                	mv	s3,a3
    80001fd4:	8a3a                	mv	s4,a4
    80001fd6:	0a950963          	beq	a0,s1,80002088 <sys_linkat+0xce>
    80001fda:	eb8fe0ef          	jal	ra,80000692 <file_get>
    80001fde:	c551                	beqz	a0,8000206a <sys_linkat+0xb0>
    80001fe0:	4100                	lw	s0,0(a0)
    80001fe2:	0a9a8c63          	beq	s5,s1,8000209a <sys_linkat+0xe0>
    80001fe6:	8556                	mv	a0,s5
    80001fe8:	eaafe0ef          	jal	ra,80000692 <file_get>
    80001fec:	c541                	beqz	a0,80002074 <sys_linkat+0xba>
    80001fee:	57fd                	li	a5,-1
    80001ff0:	4118                	lw	a4,0(a0)
    80001ff2:	08f40163          	beq	s0,a5,80002074 <sys_linkat+0xba>
    80001ff6:	57fd                	li	a5,-1
    80001ff8:	06f70e63          	beq	a4,a5,80002074 <sys_linkat+0xba>
    80001ffc:	84ba                	mv	s1,a4
    80001ffe:	854a                	mv	a0,s2
    80002000:	208060ef          	jal	ra,80008208 <strlen>
    80002004:	00150a93          	addi	s5,a0,1
    80002008:	854e                	mv	a0,s3
    8000200a:	1fe060ef          	jal	ra,80008208 <strlen>
    8000200e:	80000737          	lui	a4,0x80000
    80002012:	fff74713          	not	a4,a4
    80002016:	864a                	mv	a2,s2
    80002018:	00150813          	addi	a6,a0,1
    8000201c:	01276963          	bltu	a4,s2,8000202e <sys_linkat+0x74>
    80002020:	00013797          	auipc	a5,0x13
    80002024:	0b078793          	addi	a5,a5,176 # 800150d0 <first_free_paddr>
    80002028:	639c                	ld	a5,0(a5)
    8000202a:	00f90633          	add	a2,s2,a5
    8000202e:	80000737          	lui	a4,0x80000
    80002032:	fff74713          	not	a4,a4
    80002036:	87ce                	mv	a5,s3
    80002038:	01376963          	bltu	a4,s3,8000204a <sys_linkat+0x90>
    8000203c:	00013717          	auipc	a4,0x13
    80002040:	09470713          	addi	a4,a4,148 # 800150d0 <first_free_paddr>
    80002044:	6318                	ld	a4,0(a4)
    80002046:	00e987b3          	add	a5,s3,a4
    8000204a:	85a2                	mv	a1,s0
    8000204c:	7442                	ld	s0,48(sp)
    8000204e:	70e2                	ld	ra,56(sp)
    80002050:	7902                	ld	s2,32(sp)
    80002052:	69e2                	ld	s3,24(sp)
    80002054:	88d2                	mv	a7,s4
    80002056:	8726                	mv	a4,s1
    80002058:	6a42                	ld	s4,16(sp)
    8000205a:	74a2                	ld	s1,40(sp)
    8000205c:	86d6                	mv	a3,s5
    8000205e:	6aa2                	ld	s5,8(sp)
    80002060:	02500513          	li	a0,37
    80002064:	6121                	addi	sp,sp,64
    80002066:	941fe06f          	j	800009a6 <frontend_syscall>
    8000206a:	009a8563          	beq	s5,s1,80002074 <sys_linkat+0xba>
    8000206e:	8556                	mv	a0,s5
    80002070:	e22fe0ef          	jal	ra,80000692 <file_get>
    80002074:	70e2                	ld	ra,56(sp)
    80002076:	7442                	ld	s0,48(sp)
    80002078:	74a2                	ld	s1,40(sp)
    8000207a:	7902                	ld	s2,32(sp)
    8000207c:	69e2                	ld	s3,24(sp)
    8000207e:	6a42                	ld	s4,16(sp)
    80002080:	6aa2                	ld	s5,8(sp)
    80002082:	555d                	li	a0,-9
    80002084:	6121                	addi	sp,sp,64
    80002086:	8082                	ret
    80002088:	842a                	mv	s0,a0
    8000208a:	00a60c63          	beq	a2,a0,800020a2 <sys_linkat+0xe8>
    8000208e:	8556                	mv	a0,s5
    80002090:	e02fe0ef          	jal	ra,80000692 <file_get>
    80002094:	d165                	beqz	a0,80002074 <sys_linkat+0xba>
    80002096:	4118                	lw	a4,0(a0)
    80002098:	bfb9                	j	80001ff6 <sys_linkat+0x3c>
    8000209a:	57fd                	li	a5,-1
    8000209c:	f6f411e3          	bne	s0,a5,80001ffe <sys_linkat+0x44>
    800020a0:	bfd1                	j	80002074 <sys_linkat+0xba>
    800020a2:	f9c00493          	li	s1,-100
    800020a6:	bfa1                	j	80001ffe <sys_linkat+0x44>

00000000800020a8 <sys_link>:
    800020a8:	86ae                	mv	a3,a1
    800020aa:	4701                	li	a4,0
    800020ac:	85aa                	mv	a1,a0
    800020ae:	f9c00613          	li	a2,-100
    800020b2:	f9c00513          	li	a0,-100
    800020b6:	f05ff06f          	j	80001fba <sys_linkat>

00000000800020ba <sys_unlinkat>:
    800020ba:	1101                	addi	sp,sp,-32
    800020bc:	e822                	sd	s0,16(sp)
    800020be:	e04a                	sd	s2,0(sp)
    800020c0:	ec06                	sd	ra,24(sp)
    800020c2:	e426                	sd	s1,8(sp)
    800020c4:	f9c00793          	li	a5,-100
    800020c8:	842e                	mv	s0,a1
    800020ca:	8932                	mv	s2,a2
    800020cc:	06f50263          	beq	a0,a5,80002130 <sys_unlinkat+0x76>
    800020d0:	dc2fe0ef          	jal	ra,80000692 <file_get>
    800020d4:	c539                	beqz	a0,80002122 <sys_unlinkat+0x68>
    800020d6:	410c                	lw	a1,0(a0)
    800020d8:	57fd                	li	a5,-1
    800020da:	04f58463          	beq	a1,a5,80002122 <sys_unlinkat+0x68>
    800020de:	84ae                	mv	s1,a1
    800020e0:	8522                	mv	a0,s0
    800020e2:	126060ef          	jal	ra,80008208 <strlen>
    800020e6:	800007b7          	lui	a5,0x80000
    800020ea:	fff7c793          	not	a5,a5
    800020ee:	8622                	mv	a2,s0
    800020f0:	00150693          	addi	a3,a0,1
    800020f4:	0087e963          	bltu	a5,s0,80002106 <sys_unlinkat+0x4c>
    800020f8:	00013797          	auipc	a5,0x13
    800020fc:	fd878793          	addi	a5,a5,-40 # 800150d0 <first_free_paddr>
    80002100:	639c                	ld	a5,0(a5)
    80002102:	00f40633          	add	a2,s0,a5
    80002106:	6442                	ld	s0,16(sp)
    80002108:	60e2                	ld	ra,24(sp)
    8000210a:	874a                	mv	a4,s2
    8000210c:	85a6                	mv	a1,s1
    8000210e:	6902                	ld	s2,0(sp)
    80002110:	64a2                	ld	s1,8(sp)
    80002112:	4881                	li	a7,0
    80002114:	4801                	li	a6,0
    80002116:	4781                	li	a5,0
    80002118:	02300513          	li	a0,35
    8000211c:	6105                	addi	sp,sp,32
    8000211e:	889fe06f          	j	800009a6 <frontend_syscall>
    80002122:	60e2                	ld	ra,24(sp)
    80002124:	6442                	ld	s0,16(sp)
    80002126:	64a2                	ld	s1,8(sp)
    80002128:	6902                	ld	s2,0(sp)
    8000212a:	555d                	li	a0,-9
    8000212c:	6105                	addi	sp,sp,32
    8000212e:	8082                	ret
    80002130:	f9c00493          	li	s1,-100
    80002134:	b775                	j	800020e0 <sys_unlinkat+0x26>

0000000080002136 <sys_unlink>:
    80002136:	85aa                	mv	a1,a0
    80002138:	4601                	li	a2,0
    8000213a:	f9c00513          	li	a0,-100
    8000213e:	f7dff06f          	j	800020ba <sys_unlinkat>

0000000080002142 <sys_mkdirat>:
    80002142:	1101                	addi	sp,sp,-32
    80002144:	e822                	sd	s0,16(sp)
    80002146:	e04a                	sd	s2,0(sp)
    80002148:	ec06                	sd	ra,24(sp)
    8000214a:	e426                	sd	s1,8(sp)
    8000214c:	f9c00793          	li	a5,-100
    80002150:	842e                	mv	s0,a1
    80002152:	8932                	mv	s2,a2
    80002154:	06f50263          	beq	a0,a5,800021b8 <sys_mkdirat+0x76>
    80002158:	d3afe0ef          	jal	ra,80000692 <file_get>
    8000215c:	c539                	beqz	a0,800021aa <sys_mkdirat+0x68>
    8000215e:	410c                	lw	a1,0(a0)
    80002160:	57fd                	li	a5,-1
    80002162:	04f58463          	beq	a1,a5,800021aa <sys_mkdirat+0x68>
    80002166:	84ae                	mv	s1,a1
    80002168:	8522                	mv	a0,s0
    8000216a:	09e060ef          	jal	ra,80008208 <strlen>
    8000216e:	800007b7          	lui	a5,0x80000
    80002172:	fff7c793          	not	a5,a5
    80002176:	8622                	mv	a2,s0
    80002178:	00150693          	addi	a3,a0,1
    8000217c:	0087e963          	bltu	a5,s0,8000218e <sys_mkdirat+0x4c>
    80002180:	00013797          	auipc	a5,0x13
    80002184:	f5078793          	addi	a5,a5,-176 # 800150d0 <first_free_paddr>
    80002188:	639c                	ld	a5,0(a5)
    8000218a:	00f40633          	add	a2,s0,a5
    8000218e:	6442                	ld	s0,16(sp)
    80002190:	60e2                	ld	ra,24(sp)
    80002192:	874a                	mv	a4,s2
    80002194:	85a6                	mv	a1,s1
    80002196:	6902                	ld	s2,0(sp)
    80002198:	64a2                	ld	s1,8(sp)
    8000219a:	4881                	li	a7,0
    8000219c:	4801                	li	a6,0
    8000219e:	4781                	li	a5,0
    800021a0:	02200513          	li	a0,34
    800021a4:	6105                	addi	sp,sp,32
    800021a6:	801fe06f          	j	800009a6 <frontend_syscall>
    800021aa:	60e2                	ld	ra,24(sp)
    800021ac:	6442                	ld	s0,16(sp)
    800021ae:	64a2                	ld	s1,8(sp)
    800021b0:	6902                	ld	s2,0(sp)
    800021b2:	555d                	li	a0,-9
    800021b4:	6105                	addi	sp,sp,32
    800021b6:	8082                	ret
    800021b8:	f9c00493          	li	s1,-100
    800021bc:	b775                	j	80002168 <sys_mkdirat+0x26>

00000000800021be <sys_mkdir>:
    800021be:	862e                	mv	a2,a1
    800021c0:	85aa                	mv	a1,a0
    800021c2:	f9c00513          	li	a0,-100
    800021c6:	f7dff06f          	j	80002142 <sys_mkdirat>

00000000800021ca <sys_chdir>:
    800021ca:	1141                	addi	sp,sp,-16
    800021cc:	800007b7          	lui	a5,0x80000
    800021d0:	e406                	sd	ra,8(sp)
    800021d2:	fff7c793          	not	a5,a5
    800021d6:	85aa                	mv	a1,a0
    800021d8:	00a7e963          	bltu	a5,a0,800021ea <sys_chdir+0x20>
    800021dc:	00013797          	auipc	a5,0x13
    800021e0:	ef478793          	addi	a5,a5,-268 # 800150d0 <first_free_paddr>
    800021e4:	639c                	ld	a5,0(a5)
    800021e6:	00f505b3          	add	a1,a0,a5
    800021ea:	4881                	li	a7,0
    800021ec:	4801                	li	a6,0
    800021ee:	4781                	li	a5,0
    800021f0:	4701                	li	a4,0
    800021f2:	4681                	li	a3,0
    800021f4:	4601                	li	a2,0
    800021f6:	03100513          	li	a0,49
    800021fa:	facfe0ef          	jal	ra,800009a6 <frontend_syscall>
    800021fe:	60a2                	ld	ra,8(sp)
    80002200:	2501                	sext.w	a0,a0
    80002202:	0141                	addi	sp,sp,16
    80002204:	8082                	ret

0000000080002206 <sys_fstat>:
    80002206:	1101                	addi	sp,sp,-32
    80002208:	e426                	sd	s1,8(sp)
    8000220a:	ec06                	sd	ra,24(sp)
    8000220c:	e822                	sd	s0,16(sp)
    8000220e:	84ae                	mv	s1,a1
    80002210:	c82fe0ef          	jal	ra,80000692 <file_get>
    80002214:	cd19                	beqz	a0,80002232 <sys_fstat+0x2c>
    80002216:	85a6                	mv	a1,s1
    80002218:	842a                	mv	s0,a0
    8000221a:	efefe0ef          	jal	ra,80000918 <file_stat>
    8000221e:	84aa                	mv	s1,a0
    80002220:	8522                	mv	a0,s0
    80002222:	bc8fe0ef          	jal	ra,800005ea <file_decref>
    80002226:	60e2                	ld	ra,24(sp)
    80002228:	6442                	ld	s0,16(sp)
    8000222a:	8526                	mv	a0,s1
    8000222c:	64a2                	ld	s1,8(sp)
    8000222e:	6105                	addi	sp,sp,32
    80002230:	8082                	ret
    80002232:	54dd                	li	s1,-9
    80002234:	bfcd                	j	80002226 <sys_fstat+0x20>

0000000080002236 <sys_ftruncate>:
    80002236:	1101                	addi	sp,sp,-32
    80002238:	e426                	sd	s1,8(sp)
    8000223a:	ec06                	sd	ra,24(sp)
    8000223c:	e822                	sd	s0,16(sp)
    8000223e:	84ae                	mv	s1,a1
    80002240:	c52fe0ef          	jal	ra,80000692 <file_get>
    80002244:	cd19                	beqz	a0,80002262 <sys_ftruncate+0x2c>
    80002246:	85a6                	mv	a1,s1
    80002248:	842a                	mv	s0,a0
    8000224a:	f24fe0ef          	jal	ra,8000096e <file_truncate>
    8000224e:	84aa                	mv	s1,a0
    80002250:	8522                	mv	a0,s0
    80002252:	b98fe0ef          	jal	ra,800005ea <file_decref>
    80002256:	60e2                	ld	ra,24(sp)
    80002258:	6442                	ld	s0,16(sp)
    8000225a:	8526                	mv	a0,s1
    8000225c:	64a2                	ld	s1,8(sp)
    8000225e:	6105                	addi	sp,sp,32
    80002260:	8082                	ret
    80002262:	54dd                	li	s1,-9
    80002264:	bfcd                	j	80002256 <sys_ftruncate+0x20>

0000000080002266 <sys_lseek>:
    80002266:	1101                	addi	sp,sp,-32
    80002268:	e426                	sd	s1,8(sp)
    8000226a:	e04a                	sd	s2,0(sp)
    8000226c:	ec06                	sd	ra,24(sp)
    8000226e:	e822                	sd	s0,16(sp)
    80002270:	84ae                	mv	s1,a1
    80002272:	8932                	mv	s2,a2
    80002274:	c1efe0ef          	jal	ra,80000692 <file_get>
    80002278:	c10d                	beqz	a0,8000229a <sys_lseek+0x34>
    8000227a:	85a6                	mv	a1,s1
    8000227c:	864a                	mv	a2,s2
    8000227e:	842a                	mv	s0,a0
    80002280:	f10fe0ef          	jal	ra,80000990 <file_lseek>
    80002284:	84aa                	mv	s1,a0
    80002286:	8522                	mv	a0,s0
    80002288:	b62fe0ef          	jal	ra,800005ea <file_decref>
    8000228c:	60e2                	ld	ra,24(sp)
    8000228e:	6442                	ld	s0,16(sp)
    80002290:	8526                	mv	a0,s1
    80002292:	6902                	ld	s2,0(sp)
    80002294:	64a2                	ld	s1,8(sp)
    80002296:	6105                	addi	sp,sp,32
    80002298:	8082                	ret
    8000229a:	54dd                	li	s1,-9
    8000229c:	bfc5                	j	8000228c <sys_lseek+0x26>

000000008000229e <sys_lstat>:
    8000229e:	7135                	addi	sp,sp,-160
    800022a0:	e922                	sd	s0,144(sp)
    800022a2:	e14a                	sd	s2,128(sp)
    800022a4:	842a                	mv	s0,a0
    800022a6:	892e                	mv	s2,a1
    800022a8:	ed06                	sd	ra,152(sp)
    800022aa:	e526                	sd	s1,136(sp)
    800022ac:	75d050ef          	jal	ra,80008208 <strlen>
    800022b0:	800007b7          	lui	a5,0x80000
    800022b4:	fff7c793          	not	a5,a5
    800022b8:	85a2                	mv	a1,s0
    800022ba:	00150613          	addi	a2,a0,1
    800022be:	0087e963          	bltu	a5,s0,800022d0 <sys_lstat+0x32>
    800022c2:	00013797          	auipc	a5,0x13
    800022c6:	e0e78793          	addi	a5,a5,-498 # 800150d0 <first_free_paddr>
    800022ca:	639c                	ld	a5,0(a5)
    800022cc:	00f405b3          	add	a1,s0,a5
    800022d0:	800007b7          	lui	a5,0x80000
    800022d4:	840a                	mv	s0,sp
    800022d6:	fff7c793          	not	a5,a5
    800022da:	86a2                	mv	a3,s0
    800022dc:	0087e863          	bltu	a5,s0,800022ec <sys_lstat+0x4e>
    800022e0:	00013797          	auipc	a5,0x13
    800022e4:	df078793          	addi	a5,a5,-528 # 800150d0 <first_free_paddr>
    800022e8:	6394                	ld	a3,0(a5)
    800022ea:	96a2                	add	a3,a3,s0
    800022ec:	4881                	li	a7,0
    800022ee:	4801                	li	a6,0
    800022f0:	4781                	li	a5,0
    800022f2:	4701                	li	a4,0
    800022f4:	40f00513          	li	a0,1039
    800022f8:	eaefe0ef          	jal	ra,800009a6 <frontend_syscall>
    800022fc:	84aa                	mv	s1,a0
    800022fe:	85a2                	mv	a1,s0
    80002300:	854a                	mv	a0,s2
    80002302:	f4efe0ef          	jal	ra,80000a50 <copy_stat>
    80002306:	60ea                	ld	ra,152(sp)
    80002308:	644a                	ld	s0,144(sp)
    8000230a:	8526                	mv	a0,s1
    8000230c:	690a                	ld	s2,128(sp)
    8000230e:	64aa                	ld	s1,136(sp)
    80002310:	610d                	addi	sp,sp,160
    80002312:	8082                	ret

0000000080002314 <sys_fstatat>:
    80002314:	7171                	addi	sp,sp,-176
    80002316:	f122                	sd	s0,160(sp)
    80002318:	e94a                	sd	s2,144(sp)
    8000231a:	e54e                	sd	s3,136(sp)
    8000231c:	f506                	sd	ra,168(sp)
    8000231e:	ed26                	sd	s1,152(sp)
    80002320:	f9c00793          	li	a5,-100
    80002324:	842e                	mv	s0,a1
    80002326:	8932                	mv	s2,a2
    80002328:	89b6                	mv	s3,a3
    8000232a:	08f50363          	beq	a0,a5,800023b0 <sys_fstatat+0x9c>
    8000232e:	b64fe0ef          	jal	ra,80000692 <file_get>
    80002332:	cd2d                	beqz	a0,800023ac <sys_fstatat+0x98>
    80002334:	410c                	lw	a1,0(a0)
    80002336:	57fd                	li	a5,-1
    80002338:	06f58a63          	beq	a1,a5,800023ac <sys_fstatat+0x98>
    8000233c:	84ae                	mv	s1,a1
    8000233e:	8522                	mv	a0,s0
    80002340:	6c9050ef          	jal	ra,80008208 <strlen>
    80002344:	800007b7          	lui	a5,0x80000
    80002348:	fff7c793          	not	a5,a5
    8000234c:	8622                	mv	a2,s0
    8000234e:	00150693          	addi	a3,a0,1
    80002352:	0087e963          	bltu	a5,s0,80002364 <sys_fstatat+0x50>
    80002356:	00013797          	auipc	a5,0x13
    8000235a:	d7a78793          	addi	a5,a5,-646 # 800150d0 <first_free_paddr>
    8000235e:	639c                	ld	a5,0(a5)
    80002360:	00f40633          	add	a2,s0,a5
    80002364:	800007b7          	lui	a5,0x80000
    80002368:	840a                	mv	s0,sp
    8000236a:	fff7c793          	not	a5,a5
    8000236e:	8722                	mv	a4,s0
    80002370:	0287f763          	bgeu	a5,s0,8000239e <sys_fstatat+0x8a>
    80002374:	85a6                	mv	a1,s1
    80002376:	4881                	li	a7,0
    80002378:	4801                	li	a6,0
    8000237a:	87ce                	mv	a5,s3
    8000237c:	04f00513          	li	a0,79
    80002380:	e26fe0ef          	jal	ra,800009a6 <frontend_syscall>
    80002384:	84aa                	mv	s1,a0
    80002386:	85a2                	mv	a1,s0
    80002388:	854a                	mv	a0,s2
    8000238a:	ec6fe0ef          	jal	ra,80000a50 <copy_stat>
    8000238e:	70aa                	ld	ra,168(sp)
    80002390:	740a                	ld	s0,160(sp)
    80002392:	8526                	mv	a0,s1
    80002394:	694a                	ld	s2,144(sp)
    80002396:	64ea                	ld	s1,152(sp)
    80002398:	69aa                	ld	s3,136(sp)
    8000239a:	614d                	addi	sp,sp,176
    8000239c:	8082                	ret
    8000239e:	00013797          	auipc	a5,0x13
    800023a2:	d3278793          	addi	a5,a5,-718 # 800150d0 <first_free_paddr>
    800023a6:	6398                	ld	a4,0(a5)
    800023a8:	9722                	add	a4,a4,s0
    800023aa:	b7e9                	j	80002374 <sys_fstatat+0x60>
    800023ac:	54dd                	li	s1,-9
    800023ae:	b7c5                	j	8000238e <sys_fstatat+0x7a>
    800023b0:	f9c00493          	li	s1,-100
    800023b4:	b769                	j	8000233e <sys_fstatat+0x2a>

00000000800023b6 <sys_stat>:
    800023b6:	862e                	mv	a2,a1
    800023b8:	4681                	li	a3,0
    800023ba:	85aa                	mv	a1,a0
    800023bc:	f9c00513          	li	a0,-100
    800023c0:	f55ff06f          	j	80002314 <sys_fstatat>

00000000800023c4 <sys_getcwd>:
    800023c4:	1101                	addi	sp,sp,-32
    800023c6:	4609                	li	a2,2
    800023c8:	e822                	sd	s0,16(sp)
    800023ca:	e426                	sd	s1,8(sp)
    800023cc:	842a                	mv	s0,a0
    800023ce:	84ae                	mv	s1,a1
    800023d0:	ec06                	sd	ra,24(sp)
    800023d2:	b08ff0ef          	jal	ra,800016da <populate_mapping>
    800023d6:	800007b7          	lui	a5,0x80000
    800023da:	fff7c793          	not	a5,a5
    800023de:	85a2                	mv	a1,s0
    800023e0:	0087e963          	bltu	a5,s0,800023f2 <sys_getcwd+0x2e>
    800023e4:	00013797          	auipc	a5,0x13
    800023e8:	cec78793          	addi	a5,a5,-788 # 800150d0 <first_free_paddr>
    800023ec:	639c                	ld	a5,0(a5)
    800023ee:	00f405b3          	add	a1,s0,a5
    800023f2:	6442                	ld	s0,16(sp)
    800023f4:	60e2                	ld	ra,24(sp)
    800023f6:	8626                	mv	a2,s1
    800023f8:	64a2                	ld	s1,8(sp)
    800023fa:	4881                	li	a7,0
    800023fc:	4801                	li	a6,0
    800023fe:	4781                	li	a5,0
    80002400:	4701                	li	a4,0
    80002402:	4681                	li	a3,0
    80002404:	4545                	li	a0,17
    80002406:	6105                	addi	sp,sp,32
    80002408:	d9efe06f          	j	800009a6 <frontend_syscall>

000000008000240c <sys_brk>:
    8000240c:	870ff06f          	j	8000147c <do_brk>

0000000080002410 <sys_uname>:
    80002410:	1141                	addi	sp,sp,-16
    80002412:	4635                	li	a2,13
    80002414:	00007597          	auipc	a1,0x7
    80002418:	15458593          	addi	a1,a1,340 # 80009568 <softfloat_countLeadingZeros8+0x600>
    8000241c:	e406                	sd	ra,8(sp)
    8000241e:	557050ef          	jal	ra,80008174 <memcpy>
    80002422:	00007797          	auipc	a5,0x7
    80002426:	15678793          	addi	a5,a5,342 # 80009578 <softfloat_countLeadingZeros8+0x610>
    8000242a:	872a                	mv	a4,a0
    8000242c:	0007c303          	lbu	t1,0(a5)
    80002430:	0037c503          	lbu	a0,3(a5)
    80002434:	0017c883          	lbu	a7,1(a5)
    80002438:	0027c803          	lbu	a6,2(a5)
    8000243c:	0047c583          	lbu	a1,4(a5)
    80002440:	0057c603          	lbu	a2,5(a5)
    80002444:	0067c683          	lbu	a3,6(a5)
    80002448:	08a702a3          	sb	a0,133(a4)
    8000244c:	040700a3          	sb	zero,65(a4)
    80002450:	08670123          	sb	t1,130(a4)
    80002454:	091701a3          	sb	a7,131(a4)
    80002458:	09070223          	sb	a6,132(a4)
    8000245c:	08b70323          	sb	a1,134(a4)
    80002460:	08c703a3          	sb	a2,135(a4)
    80002464:	08d70423          	sb	a3,136(a4)
    80002468:	0c0701a3          	sb	zero,195(a4)
    8000246c:	10070223          	sb	zero,260(a4)
    80002470:	140702a3          	sb	zero,325(a4)
    80002474:	60a2                	ld	ra,8(sp)
    80002476:	4501                	li	a0,0
    80002478:	0141                	addi	sp,sp,16
    8000247a:	8082                	ret

000000008000247c <sys_mmap>:
    8000247c:	ec1fe06f          	j	8000133c <do_mmap>

0000000080002480 <sys_munmap>:
    80002480:	e5dfe06f          	j	800012dc <do_munmap>

0000000080002484 <sys_mremap>:
    80002484:	830ff06f          	j	800014b4 <do_mremap>

0000000080002488 <sys_mprotect>:
    80002488:	832ff06f          	j	800014ba <do_mprotect>

000000008000248c <sys_rt_sigaction>:
    8000248c:	ce01                	beqz	a2,800024a4 <sys_rt_sigaction+0x18>
    8000248e:	1141                	addi	sp,sp,-16
    80002490:	8532                	mv	a0,a2
    80002492:	4581                	li	a1,0
    80002494:	4661                	li	a2,24
    80002496:	e406                	sd	ra,8(sp)
    80002498:	52b050ef          	jal	ra,800081c2 <memset>
    8000249c:	60a2                	ld	ra,8(sp)
    8000249e:	4501                	li	a0,0
    800024a0:	0141                	addi	sp,sp,16
    800024a2:	8082                	ret
    800024a4:	4501                	li	a0,0
    800024a6:	8082                	ret

00000000800024a8 <sys_stub_success>:
    800024a8:	4501                	li	a0,0
    800024aa:	8082                	ret

00000000800024ac <sys_getuid>:
    800024ac:	4501                	li	a0,0
    800024ae:	8082                	ret

00000000800024b0 <do_syscall>:
    800024b0:	10500893          	li	a7,261
    800024b4:	0108ee63          	bltu	a7,a6,800024d0 <do_syscall+0x20>
    800024b8:	00381313          	slli	t1,a6,0x3
    800024bc:	00006897          	auipc	a7,0x6
    800024c0:	0b488893          	addi	a7,a7,180 # 80008570 <syscall_table.3127>
    800024c4:	989a                	add	a7,a7,t1
    800024c6:	0008b303          	ld	t1,0(a7)
    800024ca:	02030263          	beqz	t1,800024ee <do_syscall+0x3e>
    800024ce:	8302                	jr	t1
    800024d0:	c0080893          	addi	a7,a6,-1024
    800024d4:	02600313          	li	t1,38
    800024d8:	01136b63          	bltu	t1,a7,800024ee <do_syscall+0x3e>
    800024dc:	00006317          	auipc	t1,0x6
    800024e0:	f5c30313          	addi	t1,t1,-164 # 80008438 <old_syscall_table.3128>
    800024e4:	088e                	slli	a7,a7,0x3
    800024e6:	989a                	add	a7,a7,t1
    800024e8:	0008b303          	ld	t1,0(a7)
    800024ec:	bff9                	j	800024ca <do_syscall+0x1a>
    800024ee:	1141                	addi	sp,sp,-16
    800024f0:	85c2                	mv	a1,a6
    800024f2:	00007517          	auipc	a0,0x7
    800024f6:	08e50513          	addi	a0,a0,142 # 80009580 <softfloat_countLeadingZeros8+0x618>
    800024fa:	e406                	sd	ra,8(sp)
    800024fc:	8d1fe0ef          	jal	ra,80000dcc <do_panic>

0000000080002500 <send_ipi_many>:
    80002500:	00013797          	auipc	a5,0x13
    80002504:	c3878793          	addi	a5,a5,-968 # 80015138 <hart_mask>
    80002508:	0007b803          	ld	a6,0(a5)
    8000250c:	cd01                	beqz	a0,80002524 <send_ipi_many+0x24>
    8000250e:	34102673          	csrr	a2,mepc
    80002512:	000207b7          	lui	a5,0x20
    80002516:	3007a6f3          	csrrs	a3,mstatus,a5
    8000251a:	6118                	ld	a4,0(a0)
    8000251c:	30069073          	csrw	mstatus,a3
    80002520:	00e87833          	and	a6,a6,a4
    80002524:	8742                	mv	a4,a6
    80002526:	4681                	li	a3,0
    80002528:	0c080c63          	beqz	a6,80002600 <send_ipi_many+0x100>
    8000252c:	6505                	lui	a0,0x1
    8000252e:	950a                	add	a0,a0,sp
    80002530:	77fd                	lui	a5,0xfffff
    80002532:	00013317          	auipc	t1,0x13
    80002536:	b2630313          	addi	t1,t1,-1242 # 80015058 <disabled_hart_mask>
    8000253a:	8d7d                	and	a0,a0,a5
    8000253c:	4e05                	li	t3,1
    8000253e:	f14028f3          	csrr	a7,mhartid
    80002542:	a021                	j	8000254a <send_ipi_many+0x4a>
    80002544:	8305                	srli	a4,a4,0x1
    80002546:	0685                	addi	a3,a3,1
    80002548:	cf0d                	beqz	a4,80002582 <send_ipi_many+0x82>
    8000254a:	00177793          	andi	a5,a4,1
    8000254e:	dbfd                	beqz	a5,80002544 <send_ipi_many+0x44>
    80002550:	00033603          	ld	a2,0(t1)
    80002554:	411687b3          	sub	a5,a3,a7
    80002558:	07b2                	slli	a5,a5,0xc
    8000255a:	40d65633          	sra	a2,a2,a3
    8000255e:	8a05                	andi	a2,a2,1
    80002560:	97aa                	add	a5,a5,a0
    80002562:	f26d                	bnez	a2,80002544 <send_ipi_many+0x44>
    80002564:	fc878613          	addi	a2,a5,-56 # ffffffffffffefc8 <_end+0xffffffff7ffe8fc8>
    80002568:	0f50000f          	fence	iorw,ow
    8000256c:	44b6202f          	amoor.w.aq	zero,a1,(a2)
    80002570:	0ff0000f          	fence
    80002574:	fc07b783          	ld	a5,-64(a5)
    80002578:	8305                	srli	a4,a4,0x1
    8000257a:	0685                	addi	a3,a3,1
    8000257c:	01c7a023          	sw	t3,0(a5)
    80002580:	f769                	bnez	a4,8000254a <send_ipi_many+0x4a>
    80002582:	4785                	li	a5,1
    80002584:	06f58e63          	beq	a1,a5,80002600 <send_ipi_many+0x100>
    80002588:	6505                	lui	a0,0x1
    8000258a:	950a                	add	a0,a0,sp
    8000258c:	77fd                	lui	a5,0xfffff
    8000258e:	f1402373          	csrr	t1,mhartid
    80002592:	4601                	li	a2,0
    80002594:	8d7d                	and	a0,a0,a5
    80002596:	4881                	li	a7,0
    80002598:	8e1a                	mv	t3,t1
    8000259a:	a031                	j	800025a6 <send_ipi_many+0xa6>
    8000259c:	00185813          	srli	a6,a6,0x1
    800025a0:	0705                	addi	a4,a4,1
    800025a2:	04080463          	beqz	a6,800025ea <send_ipi_many+0xea>
    800025a6:	00187793          	andi	a5,a6,1
    800025aa:	dbed                	beqz	a5,8000259c <send_ipi_many+0x9c>
    800025ac:	406707b3          	sub	a5,a4,t1
    800025b0:	07b2                	slli	a5,a5,0xc
    800025b2:	97aa                	add	a5,a5,a0
    800025b4:	fc07b783          	ld	a5,-64(a5) # ffffffffffffefc0 <_end+0xffffffff7ffe8fc0>
    800025b8:	439c                	lw	a5,0(a5)
    800025ba:	2781                	sext.w	a5,a5
    800025bc:	d3e5                	beqz	a5,8000259c <send_ipi_many+0x9c>
    800025be:	41c705b3          	sub	a1,a4,t3
    800025c2:	05b2                	slli	a1,a1,0xc
    800025c4:	95aa                	add	a1,a1,a0
    800025c6:	fc053683          	ld	a3,-64(a0) # fc0 <_ftext-0x7ffff040>
    800025ca:	87c6                	mv	a5,a7
    800025cc:	0cf6a7af          	amoswap.w.aq	a5,a5,(a3)
    800025d0:	fc05b683          	ld	a3,-64(a1)
    800025d4:	8fd1                	or	a5,a5,a2
    800025d6:	0007861b          	sext.w	a2,a5
    800025da:	429c                	lw	a5,0(a3)
    800025dc:	2781                	sext.w	a5,a5
    800025de:	f7e5                	bnez	a5,800025c6 <send_ipi_many+0xc6>
    800025e0:	00185813          	srli	a6,a6,0x1
    800025e4:	0705                	addi	a4,a4,1
    800025e6:	fc0810e3          	bnez	a6,800025a6 <send_ipi_many+0xa6>
    800025ea:	ca19                	beqz	a2,80002600 <send_ipi_many+0x100>
    800025ec:	6785                	lui	a5,0x1
    800025ee:	978a                	add	a5,a5,sp
    800025f0:	777d                	lui	a4,0xfffff
    800025f2:	8ff9                	and	a5,a5,a4
    800025f4:	fc07b783          	ld	a5,-64(a5) # fc0 <_ftext-0x7ffff040>
    800025f8:	c390                	sw	a2,0(a5)
    800025fa:	0ff0000f          	fence
    800025fe:	8082                	ret
    80002600:	8082                	ret

0000000080002602 <mcall_console_putchar>:
    80002602:	00013797          	auipc	a5,0x13
    80002606:	b1e78793          	addi	a5,a5,-1250 # 80015120 <uart>
    8000260a:	639c                	ld	a5,0(a5)
    8000260c:	1141                	addi	sp,sp,-16
    8000260e:	e406                	sd	ra,8(sp)
    80002610:	c799                	beqz	a5,8000261e <mcall_console_putchar+0x1c>
    80002612:	0fd000ef          	jal	ra,80002f0e <uart_putchar>
    80002616:	60a2                	ld	ra,8(sp)
    80002618:	4501                	li	a0,0
    8000261a:	0141                	addi	sp,sp,16
    8000261c:	8082                	ret
    8000261e:	00013797          	auipc	a5,0x13
    80002622:	b0a78793          	addi	a5,a5,-1270 # 80015128 <uart16550>
    80002626:	639c                	ld	a5,0(a5)
    80002628:	c799                	beqz	a5,80002636 <mcall_console_putchar+0x34>
    8000262a:	219000ef          	jal	ra,80003042 <uart16550_putchar>
    8000262e:	60a2                	ld	ra,8(sp)
    80002630:	4501                	li	a0,0
    80002632:	0141                	addi	sp,sp,16
    80002634:	8082                	ret
    80002636:	00013797          	auipc	a5,0x13
    8000263a:	ada78793          	addi	a5,a5,-1318 # 80015110 <htif>
    8000263e:	639c                	ld	a5,0(a5)
    80002640:	dbf9                	beqz	a5,80002616 <mcall_console_putchar+0x14>
    80002642:	77e000ef          	jal	ra,80002dc0 <htif_console_putchar>
    80002646:	bfc1                	j	80002616 <mcall_console_putchar+0x14>

0000000080002648 <putstring>:
    80002648:	1141                	addi	sp,sp,-16
    8000264a:	e022                	sd	s0,0(sp)
    8000264c:	e406                	sd	ra,8(sp)
    8000264e:	842a                	mv	s0,a0
    80002650:	00054503          	lbu	a0,0(a0)
    80002654:	c519                	beqz	a0,80002662 <putstring+0x1a>
    80002656:	0405                	addi	s0,s0,1
    80002658:	fabff0ef          	jal	ra,80002602 <mcall_console_putchar>
    8000265c:	00044503          	lbu	a0,0(s0)
    80002660:	f97d                	bnez	a0,80002656 <putstring+0xe>
    80002662:	60a2                	ld	ra,8(sp)
    80002664:	6402                	ld	s0,0(sp)
    80002666:	0141                	addi	sp,sp,16
    80002668:	8082                	ret

000000008000266a <vprintm>:
    8000266a:	716d                	addi	sp,sp,-272
    8000266c:	86ae                	mv	a3,a1
    8000266e:	862a                	mv	a2,a0
    80002670:	10000593          	li	a1,256
    80002674:	850a                	mv	a0,sp
    80002676:	e606                	sd	ra,264(sp)
    80002678:	e222                	sd	s0,256(sp)
    8000267a:	0a7050ef          	jal	ra,80007f20 <vsnprintf>
    8000267e:	00014503          	lbu	a0,0(sp)
    80002682:	c901                	beqz	a0,80002692 <vprintm+0x28>
    80002684:	840a                	mv	s0,sp
    80002686:	0405                	addi	s0,s0,1
    80002688:	f7bff0ef          	jal	ra,80002602 <mcall_console_putchar>
    8000268c:	00044503          	lbu	a0,0(s0)
    80002690:	f97d                	bnez	a0,80002686 <vprintm+0x1c>
    80002692:	60b2                	ld	ra,264(sp)
    80002694:	6412                	ld	s0,256(sp)
    80002696:	6151                	addi	sp,sp,272
    80002698:	8082                	ret

000000008000269a <printm>:
    8000269a:	711d                	addi	sp,sp,-96
    8000269c:	02810313          	addi	t1,sp,40
    800026a0:	f42e                	sd	a1,40(sp)
    800026a2:	859a                	mv	a1,t1
    800026a4:	ec06                	sd	ra,24(sp)
    800026a6:	f832                	sd	a2,48(sp)
    800026a8:	fc36                	sd	a3,56(sp)
    800026aa:	e0ba                	sd	a4,64(sp)
    800026ac:	e4be                	sd	a5,72(sp)
    800026ae:	e8c2                	sd	a6,80(sp)
    800026b0:	ecc6                	sd	a7,88(sp)
    800026b2:	e41a                	sd	t1,8(sp)
    800026b4:	fb7ff0ef          	jal	ra,8000266a <vprintm>
    800026b8:	60e2                	ld	ra,24(sp)
    800026ba:	6125                	addi	sp,sp,96
    800026bc:	8082                	ret

00000000800026be <redirect_trap>:
    800026be:	14361073          	csrw	stval,a2
    800026c2:	14151073          	csrw	sepc,a0
    800026c6:	342027f3          	csrr	a5,mcause
    800026ca:	14279073          	csrw	scause,a5
    800026ce:	105027f3          	csrr	a5,stvec
    800026d2:	34179073          	csrw	mepc,a5
    800026d6:	00459793          	slli	a5,a1,0x4
    800026da:	0035d713          	srli	a4,a1,0x3
    800026de:	10077713          	andi	a4,a4,256
    800026e2:	0207f793          	andi	a5,a5,32
    800026e6:	edd5f593          	andi	a1,a1,-291
    800026ea:	8fd9                	or	a5,a5,a4
    800026ec:	8fcd                	or	a5,a5,a1
    800026ee:	6585                	lui	a1,0x1
    800026f0:	80058593          	addi	a1,a1,-2048 # 800 <_ftext-0x7ffff800>
    800026f4:	8fcd                	or	a5,a5,a1
    800026f6:	30079073          	csrw	mstatus,a5
    800026fa:	adffd06f          	j	800001d8 <__redirect_trap>

00000000800026fe <pmp_trap>:
    800026fe:	8532                	mv	a0,a2
    80002700:	300025f3          	csrr	a1,mstatus
    80002704:	34302673          	csrr	a2,mtval
    80002708:	fb7ff06f          	j	800026be <redirect_trap>

000000008000270c <poweroff>:
    8000270c:	1141                	addi	sp,sp,-16
    8000270e:	e022                	sd	s0,0(sp)
    80002710:	842a                	mv	s0,a0
    80002712:	00007517          	auipc	a0,0x7
    80002716:	e8650513          	addi	a0,a0,-378 # 80009598 <softfloat_countLeadingZeros8+0x630>
    8000271a:	e406                	sd	ra,8(sp)
    8000271c:	f7fff0ef          	jal	ra,8000269a <printm>
    80002720:	8522                	mv	a0,s0
    80002722:	22b000ef          	jal	ra,8000314c <finisher_exit>
    80002726:	00013797          	auipc	a5,0x13
    8000272a:	9ea78793          	addi	a5,a5,-1558 # 80015110 <htif>
    8000272e:	639c                	ld	a5,0(a5)
    80002730:	c399                	beqz	a5,80002736 <poweroff+0x2a>
    80002732:	6f0000ef          	jal	ra,80002e22 <htif_poweroff>
    80002736:	45a1                	li	a1,8
    80002738:	4501                	li	a0,0
    8000273a:	dc7ff0ef          	jal	ra,80002500 <send_ipi_many>
    8000273e:	10500073          	wfi
    80002742:	bff5                	j	8000273e <poweroff+0x32>

0000000080002744 <bad_trap>:
    80002744:	1141                	addi	sp,sp,-16
    80002746:	e406                	sd	ra,8(sp)
    80002748:	8732                	mv	a4,a2
    8000274a:	342026f3          	csrr	a3,mcause
    8000274e:	00007517          	auipc	a0,0x7
    80002752:	e7250513          	addi	a0,a0,-398 # 800095c0 <softfloat_countLeadingZeros8+0x658>
    80002756:	4655                	li	a2,21
    80002758:	00007597          	auipc	a1,0x7
    8000275c:	e5058593          	addi	a1,a1,-432 # 800095a8 <softfloat_countLeadingZeros8+0x640>
    80002760:	f3bff0ef          	jal	ra,8000269a <printm>
    80002764:	6541                	lui	a0,0x10
    80002766:	157d                	addi	a0,a0,-1
    80002768:	fa5ff0ef          	jal	ra,8000270c <poweroff>

000000008000276c <trap_from_machine_mode>:
    8000276c:	1141                	addi	sp,sp,-16
    8000276e:	e406                	sd	ra,8(sp)
    80002770:	86aa                	mv	a3,a0
    80002772:	882e                	mv	a6,a1
    80002774:	88b2                	mv	a7,a2
    80002776:	34202773          	csrr	a4,mcause
    8000277a:	47bd                	li	a5,15
    8000277c:	02e7e863          	bltu	a5,a4,800027ac <trap_from_machine_mode+0x40>
    80002780:	4785                	li	a5,1
    80002782:	00e797b3          	sll	a5,a5,a4
    80002786:	6729                	lui	a4,0xa
    80002788:	0a270713          	addi	a4,a4,162 # a0a2 <_ftext-0x7fff5f5e>
    8000278c:	8ff9                	and	a5,a5,a4
    8000278e:	cf99                	beqz	a5,800027ac <trap_from_machine_mode+0x40>
    80002790:	300027f3          	csrr	a5,mstatus
    80002794:	02e79713          	slli	a4,a5,0x2e
    80002798:	00075d63          	bgez	a4,800027b2 <trap_from_machine_mode+0x46>
    8000279c:	34302673          	csrr	a2,mtval
    800027a0:	752c                	ld	a1,104(a0)
    800027a2:	60a2                	ld	ra,8(sp)
    800027a4:	7128                	ld	a0,96(a0)
    800027a6:	0141                	addi	sp,sp,16
    800027a8:	f17ff06f          	j	800026be <redirect_trap>
    800027ac:	8646                	mv	a2,a7
    800027ae:	85c2                	mv	a1,a6
    800027b0:	8536                	mv	a0,a3
    800027b2:	f93ff0ef          	jal	ra,80002744 <bad_trap>

00000000800027b6 <mcall_trap>:
    800027b6:	1141                	addi	sp,sp,-16
    800027b8:	e022                	sd	s0,0(sp)
    800027ba:	e406                	sd	ra,8(sp)
    800027bc:	842a                	mv	s0,a0
    800027be:	0611                	addi	a2,a2,4
    800027c0:	34161073          	csrw	mepc,a2
    800027c4:	655c                	ld	a5,136(a0)
    800027c6:	4721                	li	a4,8
    800027c8:	6928                	ld	a0,80(a0)
    800027ca:	0cf76063          	bltu	a4,a5,8000288a <mcall_trap+0xd4>
    800027ce:	00006617          	auipc	a2,0x6
    800027d2:	5d260613          	addi	a2,a2,1490 # 80008da0 <syscall_table.3127+0x830>
    800027d6:	00279693          	slli	a3,a5,0x2
    800027da:	96b2                	add	a3,a3,a2
    800027dc:	4298                	lw	a4,0(a3)
    800027de:	9732                	add	a4,a4,a2
    800027e0:	8702                	jr	a4
    800027e2:	4589                	li	a1,2
    800027e4:	d1dff0ef          	jal	ra,80002500 <send_ipi_many>
    800027e8:	4781                	li	a5,0
    800027ea:	e83c                	sd	a5,80(s0)
    800027ec:	60a2                	ld	ra,8(sp)
    800027ee:	6402                	ld	s0,0(sp)
    800027f0:	0141                	addi	sp,sp,16
    800027f2:	8082                	ret
    800027f4:	4591                	li	a1,4
    800027f6:	b7fd                	j	800027e4 <mcall_trap+0x2e>
    800027f8:	6705                	lui	a4,0x1
    800027fa:	970a                	add	a4,a4,sp
    800027fc:	76fd                	lui	a3,0xfffff
    800027fe:	8f75                	and	a4,a4,a3
    80002800:	fd073703          	ld	a4,-48(a4) # fd0 <_ftext-0x7ffff030>
    80002804:	e308                	sd	a0,0(a4)
    80002806:	02000713          	li	a4,32
    8000280a:	34473773          	csrrc	a4,mip,a4
    8000280e:	08000713          	li	a4,128
    80002812:	30472773          	csrrs	a4,mie,a4
    80002816:	e83c                	sd	a5,80(s0)
    80002818:	60a2                	ld	ra,8(sp)
    8000281a:	6402                	ld	s0,0(sp)
    8000281c:	0141                	addi	sp,sp,16
    8000281e:	8082                	ret
    80002820:	0ff57513          	andi	a0,a0,255
    80002824:	ddfff0ef          	jal	ra,80002602 <mcall_console_putchar>
    80002828:	87aa                	mv	a5,a0
    8000282a:	e83c                	sd	a5,80(s0)
    8000282c:	60a2                	ld	ra,8(sp)
    8000282e:	6402                	ld	s0,0(sp)
    80002830:	0141                	addi	sp,sp,16
    80002832:	8082                	ret
    80002834:	00013797          	auipc	a5,0x13
    80002838:	8ec78793          	addi	a5,a5,-1812 # 80015120 <uart>
    8000283c:	639c                	ld	a5,0(a5)
    8000283e:	e3b1                	bnez	a5,80002882 <mcall_trap+0xcc>
    80002840:	00013797          	auipc	a5,0x13
    80002844:	8e878793          	addi	a5,a5,-1816 # 80015128 <uart16550>
    80002848:	639c                	ld	a5,0(a5)
    8000284a:	e78d                	bnez	a5,80002874 <mcall_trap+0xbe>
    8000284c:	00013797          	auipc	a5,0x13
    80002850:	8c478793          	addi	a5,a5,-1852 # 80015110 <htif>
    80002854:	639c                	ld	a5,0(a5)
    80002856:	dbd1                	beqz	a5,800027ea <mcall_trap+0x34>
    80002858:	476000ef          	jal	ra,80002cce <htif_console_getchar>
    8000285c:	87aa                	mv	a5,a0
    8000285e:	b771                	j	800027ea <mcall_trap+0x34>
    80002860:	344177f3          	csrrci	a5,mip,2
    80002864:	8b89                	andi	a5,a5,2
    80002866:	e83c                	sd	a5,80(s0)
    80002868:	60a2                	ld	ra,8(sp)
    8000286a:	6402                	ld	s0,0(sp)
    8000286c:	0141                	addi	sp,sp,16
    8000286e:	8082                	ret
    80002870:	4585                	li	a1,1
    80002872:	bf8d                	j	800027e4 <mcall_trap+0x2e>
    80002874:	7e8000ef          	jal	ra,8000305c <uart16550_getchar>
    80002878:	87aa                	mv	a5,a0
    8000287a:	bf85                	j	800027ea <mcall_trap+0x34>
    8000287c:	4501                	li	a0,0
    8000287e:	e8fff0ef          	jal	ra,8000270c <poweroff>
    80002882:	6a4000ef          	jal	ra,80002f26 <uart_getchar>
    80002886:	87aa                	mv	a5,a0
    80002888:	b78d                	j	800027ea <mcall_trap+0x34>
    8000288a:	fa800793          	li	a5,-88
    8000288e:	bfb1                	j	800027ea <mcall_trap+0x34>

0000000080002890 <hart_init>:
    80002890:	1141                	addi	sp,sp,-16
    80002892:	301027f3          	csrr	a5,misa
    80002896:	e406                	sd	ra,8(sp)
    80002898:	0087f713          	andi	a4,a5,8
    8000289c:	ef4d                	bnez	a4,80002956 <hart_init+0xc6>
    8000289e:	0207f793          	andi	a5,a5,32
    800028a2:	ebd5                	bnez	a5,80002956 <hart_init+0xc6>
    800028a4:	301027f3          	csrr	a5,misa
    800028a8:	02d79713          	slli	a4,a5,0x2d
    800028ac:	00075563          	bgez	a4,800028b6 <hart_init+0x26>
    800028b0:	57fd                	li	a5,-1
    800028b2:	10679073          	csrw	scounteren,a5
    800028b6:	57fd                	li	a5,-1
    800028b8:	30679073          	csrw	mcounteren,a5
    800028bc:	30445073          	csrwi	mie,8
    800028c0:	301027f3          	csrr	a5,misa
    800028c4:	02d79713          	slli	a4,a5,0x2d
    800028c8:	00075463          	bgez	a4,800028d0 <hart_init+0x40>
    800028cc:	18005073          	csrwi	satp,0
    800028d0:	301027f3          	csrr	a5,misa
    800028d4:	0087f713          	andi	a4,a5,8
    800028d8:	e701                	bnez	a4,800028e0 <hart_init+0x50>
    800028da:	0207f793          	andi	a5,a5,32
    800028de:	c785                	beqz	a5,80002906 <hart_init+0x76>
    800028e0:	30002773          	csrr	a4,mstatus
    800028e4:	6799                	lui	a5,0x6
    800028e6:	8f7d                	and	a4,a4,a5
    800028e8:	10000693          	li	a3,256
    800028ec:	4781                	li	a5,0
    800028ee:	cb25                	beqz	a4,8000295e <hart_init+0xce>
    800028f0:	4501                	li	a0,0
    800028f2:	00001717          	auipc	a4,0x1
    800028f6:	973e                	add	a4,a4,a5
    800028f8:	9b8702e7          	jalr	t0,-1608(a4) # 800032aa <put_f32_reg>
    800028fc:	07a1                	addi	a5,a5,8
    800028fe:	fed799e3          	bne	a5,a3,800028f0 <hart_init+0x60>
    80002902:	00305073          	csrwi	fcsr,0
    80002906:	301027f3          	csrr	a5,misa
    8000290a:	02d79713          	slli	a4,a5,0x2d
    8000290e:	02075363          	bgez	a4,80002934 <hart_init+0xa4>
    80002912:	22200713          	li	a4,546
    80002916:	30371073          	csrw	mideleg,a4
    8000291a:	67ad                	lui	a5,0xb
    8000291c:	10978793          	addi	a5,a5,265 # b109 <_ftext-0x7fff4ef7>
    80002920:	30279073          	csrw	medeleg,a5
    80002924:	303026f3          	csrr	a3,mideleg
    80002928:	06e69a63          	bne	a3,a4,8000299c <hart_init+0x10c>
    8000292c:	30202773          	csrr	a4,medeleg
    80002930:	04f71b63          	bne	a4,a5,80002986 <hart_init+0xf6>
    80002934:	47fd                	li	a5,31
    80002936:	577d                	li	a4,-1
    80002938:	00000297          	auipc	t0,0x0
    8000293c:	01428293          	addi	t0,t0,20 # 8000294c <hart_init+0xbc>
    80002940:	305292f3          	csrrw	t0,mtvec,t0
    80002944:	3b071073          	csrw	pmpaddr0,a4
    80002948:	3a079073          	csrw	pmpcfg0,a5
    8000294c:	30529073          	csrw	mtvec,t0
    80002950:	60a2                	ld	ra,8(sp)
    80002952:	0141                	addi	sp,sp,16
    80002954:	8082                	ret
    80002956:	6799                	lui	a5,0x6
    80002958:	30079073          	csrw	mstatus,a5
    8000295c:	b7a1                	j	800028a4 <hart_init+0x14>
    8000295e:	00006517          	auipc	a0,0x6
    80002962:	7da50513          	addi	a0,a0,2010 # 80009138 <softfloat_countLeadingZeros8+0x1d0>
    80002966:	00007697          	auipc	a3,0x7
    8000296a:	c8a68693          	addi	a3,a3,-886 # 800095f0 <softfloat_countLeadingZeros8+0x688>
    8000296e:	04500613          	li	a2,69
    80002972:	00007597          	auipc	a1,0x7
    80002976:	c9e58593          	addi	a1,a1,-866 # 80009610 <softfloat_countLeadingZeros8+0x6a8>
    8000297a:	d21ff0ef          	jal	ra,8000269a <printm>
    8000297e:	6541                	lui	a0,0x10
    80002980:	157d                	addi	a0,a0,-1
    80002982:	d8bff0ef          	jal	ra,8000270c <poweroff>
    80002986:	00006517          	auipc	a0,0x6
    8000298a:	7b250513          	addi	a0,a0,1970 # 80009138 <softfloat_countLeadingZeros8+0x1d0>
    8000298e:	00007697          	auipc	a3,0x7
    80002992:	cba68693          	addi	a3,a3,-838 # 80009648 <softfloat_countLeadingZeros8+0x6e0>
    80002996:	03d00613          	li	a2,61
    8000299a:	bfe1                	j	80002972 <hart_init+0xe2>
    8000299c:	00006517          	auipc	a0,0x6
    800029a0:	79c50513          	addi	a0,a0,1948 # 80009138 <softfloat_countLeadingZeros8+0x1d0>
    800029a4:	00007697          	auipc	a3,0x7
    800029a8:	c8468693          	addi	a3,a3,-892 # 80009628 <softfloat_countLeadingZeros8+0x6c0>
    800029ac:	03c00613          	li	a2,60
    800029b0:	b7c9                	j	80002972 <hart_init+0xe2>

00000000800029b2 <hart_plic_init>:
    800029b2:	6605                	lui	a2,0x1
    800029b4:	960a                	add	a2,a2,sp
    800029b6:	77fd                	lui	a5,0xfffff
    800029b8:	8e7d                	and	a2,a2,a5
    800029ba:	fc063703          	ld	a4,-64(a2) # fc0 <_ftext-0x7ffff040>
    800029be:	fd063783          	ld	a5,-48(a2)
    800029c2:	00072023          	sw	zero,0(a4)
    800029c6:	577d                	li	a4,-1
    800029c8:	e398                	sd	a4,0(a5)
    800029ca:	34405073          	csrwi	mip,0
    800029ce:	00012797          	auipc	a5,0x12
    800029d2:	70a78793          	addi	a5,a5,1802 # 800150d8 <plic_ndevs>
    800029d6:	6394                	ld	a3,0(a5)
    800029d8:	ce9d                	beqz	a3,80002a16 <hart_plic_init+0x64>
    800029da:	03f68693          	addi	a3,a3,63
    800029de:	8299                	srli	a3,a3,0x6
    800029e0:	ce91                	beqz	a3,800029fc <hart_plic_init+0x4a>
    800029e2:	ff063583          	ld	a1,-16(a2)
    800029e6:	068e                	slli	a3,a3,0x3
    800029e8:	4781                	li	a5,0
    800029ea:	557d                	li	a0,-1
    800029ec:	c589                	beqz	a1,800029f6 <hart_plic_init+0x44>
    800029ee:	ff063703          	ld	a4,-16(a2)
    800029f2:	973e                	add	a4,a4,a5
    800029f4:	e308                	sd	a0,0(a4)
    800029f6:	07a1                	addi	a5,a5,8
    800029f8:	fed79ae3          	bne	a5,a3,800029ec <hart_plic_init+0x3a>
    800029fc:	6785                	lui	a5,0x1
    800029fe:	777d                	lui	a4,0xfffff
    80002a00:	978a                	add	a5,a5,sp
    80002a02:	8ff9                	and	a5,a5,a4
    80002a04:	fd87b703          	ld	a4,-40(a5) # fd8 <_ftext-0x7ffff028>
    80002a08:	fe87b783          	ld	a5,-24(a5)
    80002a0c:	4685                	li	a3,1
    80002a0e:	c314                	sw	a3,0(a4)
    80002a10:	c399                	beqz	a5,80002a16 <hart_plic_init+0x64>
    80002a12:	0007a023          	sw	zero,0(a5)
    80002a16:	8082                	ret

0000000080002a18 <hls_init>:
    80002a18:	f14027f3          	csrr	a5,mhartid
    80002a1c:	8d1d                	sub	a0,a0,a5
    80002a1e:	6785                	lui	a5,0x1
    80002a20:	978a                	add	a5,a5,sp
    80002a22:	777d                	lui	a4,0xfffff
    80002a24:	0532                	slli	a0,a0,0xc
    80002a26:	8ff9                	and	a5,a5,a4
    80002a28:	fc050513          	addi	a0,a0,-64
    80002a2c:	953e                	add	a0,a0,a5
    80002a2e:	00053023          	sd	zero,0(a0)
    80002a32:	00053423          	sd	zero,8(a0)
    80002a36:	00053823          	sd	zero,16(a0)
    80002a3a:	00053c23          	sd	zero,24(a0)
    80002a3e:	02053023          	sd	zero,32(a0)
    80002a42:	02053423          	sd	zero,40(a0)
    80002a46:	02053823          	sd	zero,48(a0)
    80002a4a:	8082                	ret

0000000080002a4c <init_first_hart>:
    80002a4c:	1141                	addi	sp,sp,-16
    80002a4e:	852e                	mv	a0,a1
    80002a50:	e406                	sd	ra,8(sp)
    80002a52:	e022                	sd	s0,0(sp)
    80002a54:	842e                	mv	s0,a1
    80002a56:	4ec000ef          	jal	ra,80002f42 <query_uart>
    80002a5a:	8522                	mv	a0,s0
    80002a5c:	61c000ef          	jal	ra,80003078 <query_uart16550>
    80002a60:	8522                	mv	a0,s0
    80002a62:	3d4000ef          	jal	ra,80002e36 <query_htif>
    80002a66:	00007517          	auipc	a0,0x7
    80002a6a:	c0250513          	addi	a0,a0,-1022 # 80009668 <softfloat_countLeadingZeros8+0x700>
    80002a6e:	c2dff0ef          	jal	ra,8000269a <printm>
    80002a72:	e1fff0ef          	jal	ra,80002890 <hart_init>
    80002a76:	4501                	li	a0,0
    80002a78:	fa1ff0ef          	jal	ra,80002a18 <hls_init>
    80002a7c:	8522                	mv	a0,s0
    80002a7e:	6f8000ef          	jal	ra,80003176 <query_finisher>
    80002a82:	8522                	mv	a0,s0
    80002a84:	6bb010ef          	jal	ra,8000493e <query_mem>
    80002a88:	8522                	mv	a0,s0
    80002a8a:	723010ef          	jal	ra,800049ac <query_harts>
    80002a8e:	8522                	mv	a0,s0
    80002a90:	79d010ef          	jal	ra,80004a2c <query_clint>
    80002a94:	8522                	mv	a0,s0
    80002a96:	7f9010ef          	jal	ra,80004a8e <query_plic>
    80002a9a:	8522                	mv	a0,s0
    80002a9c:	09c020ef          	jal	ra,80004b38 <query_chosen>
    80002aa0:	00012797          	auipc	a5,0x12
    80002aa4:	5b878793          	addi	a5,a5,1464 # 80015058 <disabled_hart_mask>
    80002aa8:	638c                	ld	a1,0(a5)
    80002aaa:	00012797          	auipc	a5,0x12
    80002aae:	68e78793          	addi	a5,a5,1678 # 80015138 <hart_mask>
    80002ab2:	639c                	ld	a5,0(a5)
    80002ab4:	fff5c593          	not	a1,a1
    80002ab8:	6605                	lui	a2,0x1
    80002aba:	960a                	add	a2,a2,sp
    80002abc:	8dfd                	and	a1,a1,a5
    80002abe:	77fd                	lui	a5,0xfffff
    80002ac0:	8e7d                	and	a2,a2,a5
    80002ac2:	4701                	li	a4,0
    80002ac4:	4885                	li	a7,1
    80002ac6:	4821                	li	a6,8
    80002ac8:	f1402573          	csrr	a0,mhartid
    80002acc:	40a707b3          	sub	a5,a4,a0
    80002ad0:	00e5d6b3          	srl	a3,a1,a4
    80002ad4:	07b2                	slli	a5,a5,0xc
    80002ad6:	8a85                	andi	a3,a3,1
    80002ad8:	97b2                	add	a5,a5,a2
    80002ada:	0705                	addi	a4,a4,1
    80002adc:	c689                	beqz	a3,80002ae6 <init_first_hart+0x9a>
    80002ade:	fc07b783          	ld	a5,-64(a5) # ffffffffffffefc0 <_end+0xffffffff7ffe8fc0>
    80002ae2:	0117a023          	sw	a7,0(a5)
    80002ae6:	ff0713e3          	bne	a4,a6,80002acc <init_first_hart+0x80>
    80002aea:	00012797          	auipc	a5,0x12
    80002aee:	5ee78793          	addi	a5,a5,1518 # 800150d8 <plic_ndevs>
    80002af2:	639c                	ld	a5,0(a5)
    80002af4:	c39d                	beqz	a5,80002b1a <init_first_hart+0xce>
    80002af6:	00012717          	auipc	a4,0x12
    80002afa:	5ea70713          	addi	a4,a4,1514 # 800150e0 <plic_priorities>
    80002afe:	6314                	ld	a3,0(a4)
    80002b00:	00279713          	slli	a4,a5,0x2
    80002b04:	4605                	li	a2,1
    80002b06:	00468793          	addi	a5,a3,4
    80002b0a:	96ba                	add	a3,a3,a4
    80002b0c:	a011                	j	80002b10 <init_first_hart+0xc4>
    80002b0e:	87ba                	mv	a5,a4
    80002b10:	c390                	sw	a2,0(a5)
    80002b12:	00478713          	addi	a4,a5,4
    80002b16:	fed79ce3          	bne	a5,a3,80002b0e <init_first_hart+0xc2>
    80002b1a:	e99ff0ef          	jal	ra,800029b2 <hart_plic_init>
    80002b1e:	00012797          	auipc	a5,0x12
    80002b22:	5ca78793          	addi	a5,a5,1482 # 800150e8 <mem_size>
    80002b26:	639c                	ld	a5,0(a5)
    80002b28:	ffe00737          	lui	a4,0xffe00
    80002b2c:	8522                	mv	a0,s0
    80002b2e:	6402                	ld	s0,0(sp)
    80002b30:	60a2                	ld	ra,8(sp)
    80002b32:	8ff9                	and	a5,a5,a4
    80002b34:	00012717          	auipc	a4,0x12
    80002b38:	5af73a23          	sd	a5,1460(a4) # 800150e8 <mem_size>
    80002b3c:	0141                	addi	sp,sp,16
    80002b3e:	a0bfd06f          	j	80000548 <boot_loader>

0000000080002b42 <init_other_hart>:
    80002b42:	1141                	addi	sp,sp,-16
    80002b44:	e406                	sd	ra,8(sp)
    80002b46:	e022                	sd	s0,0(sp)
    80002b48:	842e                	mv	s0,a1
    80002b4a:	d47ff0ef          	jal	ra,80002890 <hart_init>
    80002b4e:	e65ff0ef          	jal	ra,800029b2 <hart_plic_init>
    80002b52:	8522                	mv	a0,s0
    80002b54:	6402                	ld	s0,0(sp)
    80002b56:	60a2                	ld	ra,8(sp)
    80002b58:	0141                	addi	sp,sp,16
    80002b5a:	a27fd06f          	j	80000580 <boot_other_hart>

0000000080002b5e <setup_pmp>:
    80002b5e:	47fd                	li	a5,31
    80002b60:	577d                	li	a4,-1
    80002b62:	00000297          	auipc	t0,0x0
    80002b66:	01628293          	addi	t0,t0,22 # 80002b78 <setup_pmp+0x1a>
    80002b6a:	305292f3          	csrrw	t0,mtvec,t0
    80002b6e:	3b071073          	csrw	pmpaddr0,a4
    80002b72:	3a079073          	csrw	pmpcfg0,a5
    80002b76:	0001                	nop
    80002b78:	30529073          	csrw	mtvec,t0
    80002b7c:	8082                	ret

0000000080002b7e <enter_supervisor_mode>:
    80002b7e:	30002773          	csrr	a4,mstatus
    80002b82:	76f9                	lui	a3,0xffffe
    80002b84:	6785                	lui	a5,0x1
    80002b86:	77f68693          	addi	a3,a3,1919 # ffffffffffffe77f <_end+0xffffffff7ffe877f>
    80002b8a:	8f75                	and	a4,a4,a3
    80002b8c:	80078693          	addi	a3,a5,-2048 # 800 <_ftext-0x7ffff800>
    80002b90:	8f55                	or	a4,a4,a3
    80002b92:	30071073          	csrw	mstatus,a4
    80002b96:	777d                	lui	a4,0xfffff
    80002b98:	978a                	add	a5,a5,sp
    80002b9a:	8ff9                	and	a5,a5,a4
    80002b9c:	ec078793          	addi	a5,a5,-320
    80002ba0:	34079073          	csrw	mscratch,a5
    80002ba4:	34151073          	csrw	mepc,a0
    80002ba8:	852e                	mv	a0,a1
    80002baa:	85b2                	mv	a1,a2
    80002bac:	30200073          	mret

0000000080002bb0 <enter_machine_mode>:
    80002bb0:	1141                	addi	sp,sp,-16
    80002bb2:	872a                	mv	a4,a0
    80002bb4:	e406                	sd	ra,8(sp)
    80002bb6:	852e                	mv	a0,a1
    80002bb8:	300027f3          	csrr	a5,mstatus
    80002bbc:	f7f7f793          	andi	a5,a5,-129
    80002bc0:	30079073          	csrw	mstatus,a5
    80002bc4:	6785                	lui	a5,0x1
    80002bc6:	978a                	add	a5,a5,sp
    80002bc8:	76fd                	lui	a3,0xfffff
    80002bca:	8ff5                	and	a5,a5,a3
    80002bcc:	ec078793          	addi	a5,a5,-320 # ec0 <_ftext-0x7ffff140>
    80002bd0:	34079073          	csrw	mscratch,a5
    80002bd4:	85b2                	mv	a1,a2
    80002bd6:	9702                	jalr	a4
	...

0000000080002bda <htif_done>:
    80002bda:	419c                	lw	a5,0(a1)
    80002bdc:	c791                	beqz	a5,80002be8 <htif_done+0xe>
    80002bde:	4785                	li	a5,1
    80002be0:	00012717          	auipc	a4,0x12
    80002be4:	52f73823          	sd	a5,1328(a4) # 80015110 <htif>
    80002be8:	8082                	ret

0000000080002bea <htif_open>:
    80002bea:	00058023          	sb	zero,0(a1)
    80002bee:	000580a3          	sb	zero,1(a1)
    80002bf2:	00058123          	sb	zero,2(a1)
    80002bf6:	000581a3          	sb	zero,3(a1)
    80002bfa:	8082                	ret

0000000080002bfc <__check_fromhost>:
    80002bfc:	00007797          	auipc	a5,0x7
    80002c00:	40478793          	addi	a5,a5,1028 # 8000a000 <fromhost>
    80002c04:	639c                	ld	a5,0(a5)
    80002c06:	cf9d                	beqz	a5,80002c44 <__check_fromhost+0x48>
    80002c08:	1141                	addi	sp,sp,-16
    80002c0a:	00007717          	auipc	a4,0x7
    80002c0e:	3e073b23          	sd	zero,1014(a4) # 8000a000 <fromhost>
    80002c12:	e406                	sd	ra,8(sp)
    80002c14:	0387d693          	srli	a3,a5,0x38
    80002c18:	4705                	li	a4,1
    80002c1a:	02e69663          	bne	a3,a4,80002c46 <__check_fromhost+0x4a>
    80002c1e:	00879713          	slli	a4,a5,0x8
    80002c22:	9361                	srli	a4,a4,0x38
    80002c24:	c711                	beqz	a4,80002c30 <__check_fromhost+0x34>
    80002c26:	04d71363          	bne	a4,a3,80002c6c <__check_fromhost+0x70>
    80002c2a:	60a2                	ld	ra,8(sp)
    80002c2c:	0141                	addi	sp,sp,16
    80002c2e:	8082                	ret
    80002c30:	60a2                	ld	ra,8(sp)
    80002c32:	0ff7f793          	andi	a5,a5,255
    80002c36:	2785                	addiw	a5,a5,1
    80002c38:	00012717          	auipc	a4,0x12
    80002c3c:	4ef72023          	sw	a5,1248(a4) # 80015118 <htif_console_buf>
    80002c40:	0141                	addi	sp,sp,16
    80002c42:	8082                	ret
    80002c44:	8082                	ret
    80002c46:	00006517          	auipc	a0,0x6
    80002c4a:	4f250513          	addi	a0,a0,1266 # 80009138 <softfloat_countLeadingZeros8+0x1d0>
    80002c4e:	00007697          	auipc	a3,0x7
    80002c52:	a2a68693          	addi	a3,a3,-1494 # 80009678 <softfloat_countLeadingZeros8+0x710>
    80002c56:	467d                	li	a2,31
    80002c58:	00007597          	auipc	a1,0x7
    80002c5c:	a3858593          	addi	a1,a1,-1480 # 80009690 <softfloat_countLeadingZeros8+0x728>
    80002c60:	a3bff0ef          	jal	ra,8000269a <printm>
    80002c64:	6541                	lui	a0,0x10
    80002c66:	157d                	addi	a0,a0,-1
    80002c68:	aa5ff0ef          	jal	ra,8000270c <poweroff>
    80002c6c:	00006517          	auipc	a0,0x6
    80002c70:	4cc50513          	addi	a0,a0,1228 # 80009138 <softfloat_countLeadingZeros8+0x1d0>
    80002c74:	00006697          	auipc	a3,0x6
    80002c78:	6ac68693          	addi	a3,a3,1708 # 80009320 <softfloat_countLeadingZeros8+0x3b8>
    80002c7c:	02700613          	li	a2,39
    80002c80:	00007597          	auipc	a1,0x7
    80002c84:	a1058593          	addi	a1,a1,-1520 # 80009690 <softfloat_countLeadingZeros8+0x728>
    80002c88:	a13ff0ef          	jal	ra,8000269a <printm>
    80002c8c:	6541                	lui	a0,0x10
    80002c8e:	157d                	addi	a0,a0,-1
    80002c90:	a7dff0ef          	jal	ra,8000270c <poweroff>

0000000080002c94 <htif_prop>:
    80002c94:	1101                	addi	sp,sp,-32
    80002c96:	e822                	sd	s0,16(sp)
    80002c98:	842a                	mv	s0,a0
    80002c9a:	6508                	ld	a0,8(a0)
    80002c9c:	e426                	sd	s1,8(sp)
    80002c9e:	84ae                	mv	s1,a1
    80002ca0:	00007597          	auipc	a1,0x7
    80002ca4:	a0858593          	addi	a1,a1,-1528 # 800096a8 <softfloat_countLeadingZeros8+0x740>
    80002ca8:	ec06                	sd	ra,24(sp)
    80002caa:	578050ef          	jal	ra,80008222 <strcmp>
    80002cae:	e919                	bnez	a0,80002cc4 <htif_prop+0x30>
    80002cb0:	6808                	ld	a0,16(s0)
    80002cb2:	00007597          	auipc	a1,0x7
    80002cb6:	a0658593          	addi	a1,a1,-1530 # 800096b8 <softfloat_countLeadingZeros8+0x750>
    80002cba:	568050ef          	jal	ra,80008222 <strcmp>
    80002cbe:	e119                	bnez	a0,80002cc4 <htif_prop+0x30>
    80002cc0:	4785                	li	a5,1
    80002cc2:	c09c                	sw	a5,0(s1)
    80002cc4:	60e2                	ld	ra,24(sp)
    80002cc6:	6442                	ld	s0,16(sp)
    80002cc8:	64a2                	ld	s1,8(sp)
    80002cca:	6105                	addi	sp,sp,32
    80002ccc:	8082                	ret

0000000080002cce <htif_console_getchar>:
    80002cce:	1101                	addi	sp,sp,-32
    80002cd0:	e822                	sd	s0,16(sp)
    80002cd2:	ec06                	sd	ra,24(sp)
    80002cd4:	e426                	sd	s1,8(sp)
    80002cd6:	00012717          	auipc	a4,0x12
    80002cda:	37a70713          	addi	a4,a4,890 # 80015050 <htif_lock>
    80002cde:	547d                	li	s0,-1
    80002ce0:	431c                	lw	a5,0(a4)
    80002ce2:	2781                	sext.w	a5,a5
    80002ce4:	fff5                	bnez	a5,80002ce0 <htif_console_getchar+0x12>
    80002ce6:	87a2                	mv	a5,s0
    80002ce8:	0cf727af          	amoswap.w.aq	a5,a5,(a4)
    80002cec:	2781                	sext.w	a5,a5
    80002cee:	0ff0000f          	fence
    80002cf2:	f7fd                	bnez	a5,80002ce0 <htif_console_getchar+0x12>
    80002cf4:	f09ff0ef          	jal	ra,80002bfc <__check_fromhost>
    80002cf8:	00012797          	auipc	a5,0x12
    80002cfc:	42078793          	addi	a5,a5,1056 # 80015118 <htif_console_buf>
    80002d00:	4384                	lw	s1,0(a5)
    80002d02:	2481                	sext.w	s1,s1
    80002d04:	0204c663          	bltz	s1,80002d30 <htif_console_getchar+0x62>
    80002d08:	00012797          	auipc	a5,0x12
    80002d0c:	4087a823          	sw	s0,1040(a5) # 80015118 <htif_console_buf>
    80002d10:	00007417          	auipc	s0,0x7
    80002d14:	2f040413          	addi	s0,s0,752 # 8000a000 <fromhost>
    80002d18:	641c                	ld	a5,8(s0)
    80002d1a:	c789                	beqz	a5,80002d24 <htif_console_getchar+0x56>
    80002d1c:	ee1ff0ef          	jal	ra,80002bfc <__check_fromhost>
    80002d20:	641c                	ld	a5,8(s0)
    80002d22:	ffed                	bnez	a5,80002d1c <htif_console_getchar+0x4e>
    80002d24:	4785                	li	a5,1
    80002d26:	17e2                	slli	a5,a5,0x38
    80002d28:	00007717          	auipc	a4,0x7
    80002d2c:	2ef73023          	sd	a5,736(a4) # 8000a008 <tohost>
    80002d30:	0ff0000f          	fence
    80002d34:	60e2                	ld	ra,24(sp)
    80002d36:	6442                	ld	s0,16(sp)
    80002d38:	00012797          	auipc	a5,0x12
    80002d3c:	3007ac23          	sw	zero,792(a5) # 80015050 <htif_lock>
    80002d40:	fff4851b          	addiw	a0,s1,-1
    80002d44:	64a2                	ld	s1,8(sp)
    80002d46:	6105                	addi	sp,sp,32
    80002d48:	8082                	ret

0000000080002d4a <htif_syscall>:
    80002d4a:	1101                	addi	sp,sp,-32
    80002d4c:	e426                	sd	s1,8(sp)
    80002d4e:	ec06                	sd	ra,24(sp)
    80002d50:	e822                	sd	s0,16(sp)
    80002d52:	84aa                	mv	s1,a0
    80002d54:	00012797          	auipc	a5,0x12
    80002d58:	2fc78793          	addi	a5,a5,764 # 80015050 <htif_lock>
    80002d5c:	56fd                	li	a3,-1
    80002d5e:	4398                	lw	a4,0(a5)
    80002d60:	2701                	sext.w	a4,a4
    80002d62:	ff75                	bnez	a4,80002d5e <htif_syscall+0x14>
    80002d64:	8736                	mv	a4,a3
    80002d66:	0ce7a72f          	amoswap.w.aq	a4,a4,(a5)
    80002d6a:	2701                	sext.w	a4,a4
    80002d6c:	0ff0000f          	fence
    80002d70:	f77d                	bnez	a4,80002d5e <htif_syscall+0x14>
    80002d72:	00007417          	auipc	s0,0x7
    80002d76:	28e40413          	addi	s0,s0,654 # 8000a000 <fromhost>
    80002d7a:	641c                	ld	a5,8(s0)
    80002d7c:	c789                	beqz	a5,80002d86 <htif_syscall+0x3c>
    80002d7e:	e7fff0ef          	jal	ra,80002bfc <__check_fromhost>
    80002d82:	641c                	ld	a5,8(s0)
    80002d84:	ffed                	bnez	a5,80002d7e <htif_syscall+0x34>
    80002d86:	00007797          	auipc	a5,0x7
    80002d8a:	2897b123          	sd	s1,642(a5) # 8000a008 <tohost>
    80002d8e:	601c                	ld	a5,0(s0)
    80002d90:	dffd                	beqz	a5,80002d8e <htif_syscall+0x44>
    80002d92:	00879713          	slli	a4,a5,0x8
    80002d96:	8fd9                	or	a5,a5,a4
    80002d98:	93e1                	srli	a5,a5,0x38
    80002d9a:	c781                	beqz	a5,80002da2 <htif_syscall+0x58>
    80002d9c:	e61ff0ef          	jal	ra,80002bfc <__check_fromhost>
    80002da0:	b7fd                	j	80002d8e <htif_syscall+0x44>
    80002da2:	00007797          	auipc	a5,0x7
    80002da6:	2407bf23          	sd	zero,606(a5) # 8000a000 <fromhost>
    80002daa:	0ff0000f          	fence
    80002dae:	60e2                	ld	ra,24(sp)
    80002db0:	6442                	ld	s0,16(sp)
    80002db2:	00012797          	auipc	a5,0x12
    80002db6:	2807af23          	sw	zero,670(a5) # 80015050 <htif_lock>
    80002dba:	64a2                	ld	s1,8(sp)
    80002dbc:	6105                	addi	sp,sp,32
    80002dbe:	8082                	ret

0000000080002dc0 <htif_console_putchar>:
    80002dc0:	1101                	addi	sp,sp,-32
    80002dc2:	e426                	sd	s1,8(sp)
    80002dc4:	ec06                	sd	ra,24(sp)
    80002dc6:	e822                	sd	s0,16(sp)
    80002dc8:	84aa                	mv	s1,a0
    80002dca:	00012717          	auipc	a4,0x12
    80002dce:	28670713          	addi	a4,a4,646 # 80015050 <htif_lock>
    80002dd2:	56fd                	li	a3,-1
    80002dd4:	431c                	lw	a5,0(a4)
    80002dd6:	2781                	sext.w	a5,a5
    80002dd8:	fff5                	bnez	a5,80002dd4 <htif_console_putchar+0x14>
    80002dda:	87b6                	mv	a5,a3
    80002ddc:	0cf727af          	amoswap.w.aq	a5,a5,(a4)
    80002de0:	2781                	sext.w	a5,a5
    80002de2:	0ff0000f          	fence
    80002de6:	f7fd                	bnez	a5,80002dd4 <htif_console_putchar+0x14>
    80002de8:	00007417          	auipc	s0,0x7
    80002dec:	21840413          	addi	s0,s0,536 # 8000a000 <fromhost>
    80002df0:	641c                	ld	a5,8(s0)
    80002df2:	c789                	beqz	a5,80002dfc <htif_console_putchar+0x3c>
    80002df4:	e09ff0ef          	jal	ra,80002bfc <__check_fromhost>
    80002df8:	641c                	ld	a5,8(s0)
    80002dfa:	ffed                	bnez	a5,80002df4 <htif_console_putchar+0x34>
    80002dfc:	10100793          	li	a5,257
    80002e00:	17c2                	slli	a5,a5,0x30
    80002e02:	8cdd                	or	s1,s1,a5
    80002e04:	00007797          	auipc	a5,0x7
    80002e08:	2097b223          	sd	s1,516(a5) # 8000a008 <tohost>
    80002e0c:	0ff0000f          	fence
    80002e10:	60e2                	ld	ra,24(sp)
    80002e12:	6442                	ld	s0,16(sp)
    80002e14:	00012797          	auipc	a5,0x12
    80002e18:	2207ae23          	sw	zero,572(a5) # 80015050 <htif_lock>
    80002e1c:	64a2                	ld	s1,8(sp)
    80002e1e:	6105                	addi	sp,sp,32
    80002e20:	8082                	ret

0000000080002e22 <htif_poweroff>:
    80002e22:	4785                	li	a5,1
    80002e24:	00007717          	auipc	a4,0x7
    80002e28:	1c073e23          	sd	zero,476(a4) # 8000a000 <fromhost>
    80002e2c:	00007717          	auipc	a4,0x7
    80002e30:	1cf73e23          	sd	a5,476(a4) # 8000a008 <tohost>
    80002e34:	bfc5                	j	80002e24 <htif_poweroff+0x2>

0000000080002e36 <query_htif>:
    80002e36:	7139                	addi	sp,sp,-64
    80002e38:	00000797          	auipc	a5,0x0
    80002e3c:	db278793          	addi	a5,a5,-590 # 80002bea <htif_open>
    80002e40:	e43e                	sd	a5,8(sp)
    80002e42:	00000797          	auipc	a5,0x0
    80002e46:	e5278793          	addi	a5,a5,-430 # 80002c94 <htif_prop>
    80002e4a:	e83e                	sd	a5,16(sp)
    80002e4c:	002c                	addi	a1,sp,8
    80002e4e:	00000797          	auipc	a5,0x0
    80002e52:	d8c78793          	addi	a5,a5,-628 # 80002bda <htif_done>
    80002e56:	fc06                	sd	ra,56(sp)
    80002e58:	f002                	sd	zero,32(sp)
    80002e5a:	ec3e                	sd	a5,24(sp)
    80002e5c:	f40a                	sd	sp,40(sp)
    80002e5e:	624010ef          	jal	ra,80004482 <fdt_scan>
    80002e62:	70e2                	ld	ra,56(sp)
    80002e64:	6121                	addi	sp,sp,64
    80002e66:	8082                	ret

0000000080002e68 <uart_done>:
    80002e68:	419c                	lw	a5,0(a1)
    80002e6a:	cb89                	beqz	a5,80002e7c <uart_done+0x14>
    80002e6c:	659c                	ld	a5,8(a1)
    80002e6e:	c799                	beqz	a5,80002e7c <uart_done+0x14>
    80002e70:	00012717          	auipc	a4,0x12
    80002e74:	2b070713          	addi	a4,a4,688 # 80015120 <uart>
    80002e78:	6318                	ld	a4,0(a4)
    80002e7a:	c311                	beqz	a4,80002e7e <uart_done+0x16>
    80002e7c:	8082                	ret
    80002e7e:	4705                	li	a4,1
    80002e80:	c798                	sw	a4,8(a5)
    80002e82:	00012697          	auipc	a3,0x12
    80002e86:	28f6bf23          	sd	a5,670(a3) # 80015120 <uart>
    80002e8a:	c7d8                	sw	a4,12(a5)
    80002e8c:	8082                	ret

0000000080002e8e <uart_open>:
    80002e8e:	852e                	mv	a0,a1
    80002e90:	4641                	li	a2,16
    80002e92:	4581                	li	a1,0
    80002e94:	32e0506f          	j	800081c2 <memset>

0000000080002e98 <uart_prop>:
    80002e98:	1101                	addi	sp,sp,-32
    80002e9a:	e426                	sd	s1,8(sp)
    80002e9c:	6504                	ld	s1,8(a0)
    80002e9e:	e822                	sd	s0,16(sp)
    80002ea0:	e04a                	sd	s2,0(sp)
    80002ea2:	842a                	mv	s0,a0
    80002ea4:	892e                	mv	s2,a1
    80002ea6:	8526                	mv	a0,s1
    80002ea8:	00007597          	auipc	a1,0x7
    80002eac:	80058593          	addi	a1,a1,-2048 # 800096a8 <softfloat_countLeadingZeros8+0x740>
    80002eb0:	ec06                	sd	ra,24(sp)
    80002eb2:	370050ef          	jal	ra,80008222 <strcmp>
    80002eb6:	e909                	bnez	a0,80002ec8 <uart_prop+0x30>
    80002eb8:	6808                	ld	a0,16(s0)
    80002eba:	00007597          	auipc	a1,0x7
    80002ebe:	80e58593          	addi	a1,a1,-2034 # 800096c8 <softfloat_countLeadingZeros8+0x760>
    80002ec2:	360050ef          	jal	ra,80008222 <strcmp>
    80002ec6:	cd19                	beqz	a0,80002ee4 <uart_prop+0x4c>
    80002ec8:	00007597          	auipc	a1,0x7
    80002ecc:	81058593          	addi	a1,a1,-2032 # 800096d8 <softfloat_countLeadingZeros8+0x770>
    80002ed0:	8526                	mv	a0,s1
    80002ed2:	350050ef          	jal	ra,80008222 <strcmp>
    80002ed6:	c105                	beqz	a0,80002ef6 <uart_prop+0x5e>
    80002ed8:	60e2                	ld	ra,24(sp)
    80002eda:	6442                	ld	s0,16(sp)
    80002edc:	64a2                	ld	s1,8(sp)
    80002ede:	6902                	ld	s2,0(sp)
    80002ee0:	6105                	addi	sp,sp,32
    80002ee2:	8082                	ret
    80002ee4:	60e2                	ld	ra,24(sp)
    80002ee6:	6442                	ld	s0,16(sp)
    80002ee8:	4785                	li	a5,1
    80002eea:	00f92023          	sw	a5,0(s2)
    80002eee:	64a2                	ld	s1,8(sp)
    80002ef0:	6902                	ld	s2,0(sp)
    80002ef2:	6105                	addi	sp,sp,32
    80002ef4:	8082                	ret
    80002ef6:	601c                	ld	a5,0(s0)
    80002ef8:	680c                	ld	a1,16(s0)
    80002efa:	6442                	ld	s0,16(sp)
    80002efc:	60e2                	ld	ra,24(sp)
    80002efe:	64a2                	ld	s1,8(sp)
    80002f00:	00890613          	addi	a2,s2,8
    80002f04:	6388                	ld	a0,0(a5)
    80002f06:	6902                	ld	s2,0(sp)
    80002f08:	6105                	addi	sp,sp,32
    80002f0a:	6b20106f          	j	800045bc <fdt_get_address>

0000000080002f0e <uart_putchar>:
    80002f0e:	00012697          	auipc	a3,0x12
    80002f12:	21268693          	addi	a3,a3,530 # 80015120 <uart>
    80002f16:	629c                	ld	a5,0(a3)
    80002f18:	40a7a72f          	amoor.w	a4,a0,(a5)
    80002f1c:	02071793          	slli	a5,a4,0x20
    80002f20:	fe07cbe3          	bltz	a5,80002f16 <uart_putchar+0x8>
    80002f24:	8082                	ret

0000000080002f26 <uart_getchar>:
    80002f26:	00012797          	auipc	a5,0x12
    80002f2a:	1fa78793          	addi	a5,a5,506 # 80015120 <uart>
    80002f2e:	639c                	ld	a5,0(a5)
    80002f30:	43dc                	lw	a5,4(a5)
    80002f32:	2781                	sext.w	a5,a5
    80002f34:	0007851b          	sext.w	a0,a5
    80002f38:	0007c363          	bltz	a5,80002f3e <uart_getchar+0x18>
    80002f3c:	8082                	ret
    80002f3e:	557d                	li	a0,-1
    80002f40:	8082                	ret

0000000080002f42 <query_uart>:
    80002f42:	715d                	addi	sp,sp,-80
    80002f44:	00000797          	auipc	a5,0x0
    80002f48:	f4a78793          	addi	a5,a5,-182 # 80002e8e <uart_open>
    80002f4c:	ec3e                	sd	a5,24(sp)
    80002f4e:	00000797          	auipc	a5,0x0
    80002f52:	f4a78793          	addi	a5,a5,-182 # 80002e98 <uart_prop>
    80002f56:	f03e                	sd	a5,32(sp)
    80002f58:	00000797          	auipc	a5,0x0
    80002f5c:	f1078793          	addi	a5,a5,-240 # 80002e68 <uart_done>
    80002f60:	f43e                	sd	a5,40(sp)
    80002f62:	082c                	addi	a1,sp,24
    80002f64:	003c                	addi	a5,sp,8
    80002f66:	e486                	sd	ra,72(sp)
    80002f68:	f802                	sd	zero,48(sp)
    80002f6a:	fc3e                	sd	a5,56(sp)
    80002f6c:	516010ef          	jal	ra,80004482 <fdt_scan>
    80002f70:	60a6                	ld	ra,72(sp)
    80002f72:	6161                	addi	sp,sp,80
    80002f74:	8082                	ret

0000000080002f76 <uart16550_done>:
    80002f76:	419c                	lw	a5,0(a1)
    80002f78:	cb89                	beqz	a5,80002f8a <uart16550_done+0x14>
    80002f7a:	6598                	ld	a4,8(a1)
    80002f7c:	c719                	beqz	a4,80002f8a <uart16550_done+0x14>
    80002f7e:	00012797          	auipc	a5,0x12
    80002f82:	1aa78793          	addi	a5,a5,426 # 80015128 <uart16550>
    80002f86:	6394                	ld	a3,0(a5)
    80002f88:	c291                	beqz	a3,80002f8c <uart16550_done+0x16>
    80002f8a:	8082                	ret
    80002f8c:	00012697          	auipc	a3,0x12
    80002f90:	18e6be23          	sd	a4,412(a3) # 80015128 <uart16550>
    80002f94:	000700a3          	sb	zero,1(a4)
    80002f98:	6394                	ld	a3,0(a5)
    80002f9a:	f8000613          	li	a2,-128
    80002f9e:	470d                	li	a4,3
    80002fa0:	00c681a3          	sb	a2,3(a3)
    80002fa4:	6394                	ld	a3,0(a5)
    80002fa6:	00e68023          	sb	a4,0(a3)
    80002faa:	6394                	ld	a3,0(a5)
    80002fac:	000680a3          	sb	zero,1(a3)
    80002fb0:	6394                	ld	a3,0(a5)
    80002fb2:	00e681a3          	sb	a4,3(a3)
    80002fb6:	639c                	ld	a5,0(a5)
    80002fb8:	fc700713          	li	a4,-57
    80002fbc:	00e78123          	sb	a4,2(a5)
    80002fc0:	8082                	ret

0000000080002fc2 <uart16550_open>:
    80002fc2:	852e                	mv	a0,a1
    80002fc4:	4641                	li	a2,16
    80002fc6:	4581                	li	a1,0
    80002fc8:	1fa0506f          	j	800081c2 <memset>

0000000080002fcc <uart16550_prop>:
    80002fcc:	1101                	addi	sp,sp,-32
    80002fce:	e426                	sd	s1,8(sp)
    80002fd0:	6504                	ld	s1,8(a0)
    80002fd2:	e822                	sd	s0,16(sp)
    80002fd4:	e04a                	sd	s2,0(sp)
    80002fd6:	842a                	mv	s0,a0
    80002fd8:	892e                	mv	s2,a1
    80002fda:	8526                	mv	a0,s1
    80002fdc:	00006597          	auipc	a1,0x6
    80002fe0:	6cc58593          	addi	a1,a1,1740 # 800096a8 <softfloat_countLeadingZeros8+0x740>
    80002fe4:	ec06                	sd	ra,24(sp)
    80002fe6:	23c050ef          	jal	ra,80008222 <strcmp>
    80002fea:	e909                	bnez	a0,80002ffc <uart16550_prop+0x30>
    80002fec:	6808                	ld	a0,16(s0)
    80002fee:	00006597          	auipc	a1,0x6
    80002ff2:	6f258593          	addi	a1,a1,1778 # 800096e0 <softfloat_countLeadingZeros8+0x778>
    80002ff6:	22c050ef          	jal	ra,80008222 <strcmp>
    80002ffa:	cd19                	beqz	a0,80003018 <uart16550_prop+0x4c>
    80002ffc:	00006597          	auipc	a1,0x6
    80003000:	6dc58593          	addi	a1,a1,1756 # 800096d8 <softfloat_countLeadingZeros8+0x770>
    80003004:	8526                	mv	a0,s1
    80003006:	21c050ef          	jal	ra,80008222 <strcmp>
    8000300a:	c105                	beqz	a0,8000302a <uart16550_prop+0x5e>
    8000300c:	60e2                	ld	ra,24(sp)
    8000300e:	6442                	ld	s0,16(sp)
    80003010:	64a2                	ld	s1,8(sp)
    80003012:	6902                	ld	s2,0(sp)
    80003014:	6105                	addi	sp,sp,32
    80003016:	8082                	ret
    80003018:	60e2                	ld	ra,24(sp)
    8000301a:	6442                	ld	s0,16(sp)
    8000301c:	4785                	li	a5,1
    8000301e:	00f92023          	sw	a5,0(s2)
    80003022:	64a2                	ld	s1,8(sp)
    80003024:	6902                	ld	s2,0(sp)
    80003026:	6105                	addi	sp,sp,32
    80003028:	8082                	ret
    8000302a:	601c                	ld	a5,0(s0)
    8000302c:	680c                	ld	a1,16(s0)
    8000302e:	6442                	ld	s0,16(sp)
    80003030:	60e2                	ld	ra,24(sp)
    80003032:	64a2                	ld	s1,8(sp)
    80003034:	00890613          	addi	a2,s2,8
    80003038:	6388                	ld	a0,0(a5)
    8000303a:	6902                	ld	s2,0(sp)
    8000303c:	6105                	addi	sp,sp,32
    8000303e:	57e0106f          	j	800045bc <fdt_get_address>

0000000080003042 <uart16550_putchar>:
    80003042:	00012797          	auipc	a5,0x12
    80003046:	0e678793          	addi	a5,a5,230 # 80015128 <uart16550>
    8000304a:	6398                	ld	a4,0(a5)
    8000304c:	00574783          	lbu	a5,5(a4)
    80003050:	0207f793          	andi	a5,a5,32
    80003054:	dfe5                	beqz	a5,8000304c <uart16550_putchar+0xa>
    80003056:	00a70023          	sb	a0,0(a4)
    8000305a:	8082                	ret

000000008000305c <uart16550_getchar>:
    8000305c:	00012797          	auipc	a5,0x12
    80003060:	0cc78793          	addi	a5,a5,204 # 80015128 <uart16550>
    80003064:	6398                	ld	a4,0(a5)
    80003066:	00574783          	lbu	a5,5(a4)
    8000306a:	8b85                	andi	a5,a5,1
    8000306c:	c781                	beqz	a5,80003074 <uart16550_getchar+0x18>
    8000306e:	00074503          	lbu	a0,0(a4)
    80003072:	8082                	ret
    80003074:	557d                	li	a0,-1
    80003076:	8082                	ret

0000000080003078 <query_uart16550>:
    80003078:	715d                	addi	sp,sp,-80
    8000307a:	00000797          	auipc	a5,0x0
    8000307e:	f4878793          	addi	a5,a5,-184 # 80002fc2 <uart16550_open>
    80003082:	ec3e                	sd	a5,24(sp)
    80003084:	00000797          	auipc	a5,0x0
    80003088:	f4878793          	addi	a5,a5,-184 # 80002fcc <uart16550_prop>
    8000308c:	f03e                	sd	a5,32(sp)
    8000308e:	00000797          	auipc	a5,0x0
    80003092:	ee878793          	addi	a5,a5,-280 # 80002f76 <uart16550_done>
    80003096:	f43e                	sd	a5,40(sp)
    80003098:	082c                	addi	a1,sp,24
    8000309a:	003c                	addi	a5,sp,8
    8000309c:	e486                	sd	ra,72(sp)
    8000309e:	f802                	sd	zero,48(sp)
    800030a0:	fc3e                	sd	a5,56(sp)
    800030a2:	3e0010ef          	jal	ra,80004482 <fdt_scan>
    800030a6:	60a6                	ld	ra,72(sp)
    800030a8:	6161                	addi	sp,sp,80
    800030aa:	8082                	ret

00000000800030ac <finisher_done>:
    800030ac:	419c                	lw	a5,0(a1)
    800030ae:	cb89                	beqz	a5,800030c0 <finisher_done+0x14>
    800030b0:	659c                	ld	a5,8(a1)
    800030b2:	c799                	beqz	a5,800030c0 <finisher_done+0x14>
    800030b4:	00012717          	auipc	a4,0x12
    800030b8:	07c70713          	addi	a4,a4,124 # 80015130 <finisher>
    800030bc:	6318                	ld	a4,0(a4)
    800030be:	c311                	beqz	a4,800030c2 <finisher_done+0x16>
    800030c0:	8082                	ret
    800030c2:	00012717          	auipc	a4,0x12
    800030c6:	06f73723          	sd	a5,110(a4) # 80015130 <finisher>
    800030ca:	8082                	ret

00000000800030cc <finisher_open>:
    800030cc:	852e                	mv	a0,a1
    800030ce:	4641                	li	a2,16
    800030d0:	4581                	li	a1,0
    800030d2:	0f00506f          	j	800081c2 <memset>

00000000800030d6 <finisher_prop>:
    800030d6:	1101                	addi	sp,sp,-32
    800030d8:	e426                	sd	s1,8(sp)
    800030da:	6504                	ld	s1,8(a0)
    800030dc:	e822                	sd	s0,16(sp)
    800030de:	e04a                	sd	s2,0(sp)
    800030e0:	842a                	mv	s0,a0
    800030e2:	892e                	mv	s2,a1
    800030e4:	8526                	mv	a0,s1
    800030e6:	00006597          	auipc	a1,0x6
    800030ea:	5c258593          	addi	a1,a1,1474 # 800096a8 <softfloat_countLeadingZeros8+0x740>
    800030ee:	ec06                	sd	ra,24(sp)
    800030f0:	132050ef          	jal	ra,80008222 <strcmp>
    800030f4:	e909                	bnez	a0,80003106 <finisher_prop+0x30>
    800030f6:	6808                	ld	a0,16(s0)
    800030f8:	00006597          	auipc	a1,0x6
    800030fc:	5f858593          	addi	a1,a1,1528 # 800096f0 <softfloat_countLeadingZeros8+0x788>
    80003100:	122050ef          	jal	ra,80008222 <strcmp>
    80003104:	cd19                	beqz	a0,80003122 <finisher_prop+0x4c>
    80003106:	00006597          	auipc	a1,0x6
    8000310a:	5d258593          	addi	a1,a1,1490 # 800096d8 <softfloat_countLeadingZeros8+0x770>
    8000310e:	8526                	mv	a0,s1
    80003110:	112050ef          	jal	ra,80008222 <strcmp>
    80003114:	c105                	beqz	a0,80003134 <finisher_prop+0x5e>
    80003116:	60e2                	ld	ra,24(sp)
    80003118:	6442                	ld	s0,16(sp)
    8000311a:	64a2                	ld	s1,8(sp)
    8000311c:	6902                	ld	s2,0(sp)
    8000311e:	6105                	addi	sp,sp,32
    80003120:	8082                	ret
    80003122:	60e2                	ld	ra,24(sp)
    80003124:	6442                	ld	s0,16(sp)
    80003126:	4785                	li	a5,1
    80003128:	00f92023          	sw	a5,0(s2)
    8000312c:	64a2                	ld	s1,8(sp)
    8000312e:	6902                	ld	s2,0(sp)
    80003130:	6105                	addi	sp,sp,32
    80003132:	8082                	ret
    80003134:	601c                	ld	a5,0(s0)
    80003136:	680c                	ld	a1,16(s0)
    80003138:	6442                	ld	s0,16(sp)
    8000313a:	60e2                	ld	ra,24(sp)
    8000313c:	64a2                	ld	s1,8(sp)
    8000313e:	00890613          	addi	a2,s2,8
    80003142:	6388                	ld	a0,0(a5)
    80003144:	6902                	ld	s2,0(sp)
    80003146:	6105                	addi	sp,sp,32
    80003148:	4740106f          	j	800045bc <fdt_get_address>

000000008000314c <finisher_exit>:
    8000314c:	00012797          	auipc	a5,0x12
    80003150:	fe478793          	addi	a5,a5,-28 # 80015130 <finisher>
    80003154:	639c                	ld	a5,0(a5)
    80003156:	cf99                	beqz	a5,80003174 <finisher_exit+0x28>
    80003158:	e511                	bnez	a0,80003164 <finisher_exit+0x18>
    8000315a:	6715                	lui	a4,0x5
    8000315c:	5557071b          	addiw	a4,a4,1365
    80003160:	c398                	sw	a4,0(a5)
    80003162:	8082                	ret
    80003164:	670d                	lui	a4,0x3
    80003166:	0105151b          	slliw	a0,a0,0x10
    8000316a:	33370713          	addi	a4,a4,819 # 3333 <_ftext-0x7fffcccd>
    8000316e:	8d59                	or	a0,a0,a4
    80003170:	2501                	sext.w	a0,a0
    80003172:	c388                	sw	a0,0(a5)
    80003174:	8082                	ret

0000000080003176 <query_finisher>:
    80003176:	715d                	addi	sp,sp,-80
    80003178:	00000797          	auipc	a5,0x0
    8000317c:	f5478793          	addi	a5,a5,-172 # 800030cc <finisher_open>
    80003180:	ec3e                	sd	a5,24(sp)
    80003182:	00000797          	auipc	a5,0x0
    80003186:	f5478793          	addi	a5,a5,-172 # 800030d6 <finisher_prop>
    8000318a:	f03e                	sd	a5,32(sp)
    8000318c:	00000797          	auipc	a5,0x0
    80003190:	f2078793          	addi	a5,a5,-224 # 800030ac <finisher_done>
    80003194:	f43e                	sd	a5,40(sp)
    80003196:	082c                	addi	a1,sp,24
    80003198:	003c                	addi	a5,sp,8
    8000319a:	e486                	sd	ra,72(sp)
    8000319c:	f802                	sd	zero,48(sp)
    8000319e:	fc3e                	sd	a5,56(sp)
    800031a0:	2e2010ef          	jal	ra,80004482 <fdt_scan>
    800031a4:	60a6                	ld	ra,72(sp)
    800031a6:	6161                	addi	sp,sp,80
    800031a8:	8082                	ret

00000000800031aa <get_f32_reg>:
    800031aa:	e0000553          	fmv.x.w	a0,ft0
    800031ae:	00028067          	jr	t0
    800031b2:	e0008553          	fmv.x.w	a0,ft1
    800031b6:	00028067          	jr	t0
    800031ba:	e0010553          	fmv.x.w	a0,ft2
    800031be:	00028067          	jr	t0
    800031c2:	e0018553          	fmv.x.w	a0,ft3
    800031c6:	00028067          	jr	t0
    800031ca:	e0020553          	fmv.x.w	a0,ft4
    800031ce:	00028067          	jr	t0
    800031d2:	e0028553          	fmv.x.w	a0,ft5
    800031d6:	00028067          	jr	t0
    800031da:	e0030553          	fmv.x.w	a0,ft6
    800031de:	00028067          	jr	t0
    800031e2:	e0038553          	fmv.x.w	a0,ft7
    800031e6:	00028067          	jr	t0
    800031ea:	e0040553          	fmv.x.w	a0,fs0
    800031ee:	00028067          	jr	t0
    800031f2:	e0048553          	fmv.x.w	a0,fs1
    800031f6:	00028067          	jr	t0
    800031fa:	e0050553          	fmv.x.w	a0,fa0
    800031fe:	00028067          	jr	t0
    80003202:	e0058553          	fmv.x.w	a0,fa1
    80003206:	00028067          	jr	t0
    8000320a:	e0060553          	fmv.x.w	a0,fa2
    8000320e:	00028067          	jr	t0
    80003212:	e0068553          	fmv.x.w	a0,fa3
    80003216:	00028067          	jr	t0
    8000321a:	e0070553          	fmv.x.w	a0,fa4
    8000321e:	00028067          	jr	t0
    80003222:	e0078553          	fmv.x.w	a0,fa5
    80003226:	00028067          	jr	t0
    8000322a:	e0080553          	fmv.x.w	a0,fa6
    8000322e:	00028067          	jr	t0
    80003232:	e0088553          	fmv.x.w	a0,fa7
    80003236:	00028067          	jr	t0
    8000323a:	e0090553          	fmv.x.w	a0,fs2
    8000323e:	00028067          	jr	t0
    80003242:	e0098553          	fmv.x.w	a0,fs3
    80003246:	00028067          	jr	t0
    8000324a:	e00a0553          	fmv.x.w	a0,fs4
    8000324e:	00028067          	jr	t0
    80003252:	e00a8553          	fmv.x.w	a0,fs5
    80003256:	00028067          	jr	t0
    8000325a:	e00b0553          	fmv.x.w	a0,fs6
    8000325e:	00028067          	jr	t0
    80003262:	e00b8553          	fmv.x.w	a0,fs7
    80003266:	00028067          	jr	t0
    8000326a:	e00c0553          	fmv.x.w	a0,fs8
    8000326e:	00028067          	jr	t0
    80003272:	e00c8553          	fmv.x.w	a0,fs9
    80003276:	00028067          	jr	t0
    8000327a:	e00d0553          	fmv.x.w	a0,fs10
    8000327e:	00028067          	jr	t0
    80003282:	e00d8553          	fmv.x.w	a0,fs11
    80003286:	00028067          	jr	t0
    8000328a:	e00e0553          	fmv.x.w	a0,ft8
    8000328e:	00028067          	jr	t0
    80003292:	e00e8553          	fmv.x.w	a0,ft9
    80003296:	00028067          	jr	t0
    8000329a:	e00f0553          	fmv.x.w	a0,ft10
    8000329e:	00028067          	jr	t0
    800032a2:	e00f8553          	fmv.x.w	a0,ft11
    800032a6:	00028067          	jr	t0

00000000800032aa <put_f32_reg>:
    800032aa:	f0050053          	fmv.w.x	ft0,a0
    800032ae:	00028067          	jr	t0
    800032b2:	f00500d3          	fmv.w.x	ft1,a0
    800032b6:	00028067          	jr	t0
    800032ba:	f0050153          	fmv.w.x	ft2,a0
    800032be:	00028067          	jr	t0
    800032c2:	f00501d3          	fmv.w.x	ft3,a0
    800032c6:	00028067          	jr	t0
    800032ca:	f0050253          	fmv.w.x	ft4,a0
    800032ce:	00028067          	jr	t0
    800032d2:	f00502d3          	fmv.w.x	ft5,a0
    800032d6:	00028067          	jr	t0
    800032da:	f0050353          	fmv.w.x	ft6,a0
    800032de:	00028067          	jr	t0
    800032e2:	f00503d3          	fmv.w.x	ft7,a0
    800032e6:	00028067          	jr	t0
    800032ea:	f0050453          	fmv.w.x	fs0,a0
    800032ee:	00028067          	jr	t0
    800032f2:	f00504d3          	fmv.w.x	fs1,a0
    800032f6:	00028067          	jr	t0
    800032fa:	f0050553          	fmv.w.x	fa0,a0
    800032fe:	00028067          	jr	t0
    80003302:	f00505d3          	fmv.w.x	fa1,a0
    80003306:	00028067          	jr	t0
    8000330a:	f0050653          	fmv.w.x	fa2,a0
    8000330e:	00028067          	jr	t0
    80003312:	f00506d3          	fmv.w.x	fa3,a0
    80003316:	00028067          	jr	t0
    8000331a:	f0050753          	fmv.w.x	fa4,a0
    8000331e:	00028067          	jr	t0
    80003322:	f00507d3          	fmv.w.x	fa5,a0
    80003326:	00028067          	jr	t0
    8000332a:	f0050853          	fmv.w.x	fa6,a0
    8000332e:	00028067          	jr	t0
    80003332:	f00508d3          	fmv.w.x	fa7,a0
    80003336:	00028067          	jr	t0
    8000333a:	f0050953          	fmv.w.x	fs2,a0
    8000333e:	00028067          	jr	t0
    80003342:	f00509d3          	fmv.w.x	fs3,a0
    80003346:	00028067          	jr	t0
    8000334a:	f0050a53          	fmv.w.x	fs4,a0
    8000334e:	00028067          	jr	t0
    80003352:	f0050ad3          	fmv.w.x	fs5,a0
    80003356:	00028067          	jr	t0
    8000335a:	f0050b53          	fmv.w.x	fs6,a0
    8000335e:	00028067          	jr	t0
    80003362:	f0050bd3          	fmv.w.x	fs7,a0
    80003366:	00028067          	jr	t0
    8000336a:	f0050c53          	fmv.w.x	fs8,a0
    8000336e:	00028067          	jr	t0
    80003372:	f0050cd3          	fmv.w.x	fs9,a0
    80003376:	00028067          	jr	t0
    8000337a:	f0050d53          	fmv.w.x	fs10,a0
    8000337e:	00028067          	jr	t0
    80003382:	f0050dd3          	fmv.w.x	fs11,a0
    80003386:	00028067          	jr	t0
    8000338a:	f0050e53          	fmv.w.x	ft8,a0
    8000338e:	00028067          	jr	t0
    80003392:	f0050ed3          	fmv.w.x	ft9,a0
    80003396:	00028067          	jr	t0
    8000339a:	f0050f53          	fmv.w.x	ft10,a0
    8000339e:	00028067          	jr	t0
    800033a2:	f0050fd3          	fmv.w.x	ft11,a0
    800033a6:	00028067          	jr	t0

00000000800033aa <get_f64_reg>:
    800033aa:	e2000553          	fmv.x.d	a0,ft0
    800033ae:	00028067          	jr	t0
    800033b2:	e2008553          	fmv.x.d	a0,ft1
    800033b6:	00028067          	jr	t0
    800033ba:	e2010553          	fmv.x.d	a0,ft2
    800033be:	00028067          	jr	t0
    800033c2:	e2018553          	fmv.x.d	a0,ft3
    800033c6:	00028067          	jr	t0
    800033ca:	e2020553          	fmv.x.d	a0,ft4
    800033ce:	00028067          	jr	t0
    800033d2:	e2028553          	fmv.x.d	a0,ft5
    800033d6:	00028067          	jr	t0
    800033da:	e2030553          	fmv.x.d	a0,ft6
    800033de:	00028067          	jr	t0
    800033e2:	e2038553          	fmv.x.d	a0,ft7
    800033e6:	00028067          	jr	t0
    800033ea:	e2040553          	fmv.x.d	a0,fs0
    800033ee:	00028067          	jr	t0
    800033f2:	e2048553          	fmv.x.d	a0,fs1
    800033f6:	00028067          	jr	t0
    800033fa:	e2050553          	fmv.x.d	a0,fa0
    800033fe:	00028067          	jr	t0
    80003402:	e2058553          	fmv.x.d	a0,fa1
    80003406:	00028067          	jr	t0
    8000340a:	e2060553          	fmv.x.d	a0,fa2
    8000340e:	00028067          	jr	t0
    80003412:	e2068553          	fmv.x.d	a0,fa3
    80003416:	00028067          	jr	t0
    8000341a:	e2070553          	fmv.x.d	a0,fa4
    8000341e:	00028067          	jr	t0
    80003422:	e2078553          	fmv.x.d	a0,fa5
    80003426:	00028067          	jr	t0
    8000342a:	e2080553          	fmv.x.d	a0,fa6
    8000342e:	00028067          	jr	t0
    80003432:	e2088553          	fmv.x.d	a0,fa7
    80003436:	00028067          	jr	t0
    8000343a:	e2090553          	fmv.x.d	a0,fs2
    8000343e:	00028067          	jr	t0
    80003442:	e2098553          	fmv.x.d	a0,fs3
    80003446:	00028067          	jr	t0
    8000344a:	e20a0553          	fmv.x.d	a0,fs4
    8000344e:	00028067          	jr	t0
    80003452:	e20a8553          	fmv.x.d	a0,fs5
    80003456:	00028067          	jr	t0
    8000345a:	e20b0553          	fmv.x.d	a0,fs6
    8000345e:	00028067          	jr	t0
    80003462:	e20b8553          	fmv.x.d	a0,fs7
    80003466:	00028067          	jr	t0
    8000346a:	e20c0553          	fmv.x.d	a0,fs8
    8000346e:	00028067          	jr	t0
    80003472:	e20c8553          	fmv.x.d	a0,fs9
    80003476:	00028067          	jr	t0
    8000347a:	e20d0553          	fmv.x.d	a0,fs10
    8000347e:	00028067          	jr	t0
    80003482:	e20d8553          	fmv.x.d	a0,fs11
    80003486:	00028067          	jr	t0
    8000348a:	e20e0553          	fmv.x.d	a0,ft8
    8000348e:	00028067          	jr	t0
    80003492:	e20e8553          	fmv.x.d	a0,ft9
    80003496:	00028067          	jr	t0
    8000349a:	e20f0553          	fmv.x.d	a0,ft10
    8000349e:	00028067          	jr	t0
    800034a2:	e20f8553          	fmv.x.d	a0,ft11
    800034a6:	00028067          	jr	t0

00000000800034aa <put_f64_reg>:
    800034aa:	f2050053          	fmv.d.x	ft0,a0
    800034ae:	00028067          	jr	t0
    800034b2:	f20500d3          	fmv.d.x	ft1,a0
    800034b6:	00028067          	jr	t0
    800034ba:	f2050153          	fmv.d.x	ft2,a0
    800034be:	00028067          	jr	t0
    800034c2:	f20501d3          	fmv.d.x	ft3,a0
    800034c6:	00028067          	jr	t0
    800034ca:	f2050253          	fmv.d.x	ft4,a0
    800034ce:	00028067          	jr	t0
    800034d2:	f20502d3          	fmv.d.x	ft5,a0
    800034d6:	00028067          	jr	t0
    800034da:	f2050353          	fmv.d.x	ft6,a0
    800034de:	00028067          	jr	t0
    800034e2:	f20503d3          	fmv.d.x	ft7,a0
    800034e6:	00028067          	jr	t0
    800034ea:	f2050453          	fmv.d.x	fs0,a0
    800034ee:	00028067          	jr	t0
    800034f2:	f20504d3          	fmv.d.x	fs1,a0
    800034f6:	00028067          	jr	t0
    800034fa:	f2050553          	fmv.d.x	fa0,a0
    800034fe:	00028067          	jr	t0
    80003502:	f20505d3          	fmv.d.x	fa1,a0
    80003506:	00028067          	jr	t0
    8000350a:	f2050653          	fmv.d.x	fa2,a0
    8000350e:	00028067          	jr	t0
    80003512:	f20506d3          	fmv.d.x	fa3,a0
    80003516:	00028067          	jr	t0
    8000351a:	f2050753          	fmv.d.x	fa4,a0
    8000351e:	00028067          	jr	t0
    80003522:	f20507d3          	fmv.d.x	fa5,a0
    80003526:	00028067          	jr	t0
    8000352a:	f2050853          	fmv.d.x	fa6,a0
    8000352e:	00028067          	jr	t0
    80003532:	f20508d3          	fmv.d.x	fa7,a0
    80003536:	00028067          	jr	t0
    8000353a:	f2050953          	fmv.d.x	fs2,a0
    8000353e:	00028067          	jr	t0
    80003542:	f20509d3          	fmv.d.x	fs3,a0
    80003546:	00028067          	jr	t0
    8000354a:	f2050a53          	fmv.d.x	fs4,a0
    8000354e:	00028067          	jr	t0
    80003552:	f2050ad3          	fmv.d.x	fs5,a0
    80003556:	00028067          	jr	t0
    8000355a:	f2050b53          	fmv.d.x	fs6,a0
    8000355e:	00028067          	jr	t0
    80003562:	f2050bd3          	fmv.d.x	fs7,a0
    80003566:	00028067          	jr	t0
    8000356a:	f2050c53          	fmv.d.x	fs8,a0
    8000356e:	00028067          	jr	t0
    80003572:	f2050cd3          	fmv.d.x	fs9,a0
    80003576:	00028067          	jr	t0
    8000357a:	f2050d53          	fmv.d.x	fs10,a0
    8000357e:	00028067          	jr	t0
    80003582:	f2050dd3          	fmv.d.x	fs11,a0
    80003586:	00028067          	jr	t0
    8000358a:	f2050e53          	fmv.d.x	ft8,a0
    8000358e:	00028067          	jr	t0
    80003592:	f2050ed3          	fmv.d.x	ft9,a0
    80003596:	00028067          	jr	t0
    8000359a:	f2050f53          	fmv.d.x	ft10,a0
    8000359e:	00028067          	jr	t0
    800035a2:	f2050fd3          	fmv.d.x	ft11,a0
    800035a6:	00028067          	jr	t0

00000000800035aa <hart_open>:
    800035aa:	619c                	ld	a5,0(a1)
    800035ac:	c799                	beqz	a5,800035ba <hart_open+0x10>
    800035ae:	699c                	ld	a5,16(a1)
