
custom-inst-gcc.elf:     file format elf64-littleriscv


Disassembly of section .text:

00000000000100b0 <register_fini>:
   100b0:	000007b7          	lui	a5,0x0
   100b4:	00078793          	mv	a5,a5
   100b8:	00078863          	beqz	a5,100c8 <register_fini+0x18>
   100bc:	00010537          	lui	a0,0x10
   100c0:	6c850513          	addi	a0,a0,1736 # 106c8 <__libc_fini_array>
   100c4:	5c00006f          	j	10684 <atexit>
   100c8:	00008067          	ret

00000000000100cc <_start>:
   100cc:	00014197          	auipc	gp,0x14
   100d0:	c9418193          	addi	gp,gp,-876 # 23d60 <__global_pointer$>
   100d4:	73018513          	addi	a0,gp,1840 # 24490 <_edata>
   100d8:	00014617          	auipc	a2,0x14
   100dc:	48860613          	addi	a2,a2,1160 # 24560 <__BSS_END__>
   100e0:	40a60633          	sub	a2,a2,a0
   100e4:	00000593          	li	a1,0
   100e8:	6dc000ef          	jal	ra,107c4 <memset>
   100ec:	00000517          	auipc	a0,0x0
   100f0:	5dc50513          	addi	a0,a0,1500 # 106c8 <__libc_fini_array>
   100f4:	590000ef          	jal	ra,10684 <atexit>
   100f8:	62c000ef          	jal	ra,10724 <__libc_init_array>
   100fc:	00012503          	lw	a0,0(sp)
   10100:	00810593          	addi	a1,sp,8
   10104:	00000613          	li	a2,0
   10108:	0f0000ef          	jal	ra,101f8 <main>
   1010c:	58c0006f          	j	10698 <exit>

0000000000010110 <_fini>:
   10110:	00008067          	ret

0000000000010114 <deregister_tm_clones>:
   10114:	6d818713          	addi	a4,gp,1752 # 24438 <__SDATA_BEGIN__>
   10118:	6d818793          	addi	a5,gp,1752 # 24438 <__SDATA_BEGIN__>
   1011c:	00e78c63          	beq	a5,a4,10134 <deregister_tm_clones+0x20>
   10120:	00000337          	lui	t1,0x0
   10124:	00030313          	mv	t1,t1
   10128:	00030663          	beqz	t1,10134 <deregister_tm_clones+0x20>
   1012c:	6d818513          	addi	a0,gp,1752 # 24438 <__SDATA_BEGIN__>
   10130:	00030067          	jr	t1 # 0 <register_fini-0x100b0>
   10134:	00008067          	ret

0000000000010138 <register_tm_clones>:
   10138:	6d818593          	addi	a1,gp,1752 # 24438 <__SDATA_BEGIN__>
   1013c:	6d818793          	addi	a5,gp,1752 # 24438 <__SDATA_BEGIN__>
   10140:	40f585b3          	sub	a1,a1,a5
   10144:	4035d593          	srai	a1,a1,0x3
   10148:	03f5d793          	srli	a5,a1,0x3f
   1014c:	00b785b3          	add	a1,a5,a1
   10150:	4015d593          	srai	a1,a1,0x1
   10154:	00058c63          	beqz	a1,1016c <register_tm_clones+0x34>
   10158:	00000337          	lui	t1,0x0
   1015c:	00030313          	mv	t1,t1
   10160:	00030663          	beqz	t1,1016c <register_tm_clones+0x34>
   10164:	6d818513          	addi	a0,gp,1752 # 24438 <__SDATA_BEGIN__>
   10168:	00030067          	jr	t1 # 0 <register_fini-0x100b0>
   1016c:	00008067          	ret

0000000000010170 <__do_global_dtors_aux>:
   10170:	7581c703          	lbu	a4,1880(gp) # 244b8 <completed.5464>
   10174:	04071663          	bnez	a4,101c0 <__do_global_dtors_aux+0x50>
   10178:	ff010113          	addi	sp,sp,-16
   1017c:	00813023          	sd	s0,0(sp)
   10180:	00113423          	sd	ra,8(sp)
   10184:	00078413          	mv	s0,a5
   10188:	f8dff0ef          	jal	ra,10114 <deregister_tm_clones>
   1018c:	000007b7          	lui	a5,0x0
   10190:	00078793          	mv	a5,a5
   10194:	00078a63          	beqz	a5,101a8 <__do_global_dtors_aux+0x38>
   10198:	00023537          	lui	a0,0x23
   1019c:	25c50513          	addi	a0,a0,604 # 2325c <__FRAME_END__>
   101a0:	00000097          	auipc	ra,0x0
   101a4:	000000e7          	jalr	zero # 0 <register_fini-0x100b0>
   101a8:	00100793          	li	a5,1
   101ac:	74f18c23          	sb	a5,1880(gp) # 244b8 <completed.5464>
   101b0:	00813083          	ld	ra,8(sp)
   101b4:	00013403          	ld	s0,0(sp)
   101b8:	01010113          	addi	sp,sp,16
   101bc:	00008067          	ret
   101c0:	00008067          	ret

00000000000101c4 <frame_dummy>:
   101c4:	000007b7          	lui	a5,0x0
   101c8:	00078793          	mv	a5,a5
   101cc:	02078463          	beqz	a5,101f4 <frame_dummy+0x30>
   101d0:	00023537          	lui	a0,0x23
   101d4:	ff010113          	addi	sp,sp,-16
   101d8:	76018593          	addi	a1,gp,1888 # 244c0 <object.5469>
   101dc:	25c50513          	addi	a0,a0,604 # 2325c <__FRAME_END__>
   101e0:	00113423          	sd	ra,8(sp)
   101e4:	00000097          	auipc	ra,0x0
   101e8:	000000e7          	jalr	zero # 0 <register_fini-0x100b0>
   101ec:	00813083          	ld	ra,8(sp)
   101f0:	01010113          	addi	sp,sp,16
   101f4:	f45ff06f          	j	10138 <register_tm_clones>

00000000000101f8 <main>:
   101f8:	fc010113          	addi	sp,sp,-64
   101fc:	02113c23          	sd	ra,56(sp)
   10200:	02813823          	sd	s0,48(sp)
   10204:	04010413          	addi	s0,sp,64
   10208:	000217b7          	lui	a5,0x21
   1020c:	4987a783          	lw	a5,1176(a5) # 21498 <__moddi3+0x64>
   10210:	fef42223          	sw	a5,-28(s0)
   10214:	000217b7          	lui	a5,0x21
   10218:	49c7a783          	lw	a5,1180(a5) # 2149c <__moddi3+0x68>
   1021c:	fef42023          	sw	a5,-32(s0)
   10220:	fe042583          	lw	a1,-32(s0)
   10224:	fe442503          	lw	a0,-28(s0)
   10228:	138000ef          	jal	ra,10360 <__mulsf3>
   1022c:	00050793          	mv	a5,a0
   10230:	fcf42e23          	sw	a5,-36(s0)
   10234:	fc042c23          	sw	zero,-40(s0)
   10238:	fc042a23          	sw	zero,-44(s0)
   1023c:	000237b7          	lui	a5,0x23
   10240:	fd442703          	lw	a4,-44(s0)
   10244:	fd842683          	lw	a3,-40(s0)
   10248:	00269693          	slli	a3,a3,0x2
   1024c:	00e68733          	add	a4,a3,a4
   10250:	00271713          	slli	a4,a4,0x2
   10254:	2f878793          	addi	a5,a5,760 # 232f8 <ref_result>
   10258:	00f707b3          	add	a5,a4,a5
   1025c:	0007a783          	lw	a5,0(a5)
   10260:	fcf42823          	sw	a5,-48(s0)
   10264:	fe042623          	sw	zero,-20(s0)
   10268:	fe042423          	sw	zero,-24(s0)
   1026c:	0880006f          	j	102f4 <main+0xfc>
   10270:	000237b7          	lui	a5,0x23
   10274:	fe842703          	lw	a4,-24(s0)
   10278:	fd842683          	lw	a3,-40(s0)
   1027c:	00269693          	slli	a3,a3,0x2
   10280:	00e68733          	add	a4,a3,a4
   10284:	00271713          	slli	a4,a4,0x2
   10288:	27878793          	addi	a5,a5,632 # 23278 <__fini_array_end>
   1028c:	00f707b3          	add	a5,a4,a5
   10290:	0007a783          	lw	a5,0(a5)
   10294:	fcf42623          	sw	a5,-52(s0)
   10298:	000237b7          	lui	a5,0x23
   1029c:	fd442703          	lw	a4,-44(s0)
   102a0:	fe842683          	lw	a3,-24(s0)
   102a4:	00269693          	slli	a3,a3,0x2
   102a8:	00e68733          	add	a4,a3,a4
   102ac:	00271713          	slli	a4,a4,0x2
   102b0:	2b878793          	addi	a5,a5,696 # 232b8 <byte_matrix_b>
   102b4:	00f707b3          	add	a5,a4,a5
   102b8:	0007a783          	lw	a5,0(a5)
   102bc:	fcf42423          	sw	a5,-56(s0)
   102c0:	fcc42783          	lw	a5,-52(s0)
   102c4:	fc842703          	lw	a4,-56(s0)
   102c8:	00070593          	mv	a1,a4
   102cc:	00078513          	mv	a0,a5
   102d0:	354000ef          	jal	ra,10624 <__muldi3>
   102d4:	00050793          	mv	a5,a0
   102d8:	0007879b          	sext.w	a5,a5
   102dc:	fec42703          	lw	a4,-20(s0)
   102e0:	00f707bb          	addw	a5,a4,a5
   102e4:	fef42623          	sw	a5,-20(s0)
   102e8:	fe842783          	lw	a5,-24(s0)
   102ec:	0017879b          	addiw	a5,a5,1
   102f0:	fef42423          	sw	a5,-24(s0)
   102f4:	fe842783          	lw	a5,-24(s0)
   102f8:	0007871b          	sext.w	a4,a5
   102fc:	00300793          	li	a5,3
   10300:	f6e7d8e3          	bge	a5,a4,10270 <main+0x78>
   10304:	fec42703          	lw	a4,-20(s0)
   10308:	fd042783          	lw	a5,-48(s0)
   1030c:	0007071b          	sext.w	a4,a4
   10310:	0007879b          	sext.w	a5,a5
   10314:	02f70463          	beq	a4,a5,1033c <main+0x144>
   10318:	fd042703          	lw	a4,-48(s0)
   1031c:	fec42783          	lw	a5,-20(s0)
   10320:	00070613          	mv	a2,a4
   10324:	00078593          	mv	a1,a5
   10328:	000217b7          	lui	a5,0x21
   1032c:	47078513          	addi	a0,a5,1136 # 21470 <__moddi3+0x3c>
   10330:	5b4000ef          	jal	ra,108e4 <printf>
   10334:	00100793          	li	a5,1
   10338:	0140006f          	j	1034c <main+0x154>
   1033c:	000217b7          	lui	a5,0x21
   10340:	49078513          	addi	a0,a5,1168 # 21490 <__moddi3+0x5c>
   10344:	6c0000ef          	jal	ra,10a04 <puts>
   10348:	00000793          	li	a5,0
   1034c:	00078513          	mv	a0,a5
   10350:	03813083          	ld	ra,56(sp)
   10354:	03013403          	ld	s0,48(sp)
   10358:	04010113          	addi	sp,sp,64
   1035c:	00008067          	ret

0000000000010360 <__mulsf3>:
   10360:	fb010113          	addi	sp,sp,-80
   10364:	02913c23          	sd	s1,56(sp)
   10368:	0175549b          	srliw	s1,a0,0x17
   1036c:	03213823          	sd	s2,48(sp)
   10370:	03313423          	sd	s3,40(sp)
   10374:	01613823          	sd	s6,16(sp)
   10378:	02951913          	slli	s2,a0,0x29
   1037c:	04113423          	sd	ra,72(sp)
   10380:	04813023          	sd	s0,64(sp)
   10384:	03413023          	sd	s4,32(sp)
   10388:	01513c23          	sd	s5,24(sp)
   1038c:	01713423          	sd	s7,8(sp)
   10390:	0ff4f493          	andi	s1,s1,255
   10394:	00058b13          	mv	s6,a1
   10398:	02995913          	srli	s2,s2,0x29
   1039c:	01f5599b          	srliw	s3,a0,0x1f
   103a0:	08048663          	beqz	s1,1042c <__mulsf3+0xcc>
   103a4:	0ff00793          	li	a5,255
   103a8:	0af48463          	beq	s1,a5,10450 <__mulsf3+0xf0>
   103ac:	00391913          	slli	s2,s2,0x3
   103b0:	040007b7          	lui	a5,0x4000
   103b4:	00f96933          	or	s2,s2,a5
   103b8:	f8148493          	addi	s1,s1,-127
   103bc:	00000a93          	li	s5,0
   103c0:	017b551b          	srliw	a0,s6,0x17
   103c4:	029b1413          	slli	s0,s6,0x29
   103c8:	0ff57513          	andi	a0,a0,255
   103cc:	02945413          	srli	s0,s0,0x29
   103d0:	01fb5b1b          	srliw	s6,s6,0x1f
   103d4:	08050e63          	beqz	a0,10470 <__mulsf3+0x110>
   103d8:	0ff00793          	li	a5,255
   103dc:	0af50c63          	beq	a0,a5,10494 <__mulsf3+0x134>
   103e0:	00341413          	slli	s0,s0,0x3
   103e4:	040005b7          	lui	a1,0x4000
   103e8:	00b46433          	or	s0,s0,a1
   103ec:	f8150513          	addi	a0,a0,-127
   103f0:	00000793          	li	a5,0
   103f4:	002a9713          	slli	a4,s5,0x2
   103f8:	00f76733          	or	a4,a4,a5
   103fc:	00a484b3          	add	s1,s1,a0
   10400:	fff70713          	addi	a4,a4,-1
   10404:	00e00693          	li	a3,14
   10408:	0169ca33          	xor	s4,s3,s6
   1040c:	00148b93          	addi	s7,s1,1
   10410:	0ae6e263          	bltu	a3,a4,104b4 <__mulsf3+0x154>
   10414:	000216b7          	lui	a3,0x21
   10418:	00271713          	slli	a4,a4,0x2
   1041c:	4a068693          	addi	a3,a3,1184 # 214a0 <__moddi3+0x6c>
   10420:	00d70733          	add	a4,a4,a3
   10424:	00072703          	lw	a4,0(a4)
   10428:	00070067          	jr	a4
   1042c:	02090c63          	beqz	s2,10464 <__mulsf3+0x104>
   10430:	00090513          	mv	a0,s2
   10434:	214000ef          	jal	ra,10648 <__clzdi2>
   10438:	0005051b          	sext.w	a0,a0
   1043c:	fdb5079b          	addiw	a5,a0,-37
   10440:	faa00493          	li	s1,-86
   10444:	00f91933          	sll	s2,s2,a5
   10448:	40a484b3          	sub	s1,s1,a0
   1044c:	f71ff06f          	j	103bc <__mulsf3+0x5c>
   10450:	0ff00493          	li	s1,255
   10454:	00200a93          	li	s5,2
   10458:	f60904e3          	beqz	s2,103c0 <__mulsf3+0x60>
   1045c:	00300a93          	li	s5,3
   10460:	f61ff06f          	j	103c0 <__mulsf3+0x60>
   10464:	00000493          	li	s1,0
   10468:	00100a93          	li	s5,1
   1046c:	f55ff06f          	j	103c0 <__mulsf3+0x60>
   10470:	02040c63          	beqz	s0,104a8 <__mulsf3+0x148>
   10474:	00040513          	mv	a0,s0
   10478:	1d0000ef          	jal	ra,10648 <__clzdi2>
   1047c:	0005051b          	sext.w	a0,a0
   10480:	fdb5079b          	addiw	a5,a0,-37
   10484:	00f41433          	sll	s0,s0,a5
   10488:	faa00793          	li	a5,-86
   1048c:	40a78533          	sub	a0,a5,a0
   10490:	f61ff06f          	j	103f0 <__mulsf3+0x90>
   10494:	0ff00513          	li	a0,255
   10498:	00200793          	li	a5,2
   1049c:	f4040ce3          	beqz	s0,103f4 <__mulsf3+0x94>
   104a0:	00300793          	li	a5,3
   104a4:	f51ff06f          	j	103f4 <__mulsf3+0x94>
   104a8:	00000513          	li	a0,0
   104ac:	00100793          	li	a5,1
   104b0:	f45ff06f          	j	103f4 <__mulsf3+0x94>
   104b4:	00040593          	mv	a1,s0
   104b8:	00090513          	mv	a0,s2
   104bc:	168000ef          	jal	ra,10624 <__muldi3>
   104c0:	01a55413          	srli	s0,a0,0x1a
   104c4:	02651513          	slli	a0,a0,0x26
   104c8:	00a03533          	snez	a0,a0
   104cc:	00a46433          	or	s0,s0,a0
   104d0:	02441793          	slli	a5,s0,0x24
   104d4:	0807dc63          	bgez	a5,1056c <__mulsf3+0x20c>
   104d8:	00145793          	srli	a5,s0,0x1
   104dc:	00147413          	andi	s0,s0,1
   104e0:	0087e433          	or	s0,a5,s0
   104e4:	07fb8793          	addi	a5,s7,127
   104e8:	08f05663          	blez	a5,10574 <__mulsf3+0x214>
   104ec:	00747713          	andi	a4,s0,7
   104f0:	00070a63          	beqz	a4,10504 <__mulsf3+0x1a4>
   104f4:	00f47713          	andi	a4,s0,15
   104f8:	00400693          	li	a3,4
   104fc:	00d70463          	beq	a4,a3,10504 <__mulsf3+0x1a4>
   10500:	00440413          	addi	s0,s0,4
   10504:	02441713          	slli	a4,s0,0x24
   10508:	00075a63          	bgez	a4,1051c <__mulsf3+0x1bc>
   1050c:	f80007b7          	lui	a5,0xf8000
   10510:	fff78793          	addi	a5,a5,-1 # fffffffff7ffffff <__BSS_END__+0xfffffffff7fdba9f>
   10514:	00f47433          	and	s0,s0,a5
   10518:	080b8793          	addi	a5,s7,128
   1051c:	0fe00713          	li	a4,254
   10520:	00345413          	srli	s0,s0,0x3
   10524:	0af75c63          	bge	a4,a5,105dc <__mulsf3+0x27c>
   10528:	00000413          	li	s0,0
   1052c:	0ff00793          	li	a5,255
   10530:	0ac0006f          	j	105dc <__mulsf3+0x27c>
   10534:	00098a13          	mv	s4,s3
   10538:	00090413          	mv	s0,s2
   1053c:	000a8793          	mv	a5,s5
   10540:	00200713          	li	a4,2
   10544:	fee782e3          	beq	a5,a4,10528 <__mulsf3+0x1c8>
   10548:	00300713          	li	a4,3
   1054c:	08e78263          	beq	a5,a4,105d0 <__mulsf3+0x270>
   10550:	00100713          	li	a4,1
   10554:	f8e798e3          	bne	a5,a4,104e4 <__mulsf3+0x184>
   10558:	00000413          	li	s0,0
   1055c:	00000793          	li	a5,0
   10560:	07c0006f          	j	105dc <__mulsf3+0x27c>
   10564:	000b0a13          	mv	s4,s6
   10568:	fd9ff06f          	j	10540 <__mulsf3+0x1e0>
   1056c:	00048b93          	mv	s7,s1
   10570:	f75ff06f          	j	104e4 <__mulsf3+0x184>
   10574:	00100713          	li	a4,1
   10578:	40f707b3          	sub	a5,a4,a5
   1057c:	01b00713          	li	a4,27
   10580:	fcf74ce3          	blt	a4,a5,10558 <__mulsf3+0x1f8>
   10584:	0007879b          	sext.w	a5,a5
   10588:	04000713          	li	a4,64
   1058c:	00f455b3          	srl	a1,s0,a5
   10590:	40f707bb          	subw	a5,a4,a5
   10594:	00f41433          	sll	s0,s0,a5
   10598:	00803433          	snez	s0,s0
   1059c:	0085e433          	or	s0,a1,s0
   105a0:	00747793          	andi	a5,s0,7
   105a4:	00078a63          	beqz	a5,105b8 <__mulsf3+0x258>
   105a8:	00f47793          	andi	a5,s0,15
   105ac:	00400713          	li	a4,4
   105b0:	00e78463          	beq	a5,a4,105b8 <__mulsf3+0x258>
   105b4:	00440413          	addi	s0,s0,4
   105b8:	02541793          	slli	a5,s0,0x25
   105bc:	00345413          	srli	s0,s0,0x3
   105c0:	f807dee3          	bgez	a5,1055c <__mulsf3+0x1fc>
   105c4:	00000413          	li	s0,0
   105c8:	00100793          	li	a5,1
   105cc:	0100006f          	j	105dc <__mulsf3+0x27c>
   105d0:	00400437          	lui	s0,0x400
   105d4:	0ff00793          	li	a5,255
   105d8:	00000a13          	li	s4,0
   105dc:	02941413          	slli	s0,s0,0x29
   105e0:	0ff7f793          	andi	a5,a5,255
   105e4:	0177979b          	slliw	a5,a5,0x17
   105e8:	02945413          	srli	s0,s0,0x29
   105ec:	01fa151b          	slliw	a0,s4,0x1f
   105f0:	00f46433          	or	s0,s0,a5
   105f4:	00a46533          	or	a0,s0,a0
   105f8:	04813083          	ld	ra,72(sp)
   105fc:	04013403          	ld	s0,64(sp)
   10600:	03813483          	ld	s1,56(sp)
   10604:	03013903          	ld	s2,48(sp)
   10608:	02813983          	ld	s3,40(sp)
   1060c:	02013a03          	ld	s4,32(sp)
   10610:	01813a83          	ld	s5,24(sp)
   10614:	01013b03          	ld	s6,16(sp)
   10618:	00813b83          	ld	s7,8(sp)
   1061c:	05010113          	addi	sp,sp,80
   10620:	00008067          	ret

0000000000010624 <__muldi3>:
   10624:	00050613          	mv	a2,a0
   10628:	00000513          	li	a0,0
   1062c:	0015f693          	andi	a3,a1,1
   10630:	00068463          	beqz	a3,10638 <__muldi3+0x14>
   10634:	00c50533          	add	a0,a0,a2
   10638:	0015d593          	srli	a1,a1,0x1
   1063c:	00161613          	slli	a2,a2,0x1
   10640:	fe0596e3          	bnez	a1,1062c <__muldi3+0x8>
   10644:	00008067          	ret

0000000000010648 <__clzdi2>:
   10648:	03800793          	li	a5,56
   1064c:	00f55733          	srl	a4,a0,a5
   10650:	0ff77713          	andi	a4,a4,255
   10654:	00071663          	bnez	a4,10660 <__clzdi2+0x18>
   10658:	ff878793          	addi	a5,a5,-8
   1065c:	fe0798e3          	bnez	a5,1064c <__clzdi2+0x4>
   10660:	04000713          	li	a4,64
   10664:	40f70733          	sub	a4,a4,a5
   10668:	00f557b3          	srl	a5,a0,a5
   1066c:	00021537          	lui	a0,0x21
   10670:	4e050513          	addi	a0,a0,1248 # 214e0 <__clz_tab>
   10674:	00a787b3          	add	a5,a5,a0
   10678:	0007c503          	lbu	a0,0(a5)
   1067c:	40a7053b          	subw	a0,a4,a0
   10680:	00008067          	ret

0000000000010684 <atexit>:
   10684:	00050593          	mv	a1,a0
   10688:	00000693          	li	a3,0
   1068c:	00000613          	li	a2,0
   10690:	00000513          	li	a0,0
   10694:	4ed0206f          	j	13380 <__register_exitproc>

0000000000010698 <exit>:
   10698:	ff010113          	addi	sp,sp,-16
   1069c:	00000593          	li	a1,0
   106a0:	00813023          	sd	s0,0(sp)
   106a4:	00113423          	sd	ra,8(sp)
   106a8:	00050413          	mv	s0,a0
   106ac:	57d020ef          	jal	ra,13428 <__call_exitprocs>
   106b0:	7081b503          	ld	a0,1800(gp) # 24468 <_global_impure_ptr>
   106b4:	05853783          	ld	a5,88(a0)
   106b8:	00078463          	beqz	a5,106c0 <exit+0x28>
   106bc:	000780e7          	jalr	a5
   106c0:	00040513          	mv	a0,s0
   106c4:	5950e0ef          	jal	ra,1f458 <_exit>

00000000000106c8 <__libc_fini_array>:
   106c8:	fe010113          	addi	sp,sp,-32
   106cc:	00813823          	sd	s0,16(sp)
   106d0:	000237b7          	lui	a5,0x23
   106d4:	00023437          	lui	s0,0x23
   106d8:	27040413          	addi	s0,s0,624 # 23270 <__init_array_end>
   106dc:	27878793          	addi	a5,a5,632 # 23278 <__fini_array_end>
   106e0:	408787b3          	sub	a5,a5,s0
   106e4:	00913423          	sd	s1,8(sp)
   106e8:	00113c23          	sd	ra,24(sp)
   106ec:	4037d493          	srai	s1,a5,0x3
   106f0:	02048063          	beqz	s1,10710 <__libc_fini_array+0x48>
   106f4:	ff878793          	addi	a5,a5,-8
   106f8:	00878433          	add	s0,a5,s0
   106fc:	00043783          	ld	a5,0(s0)
   10700:	fff48493          	addi	s1,s1,-1
   10704:	ff840413          	addi	s0,s0,-8
   10708:	000780e7          	jalr	a5
   1070c:	fe0498e3          	bnez	s1,106fc <__libc_fini_array+0x34>
   10710:	01013403          	ld	s0,16(sp)
   10714:	01813083          	ld	ra,24(sp)
   10718:	00813483          	ld	s1,8(sp)
   1071c:	02010113          	addi	sp,sp,32
   10720:	9f1ff06f          	j	10110 <_fini>

0000000000010724 <__libc_init_array>:
   10724:	fe010113          	addi	sp,sp,-32
   10728:	00813823          	sd	s0,16(sp)
   1072c:	01213023          	sd	s2,0(sp)
   10730:	00023437          	lui	s0,0x23
   10734:	00023937          	lui	s2,0x23
   10738:	26040793          	addi	a5,s0,608 # 23260 <__init_array_start>
   1073c:	26090913          	addi	s2,s2,608 # 23260 <__init_array_start>
   10740:	40f90933          	sub	s2,s2,a5
   10744:	00113c23          	sd	ra,24(sp)
   10748:	00913423          	sd	s1,8(sp)
   1074c:	40395913          	srai	s2,s2,0x3
   10750:	02090063          	beqz	s2,10770 <__libc_init_array+0x4c>
   10754:	26040413          	addi	s0,s0,608
   10758:	00000493          	li	s1,0
   1075c:	00043783          	ld	a5,0(s0)
   10760:	00148493          	addi	s1,s1,1
   10764:	00840413          	addi	s0,s0,8
   10768:	000780e7          	jalr	a5
   1076c:	fe9918e3          	bne	s2,s1,1075c <__libc_init_array+0x38>
   10770:	9a1ff0ef          	jal	ra,10110 <_fini>
   10774:	00023437          	lui	s0,0x23
   10778:	00023937          	lui	s2,0x23
   1077c:	26040793          	addi	a5,s0,608 # 23260 <__init_array_start>
   10780:	27090913          	addi	s2,s2,624 # 23270 <__init_array_end>
   10784:	40f90933          	sub	s2,s2,a5
   10788:	40395913          	srai	s2,s2,0x3
   1078c:	02090063          	beqz	s2,107ac <__libc_init_array+0x88>
   10790:	26040413          	addi	s0,s0,608
   10794:	00000493          	li	s1,0
   10798:	00043783          	ld	a5,0(s0)
   1079c:	00148493          	addi	s1,s1,1
   107a0:	00840413          	addi	s0,s0,8
   107a4:	000780e7          	jalr	a5
   107a8:	fe9918e3          	bne	s2,s1,10798 <__libc_init_array+0x74>
   107ac:	01813083          	ld	ra,24(sp)
   107b0:	01013403          	ld	s0,16(sp)
   107b4:	00813483          	ld	s1,8(sp)
   107b8:	00013903          	ld	s2,0(sp)
   107bc:	02010113          	addi	sp,sp,32
   107c0:	00008067          	ret

00000000000107c4 <memset>:
   107c4:	00f00313          	li	t1,15
   107c8:	00050713          	mv	a4,a0
   107cc:	02c37a63          	bgeu	t1,a2,10800 <memset+0x3c>
   107d0:	00f77793          	andi	a5,a4,15
   107d4:	0a079063          	bnez	a5,10874 <memset+0xb0>
   107d8:	06059e63          	bnez	a1,10854 <memset+0x90>
   107dc:	ff067693          	andi	a3,a2,-16
   107e0:	00f67613          	andi	a2,a2,15
   107e4:	00e686b3          	add	a3,a3,a4
   107e8:	00b73023          	sd	a1,0(a4)
   107ec:	00b73423          	sd	a1,8(a4)
   107f0:	01070713          	addi	a4,a4,16
   107f4:	fed76ae3          	bltu	a4,a3,107e8 <memset+0x24>
   107f8:	00061463          	bnez	a2,10800 <memset+0x3c>
   107fc:	00008067          	ret
   10800:	40c306b3          	sub	a3,t1,a2
   10804:	00269693          	slli	a3,a3,0x2
   10808:	00000297          	auipc	t0,0x0
   1080c:	005686b3          	add	a3,a3,t0
   10810:	00c68067          	jr	12(a3)
   10814:	00b70723          	sb	a1,14(a4)
   10818:	00b706a3          	sb	a1,13(a4)
   1081c:	00b70623          	sb	a1,12(a4)
   10820:	00b705a3          	sb	a1,11(a4)
   10824:	00b70523          	sb	a1,10(a4)
   10828:	00b704a3          	sb	a1,9(a4)
   1082c:	00b70423          	sb	a1,8(a4)
   10830:	00b703a3          	sb	a1,7(a4)
   10834:	00b70323          	sb	a1,6(a4)
   10838:	00b702a3          	sb	a1,5(a4)
   1083c:	00b70223          	sb	a1,4(a4)
   10840:	00b701a3          	sb	a1,3(a4)
   10844:	00b70123          	sb	a1,2(a4)
   10848:	00b700a3          	sb	a1,1(a4)
   1084c:	00b70023          	sb	a1,0(a4)
   10850:	00008067          	ret
   10854:	0ff5f593          	andi	a1,a1,255
   10858:	00859693          	slli	a3,a1,0x8
   1085c:	00d5e5b3          	or	a1,a1,a3
   10860:	01059693          	slli	a3,a1,0x10
   10864:	00d5e5b3          	or	a1,a1,a3
   10868:	02059693          	slli	a3,a1,0x20
   1086c:	00d5e5b3          	or	a1,a1,a3
   10870:	f6dff06f          	j	107dc <memset+0x18>
   10874:	00279693          	slli	a3,a5,0x2
   10878:	00000297          	auipc	t0,0x0
   1087c:	005686b3          	add	a3,a3,t0
   10880:	00008293          	mv	t0,ra
   10884:	f98680e7          	jalr	-104(a3)
   10888:	00028093          	mv	ra,t0
   1088c:	ff078793          	addi	a5,a5,-16
   10890:	40f70733          	sub	a4,a4,a5
   10894:	00f60633          	add	a2,a2,a5
   10898:	f6c374e3          	bgeu	t1,a2,10800 <memset+0x3c>
   1089c:	f3dff06f          	j	107d8 <memset+0x14>

00000000000108a0 <_printf_r>:
   108a0:	fb010113          	addi	sp,sp,-80
   108a4:	02c13023          	sd	a2,32(sp)
   108a8:	02d13423          	sd	a3,40(sp)
   108ac:	02f13c23          	sd	a5,56(sp)
   108b0:	02e13823          	sd	a4,48(sp)
   108b4:	05013023          	sd	a6,64(sp)
   108b8:	05113423          	sd	a7,72(sp)
   108bc:	00058613          	mv	a2,a1
   108c0:	01053583          	ld	a1,16(a0)
   108c4:	02010793          	addi	a5,sp,32
   108c8:	00078693          	mv	a3,a5
   108cc:	00113c23          	sd	ra,24(sp)
   108d0:	00f13423          	sd	a5,8(sp)
   108d4:	208000ef          	jal	ra,10adc <_vfprintf_r>
   108d8:	01813083          	ld	ra,24(sp)
   108dc:	05010113          	addi	sp,sp,80
   108e0:	00008067          	ret

00000000000108e4 <printf>:
   108e4:	7181b303          	ld	t1,1816(gp) # 24478 <_impure_ptr>
   108e8:	fa010113          	addi	sp,sp,-96
   108ec:	02c13823          	sd	a2,48(sp)
   108f0:	02d13c23          	sd	a3,56(sp)
   108f4:	04f13423          	sd	a5,72(sp)
   108f8:	02b13423          	sd	a1,40(sp)
   108fc:	04e13023          	sd	a4,64(sp)
   10900:	05013823          	sd	a6,80(sp)
   10904:	05113c23          	sd	a7,88(sp)
   10908:	01033583          	ld	a1,16(t1)
   1090c:	02810793          	addi	a5,sp,40
   10910:	00050613          	mv	a2,a0
   10914:	00078693          	mv	a3,a5
   10918:	00030513          	mv	a0,t1
   1091c:	00113c23          	sd	ra,24(sp)
   10920:	00f13423          	sd	a5,8(sp)
   10924:	1b8000ef          	jal	ra,10adc <_vfprintf_r>
   10928:	01813083          	ld	ra,24(sp)
   1092c:	06010113          	addi	sp,sp,96
   10930:	00008067          	ret

0000000000010934 <_puts_r>:
   10934:	f9010113          	addi	sp,sp,-112
   10938:	06813023          	sd	s0,96(sp)
   1093c:	00050413          	mv	s0,a0
   10940:	00058513          	mv	a0,a1
   10944:	04913c23          	sd	s1,88(sp)
   10948:	06113423          	sd	ra,104(sp)
   1094c:	00058493          	mv	s1,a1
   10950:	0c0000ef          	jal	ra,10a10 <strlen>
   10954:	000217b7          	lui	a5,0x21
   10958:	5e078793          	addi	a5,a5,1504 # 215e0 <__clz_tab+0x100>
   1095c:	04f13023          	sd	a5,64(sp)
   10960:	00100793          	li	a5,1
   10964:	04f13423          	sd	a5,72(sp)
   10968:	05042703          	lw	a4,80(s0)
   1096c:	03010793          	addi	a5,sp,48
   10970:	00150693          	addi	a3,a0,1
   10974:	00f13c23          	sd	a5,24(sp)
   10978:	00200793          	li	a5,2
   1097c:	02913823          	sd	s1,48(sp)
   10980:	02a13c23          	sd	a0,56(sp)
   10984:	02d13423          	sd	a3,40(sp)
   10988:	02f12023          	sw	a5,32(sp)
   1098c:	01043583          	ld	a1,16(s0)
   10990:	04070c63          	beqz	a4,109e8 <_puts_r+0xb4>
   10994:	01059783          	lh	a5,16(a1) # 4000010 <__BSS_END__+0x3fdbab0>
   10998:	03279713          	slli	a4,a5,0x32
   1099c:	02074263          	bltz	a4,109c0 <_puts_r+0x8c>
   109a0:	0ac5a703          	lw	a4,172(a1)
   109a4:	000026b7          	lui	a3,0x2
   109a8:	00d7e7b3          	or	a5,a5,a3
   109ac:	ffffe6b7          	lui	a3,0xffffe
   109b0:	fff68693          	addi	a3,a3,-1 # ffffffffffffdfff <__BSS_END__+0xfffffffffffd9a9f>
   109b4:	00d77733          	and	a4,a4,a3
   109b8:	00f59823          	sh	a5,16(a1)
   109bc:	0ae5a623          	sw	a4,172(a1)
   109c0:	01810613          	addi	a2,sp,24
   109c4:	00040513          	mv	a0,s0
   109c8:	60c030ef          	jal	ra,13fd4 <__sfvwrite_r>
   109cc:	02051863          	bnez	a0,109fc <_puts_r+0xc8>
   109d0:	00a00513          	li	a0,10
   109d4:	06813083          	ld	ra,104(sp)
   109d8:	06013403          	ld	s0,96(sp)
   109dc:	05813483          	ld	s1,88(sp)
   109e0:	07010113          	addi	sp,sp,112
   109e4:	00008067          	ret
   109e8:	00040513          	mv	a0,s0
   109ec:	00b13423          	sd	a1,8(sp)
   109f0:	14c030ef          	jal	ra,13b3c <__sinit>
   109f4:	00813583          	ld	a1,8(sp)
   109f8:	f9dff06f          	j	10994 <_puts_r+0x60>
   109fc:	fff00513          	li	a0,-1
   10a00:	fd5ff06f          	j	109d4 <_puts_r+0xa0>

0000000000010a04 <puts>:
   10a04:	00050593          	mv	a1,a0
   10a08:	7181b503          	ld	a0,1816(gp) # 24478 <_impure_ptr>
   10a0c:	f29ff06f          	j	10934 <_puts_r>

0000000000010a10 <strlen>:
   10a10:	00757793          	andi	a5,a0,7
   10a14:	00050713          	mv	a4,a0
   10a18:	06079c63          	bnez	a5,10a90 <strlen+0x80>
   10a1c:	000247b7          	lui	a5,0x24
   10a20:	4387b683          	ld	a3,1080(a5) # 24438 <__SDATA_BEGIN__>
   10a24:	fff00593          	li	a1,-1
   10a28:	00870713          	addi	a4,a4,8
   10a2c:	ff873603          	ld	a2,-8(a4)
   10a30:	00d677b3          	and	a5,a2,a3
   10a34:	00d787b3          	add	a5,a5,a3
   10a38:	00c7e7b3          	or	a5,a5,a2
   10a3c:	00d7e7b3          	or	a5,a5,a3
   10a40:	feb784e3          	beq	a5,a1,10a28 <strlen+0x18>
   10a44:	ff874783          	lbu	a5,-8(a4)
   10a48:	40a706b3          	sub	a3,a4,a0
   10a4c:	06078463          	beqz	a5,10ab4 <strlen+0xa4>
   10a50:	ff974783          	lbu	a5,-7(a4)
   10a54:	04078c63          	beqz	a5,10aac <strlen+0x9c>
   10a58:	ffa74783          	lbu	a5,-6(a4)
   10a5c:	06078463          	beqz	a5,10ac4 <strlen+0xb4>
   10a60:	ffb74783          	lbu	a5,-5(a4)
   10a64:	04078c63          	beqz	a5,10abc <strlen+0xac>
   10a68:	ffc74603          	lbu	a2,-4(a4)
   10a6c:	ffd74583          	lbu	a1,-3(a4)
   10a70:	ffe74783          	lbu	a5,-2(a4)
   10a74:	04060c63          	beqz	a2,10acc <strlen+0xbc>
   10a78:	04058e63          	beqz	a1,10ad4 <strlen+0xc4>
   10a7c:	00f03533          	snez	a0,a5
   10a80:	00d50533          	add	a0,a0,a3
   10a84:	ffe50513          	addi	a0,a0,-2
   10a88:	00008067          	ret
   10a8c:	f80688e3          	beqz	a3,10a1c <strlen+0xc>
   10a90:	00074783          	lbu	a5,0(a4)
   10a94:	00170713          	addi	a4,a4,1
   10a98:	00777693          	andi	a3,a4,7
   10a9c:	fe0798e3          	bnez	a5,10a8c <strlen+0x7c>
   10aa0:	40a70733          	sub	a4,a4,a0
   10aa4:	fff70513          	addi	a0,a4,-1
   10aa8:	00008067          	ret
   10aac:	ff968513          	addi	a0,a3,-7
   10ab0:	00008067          	ret
   10ab4:	ff868513          	addi	a0,a3,-8
   10ab8:	00008067          	ret
   10abc:	ffb68513          	addi	a0,a3,-5
   10ac0:	00008067          	ret
   10ac4:	ffa68513          	addi	a0,a3,-6
   10ac8:	00008067          	ret
   10acc:	ffc68513          	addi	a0,a3,-4
   10ad0:	00008067          	ret
   10ad4:	ffd68513          	addi	a0,a3,-3
   10ad8:	00008067          	ret

0000000000010adc <_vfprintf_r>:
   10adc:	d8010113          	addi	sp,sp,-640
   10ae0:	26113c23          	sd	ra,632(sp)
   10ae4:	25313c23          	sd	s3,600(sp)
   10ae8:	23813823          	sd	s8,560(sp)
   10aec:	23a13023          	sd	s10,544(sp)
   10af0:	00058c13          	mv	s8,a1
   10af4:	00060993          	mv	s3,a2
   10af8:	00d13423          	sd	a3,8(sp)
   10afc:	26813823          	sd	s0,624(sp)
   10b00:	26913423          	sd	s1,616(sp)
   10b04:	27213023          	sd	s2,608(sp)
   10b08:	25413823          	sd	s4,592(sp)
   10b0c:	25513423          	sd	s5,584(sp)
   10b10:	25613023          	sd	s6,576(sp)
   10b14:	23713c23          	sd	s7,568(sp)
   10b18:	23913423          	sd	s9,552(sp)
   10b1c:	21b13c23          	sd	s11,536(sp)
   10b20:	00050d13          	mv	s10,a0
   10b24:	770060ef          	jal	ra,17294 <_localeconv_r>
   10b28:	00053783          	ld	a5,0(a0)
   10b2c:	00078513          	mv	a0,a5
   10b30:	04f13423          	sd	a5,72(sp)
   10b34:	eddff0ef          	jal	ra,10a10 <strlen>
   10b38:	02a13c23          	sd	a0,56(sp)
   10b3c:	10013023          	sd	zero,256(sp)
   10b40:	10013423          	sd	zero,264(sp)
   10b44:	000d0663          	beqz	s10,10b50 <_vfprintf_r+0x74>
   10b48:	050d2783          	lw	a5,80(s10)
   10b4c:	48078ce3          	beqz	a5,117e4 <_vfprintf_r+0xd08>
   10b50:	010c1683          	lh	a3,16(s8)
   10b54:	03069793          	slli	a5,a3,0x30
   10b58:	0307d793          	srli	a5,a5,0x30
   10b5c:	03279713          	slli	a4,a5,0x32
   10b60:	02074663          	bltz	a4,10b8c <_vfprintf_r+0xb0>
   10b64:	0acc2603          	lw	a2,172(s8)
   10b68:	000027b7          	lui	a5,0x2
   10b6c:	00f6e7b3          	or	a5,a3,a5
   10b70:	ffffe6b7          	lui	a3,0xffffe
   10b74:	fff68693          	addi	a3,a3,-1 # ffffffffffffdfff <__BSS_END__+0xfffffffffffd9a9f>
   10b78:	00d676b3          	and	a3,a2,a3
   10b7c:	00fc1823          	sh	a5,16(s8)
   10b80:	03079793          	slli	a5,a5,0x30
   10b84:	0adc2623          	sw	a3,172(s8)
   10b88:	0307d793          	srli	a5,a5,0x30
   10b8c:	0087f693          	andi	a3,a5,8
   10b90:	14068c63          	beqz	a3,10ce8 <_vfprintf_r+0x20c>
   10b94:	018c3683          	ld	a3,24(s8)
   10b98:	14068863          	beqz	a3,10ce8 <_vfprintf_r+0x20c>
   10b9c:	01a7f793          	andi	a5,a5,26
   10ba0:	00a00693          	li	a3,10
   10ba4:	16d78463          	beq	a5,a3,10d0c <_vfprintf_r+0x230>
   10ba8:	000217b7          	lui	a5,0x21
   10bac:	7a87b783          	ld	a5,1960(a5) # 217a8 <zeroes.4548+0x40>
   10bb0:	00098b93          	mv	s7,s3
   10bb4:	12013023          	sd	zero,288(sp)
   10bb8:	08f13423          	sd	a5,136(sp)
   10bbc:	19010793          	addi	a5,sp,400
   10bc0:	00078313          	mv	t1,a5
   10bc4:	10f13823          	sd	a5,272(sp)
   10bc8:	000217b7          	lui	a5,0x21
   10bcc:	7887b783          	ld	a5,1928(a5) # 21788 <zeroes.4548+0x20>
   10bd0:	10012c23          	sw	zero,280(sp)
   10bd4:	02013023          	sd	zero,32(sp)
   10bd8:	06f13c23          	sd	a5,120(sp)
   10bdc:	000217b7          	lui	a5,0x21
   10be0:	7987b783          	ld	a5,1944(a5) # 21798 <zeroes.4548+0x30>
   10be4:	04013023          	sd	zero,64(sp)
   10be8:	04013c23          	sd	zero,88(sp)
   10bec:	08f13023          	sd	a5,128(sp)
   10bf0:	000bc783          	lbu	a5,0(s7)
   10bf4:	06013023          	sd	zero,96(sp)
   10bf8:	06013423          	sd	zero,104(sp)
   10bfc:	06013823          	sd	zero,112(sp)
   10c00:	00013023          	sd	zero,0(sp)
   10c04:	00030c93          	mv	s9,t1
   10c08:	16078ae3          	beqz	a5,1157c <_vfprintf_r+0xaa0>
   10c0c:	02500693          	li	a3,37
   10c10:	00d79463          	bne	a5,a3,10c18 <_vfprintf_r+0x13c>
   10c14:	5e00106f          	j	121f4 <_vfprintf_r+0x1718>
   10c18:	000b8413          	mv	s0,s7
   10c1c:	00c0006f          	j	10c28 <_vfprintf_r+0x14c>
   10c20:	10d78863          	beq	a5,a3,10d30 <_vfprintf_r+0x254>
   10c24:	00048413          	mv	s0,s1
   10c28:	00144783          	lbu	a5,1(s0)
   10c2c:	00140493          	addi	s1,s0,1
   10c30:	fe0798e3          	bnez	a5,10c20 <_vfprintf_r+0x144>
   10c34:	4174893b          	subw	s2,s1,s7
   10c38:	140902e3          	beqz	s2,1157c <_vfprintf_r+0xaa0>
   10c3c:	12013683          	ld	a3,288(sp)
   10c40:	11812783          	lw	a5,280(sp)
   10c44:	017cb023          	sd	s7,0(s9)
   10c48:	012686b3          	add	a3,a3,s2
   10c4c:	0017879b          	addiw	a5,a5,1
   10c50:	012cb423          	sd	s2,8(s9)
   10c54:	12d13023          	sd	a3,288(sp)
   10c58:	10f12c23          	sw	a5,280(sp)
   10c5c:	0007869b          	sext.w	a3,a5
   10c60:	00700793          	li	a5,7
   10c64:	010c8c93          	addi	s9,s9,16
   10c68:	0cd7ca63          	blt	a5,a3,10d3c <_vfprintf_r+0x260>
   10c6c:	00013703          	ld	a4,0(sp)
   10c70:	00144783          	lbu	a5,1(s0)
   10c74:	00e9073b          	addw	a4,s2,a4
   10c78:	00e13023          	sd	a4,0(sp)
   10c7c:	100780e3          	beqz	a5,1157c <_vfprintf_r+0xaa0>
   10c80:	00148913          	addi	s2,s1,1
   10c84:	0014c483          	lbu	s1,1(s1)
   10c88:	000217b7          	lui	a5,0x21
   10c8c:	0c010fa3          	sb	zero,223(sp)
   10c90:	fff00d93          	li	s11,-1
   10c94:	00000a13          	li	s4,0
   10c98:	00000413          	li	s0,0
   10c9c:	05a00993          	li	s3,90
   10ca0:	5e878a93          	addi	s5,a5,1512 # 215e8 <__clz_tab+0x108>
   10ca4:	00a00b13          	li	s6,10
   10ca8:	00190913          	addi	s2,s2,1
   10cac:	0004849b          	sext.w	s1,s1
   10cb0:	00900693          	li	a3,9
   10cb4:	02a00613          	li	a2,42
   10cb8:	fe04879b          	addiw	a5,s1,-32
   10cbc:	0007871b          	sext.w	a4,a5
   10cc0:	1ee9e663          	bltu	s3,a4,10eac <_vfprintf_r+0x3d0>
   10cc4:	02079793          	slli	a5,a5,0x20
   10cc8:	01e7d793          	srli	a5,a5,0x1e
   10ccc:	015787b3          	add	a5,a5,s5
   10cd0:	0007a783          	lw	a5,0(a5)
   10cd4:	00078067          	jr	a5
   10cd8:	01046413          	ori	s0,s0,16
   10cdc:	0004041b          	sext.w	s0,s0
   10ce0:	00094483          	lbu	s1,0(s2)
   10ce4:	fc5ff06f          	j	10ca8 <_vfprintf_r+0x1cc>
   10ce8:	000c0593          	mv	a1,s8
   10cec:	000d0513          	mv	a0,s10
   10cf0:	52c020ef          	jal	ra,1321c <__swsetup_r>
   10cf4:	00050463          	beqz	a0,10cfc <_vfprintf_r+0x220>
   10cf8:	0d00206f          	j	12dc8 <_vfprintf_r+0x22ec>
   10cfc:	010c5783          	lhu	a5,16(s8)
   10d00:	00a00693          	li	a3,10
   10d04:	01a7f793          	andi	a5,a5,26
   10d08:	ead790e3          	bne	a5,a3,10ba8 <_vfprintf_r+0xcc>
   10d0c:	012c1783          	lh	a5,18(s8)
   10d10:	e807cce3          	bltz	a5,10ba8 <_vfprintf_r+0xcc>
   10d14:	00813683          	ld	a3,8(sp)
   10d18:	00098613          	mv	a2,s3
   10d1c:	000c0593          	mv	a1,s8
   10d20:	000d0513          	mv	a0,s10
   10d24:	438020ef          	jal	ra,1315c <__sbprintf>
   10d28:	00a13023          	sd	a0,0(sp)
   10d2c:	0600006f          	j	10d8c <_vfprintf_r+0x2b0>
   10d30:	4174893b          	subw	s2,s1,s7
   10d34:	f40906e3          	beqz	s2,10c80 <_vfprintf_r+0x1a4>
   10d38:	f05ff06f          	j	10c3c <_vfprintf_r+0x160>
   10d3c:	11010613          	addi	a2,sp,272
   10d40:	000c0593          	mv	a1,s8
   10d44:	000d0513          	mv	a0,s10
   10d48:	7a80b0ef          	jal	ra,1c4f0 <__sprint_r>
   10d4c:	02051863          	bnez	a0,10d7c <_vfprintf_r+0x2a0>
   10d50:	19010c93          	addi	s9,sp,400
   10d54:	f19ff06f          	j	10c6c <_vfprintf_r+0x190>
   10d58:	11010613          	addi	a2,sp,272
   10d5c:	000c0593          	mv	a1,s8
   10d60:	000d0513          	mv	a0,s10
   10d64:	78c0b0ef          	jal	ra,1c4f0 <__sprint_r>
   10d68:	7e050663          	beqz	a0,11554 <_vfprintf_r+0xa78>
   10d6c:	01013583          	ld	a1,16(sp)
   10d70:	00058663          	beqz	a1,10d7c <_vfprintf_r+0x2a0>
   10d74:	000d0513          	mv	a0,s10
   10d78:	731020ef          	jal	ra,13ca8 <_free_r>
   10d7c:	010c5783          	lhu	a5,16(s8)
   10d80:	0407f793          	andi	a5,a5,64
   10d84:	00078463          	beqz	a5,10d8c <_vfprintf_r+0x2b0>
   10d88:	0400206f          	j	12dc8 <_vfprintf_r+0x22ec>
   10d8c:	27813083          	ld	ra,632(sp)
   10d90:	27013403          	ld	s0,624(sp)
   10d94:	00013503          	ld	a0,0(sp)
   10d98:	26813483          	ld	s1,616(sp)
   10d9c:	26013903          	ld	s2,608(sp)
   10da0:	25813983          	ld	s3,600(sp)
   10da4:	25013a03          	ld	s4,592(sp)
   10da8:	24813a83          	ld	s5,584(sp)
   10dac:	24013b03          	ld	s6,576(sp)
   10db0:	23813b83          	ld	s7,568(sp)
   10db4:	23013c03          	ld	s8,560(sp)
   10db8:	22813c83          	ld	s9,552(sp)
   10dbc:	22013d03          	ld	s10,544(sp)
   10dc0:	21813d83          	ld	s11,536(sp)
   10dc4:	28010113          	addi	sp,sp,640
   10dc8:	00008067          	ret
   10dcc:	000217b7          	lui	a5,0x21
   10dd0:	00813683          	ld	a3,8(sp)
   10dd4:	7d078793          	addi	a5,a5,2000 # 217d0 <zeroes.4548+0x68>
   10dd8:	04f13023          	sd	a5,64(sp)
   10ddc:	02047793          	andi	a5,s0,32
   10de0:	00868713          	addi	a4,a3,8
   10de4:	10078063          	beqz	a5,10ee4 <_vfprintf_r+0x408>
   10de8:	0006b983          	ld	s3,0(a3)
   10dec:	00147793          	andi	a5,s0,1
   10df0:	00078e63          	beqz	a5,10e0c <_vfprintf_r+0x330>
   10df4:	00098c63          	beqz	s3,10e0c <_vfprintf_r+0x330>
   10df8:	00246413          	ori	s0,s0,2
   10dfc:	03000793          	li	a5,48
   10e00:	0ef10023          	sb	a5,224(sp)
   10e04:	0e9100a3          	sb	s1,225(sp)
   10e08:	0004041b          	sext.w	s0,s0
   10e0c:	bff47813          	andi	a6,s0,-1025
   10e10:	00080a9b          	sext.w	s5,a6
   10e14:	00e13423          	sd	a4,8(sp)
   10e18:	00200793          	li	a5,2
   10e1c:	0c010fa3          	sb	zero,223(sp)
   10e20:	fff00713          	li	a4,-1
   10e24:	58ed8a63          	beq	s11,a4,113b8 <_vfprintf_r+0x8dc>
   10e28:	f7faf413          	andi	s0,s5,-129
   10e2c:	0004041b          	sext.w	s0,s0
   10e30:	5c0992e3          	bnez	s3,11bf4 <_vfprintf_r+0x1118>
   10e34:	000d8463          	beqz	s11,10e3c <_vfprintf_r+0x360>
   10e38:	7b90006f          	j	11df0 <_vfprintf_r+0x1314>
   10e3c:	4c079863          	bnez	a5,1130c <_vfprintf_r+0x830>
   10e40:	001afb13          	andi	s6,s5,1
   10e44:	18c10b93          	addi	s7,sp,396
   10e48:	000b0463          	beqz	s6,10e50 <_vfprintf_r+0x374>
   10e4c:	1f00106f          	j	1203c <_vfprintf_r+0x1560>
   10e50:	000b0a9b          	sext.w	s5,s6
   10e54:	01bb5463          	bge	s6,s11,10e5c <_vfprintf_r+0x380>
   10e58:	000d8a9b          	sext.w	s5,s11
   10e5c:	0df14783          	lbu	a5,223(sp)
   10e60:	00013823          	sd	zero,16(sp)
   10e64:	02013823          	sd	zero,48(sp)
   10e68:	02013423          	sd	zero,40(sp)
   10e6c:	00013c23          	sd	zero,24(sp)
   10e70:	5e078063          	beqz	a5,11450 <_vfprintf_r+0x974>
   10e74:	001a8a9b          	addiw	s5,s5,1
   10e78:	5d80006f          	j	11450 <_vfprintf_r+0x974>
   10e7c:	00000a13          	li	s4,0
   10e80:	00190913          	addi	s2,s2,1
   10e84:	fff94783          	lbu	a5,-1(s2)
   10e88:	fd04849b          	addiw	s1,s1,-48
   10e8c:	494b748b          	custom0.madd.s	s1,s6,s4,s1
   10e90:	fd07871b          	addiw	a4,a5,-48
   10e94:	00048a1b          	sext.w	s4,s1
   10e98:	0007849b          	sext.w	s1,a5
   10e9c:	fee6f2e3          	bgeu	a3,a4,10e80 <_vfprintf_r+0x3a4>
   10ea0:	fe04879b          	addiw	a5,s1,-32
   10ea4:	0007871b          	sext.w	a4,a5
   10ea8:	e0e9fee3          	bgeu	s3,a4,10cc4 <_vfprintf_r+0x1e8>
   10eac:	6c048863          	beqz	s1,1157c <_vfprintf_r+0xaa0>
   10eb0:	12910423          	sb	s1,296(sp)
   10eb4:	0c010fa3          	sb	zero,223(sp)
   10eb8:	00100a93          	li	s5,1
   10ebc:	00100b13          	li	s6,1
   10ec0:	12810b93          	addi	s7,sp,296
   10ec4:	5780006f          	j	1143c <_vfprintf_r+0x960>
   10ec8:	000217b7          	lui	a5,0x21
   10ecc:	00813683          	ld	a3,8(sp)
   10ed0:	7e878793          	addi	a5,a5,2024 # 217e8 <zeroes.4548+0x80>
   10ed4:	04f13023          	sd	a5,64(sp)
   10ed8:	02047793          	andi	a5,s0,32
   10edc:	00868713          	addi	a4,a3,8
   10ee0:	f00794e3          	bnez	a5,10de8 <_vfprintf_r+0x30c>
   10ee4:	01047793          	andi	a5,s0,16
   10ee8:	00078463          	beqz	a5,10ef0 <_vfprintf_r+0x414>
   10eec:	1780106f          	j	12064 <_vfprintf_r+0x1588>
   10ef0:	00813683          	ld	a3,8(sp)
   10ef4:	04047793          	andi	a5,s0,64
   10ef8:	0006a983          	lw	s3,0(a3)
   10efc:	00079463          	bnez	a5,10f04 <_vfprintf_r+0x428>
   10f00:	6180106f          	j	12518 <_vfprintf_r+0x1a3c>
   10f04:	03099993          	slli	s3,s3,0x30
   10f08:	0309d993          	srli	s3,s3,0x30
   10f0c:	ee1ff06f          	j	10dec <_vfprintf_r+0x310>
   10f10:	00094483          	lbu	s1,0(s2)
   10f14:	00446413          	ori	s0,s0,4
   10f18:	0004041b          	sext.w	s0,s0
   10f1c:	d8dff06f          	j	10ca8 <_vfprintf_r+0x1cc>
   10f20:	00094483          	lbu	s1,0(s2)
   10f24:	06800793          	li	a5,104
   10f28:	00f49463          	bne	s1,a5,10f30 <_vfprintf_r+0x454>
   10f2c:	2180106f          	j	12144 <_vfprintf_r+0x1668>
   10f30:	04046413          	ori	s0,s0,64
   10f34:	0004041b          	sext.w	s0,s0
   10f38:	d71ff06f          	j	10ca8 <_vfprintf_r+0x1cc>
   10f3c:	00847793          	andi	a5,s0,8
   10f40:	00079463          	bnez	a5,10f48 <_vfprintf_r+0x46c>
   10f44:	13c0106f          	j	12080 <_vfprintf_r+0x15a4>
   10f48:	00813783          	ld	a5,8(sp)
   10f4c:	00f78793          	addi	a5,a5,15
   10f50:	ff07f793          	andi	a5,a5,-16
   10f54:	0007b683          	ld	a3,0(a5)
   10f58:	0087b703          	ld	a4,8(a5)
   10f5c:	01078793          	addi	a5,a5,16
   10f60:	00f13423          	sd	a5,8(sp)
   10f64:	10d13023          	sd	a3,256(sp)
   10f68:	10e13423          	sd	a4,264(sp)
   10f6c:	10010513          	addi	a0,sp,256
   10f70:	2c8060ef          	jal	ra,17238 <_ldcheck>
   10f74:	0ea12423          	sw	a0,232(sp)
   10f78:	00200793          	li	a5,2
   10f7c:	00f51463          	bne	a0,a5,10f84 <_vfprintf_r+0x4a8>
   10f80:	4340106f          	j	123b4 <_vfprintf_r+0x18d8>
   10f84:	00100793          	li	a5,1
   10f88:	00f51463          	bne	a0,a5,10f90 <_vfprintf_r+0x4b4>
   10f8c:	59c0106f          	j	12528 <_vfprintf_r+0x1a4c>
   10f90:	06100793          	li	a5,97
   10f94:	00f49463          	bne	s1,a5,10f9c <_vfprintf_r+0x4c0>
   10f98:	6b50106f          	j	12e4c <_vfprintf_r+0x2370>
   10f9c:	04100793          	li	a5,65
   10fa0:	00f49463          	bne	s1,a5,10fa8 <_vfprintf_r+0x4cc>
   10fa4:	1310106f          	j	128d4 <_vfprintf_r+0x1df8>
   10fa8:	fdf4f713          	andi	a4,s1,-33
   10fac:	fff00793          	li	a5,-1
   10fb0:	02e13423          	sd	a4,40(sp)
   10fb4:	00fd9463          	bne	s11,a5,10fbc <_vfprintf_r+0x4e0>
   10fb8:	77d0106f          	j	12f34 <_vfprintf_r+0x2458>
   10fbc:	04700793          	li	a5,71
   10fc0:	00f71463          	bne	a4,a5,10fc8 <_vfprintf_r+0x4ec>
   10fc4:	7610106f          	j	12f24 <_vfprintf_r+0x2448>
   10fc8:	10813a83          	ld	s5,264(sp)
   10fcc:	10046793          	ori	a5,s0,256
   10fd0:	02813823          	sd	s0,48(sp)
   10fd4:	0007879b          	sext.w	a5,a5
   10fd8:	10013b03          	ld	s6,256(sp)
   10fdc:	000ad463          	bgez	s5,10fe4 <_vfprintf_r+0x508>
   10fe0:	4710106f          	j	12c50 <_vfprintf_r+0x2174>
   10fe4:	04013823          	sd	zero,80(sp)
   10fe8:	00078413          	mv	s0,a5
   10fec:	00013823          	sd	zero,16(sp)
   10ff0:	02813703          	ld	a4,40(sp)
   10ff4:	04600793          	li	a5,70
   10ff8:	00f71463          	bne	a4,a5,11000 <_vfprintf_r+0x524>
   10ffc:	3750106f          	j	12b70 <_vfprintf_r+0x2094>
   11000:	04500793          	li	a5,69
   11004:	00f71463          	bne	a4,a5,1100c <_vfprintf_r+0x530>
   11008:	6a50106f          	j	12eac <_vfprintf_r+0x23d0>
   1100c:	0e810793          	addi	a5,sp,232
   11010:	000d8713          	mv	a4,s11
   11014:	0f810893          	addi	a7,sp,248
   11018:	0ec10813          	addi	a6,sp,236
   1101c:	00200693          	li	a3,2
   11020:	000b0593          	mv	a1,s6
   11024:	000a8613          	mv	a2,s5
   11028:	000d0513          	mv	a0,s10
   1102c:	6f5040ef          	jal	ra,15f20 <_ldtoa_r>
   11030:	02813703          	ld	a4,40(sp)
   11034:	04700793          	li	a5,71
   11038:	00050b93          	mv	s7,a0
   1103c:	00f70463          	beq	a4,a5,11044 <_vfprintf_r+0x568>
   11040:	0e00206f          	j	13120 <_vfprintf_r+0x2644>
   11044:	03013783          	ld	a5,48(sp)
   11048:	01b509b3          	add	s3,a0,s11
   1104c:	0017f793          	andi	a5,a5,1
   11050:	00078463          	beqz	a5,11058 <_vfprintf_r+0x57c>
   11054:	35d0106f          	j	12bb0 <_vfprintf_r+0x20d4>
   11058:	0f813783          	ld	a5,248(sp)
   1105c:	0e812703          	lw	a4,232(sp)
   11060:	417787bb          	subw	a5,a5,s7
   11064:	02f13023          	sd	a5,32(sp)
   11068:	00e13c23          	sd	a4,24(sp)
   1106c:	02813703          	ld	a4,40(sp)
   11070:	04700793          	li	a5,71
   11074:	00f71463          	bne	a4,a5,1107c <_vfprintf_r+0x5a0>
   11078:	2c50106f          	j	12b3c <_vfprintf_r+0x2060>
   1107c:	02813703          	ld	a4,40(sp)
   11080:	04600793          	li	a5,70
   11084:	00f71463          	bne	a4,a5,1108c <_vfprintf_r+0x5b0>
   11088:	50d0106f          	j	12d94 <_vfprintf_r+0x22b8>
   1108c:	01813783          	ld	a5,24(sp)
   11090:	02813703          	ld	a4,40(sp)
   11094:	04100613          	li	a2,65
   11098:	fff78a9b          	addiw	s5,a5,-1
   1109c:	0f512423          	sw	s5,232(sp)
   110a0:	0ff4f793          	andi	a5,s1,255
   110a4:	00000693          	li	a3,0
   110a8:	00c71863          	bne	a4,a2,110b8 <_vfprintf_r+0x5dc>
   110ac:	00f7879b          	addiw	a5,a5,15
   110b0:	0ff7f793          	andi	a5,a5,255
   110b4:	00100693          	li	a3,1
   110b8:	0ef10823          	sb	a5,240(sp)
   110bc:	000ad463          	bgez	s5,110c4 <_vfprintf_r+0x5e8>
   110c0:	7d90106f          	j	13098 <_vfprintf_r+0x25bc>
   110c4:	02b00793          	li	a5,43
   110c8:	0ef108a3          	sb	a5,241(sp)
   110cc:	00900793          	li	a5,9
   110d0:	0157c463          	blt	a5,s5,110d8 <_vfprintf_r+0x5fc>
   110d4:	6f90106f          	j	12fcc <_vfprintf_r+0x24f0>
   110d8:	0ff10b13          	addi	s6,sp,255
   110dc:	000b0993          	mv	s3,s6
   110e0:	06300413          	li	s0,99
   110e4:	00c0006f          	j	110f0 <_vfprintf_r+0x614>
   110e8:	00060993          	mv	s3,a2
   110ec:	00050a93          	mv	s5,a0
   110f0:	00a00593          	li	a1,10
   110f4:	000a8513          	mv	a0,s5
   110f8:	33c100ef          	jal	ra,21434 <__moddi3>
   110fc:	0305051b          	addiw	a0,a0,48
   11100:	fea98fa3          	sb	a0,-1(s3)
   11104:	00a00593          	li	a1,10
   11108:	000a8513          	mv	a0,s5
   1110c:	2a4100ef          	jal	ra,213b0 <__divdi3>
   11110:	fff98613          	addi	a2,s3,-1
   11114:	0005051b          	sext.w	a0,a0
   11118:	fd5448e3          	blt	s0,s5,110e8 <_vfprintf_r+0x60c>
   1111c:	0305079b          	addiw	a5,a0,48
   11120:	0ff7f793          	andi	a5,a5,255
   11124:	ffe98693          	addi	a3,s3,-2
   11128:	fef60fa3          	sb	a5,-1(a2)
   1112c:	0166e463          	bltu	a3,s6,11134 <_vfprintf_r+0x658>
   11130:	7fd0106f          	j	1312c <_vfprintf_r+0x2650>
   11134:	0f210613          	addi	a2,sp,242
   11138:	0080006f          	j	11140 <_vfprintf_r+0x664>
   1113c:	0006c783          	lbu	a5,0(a3)
   11140:	00160613          	addi	a2,a2,1
   11144:	00168693          	addi	a3,a3,1
   11148:	fef60fa3          	sb	a5,-1(a2)
   1114c:	ff6698e3          	bne	a3,s6,1113c <_vfprintf_r+0x660>
   11150:	10110793          	addi	a5,sp,257
   11154:	413787b3          	sub	a5,a5,s3
   11158:	0f210713          	addi	a4,sp,242
   1115c:	00f707b3          	add	a5,a4,a5
   11160:	0f010693          	addi	a3,sp,240
   11164:	40d787bb          	subw	a5,a5,a3
   11168:	04f13c23          	sd	a5,88(sp)
   1116c:	05813783          	ld	a5,88(sp)
   11170:	02013703          	ld	a4,32(sp)
   11174:	00100693          	li	a3,1
   11178:	00f70b3b          	addw	s6,a4,a5
   1117c:	000b0793          	mv	a5,s6
   11180:	00e6c463          	blt	a3,a4,11188 <_vfprintf_r+0x6ac>
   11184:	6e10106f          	j	13064 <_vfprintf_r+0x2588>
   11188:	03813703          	ld	a4,56(sp)
   1118c:	00e78b3b          	addw	s6,a5,a4
   11190:	03013783          	ld	a5,48(sp)
   11194:	fffb4a93          	not	s5,s6
   11198:	43fada93          	srai	s5,s5,0x3f
   1119c:	bff7f413          	andi	s0,a5,-1025
   111a0:	0004041b          	sext.w	s0,s0
   111a4:	015b7ab3          	and	s5,s6,s5
   111a8:	10046413          	ori	s0,s0,256
   111ac:	000a8a9b          	sext.w	s5,s5
   111b0:	02013823          	sd	zero,48(sp)
   111b4:	02013423          	sd	zero,40(sp)
   111b8:	00013c23          	sd	zero,24(sp)
   111bc:	05013783          	ld	a5,80(sp)
   111c0:	00079463          	bnez	a5,111c8 <_vfprintf_r+0x6ec>
   111c4:	1990106f          	j	12b5c <_vfprintf_r+0x2080>
   111c8:	02d00793          	li	a5,45
   111cc:	0cf10fa3          	sb	a5,223(sp)
   111d0:	00000d93          	li	s11,0
   111d4:	001a8a9b          	addiw	s5,s5,1
   111d8:	2780006f          	j	11450 <_vfprintf_r+0x974>
   111dc:	00813783          	ld	a5,8(sp)
   111e0:	01046813          	ori	a6,s0,16
   111e4:	00080a9b          	sext.w	s5,a6
   111e8:	00878713          	addi	a4,a5,8
   111ec:	00813783          	ld	a5,8(sp)
   111f0:	0007b983          	ld	s3,0(a5)
   111f4:	00100793          	li	a5,1
   111f8:	00e13423          	sd	a4,8(sp)
   111fc:	c21ff06f          	j	10e1c <_vfprintf_r+0x340>
   11200:	00813783          	ld	a5,8(sp)
   11204:	0c010fa3          	sb	zero,223(sp)
   11208:	0007bb83          	ld	s7,0(a5)
   1120c:	00878993          	addi	s3,a5,8
   11210:	740b84e3          	beqz	s7,12158 <_vfprintf_r+0x167c>
   11214:	fff00793          	li	a5,-1
   11218:	00fd9463          	bne	s11,a5,11220 <_vfprintf_r+0x744>
   1121c:	1f40106f          	j	12410 <_vfprintf_r+0x1934>
   11220:	000d8613          	mv	a2,s11
   11224:	00000593          	li	a1,0
   11228:	000b8513          	mv	a0,s7
   1122c:	419060ef          	jal	ra,17e44 <memchr>
   11230:	00a13823          	sd	a0,16(sp)
   11234:	00051463          	bnez	a0,1123c <_vfprintf_r+0x760>
   11238:	2c90106f          	j	12d00 <_vfprintf_r+0x2224>
   1123c:	01013783          	ld	a5,16(sp)
   11240:	41778b3b          	subw	s6,a5,s7
   11244:	fffb4a93          	not	s5,s6
   11248:	0df14783          	lbu	a5,223(sp)
   1124c:	43fada93          	srai	s5,s5,0x3f
   11250:	015b7ab3          	and	s5,s6,s5
   11254:	01313423          	sd	s3,8(sp)
   11258:	00013823          	sd	zero,16(sp)
   1125c:	02013823          	sd	zero,48(sp)
   11260:	02013423          	sd	zero,40(sp)
   11264:	00013c23          	sd	zero,24(sp)
   11268:	000a8a9b          	sext.w	s5,s5
   1126c:	00000d93          	li	s11,0
   11270:	c00792e3          	bnez	a5,10e74 <_vfprintf_r+0x398>
   11274:	1dc0006f          	j	11450 <_vfprintf_r+0x974>
   11278:	00813703          	ld	a4,8(sp)
   1127c:	01046813          	ori	a6,s0,16
   11280:	0008041b          	sext.w	s0,a6
   11284:	00870713          	addi	a4,a4,8
   11288:	00813783          	ld	a5,8(sp)
   1128c:	0007b983          	ld	s3,0(a5)
   11290:	00e13423          	sd	a4,8(sp)
   11294:	bff47813          	andi	a6,s0,-1025
   11298:	00080a9b          	sext.w	s5,a6
   1129c:	00000793          	li	a5,0
   112a0:	b7dff06f          	j	10e1c <_vfprintf_r+0x340>
   112a4:	00846413          	ori	s0,s0,8
   112a8:	0004041b          	sext.w	s0,s0
   112ac:	00094483          	lbu	s1,0(s2)
   112b0:	9f9ff06f          	j	10ca8 <_vfprintf_r+0x1cc>
   112b4:	00813703          	ld	a4,8(sp)
   112b8:	02047793          	andi	a5,s0,32
   112bc:	00870713          	addi	a4,a4,8
   112c0:	5a079ce3          	bnez	a5,12078 <_vfprintf_r+0x159c>
   112c4:	01047793          	andi	a5,s0,16
   112c8:	5a0798e3          	bnez	a5,12078 <_vfprintf_r+0x159c>
   112cc:	04047793          	andi	a5,s0,64
   112d0:	00079463          	bnez	a5,112d8 <_vfprintf_r+0x7fc>
   112d4:	2080106f          	j	124dc <_vfprintf_r+0x1a00>
   112d8:	00813783          	ld	a5,8(sp)
   112dc:	00040a93          	mv	s5,s0
   112e0:	00e13423          	sd	a4,8(sp)
   112e4:	00079983          	lh	s3,0(a5)
   112e8:	00098793          	mv	a5,s3
   112ec:	0a07ca63          	bltz	a5,113a0 <_vfprintf_r+0x8c4>
   112f0:	fff00793          	li	a5,-1
   112f4:	50fd8063          	beq	s11,a5,117f4 <_vfprintf_r+0xd18>
   112f8:	f7faf813          	andi	a6,s5,-129
   112fc:	0008041b          	sext.w	s0,a6
   11300:	4e099863          	bnez	s3,117f0 <_vfprintf_r+0xd14>
   11304:	000d8463          	beqz	s11,1130c <_vfprintf_r+0x830>
   11308:	7fc0106f          	j	12b04 <_vfprintf_r+0x2028>
   1130c:	00000d93          	li	s11,0
   11310:	00000b13          	li	s6,0
   11314:	18c10b93          	addi	s7,sp,396
   11318:	b39ff06f          	j	10e50 <_vfprintf_r+0x374>
   1131c:	02b00793          	li	a5,43
   11320:	0cf10fa3          	sb	a5,223(sp)
   11324:	00094483          	lbu	s1,0(s2)
   11328:	981ff06f          	j	10ca8 <_vfprintf_r+0x1cc>
   1132c:	08046413          	ori	s0,s0,128
   11330:	0004041b          	sext.w	s0,s0
   11334:	00094483          	lbu	s1,0(s2)
   11338:	971ff06f          	j	10ca8 <_vfprintf_r+0x1cc>
   1133c:	00094483          	lbu	s1,0(s2)
   11340:	00190713          	addi	a4,s2,1
   11344:	00c49463          	bne	s1,a2,1134c <_vfprintf_r+0x870>
   11348:	5b50106f          	j	130fc <_vfprintf_r+0x2620>
   1134c:	fd04879b          	addiw	a5,s1,-48
   11350:	00070913          	mv	s2,a4
   11354:	00000d93          	li	s11,0
   11358:	96f6e0e3          	bltu	a3,a5,10cb8 <_vfprintf_r+0x1dc>
   1135c:	00190913          	addi	s2,s2,1
   11360:	fff94703          	lbu	a4,-1(s2)
   11364:	79bb7d8b          	custom0.madd.s	s11,s6,s11,a5
   11368:	000d8d9b          	sext.w	s11,s11
   1136c:	fd07079b          	addiw	a5,a4,-48
   11370:	fef6f6e3          	bgeu	a3,a5,1135c <_vfprintf_r+0x880>
   11374:	00070493          	mv	s1,a4
   11378:	941ff06f          	j	10cb8 <_vfprintf_r+0x1dc>
   1137c:	00813783          	ld	a5,8(sp)
   11380:	01046813          	ori	a6,s0,16
   11384:	00080a9b          	sext.w	s5,a6
   11388:	00878713          	addi	a4,a5,8
   1138c:	00813783          	ld	a5,8(sp)
   11390:	0007b783          	ld	a5,0(a5)
   11394:	00e13423          	sd	a4,8(sp)
   11398:	00078993          	mv	s3,a5
   1139c:	f407dae3          	bgez	a5,112f0 <_vfprintf_r+0x814>
   113a0:	02d00793          	li	a5,45
   113a4:	0cf10fa3          	sb	a5,223(sp)
   113a8:	fff00713          	li	a4,-1
   113ac:	413009b3          	neg	s3,s3
   113b0:	00100793          	li	a5,1
   113b4:	a6ed9ae3          	bne	s11,a4,10e28 <_vfprintf_r+0x34c>
   113b8:	00100713          	li	a4,1
   113bc:	42e78c63          	beq	a5,a4,117f4 <_vfprintf_r+0xd18>
   113c0:	00200713          	li	a4,2
   113c4:	24e780e3          	beq	a5,a4,11e04 <_vfprintf_r+0x1328>
   113c8:	18c10b13          	addi	s6,sp,396
   113cc:	000b0693          	mv	a3,s6
   113d0:	0080006f          	j	113d8 <_vfprintf_r+0x8fc>
   113d4:	000b8693          	mv	a3,s7
   113d8:	0079f793          	andi	a5,s3,7
   113dc:	03078793          	addi	a5,a5,48
   113e0:	fef68fa3          	sb	a5,-1(a3)
   113e4:	0039d993          	srli	s3,s3,0x3
   113e8:	fff68b93          	addi	s7,a3,-1
   113ec:	fe0994e3          	bnez	s3,113d4 <_vfprintf_r+0x8f8>
   113f0:	001af613          	andi	a2,s5,1
   113f4:	44060863          	beqz	a2,11844 <_vfprintf_r+0xd68>
   113f8:	03000613          	li	a2,48
   113fc:	44c78463          	beq	a5,a2,11844 <_vfprintf_r+0xd68>
   11400:	ffe68693          	addi	a3,a3,-2
   11404:	fecb8fa3          	sb	a2,-1(s7)
   11408:	40db0b3b          	subw	s6,s6,a3
   1140c:	000a8413          	mv	s0,s5
   11410:	00068b93          	mv	s7,a3
   11414:	a3dff06f          	j	10e50 <_vfprintf_r+0x374>
   11418:	00813703          	ld	a4,8(sp)
   1141c:	0c010fa3          	sb	zero,223(sp)
   11420:	00100a93          	li	s5,1
   11424:	00072783          	lw	a5,0(a4)
   11428:	00870713          	addi	a4,a4,8
   1142c:	00e13423          	sd	a4,8(sp)
   11430:	12f10423          	sb	a5,296(sp)
   11434:	00100b13          	li	s6,1
   11438:	12810b93          	addi	s7,sp,296
   1143c:	00013823          	sd	zero,16(sp)
   11440:	00000d93          	li	s11,0
   11444:	02013823          	sd	zero,48(sp)
   11448:	02013423          	sd	zero,40(sp)
   1144c:	00013c23          	sd	zero,24(sp)
   11450:	00247e93          	andi	t4,s0,2
   11454:	000e8e9b          	sext.w	t4,t4
   11458:	000e8463          	beqz	t4,11460 <_vfprintf_r+0x984>
   1145c:	002a8a9b          	addiw	s5,s5,2
   11460:	08447993          	andi	s3,s0,132
   11464:	12013783          	ld	a5,288(sp)
   11468:	00099663          	bnez	s3,11474 <_vfprintf_r+0x998>
   1146c:	415a083b          	subw	a6,s4,s5
   11470:	79004663          	bgtz	a6,11bfc <_vfprintf_r+0x1120>
   11474:	0df14683          	lbu	a3,223(sp)
   11478:	02068c63          	beqz	a3,114b0 <_vfprintf_r+0x9d4>
   1147c:	11812683          	lw	a3,280(sp)
   11480:	0df10613          	addi	a2,sp,223
   11484:	00ccb023          	sd	a2,0(s9)
   11488:	0016869b          	addiw	a3,a3,1
   1148c:	00100613          	li	a2,1
   11490:	00178793          	addi	a5,a5,1
   11494:	00ccb423          	sd	a2,8(s9)
   11498:	10d12c23          	sw	a3,280(sp)
   1149c:	0006861b          	sext.w	a2,a3
   114a0:	12f13023          	sd	a5,288(sp)
   114a4:	00700693          	li	a3,7
   114a8:	010c8c93          	addi	s9,s9,16
   114ac:	0ec6c663          	blt	a3,a2,11598 <_vfprintf_r+0xabc>
   114b0:	020e8c63          	beqz	t4,114e8 <_vfprintf_r+0xa0c>
   114b4:	11812683          	lw	a3,280(sp)
   114b8:	0e010613          	addi	a2,sp,224
   114bc:	00ccb023          	sd	a2,0(s9)
   114c0:	0016869b          	addiw	a3,a3,1
   114c4:	00200613          	li	a2,2
   114c8:	00278793          	addi	a5,a5,2
   114cc:	00ccb423          	sd	a2,8(s9)
   114d0:	10d12c23          	sw	a3,280(sp)
   114d4:	0006861b          	sext.w	a2,a3
   114d8:	12f13023          	sd	a5,288(sp)
   114dc:	00700693          	li	a3,7
   114e0:	010c8c93          	addi	s9,s9,16
   114e4:	02c6c6e3          	blt	a3,a2,11d10 <_vfprintf_r+0x1234>
   114e8:	08000693          	li	a3,128
   114ec:	48d98a63          	beq	s3,a3,11980 <_vfprintf_r+0xea4>
   114f0:	416d8dbb          	subw	s11,s11,s6
   114f4:	57b04063          	bgtz	s11,11a54 <_vfprintf_r+0xf78>
   114f8:	10047693          	andi	a3,s0,256
   114fc:	34069a63          	bnez	a3,11850 <_vfprintf_r+0xd74>
   11500:	11812703          	lw	a4,280(sp)
   11504:	016787b3          	add	a5,a5,s6
   11508:	017cb023          	sd	s7,0(s9)
   1150c:	0017069b          	addiw	a3,a4,1
   11510:	016cb423          	sd	s6,8(s9)
   11514:	12f13023          	sd	a5,288(sp)
   11518:	10d12c23          	sw	a3,280(sp)
   1151c:	00700713          	li	a4,7
   11520:	0ed74463          	blt	a4,a3,11608 <_vfprintf_r+0xb2c>
   11524:	010c8c93          	addi	s9,s9,16
   11528:	00447413          	andi	s0,s0,4
   1152c:	00040663          	beqz	s0,11538 <_vfprintf_r+0xa5c>
   11530:	415a043b          	subw	s0,s4,s5
   11534:	008040e3          	bgtz	s0,11d34 <_vfprintf_r+0x1258>
   11538:	000a0713          	mv	a4,s4
   1153c:	015a5463          	bge	s4,s5,11544 <_vfprintf_r+0xa68>
   11540:	000a8713          	mv	a4,s5
   11544:	00013683          	ld	a3,0(sp)
   11548:	00d7073b          	addw	a4,a4,a3
   1154c:	00e13023          	sd	a4,0(sp)
   11550:	800794e3          	bnez	a5,10d58 <_vfprintf_r+0x27c>
   11554:	01013783          	ld	a5,16(sp)
   11558:	10012c23          	sw	zero,280(sp)
   1155c:	00078863          	beqz	a5,1156c <_vfprintf_r+0xa90>
   11560:	01013583          	ld	a1,16(sp)
   11564:	000d0513          	mv	a0,s10
   11568:	740020ef          	jal	ra,13ca8 <_free_r>
   1156c:	19010c93          	addi	s9,sp,400
   11570:	00090b93          	mv	s7,s2
   11574:	000bc783          	lbu	a5,0(s7)
   11578:	e8079a63          	bnez	a5,10c0c <_vfprintf_r+0x130>
   1157c:	12013783          	ld	a5,288(sp)
   11580:	fe078e63          	beqz	a5,10d7c <_vfprintf_r+0x2a0>
   11584:	11010613          	addi	a2,sp,272
   11588:	000c0593          	mv	a1,s8
   1158c:	000d0513          	mv	a0,s10
   11590:	7610a0ef          	jal	ra,1c4f0 <__sprint_r>
   11594:	fe8ff06f          	j	10d7c <_vfprintf_r+0x2a0>
   11598:	11010613          	addi	a2,sp,272
   1159c:	000c0593          	mv	a1,s8
   115a0:	000d0513          	mv	a0,s10
   115a4:	05d13823          	sd	t4,80(sp)
   115a8:	7490a0ef          	jal	ra,1c4f0 <__sprint_r>
   115ac:	fc051063          	bnez	a0,10d6c <_vfprintf_r+0x290>
   115b0:	12013783          	ld	a5,288(sp)
   115b4:	19010c93          	addi	s9,sp,400
   115b8:	05013e83          	ld	t4,80(sp)
   115bc:	ef5ff06f          	j	114b0 <_vfprintf_r+0x9d4>
   115c0:	00147593          	andi	a1,s0,1
   115c4:	56059e63          	bnez	a1,11b40 <_vfprintf_r+0x1064>
   115c8:	00ccb423          	sd	a2,8(s9)
   115cc:	13313023          	sd	s3,288(sp)
   115d0:	10f12c23          	sw	a5,280(sp)
   115d4:	00700713          	li	a4,7
   115d8:	30f742e3          	blt	a4,a5,120dc <_vfprintf_r+0x1600>
   115dc:	002e0d9b          	addiw	s11,t3,2
   115e0:	020c8c93          	addi	s9,s9,32
   115e4:	05813683          	ld	a3,88(sp)
   115e8:	0f010713          	addi	a4,sp,240
   115ec:	00e4b023          	sd	a4,0(s1)
   115f0:	00d987b3          	add	a5,s3,a3
   115f4:	00d4b423          	sd	a3,8(s1)
   115f8:	12f13023          	sd	a5,288(sp)
   115fc:	11b12c23          	sw	s11,280(sp)
   11600:	00700713          	li	a4,7
   11604:	f3b752e3          	bge	a4,s11,11528 <_vfprintf_r+0xa4c>
   11608:	11010613          	addi	a2,sp,272
   1160c:	000c0593          	mv	a1,s8
   11610:	000d0513          	mv	a0,s10
   11614:	6dd0a0ef          	jal	ra,1c4f0 <__sprint_r>
   11618:	f4051a63          	bnez	a0,10d6c <_vfprintf_r+0x290>
   1161c:	12013783          	ld	a5,288(sp)
   11620:	19010c93          	addi	s9,sp,400
   11624:	f05ff06f          	j	11528 <_vfprintf_r+0xa4c>
   11628:	00813783          	ld	a5,8(sp)
   1162c:	00094483          	lbu	s1,0(s2)
   11630:	0007aa03          	lw	s4,0(a5)
   11634:	00878793          	addi	a5,a5,8
   11638:	00f13423          	sd	a5,8(sp)
   1163c:	e60a5663          	bgez	s4,10ca8 <_vfprintf_r+0x1cc>
   11640:	41400a3b          	negw	s4,s4
   11644:	8d1ff06f          	j	10f14 <_vfprintf_r+0x438>
   11648:	000d0513          	mv	a0,s10
   1164c:	449050ef          	jal	ra,17294 <_localeconv_r>
   11650:	00853783          	ld	a5,8(a0)
   11654:	00078513          	mv	a0,a5
   11658:	06f13823          	sd	a5,112(sp)
   1165c:	bb4ff0ef          	jal	ra,10a10 <strlen>
   11660:	06a13423          	sd	a0,104(sp)
   11664:	00050493          	mv	s1,a0
   11668:	000d0513          	mv	a0,s10
   1166c:	429050ef          	jal	ra,17294 <_localeconv_r>
   11670:	01053783          	ld	a5,16(a0)
   11674:	06f13023          	sd	a5,96(sp)
   11678:	1e0482e3          	beqz	s1,1205c <_vfprintf_r+0x1580>
   1167c:	00094483          	lbu	s1,0(s2)
   11680:	e2078463          	beqz	a5,10ca8 <_vfprintf_r+0x1cc>
   11684:	0007c783          	lbu	a5,0(a5)
   11688:	e2078063          	beqz	a5,10ca8 <_vfprintf_r+0x1cc>
   1168c:	40046413          	ori	s0,s0,1024
   11690:	0004041b          	sext.w	s0,s0
   11694:	e14ff06f          	j	10ca8 <_vfprintf_r+0x1cc>
   11698:	00146413          	ori	s0,s0,1
   1169c:	0004041b          	sext.w	s0,s0
   116a0:	00094483          	lbu	s1,0(s2)
   116a4:	e04ff06f          	j	10ca8 <_vfprintf_r+0x1cc>
   116a8:	0df14783          	lbu	a5,223(sp)
   116ac:	00094483          	lbu	s1,0(s2)
   116b0:	de079c63          	bnez	a5,10ca8 <_vfprintf_r+0x1cc>
   116b4:	02000793          	li	a5,32
   116b8:	0cf10fa3          	sb	a5,223(sp)
   116bc:	decff06f          	j	10ca8 <_vfprintf_r+0x1cc>
   116c0:	00813703          	ld	a4,8(sp)
   116c4:	02047793          	andi	a5,s0,32
   116c8:	00870713          	addi	a4,a4,8
   116cc:	1a0792e3          	bnez	a5,12070 <_vfprintf_r+0x1594>
   116d0:	01047793          	andi	a5,s0,16
   116d4:	18079ee3          	bnez	a5,12070 <_vfprintf_r+0x1594>
   116d8:	00813683          	ld	a3,8(sp)
   116dc:	04047793          	andi	a5,s0,64
   116e0:	0006a983          	lw	s3,0(a3)
   116e4:	60078ce3          	beqz	a5,124fc <_vfprintf_r+0x1a20>
   116e8:	03099993          	slli	s3,s3,0x30
   116ec:	0309d993          	srli	s3,s3,0x30
   116f0:	00e13423          	sd	a4,8(sp)
   116f4:	00040a93          	mv	s5,s0
   116f8:	00100793          	li	a5,1
   116fc:	f20ff06f          	j	10e1c <_vfprintf_r+0x340>
   11700:	02046413          	ori	s0,s0,32
   11704:	0004041b          	sext.w	s0,s0
   11708:	00094483          	lbu	s1,0(s2)
   1170c:	d9cff06f          	j	10ca8 <_vfprintf_r+0x1cc>
   11710:	00813703          	ld	a4,8(sp)
   11714:	ffff87b7          	lui	a5,0xffff8
   11718:	8307c793          	xori	a5,a5,-2000
   1171c:	0ef11023          	sh	a5,224(sp)
   11720:	00870793          	addi	a5,a4,8
   11724:	00f13423          	sd	a5,8(sp)
   11728:	000217b7          	lui	a5,0x21
   1172c:	7d078793          	addi	a5,a5,2000 # 217d0 <zeroes.4548+0x68>
   11730:	00246813          	ori	a6,s0,2
   11734:	04f13023          	sd	a5,64(sp)
   11738:	00073983          	ld	s3,0(a4)
   1173c:	00080a9b          	sext.w	s5,a6
   11740:	00200793          	li	a5,2
   11744:	07800493          	li	s1,120
   11748:	ed4ff06f          	j	10e1c <_vfprintf_r+0x340>
   1174c:	00813703          	ld	a4,8(sp)
   11750:	02047793          	andi	a5,s0,32
   11754:	00870713          	addi	a4,a4,8
   11758:	b20798e3          	bnez	a5,11288 <_vfprintf_r+0x7ac>
   1175c:	01047793          	andi	a5,s0,16
   11760:	b20794e3          	bnez	a5,11288 <_vfprintf_r+0x7ac>
   11764:	00813683          	ld	a3,8(sp)
   11768:	04047793          	andi	a5,s0,64
   1176c:	0006a983          	lw	s3,0(a3)
   11770:	54078ce3          	beqz	a5,124c8 <_vfprintf_r+0x19ec>
   11774:	03099993          	slli	s3,s3,0x30
   11778:	0309d993          	srli	s3,s3,0x30
   1177c:	00e13423          	sd	a4,8(sp)
   11780:	b15ff06f          	j	11294 <_vfprintf_r+0x7b8>
   11784:	00813683          	ld	a3,8(sp)
   11788:	02047793          	andi	a5,s0,32
   1178c:	0006b703          	ld	a4,0(a3)
   11790:	00868693          	addi	a3,a3,8
   11794:	00d13423          	sd	a3,8(sp)
   11798:	0a079ae3          	bnez	a5,1204c <_vfprintf_r+0x1570>
   1179c:	01047793          	andi	a5,s0,16
   117a0:	0a0796e3          	bnez	a5,1204c <_vfprintf_r+0x1570>
   117a4:	04047793          	andi	a5,s0,64
   117a8:	00078463          	beqz	a5,117b0 <_vfprintf_r+0xcd4>
   117ac:	08c0106f          	j	12838 <_vfprintf_r+0x1d5c>
   117b0:	20047413          	andi	s0,s0,512
   117b4:	00013783          	ld	a5,0(sp)
   117b8:	00041463          	bnez	s0,117c0 <_vfprintf_r+0xce4>
   117bc:	7240106f          	j	12ee0 <_vfprintf_r+0x2404>
   117c0:	00f70023          	sb	a5,0(a4)
   117c4:	00090b93          	mv	s7,s2
   117c8:	dadff06f          	j	11574 <_vfprintf_r+0xa98>
   117cc:	00094483          	lbu	s1,0(s2)
   117d0:	06c00793          	li	a5,108
   117d4:	14f48ee3          	beq	s1,a5,12130 <_vfprintf_r+0x1654>
   117d8:	01046413          	ori	s0,s0,16
   117dc:	0004041b          	sext.w	s0,s0
   117e0:	cc8ff06f          	j	10ca8 <_vfprintf_r+0x1cc>
   117e4:	000d0513          	mv	a0,s10
   117e8:	354020ef          	jal	ra,13b3c <__sinit>
   117ec:	b64ff06f          	j	10b50 <_vfprintf_r+0x74>
   117f0:	00040a93          	mv	s5,s0
   117f4:	00900793          	li	a5,9
   117f8:	2f37eee3          	bltu	a5,s3,122f4 <_vfprintf_r+0x1818>
   117fc:	0309899b          	addiw	s3,s3,48
   11800:	193105a3          	sb	s3,395(sp)
   11804:	000a8413          	mv	s0,s5
   11808:	00100b13          	li	s6,1
   1180c:	18b10b93          	addi	s7,sp,395
   11810:	e40ff06f          	j	10e50 <_vfprintf_r+0x374>
   11814:	0ff00793          	li	a5,255
   11818:	32f68ce3          	beq	a3,a5,12350 <_vfprintf_r+0x1874>
   1181c:	00900793          	li	a5,9
   11820:	0147f463          	bgeu	a5,s4,11828 <_vfprintf_r+0xd4c>
   11824:	7b90006f          	j	127dc <_vfprintf_r+0x1d00>
   11828:	000b0a13          	mv	s4,s6
   1182c:	06913023          	sd	s1,96(sp)
   11830:	000b8b13          	mv	s6,s7
   11834:	01813483          	ld	s1,24(sp)
   11838:	00090b93          	mv	s7,s2
   1183c:	01013903          	ld	s2,16(sp)
   11840:	02813023          	sd	s0,32(sp)
   11844:	417b0b3b          	subw	s6,s6,s7
   11848:	000a8413          	mv	s0,s5
   1184c:	e04ff06f          	j	10e50 <_vfprintf_r+0x374>
   11850:	06500693          	li	a3,101
   11854:	2c96d463          	bge	a3,s1,11b1c <_vfprintf_r+0x1040>
   11858:	10013503          	ld	a0,256(sp)
   1185c:	10813583          	ld	a1,264(sp)
   11860:	00000613          	li	a2,0
   11864:	00000693          	li	a3,0
   11868:	04f13823          	sd	a5,80(sp)
   1186c:	6280e0ef          	jal	ra,1fe94 <__eqtf2>
   11870:	05013783          	ld	a5,80(sp)
   11874:	5c051263          	bnez	a0,11e38 <_vfprintf_r+0x135c>
   11878:	11812703          	lw	a4,280(sp)
   1187c:	000226b7          	lui	a3,0x22
   11880:	80868693          	addi	a3,a3,-2040 # 21808 <zeroes.4548+0xa0>
   11884:	0017071b          	addiw	a4,a4,1
   11888:	00178793          	addi	a5,a5,1
   1188c:	00dcb023          	sd	a3,0(s9)
   11890:	00100693          	li	a3,1
   11894:	00dcb423          	sd	a3,8(s9)
   11898:	12f13023          	sd	a5,288(sp)
   1189c:	0007069b          	sext.w	a3,a4
   118a0:	10e12c23          	sw	a4,280(sp)
   118a4:	00700793          	li	a5,7
   118a8:	010c8c93          	addi	s9,s9,16
   118ac:	2cd7c0e3          	blt	a5,a3,1236c <_vfprintf_r+0x1890>
   118b0:	0e812783          	lw	a5,232(sp)
   118b4:	02013703          	ld	a4,32(sp)
   118b8:	00e7ca63          	blt	a5,a4,118cc <_vfprintf_r+0xdf0>
   118bc:	00147793          	andi	a5,s0,1
   118c0:	00079663          	bnez	a5,118cc <_vfprintf_r+0xdf0>
   118c4:	12013783          	ld	a5,288(sp)
   118c8:	c61ff06f          	j	11528 <_vfprintf_r+0xa4c>
   118cc:	04813783          	ld	a5,72(sp)
   118d0:	03813683          	ld	a3,56(sp)
   118d4:	11812703          	lw	a4,280(sp)
   118d8:	00fcb023          	sd	a5,0(s9)
   118dc:	12013783          	ld	a5,288(sp)
   118e0:	0017071b          	addiw	a4,a4,1
   118e4:	00dcb423          	sd	a3,8(s9)
   118e8:	00f687b3          	add	a5,a3,a5
   118ec:	10e12c23          	sw	a4,280(sp)
   118f0:	0007069b          	sext.w	a3,a4
   118f4:	12f13023          	sd	a5,288(sp)
   118f8:	00700713          	li	a4,7
   118fc:	010c8c93          	addi	s9,s9,16
   11900:	00d746e3          	blt	a4,a3,1210c <_vfprintf_r+0x1630>
   11904:	02013703          	ld	a4,32(sp)
   11908:	fff7049b          	addiw	s1,a4,-1
   1190c:	c0905ee3          	blez	s1,11528 <_vfprintf_r+0xa4c>
   11910:	00021837          	lui	a6,0x21
   11914:	76880813          	addi	a6,a6,1896 # 21768 <zeroes.4548>
   11918:	01000693          	li	a3,16
   1191c:	11812703          	lw	a4,280(sp)
   11920:	01000993          	li	s3,16
   11924:	00700b13          	li	s6,7
   11928:	00080b93          	mv	s7,a6
   1192c:	0096c863          	blt	a3,s1,1193c <_vfprintf_r+0xe60>
   11930:	2610006f          	j	12390 <_vfprintf_r+0x18b4>
   11934:	ff04849b          	addiw	s1,s1,-16
   11938:	2499dae3          	bge	s3,s1,1238c <_vfprintf_r+0x18b0>
   1193c:	0017071b          	addiw	a4,a4,1
   11940:	01078793          	addi	a5,a5,16
   11944:	017cb023          	sd	s7,0(s9)
   11948:	013cb423          	sd	s3,8(s9)
   1194c:	12f13023          	sd	a5,288(sp)
   11950:	10e12c23          	sw	a4,280(sp)
   11954:	010c8c93          	addi	s9,s9,16
   11958:	fceb5ee3          	bge	s6,a4,11934 <_vfprintf_r+0xe58>
   1195c:	11010613          	addi	a2,sp,272
   11960:	000c0593          	mv	a1,s8
   11964:	000d0513          	mv	a0,s10
   11968:	3890a0ef          	jal	ra,1c4f0 <__sprint_r>
   1196c:	c0051063          	bnez	a0,10d6c <_vfprintf_r+0x290>
   11970:	12013783          	ld	a5,288(sp)
   11974:	11812703          	lw	a4,280(sp)
   11978:	19010c93          	addi	s9,sp,400
   1197c:	fb9ff06f          	j	11934 <_vfprintf_r+0xe58>
   11980:	415a09bb          	subw	s3,s4,s5
   11984:	b73056e3          	blez	s3,114f0 <_vfprintf_r+0xa14>
   11988:	00021837          	lui	a6,0x21
   1198c:	01000613          	li	a2,16
   11990:	11812683          	lw	a3,280(sp)
   11994:	76880813          	addi	a6,a6,1896 # 21768 <zeroes.4548>
   11998:	07365c63          	bge	a2,s3,11a10 <_vfprintf_r+0xf34>
   1199c:	04813823          	sd	s0,80(sp)
   119a0:	01000e93          	li	t4,16
   119a4:	00700f13          	li	t5,7
   119a8:	00080413          	mv	s0,a6
   119ac:	00c0006f          	j	119b8 <_vfprintf_r+0xedc>
   119b0:	ff09899b          	addiw	s3,s3,-16
   119b4:	053eda63          	bge	t4,s3,11a08 <_vfprintf_r+0xf2c>
   119b8:	0016869b          	addiw	a3,a3,1
   119bc:	01078793          	addi	a5,a5,16
   119c0:	008cb023          	sd	s0,0(s9)
   119c4:	01dcb423          	sd	t4,8(s9)
   119c8:	12f13023          	sd	a5,288(sp)
   119cc:	10d12c23          	sw	a3,280(sp)
   119d0:	010c8c93          	addi	s9,s9,16
   119d4:	fcdf5ee3          	bge	t5,a3,119b0 <_vfprintf_r+0xed4>
   119d8:	11010613          	addi	a2,sp,272
   119dc:	000c0593          	mv	a1,s8
   119e0:	000d0513          	mv	a0,s10
   119e4:	30d0a0ef          	jal	ra,1c4f0 <__sprint_r>
   119e8:	b8051263          	bnez	a0,10d6c <_vfprintf_r+0x290>
   119ec:	01000e93          	li	t4,16
   119f0:	ff09899b          	addiw	s3,s3,-16
   119f4:	12013783          	ld	a5,288(sp)
   119f8:	11812683          	lw	a3,280(sp)
   119fc:	19010c93          	addi	s9,sp,400
   11a00:	00700f13          	li	t5,7
   11a04:	fb3ecae3          	blt	t4,s3,119b8 <_vfprintf_r+0xedc>
   11a08:	00040813          	mv	a6,s0
   11a0c:	05013403          	ld	s0,80(sp)
   11a10:	0016861b          	addiw	a2,a3,1
   11a14:	013787b3          	add	a5,a5,s3
   11a18:	010cb023          	sd	a6,0(s9)
   11a1c:	013cb423          	sd	s3,8(s9)
   11a20:	12f13023          	sd	a5,288(sp)
   11a24:	10c12c23          	sw	a2,280(sp)
   11a28:	00700693          	li	a3,7
   11a2c:	010c8c93          	addi	s9,s9,16
   11a30:	acc6d0e3          	bge	a3,a2,114f0 <_vfprintf_r+0xa14>
   11a34:	11010613          	addi	a2,sp,272
   11a38:	000c0593          	mv	a1,s8
   11a3c:	000d0513          	mv	a0,s10
   11a40:	2b10a0ef          	jal	ra,1c4f0 <__sprint_r>
   11a44:	b2051463          	bnez	a0,10d6c <_vfprintf_r+0x290>
   11a48:	12013783          	ld	a5,288(sp)
   11a4c:	19010c93          	addi	s9,sp,400
   11a50:	aa1ff06f          	j	114f0 <_vfprintf_r+0xa14>
   11a54:	00021837          	lui	a6,0x21
   11a58:	01000613          	li	a2,16
   11a5c:	11812683          	lw	a3,280(sp)
   11a60:	76880813          	addi	a6,a6,1896 # 21768 <zeroes.4548>
   11a64:	07b65a63          	bge	a2,s11,11ad8 <_vfprintf_r+0xffc>
   11a68:	04813823          	sd	s0,80(sp)
   11a6c:	01000893          	li	a7,16
   11a70:	00700993          	li	s3,7
   11a74:	00080413          	mv	s0,a6
   11a78:	00c0006f          	j	11a84 <_vfprintf_r+0xfa8>
   11a7c:	ff0d8d9b          	addiw	s11,s11,-16
   11a80:	05b8d863          	bge	a7,s11,11ad0 <_vfprintf_r+0xff4>
   11a84:	0016869b          	addiw	a3,a3,1
   11a88:	01078793          	addi	a5,a5,16
   11a8c:	008cb023          	sd	s0,0(s9)
   11a90:	011cb423          	sd	a7,8(s9)
   11a94:	12f13023          	sd	a5,288(sp)
   11a98:	10d12c23          	sw	a3,280(sp)
   11a9c:	010c8c93          	addi	s9,s9,16
   11aa0:	fcd9dee3          	bge	s3,a3,11a7c <_vfprintf_r+0xfa0>
   11aa4:	11010613          	addi	a2,sp,272
   11aa8:	000c0593          	mv	a1,s8
   11aac:	000d0513          	mv	a0,s10
   11ab0:	2410a0ef          	jal	ra,1c4f0 <__sprint_r>
   11ab4:	aa051c63          	bnez	a0,10d6c <_vfprintf_r+0x290>
   11ab8:	01000893          	li	a7,16
   11abc:	ff0d8d9b          	addiw	s11,s11,-16
   11ac0:	12013783          	ld	a5,288(sp)
   11ac4:	11812683          	lw	a3,280(sp)
   11ac8:	19010c93          	addi	s9,sp,400
   11acc:	fbb8cce3          	blt	a7,s11,11a84 <_vfprintf_r+0xfa8>
   11ad0:	00040813          	mv	a6,s0
   11ad4:	05013403          	ld	s0,80(sp)
   11ad8:	0016861b          	addiw	a2,a3,1
   11adc:	01b787b3          	add	a5,a5,s11
   11ae0:	010cb023          	sd	a6,0(s9)
   11ae4:	01bcb423          	sd	s11,8(s9)
   11ae8:	12f13023          	sd	a5,288(sp)
   11aec:	10c12c23          	sw	a2,280(sp)
   11af0:	00700693          	li	a3,7
   11af4:	010c8c93          	addi	s9,s9,16
   11af8:	a0c6d0e3          	bge	a3,a2,114f8 <_vfprintf_r+0xa1c>
   11afc:	11010613          	addi	a2,sp,272
   11b00:	000c0593          	mv	a1,s8
   11b04:	000d0513          	mv	a0,s10
   11b08:	1e90a0ef          	jal	ra,1c4f0 <__sprint_r>
   11b0c:	a6051063          	bnez	a0,10d6c <_vfprintf_r+0x290>
   11b10:	12013783          	ld	a5,288(sp)
   11b14:	19010c93          	addi	s9,sp,400
   11b18:	9e1ff06f          	j	114f8 <_vfprintf_r+0xa1c>
   11b1c:	11812e03          	lw	t3,280(sp)
   11b20:	02013703          	ld	a4,32(sp)
   11b24:	00178993          	addi	s3,a5,1
   11b28:	00100613          	li	a2,1
   11b2c:	001e079b          	addiw	a5,t3,1
   11b30:	017cb023          	sd	s7,0(s9)
   11b34:	00078693          	mv	a3,a5
   11b38:	010c8493          	addi	s1,s9,16
   11b3c:	a8e652e3          	bge	a2,a4,115c0 <_vfprintf_r+0xae4>
   11b40:	00100613          	li	a2,1
   11b44:	10d12c23          	sw	a3,280(sp)
   11b48:	00ccb423          	sd	a2,8(s9)
   11b4c:	13313023          	sd	s3,288(sp)
   11b50:	00700693          	li	a3,7
   11b54:	6af6c463          	blt	a3,a5,121fc <_vfprintf_r+0x1720>
   11b58:	03813703          	ld	a4,56(sp)
   11b5c:	04813683          	ld	a3,72(sp)
   11b60:	00178b1b          	addiw	s6,a5,1
   11b64:	00e989b3          	add	s3,s3,a4
   11b68:	00d4b023          	sd	a3,0(s1)
   11b6c:	00e4b423          	sd	a4,8(s1)
   11b70:	13313023          	sd	s3,288(sp)
   11b74:	11612c23          	sw	s6,280(sp)
   11b78:	00700793          	li	a5,7
   11b7c:	01048493          	addi	s1,s1,16
   11b80:	6b67c263          	blt	a5,s6,12224 <_vfprintf_r+0x1748>
   11b84:	02013783          	ld	a5,32(sp)
   11b88:	10013503          	ld	a0,256(sp)
   11b8c:	10813583          	ld	a1,264(sp)
   11b90:	001b089b          	addiw	a7,s6,1
   11b94:	fff7879b          	addiw	a5,a5,-1
   11b98:	00000613          	li	a2,0
   11b9c:	00000693          	li	a3,0
   11ba0:	00088d9b          	sext.w	s11,a7
   11ba4:	03113423          	sd	a7,40(sp)
   11ba8:	00f13c23          	sd	a5,24(sp)
   11bac:	2e80e0ef          	jal	ra,1fe94 <__eqtf2>
   11bb0:	01048c93          	addi	s9,s1,16
   11bb4:	01813783          	ld	a5,24(sp)
   11bb8:	02813883          	ld	a7,40(sp)
   11bbc:	3e050e63          	beqz	a0,11fb8 <_vfprintf_r+0x14dc>
   11bc0:	00f989b3          	add	s3,s3,a5
   11bc4:	001b8713          	addi	a4,s7,1
   11bc8:	00f4b423          	sd	a5,8(s1)
   11bcc:	00e4b023          	sd	a4,0(s1)
   11bd0:	13313023          	sd	s3,288(sp)
   11bd4:	11112c23          	sw	a7,280(sp)
   11bd8:	00700793          	li	a5,7
   11bdc:	51b7c063          	blt	a5,s11,120dc <_vfprintf_r+0x1600>
   11be0:	02048793          	addi	a5,s1,32
   11be4:	002b0d9b          	addiw	s11,s6,2
   11be8:	000c8493          	mv	s1,s9
   11bec:	00078c93          	mv	s9,a5
   11bf0:	9f5ff06f          	j	115e4 <_vfprintf_r+0xb08>
   11bf4:	00040a93          	mv	s5,s0
   11bf8:	fc0ff06f          	j	113b8 <_vfprintf_r+0x8dc>
   11bfc:	000218b7          	lui	a7,0x21
   11c00:	01000613          	li	a2,16
   11c04:	11812683          	lw	a3,280(sp)
   11c08:	75888893          	addi	a7,a7,1880 # 21758 <blanks.4547>
   11c0c:	0b065c63          	bge	a2,a6,11cc4 <_vfprintf_r+0x11e8>
   11c10:	08913823          	sd	s1,144(sp)
   11c14:	000c8713          	mv	a4,s9
   11c18:	01000f13          	li	t5,16
   11c1c:	000b8c93          	mv	s9,s7
   11c20:	00700293          	li	t0,7
   11c24:	000b0b93          	mv	s7,s6
   11c28:	05d13823          	sd	t4,80(sp)
   11c2c:	000a8b13          	mv	s6,s5
   11c30:	00088493          	mv	s1,a7
   11c34:	000a0a93          	mv	s5,s4
   11c38:	00040a13          	mv	s4,s0
   11c3c:	00080413          	mv	s0,a6
   11c40:	00c0006f          	j	11c4c <_vfprintf_r+0x1170>
   11c44:	ff04041b          	addiw	s0,s0,-16
   11c48:	048f5a63          	bge	t5,s0,11c9c <_vfprintf_r+0x11c0>
   11c4c:	0016869b          	addiw	a3,a3,1
   11c50:	01078793          	addi	a5,a5,16
   11c54:	00973023          	sd	s1,0(a4)
   11c58:	01e73423          	sd	t5,8(a4)
   11c5c:	12f13023          	sd	a5,288(sp)
   11c60:	10d12c23          	sw	a3,280(sp)
   11c64:	01070713          	addi	a4,a4,16
   11c68:	fcd2dee3          	bge	t0,a3,11c44 <_vfprintf_r+0x1168>
   11c6c:	11010613          	addi	a2,sp,272
   11c70:	000c0593          	mv	a1,s8
   11c74:	000d0513          	mv	a0,s10
   11c78:	0790a0ef          	jal	ra,1c4f0 <__sprint_r>
   11c7c:	8e051863          	bnez	a0,10d6c <_vfprintf_r+0x290>
   11c80:	01000f13          	li	t5,16
   11c84:	ff04041b          	addiw	s0,s0,-16
   11c88:	12013783          	ld	a5,288(sp)
   11c8c:	11812683          	lw	a3,280(sp)
   11c90:	19010713          	addi	a4,sp,400
   11c94:	00700293          	li	t0,7
   11c98:	fa8f4ae3          	blt	t5,s0,11c4c <_vfprintf_r+0x1170>
   11c9c:	00048893          	mv	a7,s1
   11ca0:	05013e83          	ld	t4,80(sp)
   11ca4:	09013483          	ld	s1,144(sp)
   11ca8:	00040813          	mv	a6,s0
   11cac:	000a0413          	mv	s0,s4
   11cb0:	000a8a13          	mv	s4,s5
   11cb4:	000b0a93          	mv	s5,s6
   11cb8:	000b8b13          	mv	s6,s7
   11cbc:	000c8b93          	mv	s7,s9
   11cc0:	00070c93          	mv	s9,a4
   11cc4:	0016861b          	addiw	a2,a3,1
   11cc8:	010787b3          	add	a5,a5,a6
   11ccc:	011cb023          	sd	a7,0(s9)
   11cd0:	010cb423          	sd	a6,8(s9)
   11cd4:	12f13023          	sd	a5,288(sp)
   11cd8:	10c12c23          	sw	a2,280(sp)
   11cdc:	00700693          	li	a3,7
   11ce0:	010c8c93          	addi	s9,s9,16
   11ce4:	f8c6d863          	bge	a3,a2,11474 <_vfprintf_r+0x998>
   11ce8:	11010613          	addi	a2,sp,272
   11cec:	000c0593          	mv	a1,s8
   11cf0:	000d0513          	mv	a0,s10
   11cf4:	05d13823          	sd	t4,80(sp)
   11cf8:	7f80a0ef          	jal	ra,1c4f0 <__sprint_r>
   11cfc:	86051863          	bnez	a0,10d6c <_vfprintf_r+0x290>
   11d00:	12013783          	ld	a5,288(sp)
   11d04:	19010c93          	addi	s9,sp,400
   11d08:	05013e83          	ld	t4,80(sp)
   11d0c:	f68ff06f          	j	11474 <_vfprintf_r+0x998>
   11d10:	11010613          	addi	a2,sp,272
   11d14:	000c0593          	mv	a1,s8
   11d18:	000d0513          	mv	a0,s10
   11d1c:	7d40a0ef          	jal	ra,1c4f0 <__sprint_r>
   11d20:	00050463          	beqz	a0,11d28 <_vfprintf_r+0x124c>
   11d24:	848ff06f          	j	10d6c <_vfprintf_r+0x290>
   11d28:	12013783          	ld	a5,288(sp)
   11d2c:	19010c93          	addi	s9,sp,400
   11d30:	fb8ff06f          	j	114e8 <_vfprintf_r+0xa0c>
   11d34:	000218b7          	lui	a7,0x21
   11d38:	75888893          	addi	a7,a7,1880 # 21758 <blanks.4547>
   11d3c:	01000693          	li	a3,16
   11d40:	11812703          	lw	a4,280(sp)
   11d44:	01000493          	li	s1,16
   11d48:	00700993          	li	s3,7
   11d4c:	00088b13          	mv	s6,a7
   11d50:	0086c863          	blt	a3,s0,11d60 <_vfprintf_r+0x1284>
   11d54:	05c0006f          	j	11db0 <_vfprintf_r+0x12d4>
   11d58:	ff04041b          	addiw	s0,s0,-16
   11d5c:	0484d863          	bge	s1,s0,11dac <_vfprintf_r+0x12d0>
   11d60:	0017071b          	addiw	a4,a4,1
   11d64:	01078793          	addi	a5,a5,16
   11d68:	016cb023          	sd	s6,0(s9)
   11d6c:	009cb423          	sd	s1,8(s9)
   11d70:	12f13023          	sd	a5,288(sp)
   11d74:	10e12c23          	sw	a4,280(sp)
   11d78:	010c8c93          	addi	s9,s9,16
   11d7c:	fce9dee3          	bge	s3,a4,11d58 <_vfprintf_r+0x127c>
   11d80:	11010613          	addi	a2,sp,272
   11d84:	000c0593          	mv	a1,s8
   11d88:	000d0513          	mv	a0,s10
   11d8c:	7640a0ef          	jal	ra,1c4f0 <__sprint_r>
   11d90:	00050463          	beqz	a0,11d98 <_vfprintf_r+0x12bc>
   11d94:	fd9fe06f          	j	10d6c <_vfprintf_r+0x290>
   11d98:	ff04041b          	addiw	s0,s0,-16
   11d9c:	12013783          	ld	a5,288(sp)
   11da0:	11812703          	lw	a4,280(sp)
   11da4:	19010c93          	addi	s9,sp,400
   11da8:	fa84cce3          	blt	s1,s0,11d60 <_vfprintf_r+0x1284>
   11dac:	000b0893          	mv	a7,s6
   11db0:	0017069b          	addiw	a3,a4,1
   11db4:	008787b3          	add	a5,a5,s0
   11db8:	011cb023          	sd	a7,0(s9)
   11dbc:	008cb423          	sd	s0,8(s9)
   11dc0:	12f13023          	sd	a5,288(sp)
   11dc4:	10d12c23          	sw	a3,280(sp)
   11dc8:	00700713          	li	a4,7
   11dcc:	f6d75663          	bge	a4,a3,11538 <_vfprintf_r+0xa5c>
   11dd0:	11010613          	addi	a2,sp,272
   11dd4:	000c0593          	mv	a1,s8
   11dd8:	000d0513          	mv	a0,s10
   11ddc:	7140a0ef          	jal	ra,1c4f0 <__sprint_r>
   11de0:	00050463          	beqz	a0,11de8 <_vfprintf_r+0x130c>
   11de4:	f89fe06f          	j	10d6c <_vfprintf_r+0x290>
   11de8:	12013783          	ld	a5,288(sp)
   11dec:	f4cff06f          	j	11538 <_vfprintf_r+0xa5c>
   11df0:	00100713          	li	a4,1
   11df4:	50e788e3          	beq	a5,a4,12b04 <_vfprintf_r+0x2028>
   11df8:	00200713          	li	a4,2
   11dfc:	00040a93          	mv	s5,s0
   11e00:	dce79463          	bne	a5,a4,113c8 <_vfprintf_r+0x8ec>
   11e04:	04013703          	ld	a4,64(sp)
   11e08:	18c10b13          	addi	s6,sp,396
   11e0c:	000b0b93          	mv	s7,s6
   11e10:	00f9f793          	andi	a5,s3,15
   11e14:	00f707b3          	add	a5,a4,a5
   11e18:	0007c783          	lbu	a5,0(a5)
   11e1c:	fffb8b93          	addi	s7,s7,-1
   11e20:	0049d993          	srli	s3,s3,0x4
   11e24:	00fb8023          	sb	a5,0(s7)
   11e28:	fe0994e3          	bnez	s3,11e10 <_vfprintf_r+0x1334>
   11e2c:	417b0b3b          	subw	s6,s6,s7
   11e30:	000a8413          	mv	s0,s5
   11e34:	81cff06f          	j	10e50 <_vfprintf_r+0x374>
   11e38:	0e812583          	lw	a1,232(sp)
   11e3c:	40b05863          	blez	a1,1224c <_vfprintf_r+0x1770>
   11e40:	02013703          	ld	a4,32(sp)
   11e44:	01813683          	ld	a3,24(sp)
   11e48:	0007049b          	sext.w	s1,a4
   11e4c:	24e6ca63          	blt	a3,a4,120a0 <_vfprintf_r+0x15c4>
   11e50:	02905663          	blez	s1,11e7c <_vfprintf_r+0x13a0>
   11e54:	11812683          	lw	a3,280(sp)
   11e58:	009787b3          	add	a5,a5,s1
   11e5c:	017cb023          	sd	s7,0(s9)
   11e60:	0016861b          	addiw	a2,a3,1
   11e64:	009cb423          	sd	s1,8(s9)
   11e68:	12f13023          	sd	a5,288(sp)
   11e6c:	10c12c23          	sw	a2,280(sp)
   11e70:	00700693          	li	a3,7
   11e74:	010c8c93          	addi	s9,s9,16
   11e78:	12c6cce3          	blt	a3,a2,127b0 <_vfprintf_r+0x1cd4>
   11e7c:	fff4c693          	not	a3,s1
   11e80:	01813703          	ld	a4,24(sp)
   11e84:	43f6d693          	srai	a3,a3,0x3f
   11e88:	00d4f4b3          	and	s1,s1,a3
   11e8c:	409704bb          	subw	s1,a4,s1
   11e90:	2e904863          	bgtz	s1,12180 <_vfprintf_r+0x16a4>
   11e94:	01813703          	ld	a4,24(sp)
   11e98:	40047693          	andi	a3,s0,1024
   11e9c:	00eb8db3          	add	s11,s7,a4
   11ea0:	6e069a63          	bnez	a3,12594 <_vfprintf_r+0x1ab8>
   11ea4:	0e812483          	lw	s1,232(sp)
   11ea8:	02013703          	ld	a4,32(sp)
   11eac:	00e4c663          	blt	s1,a4,11eb8 <_vfprintf_r+0x13dc>
   11eb0:	00147693          	andi	a3,s0,1
   11eb4:	160682e3          	beqz	a3,12818 <_vfprintf_r+0x1d3c>
   11eb8:	04813683          	ld	a3,72(sp)
   11ebc:	03813703          	ld	a4,56(sp)
   11ec0:	010c8c93          	addi	s9,s9,16
   11ec4:	fedcb823          	sd	a3,-16(s9)
   11ec8:	11812683          	lw	a3,280(sp)
   11ecc:	00e787b3          	add	a5,a5,a4
   11ed0:	feecbc23          	sd	a4,-8(s9)
   11ed4:	0016861b          	addiw	a2,a3,1
   11ed8:	12f13023          	sd	a5,288(sp)
   11edc:	10c12c23          	sw	a2,280(sp)
   11ee0:	00700693          	li	a3,7
   11ee4:	5ac6cee3          	blt	a3,a2,12ca0 <_vfprintf_r+0x21c4>
   11ee8:	02013703          	ld	a4,32(sp)
   11eec:	4097063b          	subw	a2,a4,s1
   11ef0:	00eb8733          	add	a4,s7,a4
   11ef4:	41b7073b          	subw	a4,a4,s11
   11ef8:	00060493          	mv	s1,a2
   11efc:	00c75463          	bge	a4,a2,11f04 <_vfprintf_r+0x1428>
   11f00:	0007049b          	sext.w	s1,a4
   11f04:	02905663          	blez	s1,11f30 <_vfprintf_r+0x1454>
   11f08:	11812703          	lw	a4,280(sp)
   11f0c:	009787b3          	add	a5,a5,s1
   11f10:	01bcb023          	sd	s11,0(s9)
   11f14:	0017069b          	addiw	a3,a4,1
   11f18:	009cb423          	sd	s1,8(s9)
   11f1c:	12f13023          	sd	a5,288(sp)
   11f20:	10d12c23          	sw	a3,280(sp)
   11f24:	00700713          	li	a4,7
   11f28:	010c8c93          	addi	s9,s9,16
   11f2c:	60d740e3          	blt	a4,a3,12d2c <_vfprintf_r+0x2250>
   11f30:	fff4c713          	not	a4,s1
   11f34:	43f75713          	srai	a4,a4,0x3f
   11f38:	00e4f4b3          	and	s1,s1,a4
   11f3c:	409604bb          	subw	s1,a2,s1
   11f40:	de905463          	blez	s1,11528 <_vfprintf_r+0xa4c>
   11f44:	00021837          	lui	a6,0x21
   11f48:	76880813          	addi	a6,a6,1896 # 21768 <zeroes.4548>
   11f4c:	01000693          	li	a3,16
   11f50:	11812703          	lw	a4,280(sp)
   11f54:	01000993          	li	s3,16
   11f58:	00700b13          	li	s6,7
   11f5c:	00080b93          	mv	s7,a6
   11f60:	0096c863          	blt	a3,s1,11f70 <_vfprintf_r+0x1494>
   11f64:	42c0006f          	j	12390 <_vfprintf_r+0x18b4>
   11f68:	ff04849b          	addiw	s1,s1,-16
   11f6c:	4299d063          	bge	s3,s1,1238c <_vfprintf_r+0x18b0>
   11f70:	0017071b          	addiw	a4,a4,1
   11f74:	01078793          	addi	a5,a5,16
   11f78:	017cb023          	sd	s7,0(s9)
   11f7c:	013cb423          	sd	s3,8(s9)
   11f80:	12f13023          	sd	a5,288(sp)
   11f84:	10e12c23          	sw	a4,280(sp)
   11f88:	010c8c93          	addi	s9,s9,16
   11f8c:	fceb5ee3          	bge	s6,a4,11f68 <_vfprintf_r+0x148c>
   11f90:	11010613          	addi	a2,sp,272
   11f94:	000c0593          	mv	a1,s8
   11f98:	000d0513          	mv	a0,s10
   11f9c:	5540a0ef          	jal	ra,1c4f0 <__sprint_r>
   11fa0:	00050463          	beqz	a0,11fa8 <_vfprintf_r+0x14cc>
   11fa4:	dc9fe06f          	j	10d6c <_vfprintf_r+0x290>
   11fa8:	12013783          	ld	a5,288(sp)
   11fac:	11812703          	lw	a4,280(sp)
   11fb0:	19010c93          	addi	s9,sp,400
   11fb4:	fb5ff06f          	j	11f68 <_vfprintf_r+0x148c>
   11fb8:	e2f05663          	blez	a5,115e4 <_vfprintf_r+0xb08>
   11fbc:	01000713          	li	a4,16
   11fc0:	00f74463          	blt	a4,a5,11fc8 <_vfprintf_r+0x14ec>
   11fc4:	0ec0106f          	j	130b0 <_vfprintf_r+0x25d4>
   11fc8:	00021837          	lui	a6,0x21
   11fcc:	76880813          	addi	a6,a6,1896 # 21768 <zeroes.4548>
   11fd0:	00813c23          	sd	s0,24(sp)
   11fd4:	01000c93          	li	s9,16
   11fd8:	00700b93          	li	s7,7
   11fdc:	00078d93          	mv	s11,a5
   11fe0:	00080413          	mv	s0,a6
   11fe4:	0100006f          	j	11ff4 <_vfprintf_r+0x1518>
   11fe8:	ff0d8d9b          	addiw	s11,s11,-16
   11fec:	0dbcd063          	bge	s9,s11,120ac <_vfprintf_r+0x15d0>
   11ff0:	001b089b          	addiw	a7,s6,1
   11ff4:	01098993          	addi	s3,s3,16
   11ff8:	0084b023          	sd	s0,0(s1)
   11ffc:	0194b423          	sd	s9,8(s1)
   12000:	13313023          	sd	s3,288(sp)
   12004:	00088b1b          	sext.w	s6,a7
   12008:	11112c23          	sw	a7,280(sp)
   1200c:	01048493          	addi	s1,s1,16
   12010:	fd6bdce3          	bge	s7,s6,11fe8 <_vfprintf_r+0x150c>
   12014:	11010613          	addi	a2,sp,272
   12018:	000c0593          	mv	a1,s8
   1201c:	000d0513          	mv	a0,s10
   12020:	4d00a0ef          	jal	ra,1c4f0 <__sprint_r>
   12024:	00050463          	beqz	a0,1202c <_vfprintf_r+0x1550>
   12028:	d45fe06f          	j	10d6c <_vfprintf_r+0x290>
   1202c:	12013983          	ld	s3,288(sp)
   12030:	11812b03          	lw	s6,280(sp)
   12034:	19010493          	addi	s1,sp,400
   12038:	fb1ff06f          	j	11fe8 <_vfprintf_r+0x150c>
   1203c:	03000793          	li	a5,48
   12040:	18f105a3          	sb	a5,395(sp)
   12044:	18b10b93          	addi	s7,sp,395
   12048:	e09fe06f          	j	10e50 <_vfprintf_r+0x374>
   1204c:	00013783          	ld	a5,0(sp)
   12050:	00090b93          	mv	s7,s2
   12054:	00f73023          	sd	a5,0(a4)
   12058:	d1cff06f          	j	11574 <_vfprintf_r+0xa98>
   1205c:	00094483          	lbu	s1,0(s2)
   12060:	c49fe06f          	j	10ca8 <_vfprintf_r+0x1cc>
   12064:	00813783          	ld	a5,8(sp)
   12068:	0007b983          	ld	s3,0(a5)
   1206c:	d81fe06f          	j	10dec <_vfprintf_r+0x310>
   12070:	00040a93          	mv	s5,s0
   12074:	978ff06f          	j	111ec <_vfprintf_r+0x710>
   12078:	00040a93          	mv	s5,s0
   1207c:	b10ff06f          	j	1138c <_vfprintf_r+0x8b0>
   12080:	00813783          	ld	a5,8(sp)
   12084:	0007b503          	ld	a0,0(a5)
   12088:	00878793          	addi	a5,a5,8
   1208c:	00f13423          	sd	a5,8(sp)
   12090:	0340f0ef          	jal	ra,210c4 <__extenddftf2>
   12094:	10a13023          	sd	a0,256(sp)
   12098:	10b13423          	sd	a1,264(sp)
   1209c:	ed1fe06f          	j	10f6c <_vfprintf_r+0x490>
   120a0:	0006849b          	sext.w	s1,a3
   120a4:	da9048e3          	bgtz	s1,11e54 <_vfprintf_r+0x1378>
   120a8:	dd5ff06f          	j	11e7c <_vfprintf_r+0x13a0>
   120ac:	00040813          	mv	a6,s0
   120b0:	01813403          	ld	s0,24(sp)
   120b4:	000d8793          	mv	a5,s11
   120b8:	01048713          	addi	a4,s1,16
   120bc:	001b0d9b          	addiw	s11,s6,1
   120c0:	00f989b3          	add	s3,s3,a5
   120c4:	00f4b423          	sd	a5,8(s1)
   120c8:	0104b023          	sd	a6,0(s1)
   120cc:	13313023          	sd	s3,288(sp)
   120d0:	11b12c23          	sw	s11,280(sp)
   120d4:	00700793          	li	a5,7
   120d8:	69b7da63          	bge	a5,s11,1276c <_vfprintf_r+0x1c90>
   120dc:	11010613          	addi	a2,sp,272
   120e0:	000c0593          	mv	a1,s8
   120e4:	000d0513          	mv	a0,s10
   120e8:	4080a0ef          	jal	ra,1c4f0 <__sprint_r>
   120ec:	00050463          	beqz	a0,120f4 <_vfprintf_r+0x1618>
   120f0:	c7dfe06f          	j	10d6c <_vfprintf_r+0x290>
   120f4:	11812e03          	lw	t3,280(sp)
   120f8:	12013983          	ld	s3,288(sp)
   120fc:	1a010c93          	addi	s9,sp,416
   12100:	001e0d9b          	addiw	s11,t3,1
   12104:	19010493          	addi	s1,sp,400
   12108:	cdcff06f          	j	115e4 <_vfprintf_r+0xb08>
   1210c:	11010613          	addi	a2,sp,272
   12110:	000c0593          	mv	a1,s8
   12114:	000d0513          	mv	a0,s10
   12118:	3d80a0ef          	jal	ra,1c4f0 <__sprint_r>
   1211c:	00050463          	beqz	a0,12124 <_vfprintf_r+0x1648>
   12120:	c4dfe06f          	j	10d6c <_vfprintf_r+0x290>
   12124:	12013783          	ld	a5,288(sp)
   12128:	19010c93          	addi	s9,sp,400
   1212c:	fd8ff06f          	j	11904 <_vfprintf_r+0xe28>
   12130:	02046413          	ori	s0,s0,32
   12134:	00194483          	lbu	s1,1(s2)
   12138:	0004041b          	sext.w	s0,s0
   1213c:	00190913          	addi	s2,s2,1
   12140:	b69fe06f          	j	10ca8 <_vfprintf_r+0x1cc>
   12144:	20046413          	ori	s0,s0,512
   12148:	00194483          	lbu	s1,1(s2)
   1214c:	0004041b          	sext.w	s0,s0
   12150:	00190913          	addi	s2,s2,1
   12154:	b55fe06f          	j	10ca8 <_vfprintf_r+0x1cc>
   12158:	000d871b          	sext.w	a4,s11
   1215c:	00600793          	li	a5,6
   12160:	000d8e13          	mv	t3,s11
   12164:	66e7e863          	bltu	a5,a4,127d4 <_vfprintf_r+0x1cf8>
   12168:	000e0b1b          	sext.w	s6,t3
   1216c:	00022737          	lui	a4,0x22
   12170:	000b0a93          	mv	s5,s6
   12174:	01313423          	sd	s3,8(sp)
   12178:	80070b93          	addi	s7,a4,-2048 # 21800 <zeroes.4548+0x98>
   1217c:	ac0ff06f          	j	1143c <_vfprintf_r+0x960>
   12180:	00021837          	lui	a6,0x21
   12184:	76880813          	addi	a6,a6,1896 # 21768 <zeroes.4548>
   12188:	01000613          	li	a2,16
   1218c:	11812683          	lw	a3,280(sp)
   12190:	01000b13          	li	s6,16
   12194:	00700d93          	li	s11,7
   12198:	00080993          	mv	s3,a6
   1219c:	00964863          	blt	a2,s1,121ac <_vfprintf_r+0x16d0>
   121a0:	3ac0006f          	j	1254c <_vfprintf_r+0x1a70>
   121a4:	ff04849b          	addiw	s1,s1,-16
   121a8:	3a9b5063          	bge	s6,s1,12548 <_vfprintf_r+0x1a6c>
   121ac:	0016869b          	addiw	a3,a3,1
   121b0:	01078793          	addi	a5,a5,16
   121b4:	013cb023          	sd	s3,0(s9)
   121b8:	016cb423          	sd	s6,8(s9)
   121bc:	12f13023          	sd	a5,288(sp)
   121c0:	10d12c23          	sw	a3,280(sp)
   121c4:	010c8c93          	addi	s9,s9,16
   121c8:	fcdddee3          	bge	s11,a3,121a4 <_vfprintf_r+0x16c8>
   121cc:	11010613          	addi	a2,sp,272
   121d0:	000c0593          	mv	a1,s8
   121d4:	000d0513          	mv	a0,s10
   121d8:	3180a0ef          	jal	ra,1c4f0 <__sprint_r>
   121dc:	00050463          	beqz	a0,121e4 <_vfprintf_r+0x1708>
   121e0:	b8dfe06f          	j	10d6c <_vfprintf_r+0x290>
   121e4:	12013783          	ld	a5,288(sp)
   121e8:	11812683          	lw	a3,280(sp)
   121ec:	19010c93          	addi	s9,sp,400
   121f0:	fb5ff06f          	j	121a4 <_vfprintf_r+0x16c8>
   121f4:	000b8493          	mv	s1,s7
   121f8:	a89fe06f          	j	10c80 <_vfprintf_r+0x1a4>
   121fc:	11010613          	addi	a2,sp,272
   12200:	000c0593          	mv	a1,s8
   12204:	000d0513          	mv	a0,s10
   12208:	2e80a0ef          	jal	ra,1c4f0 <__sprint_r>
   1220c:	00050463          	beqz	a0,12214 <_vfprintf_r+0x1738>
   12210:	b5dfe06f          	j	10d6c <_vfprintf_r+0x290>
   12214:	12013983          	ld	s3,288(sp)
   12218:	11812783          	lw	a5,280(sp)
   1221c:	19010493          	addi	s1,sp,400
   12220:	939ff06f          	j	11b58 <_vfprintf_r+0x107c>
   12224:	11010613          	addi	a2,sp,272
   12228:	000c0593          	mv	a1,s8
   1222c:	000d0513          	mv	a0,s10
   12230:	2c00a0ef          	jal	ra,1c4f0 <__sprint_r>
   12234:	00050463          	beqz	a0,1223c <_vfprintf_r+0x1760>
   12238:	b35fe06f          	j	10d6c <_vfprintf_r+0x290>
   1223c:	12013983          	ld	s3,288(sp)
   12240:	11812b03          	lw	s6,280(sp)
   12244:	19010493          	addi	s1,sp,400
   12248:	93dff06f          	j	11b84 <_vfprintf_r+0x10a8>
   1224c:	11812683          	lw	a3,280(sp)
   12250:	00022637          	lui	a2,0x22
   12254:	80860613          	addi	a2,a2,-2040 # 21808 <zeroes.4548+0xa0>
   12258:	0016869b          	addiw	a3,a3,1
   1225c:	00ccb023          	sd	a2,0(s9)
   12260:	00178793          	addi	a5,a5,1
   12264:	00100613          	li	a2,1
   12268:	00ccb423          	sd	a2,8(s9)
   1226c:	10d12c23          	sw	a3,280(sp)
   12270:	0006861b          	sext.w	a2,a3
   12274:	12f13023          	sd	a5,288(sp)
   12278:	00700693          	li	a3,7
   1227c:	010c8c93          	addi	s9,s9,16
   12280:	4ec6ce63          	blt	a3,a2,1277c <_vfprintf_r+0x1ca0>
   12284:	18059e63          	bnez	a1,12420 <_vfprintf_r+0x1944>
   12288:	02013703          	ld	a4,32(sp)
   1228c:	00147693          	andi	a3,s0,1
   12290:	00d766b3          	or	a3,a4,a3
   12294:	a8068a63          	beqz	a3,11528 <_vfprintf_r+0xa4c>
   12298:	11812603          	lw	a2,280(sp)
   1229c:	03813703          	ld	a4,56(sp)
   122a0:	04813683          	ld	a3,72(sp)
   122a4:	010c8313          	addi	t1,s9,16
   122a8:	00f707b3          	add	a5,a4,a5
   122ac:	00dcb023          	sd	a3,0(s9)
   122b0:	0016069b          	addiw	a3,a2,1
   122b4:	00ecb423          	sd	a4,8(s9)
   122b8:	12f13023          	sd	a5,288(sp)
   122bc:	10d12c23          	sw	a3,280(sp)
   122c0:	00700613          	li	a2,7
   122c4:	5ed64063          	blt	a2,a3,128a4 <_vfprintf_r+0x1dc8>
   122c8:	02013703          	ld	a4,32(sp)
   122cc:	0016861b          	addiw	a2,a3,1
   122d0:	01733023          	sd	s7,0(t1)
   122d4:	00f707b3          	add	a5,a4,a5
   122d8:	00e33423          	sd	a4,8(t1)
   122dc:	12f13023          	sd	a5,288(sp)
   122e0:	10c12c23          	sw	a2,280(sp)
   122e4:	00700713          	li	a4,7
   122e8:	01030c93          	addi	s9,t1,16
   122ec:	a2c75e63          	bge	a4,a2,11528 <_vfprintf_r+0xa4c>
   122f0:	b18ff06f          	j	11608 <_vfprintf_r+0xb2c>
   122f4:	400af413          	andi	s0,s5,1024
   122f8:	00913c23          	sd	s1,24(sp)
   122fc:	06013483          	ld	s1,96(sp)
   12300:	18c10b13          	addi	s6,sp,396
   12304:	0004041b          	sext.w	s0,s0
   12308:	00000793          	li	a5,0
   1230c:	000b0b93          	mv	s7,s6
   12310:	01213823          	sd	s2,16(sp)
   12314:	000b0913          	mv	s2,s6
   12318:	000a0b13          	mv	s6,s4
   1231c:	00098a13          	mv	s4,s3
   12320:	00040993          	mv	s3,s0
   12324:	00078413          	mv	s0,a5
   12328:	00a00593          	li	a1,10
   1232c:	000a0513          	mv	a0,s4
   12330:	0d00f0ef          	jal	ra,21400 <__umoddi3>
   12334:	0305051b          	addiw	a0,a0,48
   12338:	fea90fa3          	sb	a0,-1(s2)
   1233c:	0014041b          	addiw	s0,s0,1
   12340:	fff90913          	addi	s2,s2,-1
   12344:	00098663          	beqz	s3,12350 <_vfprintf_r+0x1874>
   12348:	0004c683          	lbu	a3,0(s1)
   1234c:	ccd40463          	beq	s0,a3,11814 <_vfprintf_r+0xd38>
   12350:	00a00593          	li	a1,10
   12354:	000a0513          	mv	a0,s4
   12358:	0600f0ef          	jal	ra,213b8 <__udivdi3>
   1235c:	00900793          	li	a5,9
   12360:	cd47f463          	bgeu	a5,s4,11828 <_vfprintf_r+0xd4c>
   12364:	00050a13          	mv	s4,a0
   12368:	fc1ff06f          	j	12328 <_vfprintf_r+0x184c>
   1236c:	11010613          	addi	a2,sp,272
   12370:	000c0593          	mv	a1,s8
   12374:	000d0513          	mv	a0,s10
   12378:	1780a0ef          	jal	ra,1c4f0 <__sprint_r>
   1237c:	00050463          	beqz	a0,12384 <_vfprintf_r+0x18a8>
   12380:	9edfe06f          	j	10d6c <_vfprintf_r+0x290>
   12384:	19010c93          	addi	s9,sp,400
   12388:	d28ff06f          	j	118b0 <_vfprintf_r+0xdd4>
   1238c:	000b8813          	mv	a6,s7
   12390:	0017069b          	addiw	a3,a4,1
   12394:	010cb023          	sd	a6,0(s9)
   12398:	009cb423          	sd	s1,8(s9)
   1239c:	009787b3          	add	a5,a5,s1
   123a0:	12f13023          	sd	a5,288(sp)
   123a4:	10d12c23          	sw	a3,280(sp)
   123a8:	00700713          	li	a4,7
   123ac:	96d75c63          	bge	a4,a3,11524 <_vfprintf_r+0xa48>
   123b0:	a58ff06f          	j	11608 <_vfprintf_r+0xb2c>
   123b4:	10013503          	ld	a0,256(sp)
   123b8:	10813583          	ld	a1,264(sp)
   123bc:	00000613          	li	a2,0
   123c0:	00000693          	li	a3,0
   123c4:	43d0d0ef          	jal	ra,20000 <__letf2>
   123c8:	100540e3          	bltz	a0,12cc8 <_vfprintf_r+0x21ec>
   123cc:	0df14783          	lbu	a5,223(sp)
   123d0:	04700713          	li	a4,71
   123d4:	3c975863          	bge	a4,s1,127a4 <_vfprintf_r+0x1cc8>
   123d8:	00021737          	lui	a4,0x21
   123dc:	7b870b93          	addi	s7,a4,1976 # 217b8 <zeroes.4548+0x50>
   123e0:	f7f47413          	andi	s0,s0,-129
   123e4:	00013823          	sd	zero,16(sp)
   123e8:	02013823          	sd	zero,48(sp)
   123ec:	02013423          	sd	zero,40(sp)
   123f0:	00013c23          	sd	zero,24(sp)
   123f4:	0004041b          	sext.w	s0,s0
   123f8:	00300a93          	li	s5,3
   123fc:	00300b13          	li	s6,3
   12400:	00000d93          	li	s11,0
   12404:	00078463          	beqz	a5,1240c <_vfprintf_r+0x1930>
   12408:	a6dfe06f          	j	10e74 <_vfprintf_r+0x398>
   1240c:	844ff06f          	j	11450 <_vfprintf_r+0x974>
   12410:	000b8513          	mv	a0,s7
   12414:	dfcfe0ef          	jal	ra,10a10 <strlen>
   12418:	00050b1b          	sext.w	s6,a0
   1241c:	e29fe06f          	j	11244 <_vfprintf_r+0x768>
   12420:	11812603          	lw	a2,280(sp)
   12424:	03813703          	ld	a4,56(sp)
   12428:	04813683          	ld	a3,72(sp)
   1242c:	010c8313          	addi	t1,s9,16
   12430:	00f707b3          	add	a5,a4,a5
   12434:	00dcb023          	sd	a3,0(s9)
   12438:	0016069b          	addiw	a3,a2,1
   1243c:	00ecb423          	sd	a4,8(s9)
   12440:	12f13023          	sd	a5,288(sp)
   12444:	10d12c23          	sw	a3,280(sp)
   12448:	00700613          	li	a2,7
   1244c:	44d64c63          	blt	a2,a3,128a4 <_vfprintf_r+0x1dc8>
   12450:	e605dce3          	bgez	a1,122c8 <_vfprintf_r+0x17ec>
   12454:	00021837          	lui	a6,0x21
   12458:	76880813          	addi	a6,a6,1896 # 21768 <zeroes.4548>
   1245c:	ff000613          	li	a2,-16
   12460:	40b004bb          	negw	s1,a1
   12464:	01000993          	li	s3,16
   12468:	00700b13          	li	s6,7
   1246c:	00080c93          	mv	s9,a6
   12470:	00c5c863          	blt	a1,a2,12480 <_vfprintf_r+0x19a4>
   12474:	1ed0006f          	j	12e60 <_vfprintf_r+0x2384>
   12478:	ff04849b          	addiw	s1,s1,-16
   1247c:	1e99d0e3          	bge	s3,s1,12e5c <_vfprintf_r+0x2380>
   12480:	0016869b          	addiw	a3,a3,1
   12484:	01078793          	addi	a5,a5,16
   12488:	01933023          	sd	s9,0(t1)
   1248c:	01333423          	sd	s3,8(t1)
   12490:	12f13023          	sd	a5,288(sp)
   12494:	10d12c23          	sw	a3,280(sp)
   12498:	01030313          	addi	t1,t1,16
   1249c:	fcdb5ee3          	bge	s6,a3,12478 <_vfprintf_r+0x199c>
   124a0:	11010613          	addi	a2,sp,272
   124a4:	000c0593          	mv	a1,s8
   124a8:	000d0513          	mv	a0,s10
   124ac:	0440a0ef          	jal	ra,1c4f0 <__sprint_r>
   124b0:	00050463          	beqz	a0,124b8 <_vfprintf_r+0x19dc>
   124b4:	8b9fe06f          	j	10d6c <_vfprintf_r+0x290>
   124b8:	12013783          	ld	a5,288(sp)
   124bc:	11812683          	lw	a3,280(sp)
   124c0:	19010313          	addi	t1,sp,400
   124c4:	fb5ff06f          	j	12478 <_vfprintf_r+0x199c>
   124c8:	20047793          	andi	a5,s0,512
   124cc:	3a078c63          	beqz	a5,12884 <_vfprintf_r+0x1da8>
   124d0:	0ff9f993          	andi	s3,s3,255
   124d4:	00e13423          	sd	a4,8(sp)
   124d8:	dbdfe06f          	j	11294 <_vfprintf_r+0x7b8>
   124dc:	20047793          	andi	a5,s0,512
   124e0:	38078663          	beqz	a5,1286c <_vfprintf_r+0x1d90>
   124e4:	00813783          	ld	a5,8(sp)
   124e8:	00040a93          	mv	s5,s0
   124ec:	00e13423          	sd	a4,8(sp)
   124f0:	00078983          	lb	s3,0(a5)
   124f4:	00098793          	mv	a5,s3
   124f8:	df5fe06f          	j	112ec <_vfprintf_r+0x810>
   124fc:	20047793          	andi	a5,s0,512
   12500:	34078a63          	beqz	a5,12854 <_vfprintf_r+0x1d78>
   12504:	0ff9f993          	andi	s3,s3,255
   12508:	00e13423          	sd	a4,8(sp)
   1250c:	00040a93          	mv	s5,s0
   12510:	00100793          	li	a5,1
   12514:	909fe06f          	j	10e1c <_vfprintf_r+0x340>
   12518:	20047793          	andi	a5,s0,512
   1251c:	32078663          	beqz	a5,12848 <_vfprintf_r+0x1d6c>
   12520:	0ff9f993          	andi	s3,s3,255
   12524:	8c9fe06f          	j	10dec <_vfprintf_r+0x310>
   12528:	10813783          	ld	a5,264(sp)
   1252c:	3607c463          	bltz	a5,12894 <_vfprintf_r+0x1db8>
   12530:	0df14783          	lbu	a5,223(sp)
   12534:	04700713          	li	a4,71
   12538:	089752e3          	bge	a4,s1,12dbc <_vfprintf_r+0x22e0>
   1253c:	00021737          	lui	a4,0x21
   12540:	7c870b93          	addi	s7,a4,1992 # 217c8 <zeroes.4548+0x60>
   12544:	e9dff06f          	j	123e0 <_vfprintf_r+0x1904>
   12548:	00098813          	mv	a6,s3
   1254c:	0016861b          	addiw	a2,a3,1
   12550:	009787b3          	add	a5,a5,s1
   12554:	010cb023          	sd	a6,0(s9)
   12558:	009cb423          	sd	s1,8(s9)
   1255c:	12f13023          	sd	a5,288(sp)
   12560:	10c12c23          	sw	a2,280(sp)
   12564:	00700693          	li	a3,7
   12568:	010c8c93          	addi	s9,s9,16
   1256c:	92c6d4e3          	bge	a3,a2,11e94 <_vfprintf_r+0x13b8>
   12570:	11010613          	addi	a2,sp,272
   12574:	000c0593          	mv	a1,s8
   12578:	000d0513          	mv	a0,s10
   1257c:	775090ef          	jal	ra,1c4f0 <__sprint_r>
   12580:	00050463          	beqz	a0,12588 <_vfprintf_r+0x1aac>
   12584:	fe8fe06f          	j	10d6c <_vfprintf_r+0x290>
   12588:	12013783          	ld	a5,288(sp)
   1258c:	19010c93          	addi	s9,sp,400
   12590:	905ff06f          	j	11e94 <_vfprintf_r+0x13b8>
   12594:	02013703          	ld	a4,32(sp)
   12598:	01213c23          	sd	s2,24(sp)
   1259c:	03013903          	ld	s2,48(sp)
   125a0:	03513823          	sd	s5,48(sp)
   125a4:	02813a83          	ld	s5,40(sp)
   125a8:	00eb86b3          	add	a3,s7,a4
   125ac:	00021e37          	lui	t3,0x21
   125b0:	04813823          	sd	s0,80(sp)
   125b4:	09413823          	sd	s4,144(sp)
   125b8:	03713423          	sd	s7,40(sp)
   125bc:	00700893          	li	a7,7
   125c0:	01000993          	li	s3,16
   125c4:	768e0493          	addi	s1,t3,1896 # 21768 <zeroes.4548>
   125c8:	06813a03          	ld	s4,104(sp)
   125cc:	07013b03          	ld	s6,112(sp)
   125d0:	06013403          	ld	s0,96(sp)
   125d4:	000c8713          	mv	a4,s9
   125d8:	00068b93          	mv	s7,a3
   125dc:	080a8e63          	beqz	s5,12678 <_vfprintf_r+0x1b9c>
   125e0:	08091e63          	bnez	s2,1267c <_vfprintf_r+0x1ba0>
   125e4:	fff40413          	addi	s0,s0,-1
   125e8:	fffa8a9b          	addiw	s5,s5,-1
   125ec:	11812683          	lw	a3,280(sp)
   125f0:	014787b3          	add	a5,a5,s4
   125f4:	01673023          	sd	s6,0(a4)
   125f8:	0016861b          	addiw	a2,a3,1
   125fc:	01473423          	sd	s4,8(a4)
   12600:	12f13023          	sd	a5,288(sp)
   12604:	10c12c23          	sw	a2,280(sp)
   12608:	01070713          	addi	a4,a4,16
   1260c:	10c8c463          	blt	a7,a2,12714 <_vfprintf_r+0x1c38>
   12610:	00044603          	lbu	a2,0(s0)
   12614:	41bb85bb          	subw	a1,s7,s11
   12618:	0006069b          	sext.w	a3,a2
   1261c:	00068813          	mv	a6,a3
   12620:	00d5d463          	bge	a1,a3,12628 <_vfprintf_r+0x1b4c>
   12624:	00058813          	mv	a6,a1
   12628:	00080c9b          	sext.w	s9,a6
   1262c:	03905863          	blez	s9,1265c <_vfprintf_r+0x1b80>
   12630:	11812683          	lw	a3,280(sp)
   12634:	019787b3          	add	a5,a5,s9
   12638:	01b73023          	sd	s11,0(a4)
   1263c:	0016861b          	addiw	a2,a3,1
   12640:	01973423          	sd	s9,8(a4)
   12644:	12f13023          	sd	a5,288(sp)
   12648:	10c12c23          	sw	a2,280(sp)
   1264c:	0ec8c863          	blt	a7,a2,1273c <_vfprintf_r+0x1c60>
   12650:	00044603          	lbu	a2,0(s0)
   12654:	01070713          	addi	a4,a4,16
   12658:	0006069b          	sext.w	a3,a2
   1265c:	fffcc593          	not	a1,s9
   12660:	43f5d593          	srai	a1,a1,0x3f
   12664:	00bcf833          	and	a6,s9,a1
   12668:	41068cbb          	subw	s9,a3,a6
   1266c:	01904c63          	bgtz	s9,12684 <_vfprintf_r+0x1ba8>
   12670:	00cd8db3          	add	s11,s11,a2
   12674:	f60a96e3          	bnez	s5,125e0 <_vfprintf_r+0x1b04>
   12678:	48090a63          	beqz	s2,12b0c <_vfprintf_r+0x2030>
   1267c:	fff9091b          	addiw	s2,s2,-1
   12680:	f6dff06f          	j	125ec <_vfprintf_r+0x1b10>
   12684:	11812603          	lw	a2,280(sp)
   12688:	0199c863          	blt	s3,s9,12698 <_vfprintf_r+0x1bbc>
   1268c:	05c0006f          	j	126e8 <_vfprintf_r+0x1c0c>
   12690:	ff0c8c9b          	addiw	s9,s9,-16
   12694:	0599da63          	bge	s3,s9,126e8 <_vfprintf_r+0x1c0c>
   12698:	0016061b          	addiw	a2,a2,1
   1269c:	01078793          	addi	a5,a5,16
   126a0:	00973023          	sd	s1,0(a4)
   126a4:	01373423          	sd	s3,8(a4)
   126a8:	12f13023          	sd	a5,288(sp)
   126ac:	10c12c23          	sw	a2,280(sp)
   126b0:	01070713          	addi	a4,a4,16
   126b4:	fcc8dee3          	bge	a7,a2,12690 <_vfprintf_r+0x1bb4>
   126b8:	11010613          	addi	a2,sp,272
   126bc:	000c0593          	mv	a1,s8
   126c0:	000d0513          	mv	a0,s10
   126c4:	62d090ef          	jal	ra,1c4f0 <__sprint_r>
   126c8:	00050463          	beqz	a0,126d0 <_vfprintf_r+0x1bf4>
   126cc:	ea0fe06f          	j	10d6c <_vfprintf_r+0x290>
   126d0:	ff0c8c9b          	addiw	s9,s9,-16
   126d4:	12013783          	ld	a5,288(sp)
   126d8:	11812603          	lw	a2,280(sp)
   126dc:	19010713          	addi	a4,sp,400
   126e0:	00700893          	li	a7,7
   126e4:	fb99cae3          	blt	s3,s9,12698 <_vfprintf_r+0x1bbc>
   126e8:	0016069b          	addiw	a3,a2,1
   126ec:	019787b3          	add	a5,a5,s9
   126f0:	00973023          	sd	s1,0(a4)
   126f4:	01973423          	sd	s9,8(a4)
   126f8:	12f13023          	sd	a5,288(sp)
   126fc:	10d12c23          	sw	a3,280(sp)
   12700:	56d8c863          	blt	a7,a3,12c70 <_vfprintf_r+0x2194>
   12704:	00044603          	lbu	a2,0(s0)
   12708:	01070713          	addi	a4,a4,16
   1270c:	00cd8db3          	add	s11,s11,a2
   12710:	f65ff06f          	j	12674 <_vfprintf_r+0x1b98>
   12714:	11010613          	addi	a2,sp,272
   12718:	000c0593          	mv	a1,s8
   1271c:	000d0513          	mv	a0,s10
   12720:	5d1090ef          	jal	ra,1c4f0 <__sprint_r>
   12724:	00050463          	beqz	a0,1272c <_vfprintf_r+0x1c50>
   12728:	e44fe06f          	j	10d6c <_vfprintf_r+0x290>
   1272c:	12013783          	ld	a5,288(sp)
   12730:	19010713          	addi	a4,sp,400
   12734:	00700893          	li	a7,7
   12738:	ed9ff06f          	j	12610 <_vfprintf_r+0x1b34>
   1273c:	11010613          	addi	a2,sp,272
   12740:	000c0593          	mv	a1,s8
   12744:	000d0513          	mv	a0,s10
   12748:	5a9090ef          	jal	ra,1c4f0 <__sprint_r>
   1274c:	00050463          	beqz	a0,12754 <_vfprintf_r+0x1c78>
   12750:	e1cfe06f          	j	10d6c <_vfprintf_r+0x290>
   12754:	00044603          	lbu	a2,0(s0)
   12758:	12013783          	ld	a5,288(sp)
   1275c:	19010713          	addi	a4,sp,400
   12760:	0006069b          	sext.w	a3,a2
   12764:	00700893          	li	a7,7
   12768:	ef5ff06f          	j	1265c <_vfprintf_r+0x1b80>
   1276c:	001d8d9b          	addiw	s11,s11,1
   12770:	01070c93          	addi	s9,a4,16
   12774:	00070493          	mv	s1,a4
   12778:	e6dfe06f          	j	115e4 <_vfprintf_r+0xb08>
   1277c:	11010613          	addi	a2,sp,272
   12780:	000c0593          	mv	a1,s8
   12784:	000d0513          	mv	a0,s10
   12788:	569090ef          	jal	ra,1c4f0 <__sprint_r>
   1278c:	00050463          	beqz	a0,12794 <_vfprintf_r+0x1cb8>
   12790:	ddcfe06f          	j	10d6c <_vfprintf_r+0x290>
   12794:	0e812583          	lw	a1,232(sp)
   12798:	12013783          	ld	a5,288(sp)
   1279c:	19010c93          	addi	s9,sp,400
   127a0:	ae5ff06f          	j	12284 <_vfprintf_r+0x17a8>
   127a4:	00021737          	lui	a4,0x21
   127a8:	7b070b93          	addi	s7,a4,1968 # 217b0 <zeroes.4548+0x48>
   127ac:	c35ff06f          	j	123e0 <_vfprintf_r+0x1904>
   127b0:	11010613          	addi	a2,sp,272
   127b4:	000c0593          	mv	a1,s8
   127b8:	000d0513          	mv	a0,s10
   127bc:	535090ef          	jal	ra,1c4f0 <__sprint_r>
   127c0:	00050463          	beqz	a0,127c8 <_vfprintf_r+0x1cec>
   127c4:	da8fe06f          	j	10d6c <_vfprintf_r+0x290>
   127c8:	12013783          	ld	a5,288(sp)
   127cc:	19010c93          	addi	s9,sp,400
   127d0:	eacff06f          	j	11e7c <_vfprintf_r+0x13a0>
   127d4:	00600e13          	li	t3,6
   127d8:	991ff06f          	j	12168 <_vfprintf_r+0x168c>
   127dc:	06813783          	ld	a5,104(sp)
   127e0:	07013583          	ld	a1,112(sp)
   127e4:	00000413          	li	s0,0
   127e8:	40f90933          	sub	s2,s2,a5
   127ec:	00078613          	mv	a2,a5
   127f0:	00090513          	mv	a0,s2
   127f4:	50c070ef          	jal	ra,19d00 <strncpy>
   127f8:	0014c683          	lbu	a3,1(s1)
   127fc:	000a0513          	mv	a0,s4
   12800:	00a00593          	li	a1,10
   12804:	00d03733          	snez	a4,a3
   12808:	00e484b3          	add	s1,s1,a4
   1280c:	3ad0e0ef          	jal	ra,213b8 <__udivdi3>
   12810:	00050a13          	mv	s4,a0
   12814:	b15ff06f          	j	12328 <_vfprintf_r+0x184c>
   12818:	02013683          	ld	a3,32(sp)
   1281c:	00db8733          	add	a4,s7,a3
   12820:	4096863b          	subw	a2,a3,s1
   12824:	41b7083b          	subw	a6,a4,s11
   12828:	0008049b          	sext.w	s1,a6
   1282c:	f1065263          	bge	a2,a6,11f30 <_vfprintf_r+0x1454>
   12830:	0006049b          	sext.w	s1,a2
   12834:	efcff06f          	j	11f30 <_vfprintf_r+0x1454>
   12838:	00013783          	ld	a5,0(sp)
   1283c:	00090b93          	mv	s7,s2
   12840:	00f71023          	sh	a5,0(a4)
   12844:	d31fe06f          	j	11574 <_vfprintf_r+0xa98>
   12848:	02099993          	slli	s3,s3,0x20
   1284c:	0209d993          	srli	s3,s3,0x20
   12850:	d9cfe06f          	j	10dec <_vfprintf_r+0x310>
   12854:	02099993          	slli	s3,s3,0x20
   12858:	0209d993          	srli	s3,s3,0x20
   1285c:	00e13423          	sd	a4,8(sp)
   12860:	00040a93          	mv	s5,s0
   12864:	00100793          	li	a5,1
   12868:	db4fe06f          	j	10e1c <_vfprintf_r+0x340>
   1286c:	00813783          	ld	a5,8(sp)
   12870:	00040a93          	mv	s5,s0
   12874:	00e13423          	sd	a4,8(sp)
   12878:	0007a983          	lw	s3,0(a5)
   1287c:	00098793          	mv	a5,s3
   12880:	a6dfe06f          	j	112ec <_vfprintf_r+0x810>
   12884:	02099993          	slli	s3,s3,0x20
   12888:	0209d993          	srli	s3,s3,0x20
   1288c:	00e13423          	sd	a4,8(sp)
   12890:	a05fe06f          	j	11294 <_vfprintf_r+0x7b8>
   12894:	02d00793          	li	a5,45
   12898:	0cf10fa3          	sb	a5,223(sp)
   1289c:	02d00793          	li	a5,45
   128a0:	c95ff06f          	j	12534 <_vfprintf_r+0x1a58>
   128a4:	11010613          	addi	a2,sp,272
   128a8:	000c0593          	mv	a1,s8
   128ac:	000d0513          	mv	a0,s10
   128b0:	441090ef          	jal	ra,1c4f0 <__sprint_r>
   128b4:	00050463          	beqz	a0,128bc <_vfprintf_r+0x1de0>
   128b8:	cb4fe06f          	j	10d6c <_vfprintf_r+0x290>
   128bc:	0e812583          	lw	a1,232(sp)
   128c0:	12013783          	ld	a5,288(sp)
   128c4:	11812683          	lw	a3,280(sp)
   128c8:	19010313          	addi	t1,sp,400
   128cc:	9e05dee3          	bgez	a1,122c8 <_vfprintf_r+0x17ec>
   128d0:	b85ff06f          	j	12454 <_vfprintf_r+0x1978>
   128d4:	03000793          	li	a5,48
   128d8:	0ef10023          	sb	a5,224(sp)
   128dc:	05800713          	li	a4,88
   128e0:	00246793          	ori	a5,s0,2
   128e4:	0007879b          	sext.w	a5,a5
   128e8:	0ee100a3          	sb	a4,225(sp)
   128ec:	06300693          	li	a3,99
   128f0:	02f13823          	sd	a5,48(sp)
   128f4:	00013823          	sd	zero,16(sp)
   128f8:	12810b93          	addi	s7,sp,296
   128fc:	53b6ca63          	blt	a3,s11,12e30 <_vfprintf_r+0x2354>
   12900:	10813a83          	ld	s5,264(sp)
   12904:	fdf4f793          	andi	a5,s1,-33
   12908:	10246413          	ori	s0,s0,258
   1290c:	02f13423          	sd	a5,40(sp)
   12910:	04013823          	sd	zero,80(sp)
   12914:	0004041b          	sext.w	s0,s0
   12918:	10013b03          	ld	s6,256(sp)
   1291c:	320ace63          	bltz	s5,12c58 <_vfprintf_r+0x217c>
   12920:	06100793          	li	a5,97
   12924:	6cf48c63          	beq	s1,a5,12ffc <_vfprintf_r+0x2520>
   12928:	04100793          	li	a5,65
   1292c:	00f48463          	beq	s1,a5,12934 <_vfprintf_r+0x1e58>
   12930:	ec0fe06f          	j	10ff0 <_vfprintf_r+0x514>
   12934:	000b0513          	mv	a0,s6
   12938:	000a8593          	mv	a1,s5
   1293c:	07d0e0ef          	jal	ra,211b8 <__trunctfdf2>
   12940:	0e810593          	addi	a1,sp,232
   12944:	6b1060ef          	jal	ra,197f4 <frexp>
   12948:	77c0e0ef          	jal	ra,210c4 <__extenddftf2>
   1294c:	00fff7b7          	lui	a5,0xfff
   12950:	00000613          	li	a2,0
   12954:	02679693          	slli	a3,a5,0x26
   12958:	7880d0ef          	jal	ra,200e0 <__multf3>
   1295c:	00000613          	li	a2,0
   12960:	00000693          	li	a3,0
   12964:	00050b13          	mv	s6,a0
   12968:	00058993          	mv	s3,a1
   1296c:	5280d0ef          	jal	ra,1fe94 <__eqtf2>
   12970:	00051663          	bnez	a0,1297c <_vfprintf_r+0x1ea0>
   12974:	00100793          	li	a5,1
   12978:	0ef12423          	sw	a5,232(sp)
   1297c:	000217b7          	lui	a5,0x21
   12980:	7e878793          	addi	a5,a5,2024 # 217e8 <zeroes.4548+0x80>
   12984:	00f13c23          	sd	a5,24(sp)
   12988:	000d869b          	sext.w	a3,s11
   1298c:	02069793          	slli	a5,a3,0x20
   12990:	0207d793          	srli	a5,a5,0x20
   12994:	00178793          	addi	a5,a5,1
   12998:	00fb8733          	add	a4,s7,a5
   1299c:	00db86bb          	addw	a3,s7,a3
   129a0:	03213023          	sd	s2,32(sp)
   129a4:	08913823          	sd	s1,144(sp)
   129a8:	08813c23          	sd	s0,152(sp)
   129ac:	0d713023          	sd	s7,192(sp)
   129b0:	000b8413          	mv	s0,s7
   129b4:	0ce13423          	sd	a4,200(sp)
   129b8:	00098b93          	mv	s7,s3
   129bc:	0b413023          	sd	s4,160(sp)
   129c0:	0b913423          	sd	s9,168(sp)
   129c4:	01813483          	ld	s1,24(sp)
   129c8:	00070913          	mv	s2,a4
   129cc:	0ba13823          	sd	s10,176(sp)
   129d0:	0b813c23          	sd	s8,184(sp)
   129d4:	00068993          	mv	s3,a3
   129d8:	0180006f          	j	129f0 <_vfprintf_r+0x1f14>
   129dc:	00000613          	li	a2,0
   129e0:	00000693          	li	a3,0
   129e4:	4b00d0ef          	jal	ra,1fe94 <__eqtf2>
   129e8:	50050263          	beqz	a0,12eec <_vfprintf_r+0x2410>
   129ec:	000c0413          	mv	s0,s8
   129f0:	07813683          	ld	a3,120(sp)
   129f4:	00000613          	li	a2,0
   129f8:	000b0513          	mv	a0,s6
   129fc:	000b8593          	mv	a1,s7
   12a00:	6e00d0ef          	jal	ra,200e0 <__multf3>
   12a04:	00058a13          	mv	s4,a1
   12a08:	00050b13          	mv	s6,a0
   12a0c:	5c00e0ef          	jal	ra,20fcc <__fixtfsi>
   12a10:	00050a9b          	sext.w	s5,a0
   12a14:	6200e0ef          	jal	ra,21034 <__floatsitf>
   12a18:	00058693          	mv	a3,a1
   12a1c:	00050613          	mv	a2,a0
   12a20:	000a0593          	mv	a1,s4
   12a24:	000b0513          	mv	a0,s6
   12a28:	5d50d0ef          	jal	ra,207fc <__subtf3>
   12a2c:	015487b3          	add	a5,s1,s5
   12a30:	0007c683          	lbu	a3,0(a5)
   12a34:	00140c13          	addi	s8,s0,1
   12a38:	00050c93          	mv	s9,a0
   12a3c:	fedc0fa3          	sb	a3,-1(s8)
   12a40:	00058d13          	mv	s10,a1
   12a44:	00050b13          	mv	s6,a0
   12a48:	00058b93          	mv	s7,a1
   12a4c:	41898a3b          	subw	s4,s3,s8
   12a50:	f92c16e3          	bne	s8,s2,129dc <_vfprintf_r+0x1f00>
   12a54:	00040b13          	mv	s6,s0
   12a58:	02013903          	ld	s2,32(sp)
   12a5c:	09013483          	ld	s1,144(sp)
   12a60:	0a013a03          	ld	s4,160(sp)
   12a64:	09813403          	ld	s0,152(sp)
   12a68:	0b813c03          	ld	s8,184(sp)
   12a6c:	0c013b83          	ld	s7,192(sp)
   12a70:	0a813c83          	ld	s9,168(sp)
   12a74:	0b013d03          	ld	s10,176(sp)
   12a78:	0c813783          	ld	a5,200(sp)
   12a7c:	fff00713          	li	a4,-1
   12a80:	00050893          	mv	a7,a0
   12a84:	00058813          	mv	a6,a1
   12a88:	00070993          	mv	s3,a4
   12a8c:	08013683          	ld	a3,128(sp)
   12a90:	00000613          	li	a2,0
   12a94:	00088513          	mv	a0,a7
   12a98:	00080593          	mv	a1,a6
   12a9c:	02f13023          	sd	a5,32(sp)
   12aa0:	09113c23          	sd	a7,152(sp)
   12aa4:	09013823          	sd	a6,144(sp)
   12aa8:	4780d0ef          	jal	ra,1ff20 <__getf2>
   12aac:	02013783          	ld	a5,32(sp)
   12ab0:	32a04263          	bgtz	a0,12dd4 <_vfprintf_r+0x22f8>
   12ab4:	09813883          	ld	a7,152(sp)
   12ab8:	09013803          	ld	a6,144(sp)
   12abc:	08013683          	ld	a3,128(sp)
   12ac0:	00000613          	li	a2,0
   12ac4:	00088513          	mv	a0,a7
   12ac8:	00080593          	mv	a1,a6
   12acc:	3c80d0ef          	jal	ra,1fe94 <__eqtf2>
   12ad0:	02013783          	ld	a5,32(sp)
   12ad4:	00051663          	bnez	a0,12ae0 <_vfprintf_r+0x2004>
   12ad8:	001afa93          	andi	s5,s5,1
   12adc:	2e0a9c63          	bnez	s5,12dd4 <_vfprintf_r+0x22f8>
   12ae0:	00198693          	addi	a3,s3,1
   12ae4:	00d786b3          	add	a3,a5,a3
   12ae8:	03000613          	li	a2,48
   12aec:	0009d463          	bgez	s3,12af4 <_vfprintf_r+0x2018>
   12af0:	d6cfe06f          	j	1105c <_vfprintf_r+0x580>
   12af4:	00178793          	addi	a5,a5,1
   12af8:	fec78fa3          	sb	a2,-1(a5)
   12afc:	fef69ce3          	bne	a3,a5,12af4 <_vfprintf_r+0x2018>
   12b00:	d5cfe06f          	j	1105c <_vfprintf_r+0x580>
   12b04:	00040a93          	mv	s5,s0
   12b08:	cf5fe06f          	j	117fc <_vfprintf_r+0xd20>
   12b0c:	00070c93          	mv	s9,a4
   12b10:	02813b83          	ld	s7,40(sp)
   12b14:	02013703          	ld	a4,32(sp)
   12b18:	06813023          	sd	s0,96(sp)
   12b1c:	01813903          	ld	s2,24(sp)
   12b20:	00eb86b3          	add	a3,s7,a4
   12b24:	09013a03          	ld	s4,144(sp)
   12b28:	05013403          	ld	s0,80(sp)
   12b2c:	03013a83          	ld	s5,48(sp)
   12b30:	b7b6fa63          	bgeu	a3,s11,11ea4 <_vfprintf_r+0x13c8>
   12b34:	00068d93          	mv	s11,a3
   12b38:	b6cff06f          	j	11ea4 <_vfprintf_r+0x13c8>
   12b3c:	01813703          	ld	a4,24(sp)
   12b40:	ffd00793          	li	a5,-3
   12b44:	00f74463          	blt	a4,a5,12b4c <_vfprintf_r+0x2070>
   12b48:	0aedd863          	bge	s11,a4,12bf8 <_vfprintf_r+0x211c>
   12b4c:	ffe4849b          	addiw	s1,s1,-2
   12b50:	fdf4f793          	andi	a5,s1,-33
   12b54:	02f13423          	sd	a5,40(sp)
   12b58:	d34fe06f          	j	1108c <_vfprintf_r+0x5b0>
   12b5c:	0df14783          	lbu	a5,223(sp)
   12b60:	00000d93          	li	s11,0
   12b64:	00078463          	beqz	a5,12b6c <_vfprintf_r+0x2090>
   12b68:	b0cfe06f          	j	10e74 <_vfprintf_r+0x398>
   12b6c:	8e5fe06f          	j	11450 <_vfprintf_r+0x974>
   12b70:	0e810793          	addi	a5,sp,232
   12b74:	00300693          	li	a3,3
   12b78:	0f810893          	addi	a7,sp,248
   12b7c:	0ec10813          	addi	a6,sp,236
   12b80:	000d8713          	mv	a4,s11
   12b84:	000b0593          	mv	a1,s6
   12b88:	000a8613          	mv	a2,s5
   12b8c:	000d0513          	mv	a0,s10
   12b90:	390030ef          	jal	ra,15f20 <_ldtoa_r>
   12b94:	00054683          	lbu	a3,0(a0)
   12b98:	03000793          	li	a5,48
   12b9c:	00050b93          	mv	s7,a0
   12ba0:	12f68c63          	beq	a3,a5,12cd8 <_vfprintf_r+0x21fc>
   12ba4:	0e812783          	lw	a5,232(sp)
   12ba8:	01b787b3          	add	a5,a5,s11
   12bac:	00fb89b3          	add	s3,s7,a5
   12bb0:	00000613          	li	a2,0
   12bb4:	00000693          	li	a3,0
   12bb8:	000b0513          	mv	a0,s6
   12bbc:	000a8593          	mv	a1,s5
   12bc0:	2d40d0ef          	jal	ra,1fe94 <__eqtf2>
   12bc4:	00098793          	mv	a5,s3
   12bc8:	00051463          	bnez	a0,12bd0 <_vfprintf_r+0x20f4>
   12bcc:	c90fe06f          	j	1105c <_vfprintf_r+0x580>
   12bd0:	0f813783          	ld	a5,248(sp)
   12bd4:	03000613          	li	a2,48
   12bd8:	0137e463          	bltu	a5,s3,12be0 <_vfprintf_r+0x2104>
   12bdc:	c80fe06f          	j	1105c <_vfprintf_r+0x580>
   12be0:	00178713          	addi	a4,a5,1
   12be4:	0ee13c23          	sd	a4,248(sp)
   12be8:	00c78023          	sb	a2,0(a5)
   12bec:	0f813783          	ld	a5,248(sp)
   12bf0:	ff37e8e3          	bltu	a5,s3,12be0 <_vfprintf_r+0x2104>
   12bf4:	c68fe06f          	j	1105c <_vfprintf_r+0x580>
   12bf8:	02013783          	ld	a5,32(sp)
   12bfc:	01813703          	ld	a4,24(sp)
   12c00:	14f74e63          	blt	a4,a5,12d5c <_vfprintf_r+0x2280>
   12c04:	03013783          	ld	a5,48(sp)
   12c08:	00070b13          	mv	s6,a4
   12c0c:	0017f793          	andi	a5,a5,1
   12c10:	00078663          	beqz	a5,12c1c <_vfprintf_r+0x2140>
   12c14:	03813783          	ld	a5,56(sp)
   12c18:	00e78b3b          	addw	s6,a5,a4
   12c1c:	03013783          	ld	a5,48(sp)
   12c20:	4007f793          	andi	a5,a5,1024
   12c24:	00078663          	beqz	a5,12c30 <_vfprintf_r+0x2154>
   12c28:	01813783          	ld	a5,24(sp)
   12c2c:	30f04863          	bgtz	a5,12f3c <_vfprintf_r+0x2460>
   12c30:	fffb4a93          	not	s5,s6
   12c34:	43fada93          	srai	s5,s5,0x3f
   12c38:	015b7ab3          	and	s5,s6,s5
   12c3c:	000a8a9b          	sext.w	s5,s5
   12c40:	06700493          	li	s1,103
   12c44:	02013823          	sd	zero,48(sp)
   12c48:	02013423          	sd	zero,40(sp)
   12c4c:	d70fe06f          	j	111bc <_vfprintf_r+0x6e0>
   12c50:	00013823          	sd	zero,16(sp)
   12c54:	00078413          	mv	s0,a5
   12c58:	fff00793          	li	a5,-1
   12c5c:	03f79793          	slli	a5,a5,0x3f
   12c60:	00facab3          	xor	s5,s5,a5
   12c64:	02d00793          	li	a5,45
   12c68:	04f13823          	sd	a5,80(sp)
   12c6c:	cb5ff06f          	j	12920 <_vfprintf_r+0x1e44>
   12c70:	11010613          	addi	a2,sp,272
   12c74:	000c0593          	mv	a1,s8
   12c78:	000d0513          	mv	a0,s10
   12c7c:	075090ef          	jal	ra,1c4f0 <__sprint_r>
   12c80:	00050463          	beqz	a0,12c88 <_vfprintf_r+0x21ac>
   12c84:	8e8fe06f          	j	10d6c <_vfprintf_r+0x290>
   12c88:	00044603          	lbu	a2,0(s0)
   12c8c:	12013783          	ld	a5,288(sp)
   12c90:	19010713          	addi	a4,sp,400
   12c94:	00700893          	li	a7,7
   12c98:	00cd8db3          	add	s11,s11,a2
   12c9c:	9d9ff06f          	j	12674 <_vfprintf_r+0x1b98>
   12ca0:	11010613          	addi	a2,sp,272
   12ca4:	000c0593          	mv	a1,s8
   12ca8:	000d0513          	mv	a0,s10
   12cac:	045090ef          	jal	ra,1c4f0 <__sprint_r>
   12cb0:	00050463          	beqz	a0,12cb8 <_vfprintf_r+0x21dc>
   12cb4:	8b8fe06f          	j	10d6c <_vfprintf_r+0x290>
   12cb8:	0e812483          	lw	s1,232(sp)
   12cbc:	12013783          	ld	a5,288(sp)
   12cc0:	19010c93          	addi	s9,sp,400
   12cc4:	a24ff06f          	j	11ee8 <_vfprintf_r+0x140c>
   12cc8:	02d00793          	li	a5,45
   12ccc:	0cf10fa3          	sb	a5,223(sp)
   12cd0:	02d00793          	li	a5,45
   12cd4:	efcff06f          	j	123d0 <_vfprintf_r+0x18f4>
   12cd8:	00000613          	li	a2,0
   12cdc:	00000693          	li	a3,0
   12ce0:	000b0513          	mv	a0,s6
   12ce4:	000a8593          	mv	a1,s5
   12ce8:	1ac0d0ef          	jal	ra,1fe94 <__eqtf2>
   12cec:	ea050ce3          	beqz	a0,12ba4 <_vfprintf_r+0x20c8>
   12cf0:	00100693          	li	a3,1
   12cf4:	41b687bb          	subw	a5,a3,s11
   12cf8:	0ef12423          	sw	a5,232(sp)
   12cfc:	eadff06f          	j	12ba8 <_vfprintf_r+0x20cc>
   12d00:	0df14783          	lbu	a5,223(sp)
   12d04:	01313423          	sd	s3,8(sp)
   12d08:	02013823          	sd	zero,48(sp)
   12d0c:	02013423          	sd	zero,40(sp)
   12d10:	00013c23          	sd	zero,24(sp)
   12d14:	000d8a93          	mv	s5,s11
   12d18:	000d8b13          	mv	s6,s11
   12d1c:	00000d93          	li	s11,0
   12d20:	00078463          	beqz	a5,12d28 <_vfprintf_r+0x224c>
   12d24:	950fe06f          	j	10e74 <_vfprintf_r+0x398>
   12d28:	f28fe06f          	j	11450 <_vfprintf_r+0x974>
   12d2c:	11010613          	addi	a2,sp,272
   12d30:	000c0593          	mv	a1,s8
   12d34:	000d0513          	mv	a0,s10
   12d38:	7b8090ef          	jal	ra,1c4f0 <__sprint_r>
   12d3c:	00050463          	beqz	a0,12d44 <_vfprintf_r+0x2268>
   12d40:	82cfe06f          	j	10d6c <_vfprintf_r+0x290>
   12d44:	0e812603          	lw	a2,232(sp)
   12d48:	02013703          	ld	a4,32(sp)
   12d4c:	12013783          	ld	a5,288(sp)
   12d50:	19010c93          	addi	s9,sp,400
   12d54:	40c7063b          	subw	a2,a4,a2
   12d58:	9d8ff06f          	j	11f30 <_vfprintf_r+0x1454>
   12d5c:	02013703          	ld	a4,32(sp)
   12d60:	03813783          	ld	a5,56(sp)
   12d64:	06700493          	li	s1,103
   12d68:	00e78b3b          	addw	s6,a5,a4
   12d6c:	01813703          	ld	a4,24(sp)
   12d70:	30e05463          	blez	a4,13078 <_vfprintf_r+0x259c>
   12d74:	03013783          	ld	a5,48(sp)
   12d78:	4007f793          	andi	a5,a5,1024
   12d7c:	1c079263          	bnez	a5,12f40 <_vfprintf_r+0x2464>
   12d80:	fffb4a93          	not	s5,s6
   12d84:	43fada93          	srai	s5,s5,0x3f
   12d88:	015b7ab3          	and	s5,s6,s5
   12d8c:	000a8a9b          	sext.w	s5,s5
   12d90:	eb5ff06f          	j	12c44 <_vfprintf_r+0x2168>
   12d94:	03013783          	ld	a5,48(sp)
   12d98:	01813703          	ld	a4,24(sp)
   12d9c:	0017f793          	andi	a5,a5,1
   12da0:	00fde7b3          	or	a5,s11,a5
   12da4:	0007879b          	sext.w	a5,a5
   12da8:	30e05c63          	blez	a4,130c0 <_vfprintf_r+0x25e4>
   12dac:	2a079263          	bnez	a5,13050 <_vfprintf_r+0x2574>
   12db0:	01813b03          	ld	s6,24(sp)
   12db4:	06600493          	li	s1,102
   12db8:	fbdff06f          	j	12d74 <_vfprintf_r+0x2298>
   12dbc:	00021737          	lui	a4,0x21
   12dc0:	7c070b93          	addi	s7,a4,1984 # 217c0 <zeroes.4548+0x58>
   12dc4:	e1cff06f          	j	123e0 <_vfprintf_r+0x1904>
   12dc8:	fff00793          	li	a5,-1
   12dcc:	00f13023          	sd	a5,0(sp)
   12dd0:	fbdfd06f          	j	10d8c <_vfprintf_r+0x2b0>
   12dd4:	01813703          	ld	a4,24(sp)
   12dd8:	0f613c23          	sd	s6,248(sp)
   12ddc:	fff7c603          	lbu	a2,-1(a5)
   12de0:	00f74583          	lbu	a1,15(a4)
   12de4:	00078693          	mv	a3,a5
   12de8:	02b61063          	bne	a2,a1,12e08 <_vfprintf_r+0x232c>
   12dec:	03000513          	li	a0,48
   12df0:	fea68fa3          	sb	a0,-1(a3)
   12df4:	0f813683          	ld	a3,248(sp)
   12df8:	fff68713          	addi	a4,a3,-1
   12dfc:	0ee13c23          	sd	a4,248(sp)
   12e00:	fff6c603          	lbu	a2,-1(a3)
   12e04:	feb606e3          	beq	a2,a1,12df0 <_vfprintf_r+0x2314>
   12e08:	0016059b          	addiw	a1,a2,1
   12e0c:	03900513          	li	a0,57
   12e10:	0ff5f593          	andi	a1,a1,255
   12e14:	00a60663          	beq	a2,a0,12e20 <_vfprintf_r+0x2344>
   12e18:	feb68fa3          	sb	a1,-1(a3)
   12e1c:	a40fe06f          	j	1105c <_vfprintf_r+0x580>
   12e20:	01813703          	ld	a4,24(sp)
   12e24:	00a74583          	lbu	a1,10(a4)
   12e28:	feb68fa3          	sb	a1,-1(a3)
   12e2c:	a30fe06f          	j	1105c <_vfprintf_r+0x580>
   12e30:	001d859b          	addiw	a1,s11,1
   12e34:	000d0513          	mv	a0,s10
   12e38:	760040ef          	jal	ra,17598 <_malloc_r>
   12e3c:	00050b93          	mv	s7,a0
   12e40:	2e050c63          	beqz	a0,13138 <_vfprintf_r+0x265c>
   12e44:	00a13823          	sd	a0,16(sp)
   12e48:	ab9ff06f          	j	12900 <_vfprintf_r+0x1e24>
   12e4c:	03000793          	li	a5,48
   12e50:	0ef10023          	sb	a5,224(sp)
   12e54:	07800713          	li	a4,120
   12e58:	a89ff06f          	j	128e0 <_vfprintf_r+0x1e04>
   12e5c:	000c8813          	mv	a6,s9
   12e60:	0016869b          	addiw	a3,a3,1
   12e64:	009787b3          	add	a5,a5,s1
   12e68:	01033023          	sd	a6,0(t1)
   12e6c:	00933423          	sd	s1,8(t1)
   12e70:	12f13023          	sd	a5,288(sp)
   12e74:	10d12c23          	sw	a3,280(sp)
   12e78:	00700613          	li	a2,7
   12e7c:	01030313          	addi	t1,t1,16
   12e80:	c4d65463          	bge	a2,a3,122c8 <_vfprintf_r+0x17ec>
   12e84:	11010613          	addi	a2,sp,272
   12e88:	000c0593          	mv	a1,s8
   12e8c:	000d0513          	mv	a0,s10
   12e90:	660090ef          	jal	ra,1c4f0 <__sprint_r>
   12e94:	00050463          	beqz	a0,12e9c <_vfprintf_r+0x23c0>
   12e98:	ed5fd06f          	j	10d6c <_vfprintf_r+0x290>
   12e9c:	12013783          	ld	a5,288(sp)
   12ea0:	11812683          	lw	a3,280(sp)
   12ea4:	19010313          	addi	t1,sp,400
   12ea8:	c20ff06f          	j	122c8 <_vfprintf_r+0x17ec>
   12eac:	001d899b          	addiw	s3,s11,1
   12eb0:	00098713          	mv	a4,s3
   12eb4:	0f810893          	addi	a7,sp,248
   12eb8:	0ec10813          	addi	a6,sp,236
   12ebc:	0e810793          	addi	a5,sp,232
   12ec0:	00200693          	li	a3,2
   12ec4:	000b0593          	mv	a1,s6
   12ec8:	000a8613          	mv	a2,s5
   12ecc:	000d0513          	mv	a0,s10
   12ed0:	050030ef          	jal	ra,15f20 <_ldtoa_r>
   12ed4:	00050b93          	mv	s7,a0
   12ed8:	013b89b3          	add	s3,s7,s3
   12edc:	cd5ff06f          	j	12bb0 <_vfprintf_r+0x20d4>
   12ee0:	00f72023          	sw	a5,0(a4)
   12ee4:	00090b93          	mv	s7,s2
   12ee8:	e8cfe06f          	j	11574 <_vfprintf_r+0xa98>
   12eec:	000a0993          	mv	s3,s4
   12ef0:	00040b13          	mv	s6,s0
   12ef4:	000c0793          	mv	a5,s8
   12ef8:	000c8893          	mv	a7,s9
   12efc:	000d0813          	mv	a6,s10
   12f00:	02013903          	ld	s2,32(sp)
   12f04:	09013483          	ld	s1,144(sp)
   12f08:	0a013a03          	ld	s4,160(sp)
   12f0c:	09813403          	ld	s0,152(sp)
   12f10:	0b813c03          	ld	s8,184(sp)
   12f14:	0c013b83          	ld	s7,192(sp)
   12f18:	0a813c83          	ld	s9,168(sp)
   12f1c:	0b013d03          	ld	s10,176(sp)
   12f20:	b6dff06f          	j	12a8c <_vfprintf_r+0x1fb0>
   12f24:	000d8463          	beqz	s11,12f2c <_vfprintf_r+0x2450>
   12f28:	8a0fe06f          	j	10fc8 <_vfprintf_r+0x4ec>
   12f2c:	00100d93          	li	s11,1
   12f30:	898fe06f          	j	10fc8 <_vfprintf_r+0x4ec>
   12f34:	00600d93          	li	s11,6
   12f38:	890fe06f          	j	10fc8 <_vfprintf_r+0x4ec>
   12f3c:	06700493          	li	s1,103
   12f40:	06013503          	ld	a0,96(sp)
   12f44:	01813703          	ld	a4,24(sp)
   12f48:	02013823          	sd	zero,48(sp)
   12f4c:	00054783          	lbu	a5,0(a0)
   12f50:	02013423          	sd	zero,40(sp)
   12f54:	0ff00593          	li	a1,255
   12f58:	04b78063          	beq	a5,a1,12f98 <_vfprintf_r+0x24bc>
   12f5c:	0007869b          	sext.w	a3,a5
   12f60:	02e6dc63          	bge	a3,a4,12f98 <_vfprintf_r+0x24bc>
   12f64:	00154603          	lbu	a2,1(a0)
   12f68:	40d7073b          	subw	a4,a4,a3
   12f6c:	00060e63          	beqz	a2,12f88 <_vfprintf_r+0x24ac>
   12f70:	02813783          	ld	a5,40(sp)
   12f74:	00150513          	addi	a0,a0,1
   12f78:	0017879b          	addiw	a5,a5,1
   12f7c:	02f13423          	sd	a5,40(sp)
   12f80:	00060793          	mv	a5,a2
   12f84:	fd5ff06f          	j	12f58 <_vfprintf_r+0x247c>
   12f88:	03013683          	ld	a3,48(sp)
   12f8c:	0016869b          	addiw	a3,a3,1
   12f90:	02d13823          	sd	a3,48(sp)
   12f94:	fc5ff06f          	j	12f58 <_vfprintf_r+0x247c>
   12f98:	00e13c23          	sd	a4,24(sp)
   12f9c:	02813783          	ld	a5,40(sp)
   12fa0:	03013703          	ld	a4,48(sp)
   12fa4:	06a13023          	sd	a0,96(sp)
   12fa8:	00e787bb          	addw	a5,a5,a4
   12fac:	06813703          	ld	a4,104(sp)
   12fb0:	b0e7f78b          	custom0.madd.s	a5,a5,a4,s6
   12fb4:	00078b1b          	sext.w	s6,a5
   12fb8:	fffb4a93          	not	s5,s6
   12fbc:	43fada93          	srai	s5,s5,0x3f
   12fc0:	0157f7b3          	and	a5,a5,s5
   12fc4:	00078a9b          	sext.w	s5,a5
   12fc8:	9f4fe06f          	j	111bc <_vfprintf_r+0x6e0>
   12fcc:	0f210793          	addi	a5,sp,242
   12fd0:	00069863          	bnez	a3,12fe0 <_vfprintf_r+0x2504>
   12fd4:	03000793          	li	a5,48
   12fd8:	0ef10923          	sb	a5,242(sp)
   12fdc:	0f310793          	addi	a5,sp,243
   12fe0:	21010713          	addi	a4,sp,528
   12fe4:	030a8a9b          	addiw	s5,s5,48
   12fe8:	40e786b3          	sub	a3,a5,a4
   12fec:	01578023          	sb	s5,0(a5)
   12ff0:	1216879b          	addiw	a5,a3,289
   12ff4:	04f13c23          	sd	a5,88(sp)
   12ff8:	974fe06f          	j	1116c <_vfprintf_r+0x690>
   12ffc:	000b0513          	mv	a0,s6
   13000:	000a8593          	mv	a1,s5
   13004:	1b40e0ef          	jal	ra,211b8 <__trunctfdf2>
   13008:	0e810593          	addi	a1,sp,232
   1300c:	7e8060ef          	jal	ra,197f4 <frexp>
   13010:	0b40e0ef          	jal	ra,210c4 <__extenddftf2>
   13014:	08813683          	ld	a3,136(sp)
   13018:	00000613          	li	a2,0
   1301c:	0c40d0ef          	jal	ra,200e0 <__multf3>
   13020:	00000613          	li	a2,0
   13024:	00000693          	li	a3,0
   13028:	00050b13          	mv	s6,a0
   1302c:	00058993          	mv	s3,a1
   13030:	6650c0ef          	jal	ra,1fe94 <__eqtf2>
   13034:	00051663          	bnez	a0,13040 <_vfprintf_r+0x2564>
   13038:	00100793          	li	a5,1
   1303c:	0ef12423          	sw	a5,232(sp)
   13040:	000217b7          	lui	a5,0x21
   13044:	7d078793          	addi	a5,a5,2000 # 217d0 <zeroes.4548+0x68>
   13048:	00f13c23          	sd	a5,24(sp)
   1304c:	93dff06f          	j	12988 <_vfprintf_r+0x1eac>
   13050:	03813783          	ld	a5,56(sp)
   13054:	06600493          	li	s1,102
   13058:	00e78b3b          	addw	s6,a5,a4
   1305c:	01bb0b3b          	addw	s6,s6,s11
   13060:	d15ff06f          	j	12d74 <_vfprintf_r+0x2298>
   13064:	03013703          	ld	a4,48(sp)
   13068:	00177693          	andi	a3,a4,1
   1306c:	00069463          	bnez	a3,13074 <_vfprintf_r+0x2598>
   13070:	920fe06f          	j	11190 <_vfprintf_r+0x6b4>
   13074:	914fe06f          	j	11188 <_vfprintf_r+0x6ac>
   13078:	40eb07bb          	subw	a5,s6,a4
   1307c:	0017879b          	addiw	a5,a5,1
   13080:	00078b1b          	sext.w	s6,a5
   13084:	fffb4a93          	not	s5,s6
   13088:	43fada93          	srai	s5,s5,0x3f
   1308c:	0157f7b3          	and	a5,a5,s5
   13090:	00078a9b          	sext.w	s5,a5
   13094:	bb1ff06f          	j	12c44 <_vfprintf_r+0x2168>
   13098:	01813783          	ld	a5,24(sp)
   1309c:	00100a93          	li	s5,1
   130a0:	40fa8abb          	subw	s5,s5,a5
   130a4:	02d00793          	li	a5,45
   130a8:	0ef108a3          	sb	a5,241(sp)
   130ac:	820fe06f          	j	110cc <_vfprintf_r+0x5f0>
   130b0:	00021837          	lui	a6,0x21
   130b4:	000c8713          	mv	a4,s9
   130b8:	76880813          	addi	a6,a6,1896 # 21768 <zeroes.4548>
   130bc:	804ff06f          	j	120c0 <_vfprintf_r+0x15e4>
   130c0:	00079a63          	bnez	a5,130d4 <_vfprintf_r+0x25f8>
   130c4:	00100a93          	li	s5,1
   130c8:	06600493          	li	s1,102
   130cc:	00100b13          	li	s6,1
   130d0:	b75ff06f          	j	12c44 <_vfprintf_r+0x2168>
   130d4:	03813783          	ld	a5,56(sp)
   130d8:	06600493          	li	s1,102
   130dc:	0017879b          	addiw	a5,a5,1
   130e0:	01b78e3b          	addw	t3,a5,s11
   130e4:	000e0b1b          	sext.w	s6,t3
   130e8:	fffb4a93          	not	s5,s6
   130ec:	43fada93          	srai	s5,s5,0x3f
   130f0:	015e7e33          	and	t3,t3,s5
   130f4:	000e0a9b          	sext.w	s5,t3
   130f8:	b4dff06f          	j	12c44 <_vfprintf_r+0x2168>
   130fc:	00813783          	ld	a5,8(sp)
   13100:	0007ad83          	lw	s11,0(a5)
   13104:	00878793          	addi	a5,a5,8
   13108:	000dd463          	bgez	s11,13110 <_vfprintf_r+0x2634>
   1310c:	fff00d93          	li	s11,-1
   13110:	00194483          	lbu	s1,1(s2)
   13114:	00f13423          	sd	a5,8(sp)
   13118:	00070913          	mv	s2,a4
   1311c:	b8dfd06f          	j	10ca8 <_vfprintf_r+0x1cc>
   13120:	000d8993          	mv	s3,s11
   13124:	013b89b3          	add	s3,s7,s3
   13128:	a89ff06f          	j	12bb0 <_vfprintf_r+0x20d4>
   1312c:	00200793          	li	a5,2
   13130:	04f13c23          	sd	a5,88(sp)
   13134:	838fe06f          	j	1116c <_vfprintf_r+0x690>
   13138:	010c5783          	lhu	a5,16(s8)
   1313c:	0407e793          	ori	a5,a5,64
   13140:	00fc1823          	sh	a5,16(s8)
   13144:	c39fd06f          	j	10d7c <_vfprintf_r+0x2a0>

0000000000013148 <vfprintf>:
   13148:	00060693          	mv	a3,a2
   1314c:	00058613          	mv	a2,a1
   13150:	00050593          	mv	a1,a0
   13154:	7181b503          	ld	a0,1816(gp) # 24478 <_impure_ptr>
   13158:	985fd06f          	j	10adc <_vfprintf_r>

000000000001315c <__sbprintf>:
   1315c:	0105d783          	lhu	a5,16(a1)
   13160:	0ac5ae03          	lw	t3,172(a1)
   13164:	0125d303          	lhu	t1,18(a1)
   13168:	0305b883          	ld	a7,48(a1)
   1316c:	0405b803          	ld	a6,64(a1)
   13170:	b3010113          	addi	sp,sp,-1232
   13174:	ffd7f793          	andi	a5,a5,-3
   13178:	40000713          	li	a4,1024
   1317c:	4c813023          	sd	s0,1216(sp)
   13180:	00f11823          	sh	a5,16(sp)
   13184:	00058413          	mv	s0,a1
   13188:	0b010793          	addi	a5,sp,176
   1318c:	00010593          	mv	a1,sp
   13190:	4a913c23          	sd	s1,1208(sp)
   13194:	4b213823          	sd	s2,1200(sp)
   13198:	4c113423          	sd	ra,1224(sp)
   1319c:	00050913          	mv	s2,a0
   131a0:	0bc12623          	sw	t3,172(sp)
   131a4:	00611923          	sh	t1,18(sp)
   131a8:	03113823          	sd	a7,48(sp)
   131ac:	05013023          	sd	a6,64(sp)
   131b0:	00f13023          	sd	a5,0(sp)
   131b4:	00f13c23          	sd	a5,24(sp)
   131b8:	00e12623          	sw	a4,12(sp)
   131bc:	02e12023          	sw	a4,32(sp)
   131c0:	02012423          	sw	zero,40(sp)
   131c4:	919fd0ef          	jal	ra,10adc <_vfprintf_r>
   131c8:	00050493          	mv	s1,a0
   131cc:	02055c63          	bgez	a0,13204 <__sbprintf+0xa8>
   131d0:	01015783          	lhu	a5,16(sp)
   131d4:	0407f793          	andi	a5,a5,64
   131d8:	00078863          	beqz	a5,131e8 <__sbprintf+0x8c>
   131dc:	01045783          	lhu	a5,16(s0)
   131e0:	0407e793          	ori	a5,a5,64
   131e4:	00f41823          	sh	a5,16(s0)
   131e8:	4c813083          	ld	ra,1224(sp)
   131ec:	4c013403          	ld	s0,1216(sp)
   131f0:	00048513          	mv	a0,s1
   131f4:	4b013903          	ld	s2,1200(sp)
   131f8:	4b813483          	ld	s1,1208(sp)
   131fc:	4d010113          	addi	sp,sp,1232
   13200:	00008067          	ret
   13204:	00010593          	mv	a1,sp
   13208:	00090513          	mv	a0,s2
   1320c:	598000ef          	jal	ra,137a4 <_fflush_r>
   13210:	fc0500e3          	beqz	a0,131d0 <__sbprintf+0x74>
   13214:	fff00493          	li	s1,-1
   13218:	fb9ff06f          	j	131d0 <__sbprintf+0x74>

000000000001321c <__swsetup_r>:
   1321c:	7181b783          	ld	a5,1816(gp) # 24478 <_impure_ptr>
   13220:	fe010113          	addi	sp,sp,-32
   13224:	00813823          	sd	s0,16(sp)
   13228:	00913423          	sd	s1,8(sp)
   1322c:	00113c23          	sd	ra,24(sp)
   13230:	00050493          	mv	s1,a0
   13234:	00058413          	mv	s0,a1
   13238:	00078663          	beqz	a5,13244 <__swsetup_r+0x28>
   1323c:	0507a703          	lw	a4,80(a5)
   13240:	08070663          	beqz	a4,132cc <__swsetup_r+0xb0>
   13244:	01041703          	lh	a4,16(s0)
   13248:	03071793          	slli	a5,a4,0x30
   1324c:	0307d793          	srli	a5,a5,0x30
   13250:	0087f693          	andi	a3,a5,8
   13254:	08068a63          	beqz	a3,132e8 <__swsetup_r+0xcc>
   13258:	01843683          	ld	a3,24(s0)
   1325c:	0a068a63          	beqz	a3,13310 <__swsetup_r+0xf4>
   13260:	0017f713          	andi	a4,a5,1
   13264:	02070863          	beqz	a4,13294 <__swsetup_r+0x78>
   13268:	02042783          	lw	a5,32(s0)
   1326c:	00042623          	sw	zero,12(s0)
   13270:	00000513          	li	a0,0
   13274:	40f007bb          	negw	a5,a5
   13278:	02f42423          	sw	a5,40(s0)
   1327c:	02068a63          	beqz	a3,132b0 <__swsetup_r+0x94>
   13280:	01813083          	ld	ra,24(sp)
   13284:	01013403          	ld	s0,16(sp)
   13288:	00813483          	ld	s1,8(sp)
   1328c:	02010113          	addi	sp,sp,32
   13290:	00008067          	ret
   13294:	0027f793          	andi	a5,a5,2
   13298:	00000713          	li	a4,0
   1329c:	00079463          	bnez	a5,132a4 <__swsetup_r+0x88>
   132a0:	02042703          	lw	a4,32(s0)
   132a4:	00e42623          	sw	a4,12(s0)
   132a8:	00000513          	li	a0,0
   132ac:	fc069ae3          	bnez	a3,13280 <__swsetup_r+0x64>
   132b0:	01041783          	lh	a5,16(s0)
   132b4:	0807f713          	andi	a4,a5,128
   132b8:	fc0704e3          	beqz	a4,13280 <__swsetup_r+0x64>
   132bc:	0407e793          	ori	a5,a5,64
   132c0:	00f41823          	sh	a5,16(s0)
   132c4:	fff00513          	li	a0,-1
   132c8:	fb9ff06f          	j	13280 <__swsetup_r+0x64>
   132cc:	00078513          	mv	a0,a5
   132d0:	06d000ef          	jal	ra,13b3c <__sinit>
   132d4:	01041703          	lh	a4,16(s0)
   132d8:	03071793          	slli	a5,a4,0x30
   132dc:	0307d793          	srli	a5,a5,0x30
   132e0:	0087f693          	andi	a3,a5,8
   132e4:	f6069ae3          	bnez	a3,13258 <__swsetup_r+0x3c>
   132e8:	0107f693          	andi	a3,a5,16
   132ec:	06068e63          	beqz	a3,13368 <__swsetup_r+0x14c>
   132f0:	0047f793          	andi	a5,a5,4
   132f4:	04079063          	bnez	a5,13334 <__swsetup_r+0x118>
   132f8:	01843683          	ld	a3,24(s0)
   132fc:	00876793          	ori	a5,a4,8
   13300:	00f41823          	sh	a5,16(s0)
   13304:	03079793          	slli	a5,a5,0x30
   13308:	0307d793          	srli	a5,a5,0x30
   1330c:	f4069ae3          	bnez	a3,13260 <__swsetup_r+0x44>
   13310:	2807f713          	andi	a4,a5,640
   13314:	20000613          	li	a2,512
   13318:	f4c704e3          	beq	a4,a2,13260 <__swsetup_r+0x44>
   1331c:	00040593          	mv	a1,s0
   13320:	00048513          	mv	a0,s1
   13324:	154040ef          	jal	ra,17478 <__smakebuf_r>
   13328:	01045783          	lhu	a5,16(s0)
   1332c:	01843683          	ld	a3,24(s0)
   13330:	f31ff06f          	j	13260 <__swsetup_r+0x44>
   13334:	05843583          	ld	a1,88(s0)
   13338:	00058e63          	beqz	a1,13354 <__swsetup_r+0x138>
   1333c:	07440793          	addi	a5,s0,116
   13340:	00f58863          	beq	a1,a5,13350 <__swsetup_r+0x134>
   13344:	00048513          	mv	a0,s1
   13348:	161000ef          	jal	ra,13ca8 <_free_r>
   1334c:	01041703          	lh	a4,16(s0)
   13350:	04043c23          	sd	zero,88(s0)
   13354:	01843683          	ld	a3,24(s0)
   13358:	fdb77713          	andi	a4,a4,-37
   1335c:	00042423          	sw	zero,8(s0)
   13360:	00d43023          	sd	a3,0(s0)
   13364:	f99ff06f          	j	132fc <__swsetup_r+0xe0>
   13368:	00900793          	li	a5,9
   1336c:	00f4a023          	sw	a5,0(s1)
   13370:	04076713          	ori	a4,a4,64
   13374:	00e41823          	sh	a4,16(s0)
   13378:	fff00513          	li	a0,-1
   1337c:	f05ff06f          	j	13280 <__swsetup_r+0x64>

0000000000013380 <__register_exitproc>:
   13380:	7081b703          	ld	a4,1800(gp) # 24468 <_global_impure_ptr>
   13384:	1f873783          	ld	a5,504(a4)
   13388:	06078063          	beqz	a5,133e8 <__register_exitproc+0x68>
   1338c:	0087a703          	lw	a4,8(a5)
   13390:	01f00813          	li	a6,31
   13394:	08e84663          	blt	a6,a4,13420 <__register_exitproc+0xa0>
   13398:	02050863          	beqz	a0,133c8 <__register_exitproc+0x48>
   1339c:	00371813          	slli	a6,a4,0x3
   133a0:	01078833          	add	a6,a5,a6
   133a4:	10c83823          	sd	a2,272(a6)
   133a8:	3107a883          	lw	a7,784(a5)
   133ac:	00100613          	li	a2,1
   133b0:	00e6163b          	sllw	a2,a2,a4
   133b4:	00c8e8b3          	or	a7,a7,a2
   133b8:	3117a823          	sw	a7,784(a5)
   133bc:	20d83823          	sd	a3,528(a6)
   133c0:	00200693          	li	a3,2
   133c4:	02d50863          	beq	a0,a3,133f4 <__register_exitproc+0x74>
   133c8:	00270693          	addi	a3,a4,2
   133cc:	00369693          	slli	a3,a3,0x3
   133d0:	0017071b          	addiw	a4,a4,1
   133d4:	00e7a423          	sw	a4,8(a5)
   133d8:	00d787b3          	add	a5,a5,a3
   133dc:	00b7b023          	sd	a1,0(a5)
   133e0:	00000513          	li	a0,0
   133e4:	00008067          	ret
   133e8:	20070793          	addi	a5,a4,512
   133ec:	1ef73c23          	sd	a5,504(a4)
   133f0:	f9dff06f          	j	1338c <__register_exitproc+0xc>
   133f4:	3147a683          	lw	a3,788(a5)
   133f8:	00000513          	li	a0,0
   133fc:	00c6e633          	or	a2,a3,a2
   13400:	00270693          	addi	a3,a4,2
   13404:	00369693          	slli	a3,a3,0x3
   13408:	0017071b          	addiw	a4,a4,1
   1340c:	30c7aa23          	sw	a2,788(a5)
   13410:	00e7a423          	sw	a4,8(a5)
   13414:	00d787b3          	add	a5,a5,a3
   13418:	00b7b023          	sd	a1,0(a5)
   1341c:	00008067          	ret
   13420:	fff00513          	li	a0,-1
   13424:	00008067          	ret

0000000000013428 <__call_exitprocs>:
   13428:	fb010113          	addi	sp,sp,-80
   1342c:	01813023          	sd	s8,0(sp)
   13430:	7081bc03          	ld	s8,1800(gp) # 24468 <_global_impure_ptr>
   13434:	03313423          	sd	s3,40(sp)
   13438:	03413023          	sd	s4,32(sp)
   1343c:	01513c23          	sd	s5,24(sp)
   13440:	01613823          	sd	s6,16(sp)
   13444:	04113423          	sd	ra,72(sp)
   13448:	04813023          	sd	s0,64(sp)
   1344c:	02913c23          	sd	s1,56(sp)
   13450:	03213823          	sd	s2,48(sp)
   13454:	01713423          	sd	s7,8(sp)
   13458:	00050a93          	mv	s5,a0
   1345c:	00058b13          	mv	s6,a1
   13460:	00100a13          	li	s4,1
   13464:	fff00993          	li	s3,-1
   13468:	1f8c3903          	ld	s2,504(s8)
   1346c:	02090863          	beqz	s2,1349c <__call_exitprocs+0x74>
   13470:	00892483          	lw	s1,8(s2)
   13474:	fff4841b          	addiw	s0,s1,-1
   13478:	02044263          	bltz	s0,1349c <__call_exitprocs+0x74>
   1347c:	00349493          	slli	s1,s1,0x3
   13480:	009904b3          	add	s1,s2,s1
   13484:	040b0463          	beqz	s6,134cc <__call_exitprocs+0xa4>
   13488:	2084b783          	ld	a5,520(s1)
   1348c:	05678063          	beq	a5,s6,134cc <__call_exitprocs+0xa4>
   13490:	fff4041b          	addiw	s0,s0,-1
   13494:	ff848493          	addi	s1,s1,-8
   13498:	ff3416e3          	bne	s0,s3,13484 <__call_exitprocs+0x5c>
   1349c:	04813083          	ld	ra,72(sp)
   134a0:	04013403          	ld	s0,64(sp)
   134a4:	03813483          	ld	s1,56(sp)
   134a8:	03013903          	ld	s2,48(sp)
   134ac:	02813983          	ld	s3,40(sp)
   134b0:	02013a03          	ld	s4,32(sp)
   134b4:	01813a83          	ld	s5,24(sp)
   134b8:	01013b03          	ld	s6,16(sp)
   134bc:	00813b83          	ld	s7,8(sp)
   134c0:	00013c03          	ld	s8,0(sp)
   134c4:	05010113          	addi	sp,sp,80
   134c8:	00008067          	ret
   134cc:	00892783          	lw	a5,8(s2)
   134d0:	0084b703          	ld	a4,8(s1)
   134d4:	fff7879b          	addiw	a5,a5,-1
   134d8:	04878e63          	beq	a5,s0,13534 <__call_exitprocs+0x10c>
   134dc:	0004b423          	sd	zero,8(s1)
   134e0:	fa0708e3          	beqz	a4,13490 <__call_exitprocs+0x68>
   134e4:	31092783          	lw	a5,784(s2)
   134e8:	008a16bb          	sllw	a3,s4,s0
   134ec:	00892b83          	lw	s7,8(s2)
   134f0:	00d7f7b3          	and	a5,a5,a3
   134f4:	0007879b          	sext.w	a5,a5
   134f8:	00079e63          	bnez	a5,13514 <__call_exitprocs+0xec>
   134fc:	000700e7          	jalr	a4
   13500:	00892783          	lw	a5,8(s2)
   13504:	f77792e3          	bne	a5,s7,13468 <__call_exitprocs+0x40>
   13508:	1f8c3783          	ld	a5,504(s8)
   1350c:	f92782e3          	beq	a5,s2,13490 <__call_exitprocs+0x68>
   13510:	f59ff06f          	j	13468 <__call_exitprocs+0x40>
   13514:	31492783          	lw	a5,788(s2)
   13518:	1084b583          	ld	a1,264(s1)
   1351c:	00d7f7b3          	and	a5,a5,a3
   13520:	0007879b          	sext.w	a5,a5
   13524:	00079c63          	bnez	a5,1353c <__call_exitprocs+0x114>
   13528:	000a8513          	mv	a0,s5
   1352c:	000700e7          	jalr	a4
   13530:	fd1ff06f          	j	13500 <__call_exitprocs+0xd8>
   13534:	00892423          	sw	s0,8(s2)
   13538:	fa9ff06f          	j	134e0 <__call_exitprocs+0xb8>
   1353c:	00058513          	mv	a0,a1
   13540:	000700e7          	jalr	a4
   13544:	fbdff06f          	j	13500 <__call_exitprocs+0xd8>

0000000000013548 <__sflush_r>:
   13548:	01059783          	lh	a5,16(a1)
   1354c:	fd010113          	addi	sp,sp,-48
   13550:	02813023          	sd	s0,32(sp)
   13554:	03079713          	slli	a4,a5,0x30
   13558:	03075713          	srli	a4,a4,0x30
   1355c:	01313423          	sd	s3,8(sp)
   13560:	02113423          	sd	ra,40(sp)
   13564:	00913c23          	sd	s1,24(sp)
   13568:	01213823          	sd	s2,16(sp)
   1356c:	00877693          	andi	a3,a4,8
   13570:	00058413          	mv	s0,a1
   13574:	00050993          	mv	s3,a0
   13578:	10069a63          	bnez	a3,1368c <__sflush_r+0x144>
   1357c:	00001737          	lui	a4,0x1
   13580:	80070713          	addi	a4,a4,-2048 # 800 <register_fini-0xf8b0>
   13584:	0085a683          	lw	a3,8(a1)
   13588:	00e7e7b3          	or	a5,a5,a4
   1358c:	00f59823          	sh	a5,16(a1)
   13590:	18d05063          	blez	a3,13710 <__sflush_r+0x1c8>
   13594:	04843703          	ld	a4,72(s0)
   13598:	0c070a63          	beqz	a4,1366c <__sflush_r+0x124>
   1359c:	03079793          	slli	a5,a5,0x30
   135a0:	0307d793          	srli	a5,a5,0x30
   135a4:	0009a483          	lw	s1,0(s3)
   135a8:	03379693          	slli	a3,a5,0x33
   135ac:	0009a023          	sw	zero,0(s3)
   135b0:	03043583          	ld	a1,48(s0)
   135b4:	1606c463          	bltz	a3,1371c <__sflush_r+0x1d4>
   135b8:	00000613          	li	a2,0
   135bc:	00100693          	li	a3,1
   135c0:	00098513          	mv	a0,s3
   135c4:	000700e7          	jalr	a4
   135c8:	fff00793          	li	a5,-1
   135cc:	00050613          	mv	a2,a0
   135d0:	18f50663          	beq	a0,a5,1375c <__sflush_r+0x214>
   135d4:	01045783          	lhu	a5,16(s0)
   135d8:	04843703          	ld	a4,72(s0)
   135dc:	03043583          	ld	a1,48(s0)
   135e0:	0047f793          	andi	a5,a5,4
   135e4:	00078e63          	beqz	a5,13600 <__sflush_r+0xb8>
   135e8:	00842683          	lw	a3,8(s0)
   135ec:	05843783          	ld	a5,88(s0)
   135f0:	40d60633          	sub	a2,a2,a3
   135f4:	00078663          	beqz	a5,13600 <__sflush_r+0xb8>
   135f8:	07042783          	lw	a5,112(s0)
   135fc:	40f60633          	sub	a2,a2,a5
   13600:	00000693          	li	a3,0
   13604:	00098513          	mv	a0,s3
   13608:	000700e7          	jalr	a4
   1360c:	fff00793          	li	a5,-1
   13610:	10f51a63          	bne	a0,a5,13724 <__sflush_r+0x1dc>
   13614:	0009a703          	lw	a4,0(s3)
   13618:	01041783          	lh	a5,16(s0)
   1361c:	16070263          	beqz	a4,13780 <__sflush_r+0x238>
   13620:	01d00693          	li	a3,29
   13624:	00d70663          	beq	a4,a3,13630 <__sflush_r+0xe8>
   13628:	01600693          	li	a3,22
   1362c:	16d71463          	bne	a4,a3,13794 <__sflush_r+0x24c>
   13630:	01843683          	ld	a3,24(s0)
   13634:	fffff737          	lui	a4,0xfffff
   13638:	7ff70713          	addi	a4,a4,2047 # fffffffffffff7ff <__BSS_END__+0xfffffffffffdb29f>
   1363c:	00e7f7b3          	and	a5,a5,a4
   13640:	00f41823          	sh	a5,16(s0)
   13644:	00042423          	sw	zero,8(s0)
   13648:	00d43023          	sd	a3,0(s0)
   1364c:	05843583          	ld	a1,88(s0)
   13650:	0099a023          	sw	s1,0(s3)
   13654:	00058c63          	beqz	a1,1366c <__sflush_r+0x124>
   13658:	07440793          	addi	a5,s0,116
   1365c:	00f58663          	beq	a1,a5,13668 <__sflush_r+0x120>
   13660:	00098513          	mv	a0,s3
   13664:	644000ef          	jal	ra,13ca8 <_free_r>
   13668:	04043c23          	sd	zero,88(s0)
   1366c:	00000513          	li	a0,0
   13670:	02813083          	ld	ra,40(sp)
   13674:	02013403          	ld	s0,32(sp)
   13678:	01813483          	ld	s1,24(sp)
   1367c:	01013903          	ld	s2,16(sp)
   13680:	00813983          	ld	s3,8(sp)
   13684:	03010113          	addi	sp,sp,48
   13688:	00008067          	ret
   1368c:	0185b903          	ld	s2,24(a1)
   13690:	fc090ee3          	beqz	s2,1366c <__sflush_r+0x124>
   13694:	0005b483          	ld	s1,0(a1)
   13698:	00377713          	andi	a4,a4,3
   1369c:	0125b023          	sd	s2,0(a1)
   136a0:	412484bb          	subw	s1,s1,s2
   136a4:	00000793          	li	a5,0
   136a8:	00071463          	bnez	a4,136b0 <__sflush_r+0x168>
   136ac:	0205a783          	lw	a5,32(a1)
   136b0:	00f42623          	sw	a5,12(s0)
   136b4:	00904863          	bgtz	s1,136c4 <__sflush_r+0x17c>
   136b8:	fb5ff06f          	j	1366c <__sflush_r+0x124>
   136bc:	00a90933          	add	s2,s2,a0
   136c0:	fa9056e3          	blez	s1,1366c <__sflush_r+0x124>
   136c4:	04043783          	ld	a5,64(s0)
   136c8:	03043583          	ld	a1,48(s0)
   136cc:	00048693          	mv	a3,s1
   136d0:	00090613          	mv	a2,s2
   136d4:	00098513          	mv	a0,s3
   136d8:	000780e7          	jalr	a5
   136dc:	40a484bb          	subw	s1,s1,a0
   136e0:	fca04ee3          	bgtz	a0,136bc <__sflush_r+0x174>
   136e4:	01045783          	lhu	a5,16(s0)
   136e8:	02813083          	ld	ra,40(sp)
   136ec:	01813483          	ld	s1,24(sp)
   136f0:	0407e793          	ori	a5,a5,64
   136f4:	00f41823          	sh	a5,16(s0)
   136f8:	02013403          	ld	s0,32(sp)
   136fc:	01013903          	ld	s2,16(sp)
   13700:	00813983          	ld	s3,8(sp)
   13704:	fff00513          	li	a0,-1
   13708:	03010113          	addi	sp,sp,48
   1370c:	00008067          	ret
   13710:	0705a703          	lw	a4,112(a1)
   13714:	e8e040e3          	bgtz	a4,13594 <__sflush_r+0x4c>
   13718:	f55ff06f          	j	1366c <__sflush_r+0x124>
   1371c:	09043603          	ld	a2,144(s0)
   13720:	ec1ff06f          	j	135e0 <__sflush_r+0x98>
   13724:	01045783          	lhu	a5,16(s0)
   13728:	fffff737          	lui	a4,0xfffff
   1372c:	7ff70713          	addi	a4,a4,2047 # fffffffffffff7ff <__BSS_END__+0xfffffffffffdb29f>
   13730:	00e7f7b3          	and	a5,a5,a4
   13734:	01843683          	ld	a3,24(s0)
   13738:	0107979b          	slliw	a5,a5,0x10
   1373c:	4107d79b          	sraiw	a5,a5,0x10
   13740:	00f41823          	sh	a5,16(s0)
   13744:	00042423          	sw	zero,8(s0)
   13748:	00d43023          	sd	a3,0(s0)
   1374c:	03379713          	slli	a4,a5,0x33
   13750:	ee075ee3          	bgez	a4,1364c <__sflush_r+0x104>
   13754:	08a43823          	sd	a0,144(s0)
   13758:	ef5ff06f          	j	1364c <__sflush_r+0x104>
   1375c:	0009a783          	lw	a5,0(s3)
   13760:	e6078ae3          	beqz	a5,135d4 <__sflush_r+0x8c>
   13764:	01d00713          	li	a4,29
   13768:	00e78663          	beq	a5,a4,13774 <__sflush_r+0x22c>
   1376c:	01600713          	li	a4,22
   13770:	f6e79ae3          	bne	a5,a4,136e4 <__sflush_r+0x19c>
   13774:	0099a023          	sw	s1,0(s3)
   13778:	00000513          	li	a0,0
   1377c:	ef5ff06f          	j	13670 <__sflush_r+0x128>
   13780:	fffff737          	lui	a4,0xfffff
   13784:	7ff70713          	addi	a4,a4,2047 # fffffffffffff7ff <__BSS_END__+0xfffffffffffdb29f>
   13788:	01843683          	ld	a3,24(s0)
   1378c:	00e7f7b3          	and	a5,a5,a4
   13790:	fb1ff06f          	j	13740 <__sflush_r+0x1f8>
   13794:	0407e793          	ori	a5,a5,64
   13798:	00f41823          	sh	a5,16(s0)
   1379c:	fff00513          	li	a0,-1
   137a0:	ed1ff06f          	j	13670 <__sflush_r+0x128>

00000000000137a4 <_fflush_r>:
   137a4:	fe010113          	addi	sp,sp,-32
   137a8:	00813823          	sd	s0,16(sp)
   137ac:	00113c23          	sd	ra,24(sp)
   137b0:	00050413          	mv	s0,a0
   137b4:	00050663          	beqz	a0,137c0 <_fflush_r+0x1c>
   137b8:	05052783          	lw	a5,80(a0)
   137bc:	02078063          	beqz	a5,137dc <_fflush_r+0x38>
   137c0:	01059783          	lh	a5,16(a1)
   137c4:	02079663          	bnez	a5,137f0 <_fflush_r+0x4c>
   137c8:	01813083          	ld	ra,24(sp)
   137cc:	01013403          	ld	s0,16(sp)
   137d0:	00000513          	li	a0,0
   137d4:	02010113          	addi	sp,sp,32
   137d8:	00008067          	ret
   137dc:	00b13423          	sd	a1,8(sp)
   137e0:	35c000ef          	jal	ra,13b3c <__sinit>
   137e4:	00813583          	ld	a1,8(sp)
   137e8:	01059783          	lh	a5,16(a1)
   137ec:	fc078ee3          	beqz	a5,137c8 <_fflush_r+0x24>
   137f0:	00040513          	mv	a0,s0
   137f4:	01013403          	ld	s0,16(sp)
   137f8:	01813083          	ld	ra,24(sp)
   137fc:	02010113          	addi	sp,sp,32
   13800:	d49ff06f          	j	13548 <__sflush_r>

0000000000013804 <fflush>:
   13804:	00050593          	mv	a1,a0
   13808:	00050663          	beqz	a0,13814 <fflush+0x10>
   1380c:	7181b503          	ld	a0,1816(gp) # 24478 <_impure_ptr>
   13810:	f95ff06f          	j	137a4 <_fflush_r>
   13814:	7081b503          	ld	a0,1800(gp) # 24468 <_global_impure_ptr>
   13818:	000135b7          	lui	a1,0x13
   1381c:	7a458593          	addi	a1,a1,1956 # 137a4 <_fflush_r>
   13820:	5510006f          	j	14570 <_fwalk_reent>

0000000000013824 <__fp_lock>:
   13824:	00000513          	li	a0,0
   13828:	00008067          	ret

000000000001382c <_cleanup_r>:
   1382c:	0001e5b7          	lui	a1,0x1e
   13830:	97858593          	addi	a1,a1,-1672 # 1d978 <_fclose_r>
   13834:	53d0006f          	j	14570 <_fwalk_reent>

0000000000013838 <__sinit.part.0>:
   13838:	fc010113          	addi	sp,sp,-64
   1383c:	000147b7          	lui	a5,0x14
   13840:	02113c23          	sd	ra,56(sp)
   13844:	02813823          	sd	s0,48(sp)
   13848:	02913423          	sd	s1,40(sp)
   1384c:	03213023          	sd	s2,32(sp)
   13850:	01313c23          	sd	s3,24(sp)
   13854:	01413823          	sd	s4,16(sp)
   13858:	01513423          	sd	s5,8(sp)
   1385c:	01613023          	sd	s6,0(sp)
   13860:	00853403          	ld	s0,8(a0)
   13864:	82c78793          	addi	a5,a5,-2004 # 1382c <_cleanup_r>
   13868:	04f53c23          	sd	a5,88(a0)
   1386c:	53850713          	addi	a4,a0,1336
   13870:	00300793          	li	a5,3
   13874:	52e53823          	sd	a4,1328(a0)
   13878:	52f52423          	sw	a5,1320(a0)
   1387c:	52053023          	sd	zero,1312(a0)
   13880:	00400793          	li	a5,4
   13884:	00050913          	mv	s2,a0
   13888:	00f42823          	sw	a5,16(s0)
   1388c:	00800613          	li	a2,8
   13890:	00000593          	li	a1,0
   13894:	0a042623          	sw	zero,172(s0)
   13898:	00043023          	sd	zero,0(s0)
   1389c:	00043423          	sd	zero,8(s0)
   138a0:	00043c23          	sd	zero,24(s0)
   138a4:	02042023          	sw	zero,32(s0)
   138a8:	02042423          	sw	zero,40(s0)
   138ac:	0a440513          	addi	a0,s0,164
   138b0:	f15fc0ef          	jal	ra,107c4 <memset>
   138b4:	0001ab37          	lui	s6,0x1a
   138b8:	01093483          	ld	s1,16(s2)
   138bc:	0001aab7          	lui	s5,0x1a
   138c0:	0001aa37          	lui	s4,0x1a
   138c4:	0001a9b7          	lui	s3,0x1a
   138c8:	998b0b13          	addi	s6,s6,-1640 # 19998 <__sread>
   138cc:	9fca8a93          	addi	s5,s5,-1540 # 199fc <__swrite>
   138d0:	a84a0a13          	addi	s4,s4,-1404 # 19a84 <__sseek>
   138d4:	aec98993          	addi	s3,s3,-1300 # 19aec <__sclose>
   138d8:	000107b7          	lui	a5,0x10
   138dc:	03643c23          	sd	s6,56(s0)
   138e0:	05543023          	sd	s5,64(s0)
   138e4:	05443423          	sd	s4,72(s0)
   138e8:	05343823          	sd	s3,80(s0)
   138ec:	02843823          	sd	s0,48(s0)
   138f0:	0097879b          	addiw	a5,a5,9
   138f4:	00f4a823          	sw	a5,16(s1)
   138f8:	00800613          	li	a2,8
   138fc:	00000593          	li	a1,0
   13900:	0a04a623          	sw	zero,172(s1)
   13904:	0004b023          	sd	zero,0(s1)
   13908:	0004b423          	sd	zero,8(s1)
   1390c:	0004bc23          	sd	zero,24(s1)
   13910:	0204a023          	sw	zero,32(s1)
   13914:	0204a423          	sw	zero,40(s1)
   13918:	0a448513          	addi	a0,s1,164
   1391c:	ea9fc0ef          	jal	ra,107c4 <memset>
   13920:	01893403          	ld	s0,24(s2)
   13924:	000207b7          	lui	a5,0x20
   13928:	0364bc23          	sd	s6,56(s1)
   1392c:	0554b023          	sd	s5,64(s1)
   13930:	0544b423          	sd	s4,72(s1)
   13934:	0534b823          	sd	s3,80(s1)
   13938:	0294b823          	sd	s1,48(s1)
   1393c:	0127879b          	addiw	a5,a5,18
   13940:	00f42823          	sw	a5,16(s0)
   13944:	0a042623          	sw	zero,172(s0)
   13948:	00043023          	sd	zero,0(s0)
   1394c:	00043423          	sd	zero,8(s0)
   13950:	00043c23          	sd	zero,24(s0)
   13954:	02042023          	sw	zero,32(s0)
   13958:	02042423          	sw	zero,40(s0)
   1395c:	0a440513          	addi	a0,s0,164
   13960:	00800613          	li	a2,8
   13964:	00000593          	li	a1,0
   13968:	e5dfc0ef          	jal	ra,107c4 <memset>
   1396c:	03813083          	ld	ra,56(sp)
   13970:	03643c23          	sd	s6,56(s0)
   13974:	05543023          	sd	s5,64(s0)
   13978:	05443423          	sd	s4,72(s0)
   1397c:	05343823          	sd	s3,80(s0)
   13980:	02843823          	sd	s0,48(s0)
   13984:	03013403          	ld	s0,48(sp)
   13988:	00100793          	li	a5,1
   1398c:	04f92823          	sw	a5,80(s2)
   13990:	02813483          	ld	s1,40(sp)
   13994:	02013903          	ld	s2,32(sp)
   13998:	01813983          	ld	s3,24(sp)
   1399c:	01013a03          	ld	s4,16(sp)
   139a0:	00813a83          	ld	s5,8(sp)
   139a4:	00013b03          	ld	s6,0(sp)
   139a8:	04010113          	addi	sp,sp,64
   139ac:	00008067          	ret

00000000000139b0 <__fp_unlock>:
   139b0:	00000513          	li	a0,0
   139b4:	00008067          	ret

00000000000139b8 <__sfmoreglue>:
   139b8:	fe010113          	addi	sp,sp,-32
   139bc:	fff5861b          	addiw	a2,a1,-1
   139c0:	00813823          	sd	s0,16(sp)
   139c4:	00161413          	slli	s0,a2,0x1
   139c8:	00c40433          	add	s0,s0,a2
   139cc:	00241413          	slli	s0,s0,0x2
   139d0:	40c40433          	sub	s0,s0,a2
   139d4:	00441413          	slli	s0,s0,0x4
   139d8:	01213023          	sd	s2,0(sp)
   139dc:	00058913          	mv	s2,a1
   139e0:	0c840593          	addi	a1,s0,200
   139e4:	00913423          	sd	s1,8(sp)
   139e8:	00113c23          	sd	ra,24(sp)
   139ec:	3ad030ef          	jal	ra,17598 <_malloc_r>
   139f0:	00050493          	mv	s1,a0
   139f4:	02050063          	beqz	a0,13a14 <__sfmoreglue+0x5c>
   139f8:	01850513          	addi	a0,a0,24
   139fc:	0004b023          	sd	zero,0(s1)
   13a00:	0124a423          	sw	s2,8(s1)
   13a04:	00a4b823          	sd	a0,16(s1)
   13a08:	0b040613          	addi	a2,s0,176
   13a0c:	00000593          	li	a1,0
   13a10:	db5fc0ef          	jal	ra,107c4 <memset>
   13a14:	01813083          	ld	ra,24(sp)
   13a18:	01013403          	ld	s0,16(sp)
   13a1c:	00048513          	mv	a0,s1
   13a20:	00013903          	ld	s2,0(sp)
   13a24:	00813483          	ld	s1,8(sp)
   13a28:	02010113          	addi	sp,sp,32
   13a2c:	00008067          	ret

0000000000013a30 <__sfp>:
   13a30:	fd010113          	addi	sp,sp,-48
   13a34:	01213823          	sd	s2,16(sp)
   13a38:	7081b903          	ld	s2,1800(gp) # 24468 <_global_impure_ptr>
   13a3c:	01313423          	sd	s3,8(sp)
   13a40:	02113423          	sd	ra,40(sp)
   13a44:	05092783          	lw	a5,80(s2)
   13a48:	02813023          	sd	s0,32(sp)
   13a4c:	00913c23          	sd	s1,24(sp)
   13a50:	00050993          	mv	s3,a0
   13a54:	0a078463          	beqz	a5,13afc <__sfp+0xcc>
   13a58:	52090913          	addi	s2,s2,1312
   13a5c:	fff00493          	li	s1,-1
   13a60:	00892783          	lw	a5,8(s2)
   13a64:	01093403          	ld	s0,16(s2)
   13a68:	fff7879b          	addiw	a5,a5,-1
   13a6c:	0007da63          	bgez	a5,13a80 <__sfp+0x50>
   13a70:	07c0006f          	j	13aec <__sfp+0xbc>
   13a74:	fff7879b          	addiw	a5,a5,-1
   13a78:	0b040413          	addi	s0,s0,176
   13a7c:	06978863          	beq	a5,s1,13aec <__sfp+0xbc>
   13a80:	01041703          	lh	a4,16(s0)
   13a84:	fe0718e3          	bnez	a4,13a74 <__sfp+0x44>
   13a88:	ffff07b7          	lui	a5,0xffff0
   13a8c:	0017879b          	addiw	a5,a5,1
   13a90:	0a042623          	sw	zero,172(s0)
   13a94:	00043023          	sd	zero,0(s0)
   13a98:	00043423          	sd	zero,8(s0)
   13a9c:	00f42823          	sw	a5,16(s0)
   13aa0:	00043c23          	sd	zero,24(s0)
   13aa4:	02042023          	sw	zero,32(s0)
   13aa8:	02042423          	sw	zero,40(s0)
   13aac:	00800613          	li	a2,8
   13ab0:	00000593          	li	a1,0
   13ab4:	0a440513          	addi	a0,s0,164
   13ab8:	d0dfc0ef          	jal	ra,107c4 <memset>
   13abc:	04043c23          	sd	zero,88(s0)
   13ac0:	06042023          	sw	zero,96(s0)
   13ac4:	06043c23          	sd	zero,120(s0)
   13ac8:	08042023          	sw	zero,128(s0)
   13acc:	00040513          	mv	a0,s0
   13ad0:	02813083          	ld	ra,40(sp)
   13ad4:	02013403          	ld	s0,32(sp)
   13ad8:	01813483          	ld	s1,24(sp)
   13adc:	01013903          	ld	s2,16(sp)
   13ae0:	00813983          	ld	s3,8(sp)
   13ae4:	03010113          	addi	sp,sp,48
   13ae8:	00008067          	ret
   13aec:	00093403          	ld	s0,0(s2)
   13af0:	00040c63          	beqz	s0,13b08 <__sfp+0xd8>
   13af4:	00040913          	mv	s2,s0
   13af8:	f69ff06f          	j	13a60 <__sfp+0x30>
   13afc:	00090513          	mv	a0,s2
   13b00:	d39ff0ef          	jal	ra,13838 <__sinit.part.0>
   13b04:	f55ff06f          	j	13a58 <__sfp+0x28>
   13b08:	00400593          	li	a1,4
   13b0c:	00098513          	mv	a0,s3
   13b10:	ea9ff0ef          	jal	ra,139b8 <__sfmoreglue>
   13b14:	00a93023          	sd	a0,0(s2)
   13b18:	00050413          	mv	s0,a0
   13b1c:	fc051ce3          	bnez	a0,13af4 <__sfp+0xc4>
   13b20:	00c00793          	li	a5,12
   13b24:	00f9a023          	sw	a5,0(s3)
   13b28:	fa5ff06f          	j	13acc <__sfp+0x9c>

0000000000013b2c <_cleanup>:
   13b2c:	7081b503          	ld	a0,1800(gp) # 24468 <_global_impure_ptr>
   13b30:	0001e5b7          	lui	a1,0x1e
   13b34:	97858593          	addi	a1,a1,-1672 # 1d978 <_fclose_r>
   13b38:	2390006f          	j	14570 <_fwalk_reent>

0000000000013b3c <__sinit>:
   13b3c:	05052783          	lw	a5,80(a0)
   13b40:	00078463          	beqz	a5,13b48 <__sinit+0xc>
   13b44:	00008067          	ret
   13b48:	cf1ff06f          	j	13838 <__sinit.part.0>

0000000000013b4c <__sfp_lock_acquire>:
   13b4c:	00008067          	ret

0000000000013b50 <__sfp_lock_release>:
   13b50:	00008067          	ret

0000000000013b54 <__sinit_lock_acquire>:
   13b54:	00008067          	ret

0000000000013b58 <__sinit_lock_release>:
   13b58:	00008067          	ret

0000000000013b5c <__fp_lock_all>:
   13b5c:	7181b503          	ld	a0,1816(gp) # 24478 <_impure_ptr>
   13b60:	000145b7          	lui	a1,0x14
   13b64:	82458593          	addi	a1,a1,-2012 # 13824 <__fp_lock>
   13b68:	1350006f          	j	1449c <_fwalk>

0000000000013b6c <__fp_unlock_all>:
   13b6c:	7181b503          	ld	a0,1816(gp) # 24478 <_impure_ptr>
   13b70:	000145b7          	lui	a1,0x14
   13b74:	9b058593          	addi	a1,a1,-1616 # 139b0 <__fp_unlock>
   13b78:	1250006f          	j	1449c <_fwalk>

0000000000013b7c <_malloc_trim_r>:
   13b7c:	fd010113          	addi	sp,sp,-48
   13b80:	01213823          	sd	s2,16(sp)
   13b84:	00024937          	lui	s2,0x24
   13b88:	02813023          	sd	s0,32(sp)
   13b8c:	00913c23          	sd	s1,24(sp)
   13b90:	01313423          	sd	s3,8(sp)
   13b94:	00058413          	mv	s0,a1
   13b98:	02113423          	sd	ra,40(sp)
   13b9c:	00050993          	mv	s3,a0
   13ba0:	c2890913          	addi	s2,s2,-984 # 23c28 <__malloc_av_>
   13ba4:	5c4040ef          	jal	ra,18168 <__malloc_lock>
   13ba8:	01093683          	ld	a3,16(s2)
   13bac:	00001737          	lui	a4,0x1
   13bb0:	fdf70793          	addi	a5,a4,-33 # fdf <register_fini-0xf0d1>
   13bb4:	0086b483          	ld	s1,8(a3)
   13bb8:	40878433          	sub	s0,a5,s0
   13bbc:	ffc4f493          	andi	s1,s1,-4
   13bc0:	00940433          	add	s0,s0,s1
   13bc4:	00c45413          	srli	s0,s0,0xc
   13bc8:	fff40413          	addi	s0,s0,-1
   13bcc:	00c41413          	slli	s0,s0,0xc
   13bd0:	00e44e63          	blt	s0,a4,13bec <_malloc_trim_r+0x70>
   13bd4:	00000593          	li	a1,0
   13bd8:	00098513          	mv	a0,s3
   13bdc:	3b9050ef          	jal	ra,19794 <_sbrk_r>
   13be0:	01093783          	ld	a5,16(s2)
   13be4:	009787b3          	add	a5,a5,s1
   13be8:	02f50663          	beq	a0,a5,13c14 <_malloc_trim_r+0x98>
   13bec:	00098513          	mv	a0,s3
   13bf0:	57c040ef          	jal	ra,1816c <__malloc_unlock>
   13bf4:	02813083          	ld	ra,40(sp)
   13bf8:	02013403          	ld	s0,32(sp)
   13bfc:	01813483          	ld	s1,24(sp)
   13c00:	01013903          	ld	s2,16(sp)
   13c04:	00813983          	ld	s3,8(sp)
   13c08:	00000513          	li	a0,0
   13c0c:	03010113          	addi	sp,sp,48
   13c10:	00008067          	ret
   13c14:	408005b3          	neg	a1,s0
   13c18:	00098513          	mv	a0,s3
   13c1c:	379050ef          	jal	ra,19794 <_sbrk_r>
   13c20:	fff00793          	li	a5,-1
   13c24:	04f50663          	beq	a0,a5,13c70 <_malloc_trim_r+0xf4>
   13c28:	00024737          	lui	a4,0x24
   13c2c:	53072783          	lw	a5,1328(a4) # 24530 <__malloc_current_mallinfo>
   13c30:	01093683          	ld	a3,16(s2)
   13c34:	408484b3          	sub	s1,s1,s0
   13c38:	0014e493          	ori	s1,s1,1
   13c3c:	4087843b          	subw	s0,a5,s0
   13c40:	00098513          	mv	a0,s3
   13c44:	0096b423          	sd	s1,8(a3)
   13c48:	52872823          	sw	s0,1328(a4)
   13c4c:	520040ef          	jal	ra,1816c <__malloc_unlock>
   13c50:	02813083          	ld	ra,40(sp)
   13c54:	02013403          	ld	s0,32(sp)
   13c58:	01813483          	ld	s1,24(sp)
   13c5c:	01013903          	ld	s2,16(sp)
   13c60:	00813983          	ld	s3,8(sp)
   13c64:	00100513          	li	a0,1
   13c68:	03010113          	addi	sp,sp,48
   13c6c:	00008067          	ret
   13c70:	00000593          	li	a1,0
   13c74:	00098513          	mv	a0,s3
   13c78:	31d050ef          	jal	ra,19794 <_sbrk_r>
   13c7c:	01093703          	ld	a4,16(s2)
   13c80:	01f00693          	li	a3,31
   13c84:	40e507b3          	sub	a5,a0,a4
   13c88:	f6f6d2e3          	bge	a3,a5,13bec <_malloc_trim_r+0x70>
   13c8c:	7201b683          	ld	a3,1824(gp) # 24480 <__malloc_sbrk_base>
   13c90:	0017e793          	ori	a5,a5,1
   13c94:	00f73423          	sd	a5,8(a4)
   13c98:	40d50533          	sub	a0,a0,a3
   13c9c:	000246b7          	lui	a3,0x24
   13ca0:	52a6a823          	sw	a0,1328(a3) # 24530 <__malloc_current_mallinfo>
   13ca4:	f49ff06f          	j	13bec <_malloc_trim_r+0x70>

0000000000013ca8 <_free_r>:
   13ca8:	14058063          	beqz	a1,13de8 <_free_r+0x140>
   13cac:	fe010113          	addi	sp,sp,-32
   13cb0:	00813823          	sd	s0,16(sp)
   13cb4:	00913423          	sd	s1,8(sp)
   13cb8:	00058413          	mv	s0,a1
   13cbc:	00050493          	mv	s1,a0
   13cc0:	00113c23          	sd	ra,24(sp)
   13cc4:	4a4040ef          	jal	ra,18168 <__malloc_lock>
   13cc8:	ff843503          	ld	a0,-8(s0)
   13ccc:	ff040713          	addi	a4,s0,-16
   13cd0:	000245b7          	lui	a1,0x24
   13cd4:	ffe57793          	andi	a5,a0,-2
   13cd8:	00f70633          	add	a2,a4,a5
   13cdc:	c2858593          	addi	a1,a1,-984 # 23c28 <__malloc_av_>
   13ce0:	00863683          	ld	a3,8(a2)
   13ce4:	0105b803          	ld	a6,16(a1)
   13ce8:	ffc6f693          	andi	a3,a3,-4
   13cec:	1ac80a63          	beq	a6,a2,13ea0 <_free_r+0x1f8>
   13cf0:	00d63423          	sd	a3,8(a2)
   13cf4:	00157513          	andi	a0,a0,1
   13cf8:	00d60833          	add	a6,a2,a3
   13cfc:	0a051663          	bnez	a0,13da8 <_free_r+0x100>
   13d00:	ff043303          	ld	t1,-16(s0)
   13d04:	00883803          	ld	a6,8(a6)
   13d08:	00024537          	lui	a0,0x24
   13d0c:	40670733          	sub	a4,a4,t1
   13d10:	01073883          	ld	a7,16(a4)
   13d14:	c3850513          	addi	a0,a0,-968 # 23c38 <__malloc_av_+0x10>
   13d18:	006787b3          	add	a5,a5,t1
   13d1c:	00187813          	andi	a6,a6,1
   13d20:	14a88a63          	beq	a7,a0,13e74 <_free_r+0x1cc>
   13d24:	01873303          	ld	t1,24(a4)
   13d28:	0068bc23          	sd	t1,24(a7)
   13d2c:	01133823          	sd	a7,16(t1)
   13d30:	1e080463          	beqz	a6,13f18 <_free_r+0x270>
   13d34:	0017e693          	ori	a3,a5,1
   13d38:	00d73423          	sd	a3,8(a4)
   13d3c:	00f63023          	sd	a5,0(a2)
   13d40:	1ff00693          	li	a3,511
   13d44:	0af6ee63          	bltu	a3,a5,13e00 <_free_r+0x158>
   13d48:	0037d793          	srli	a5,a5,0x3
   13d4c:	0007879b          	sext.w	a5,a5
   13d50:	0017869b          	addiw	a3,a5,1
   13d54:	0016969b          	slliw	a3,a3,0x1
   13d58:	00369693          	slli	a3,a3,0x3
   13d5c:	0085b803          	ld	a6,8(a1)
   13d60:	00d586b3          	add	a3,a1,a3
   13d64:	0006b503          	ld	a0,0(a3)
   13d68:	00100613          	li	a2,1
   13d6c:	4027d79b          	sraiw	a5,a5,0x2
   13d70:	00f617b3          	sll	a5,a2,a5
   13d74:	0107e7b3          	or	a5,a5,a6
   13d78:	ff068613          	addi	a2,a3,-16
   13d7c:	00c73c23          	sd	a2,24(a4)
   13d80:	00a73823          	sd	a0,16(a4)
   13d84:	00f5b423          	sd	a5,8(a1)
   13d88:	00e6b023          	sd	a4,0(a3)
   13d8c:	00e53c23          	sd	a4,24(a0)
   13d90:	01013403          	ld	s0,16(sp)
   13d94:	01813083          	ld	ra,24(sp)
   13d98:	00048513          	mv	a0,s1
   13d9c:	00813483          	ld	s1,8(sp)
   13da0:	02010113          	addi	sp,sp,32
   13da4:	3c80406f          	j	1816c <__malloc_unlock>
   13da8:	00883503          	ld	a0,8(a6)
   13dac:	00157513          	andi	a0,a0,1
   13db0:	02051e63          	bnez	a0,13dec <_free_r+0x144>
   13db4:	00024537          	lui	a0,0x24
   13db8:	00d787b3          	add	a5,a5,a3
   13dbc:	c3850513          	addi	a0,a0,-968 # 23c38 <__malloc_av_+0x10>
   13dc0:	01063683          	ld	a3,16(a2)
   13dc4:	0017e893          	ori	a7,a5,1
   13dc8:	00f70833          	add	a6,a4,a5
   13dcc:	16a68663          	beq	a3,a0,13f38 <_free_r+0x290>
   13dd0:	01863603          	ld	a2,24(a2)
   13dd4:	00c6bc23          	sd	a2,24(a3)
   13dd8:	00d63823          	sd	a3,16(a2)
   13ddc:	01173423          	sd	a7,8(a4)
   13de0:	00f83023          	sd	a5,0(a6)
   13de4:	f5dff06f          	j	13d40 <_free_r+0x98>
   13de8:	00008067          	ret
   13dec:	0017e693          	ori	a3,a5,1
   13df0:	fed43c23          	sd	a3,-8(s0)
   13df4:	00f63023          	sd	a5,0(a2)
   13df8:	1ff00693          	li	a3,511
   13dfc:	f4f6f6e3          	bgeu	a3,a5,13d48 <_free_r+0xa0>
   13e00:	0097d693          	srli	a3,a5,0x9
   13e04:	00400613          	li	a2,4
   13e08:	0ed66263          	bltu	a2,a3,13eec <_free_r+0x244>
   13e0c:	0067d693          	srli	a3,a5,0x6
   13e10:	0006869b          	sext.w	a3,a3
   13e14:	0396851b          	addiw	a0,a3,57
   13e18:	0015151b          	slliw	a0,a0,0x1
   13e1c:	0386861b          	addiw	a2,a3,56
   13e20:	00351513          	slli	a0,a0,0x3
   13e24:	00a58533          	add	a0,a1,a0
   13e28:	00053683          	ld	a3,0(a0)
   13e2c:	ff050513          	addi	a0,a0,-16
   13e30:	12d50263          	beq	a0,a3,13f54 <_free_r+0x2ac>
   13e34:	0086b603          	ld	a2,8(a3)
   13e38:	ffc67613          	andi	a2,a2,-4
   13e3c:	00c7f663          	bgeu	a5,a2,13e48 <_free_r+0x1a0>
   13e40:	0106b683          	ld	a3,16(a3)
   13e44:	fed518e3          	bne	a0,a3,13e34 <_free_r+0x18c>
   13e48:	0186b503          	ld	a0,24(a3)
   13e4c:	00a73c23          	sd	a0,24(a4)
   13e50:	00d73823          	sd	a3,16(a4)
   13e54:	01013403          	ld	s0,16(sp)
   13e58:	00e53823          	sd	a4,16(a0)
   13e5c:	01813083          	ld	ra,24(sp)
   13e60:	00048513          	mv	a0,s1
   13e64:	00813483          	ld	s1,8(sp)
   13e68:	00e6bc23          	sd	a4,24(a3)
   13e6c:	02010113          	addi	sp,sp,32
   13e70:	2fc0406f          	j	1816c <__malloc_unlock>
   13e74:	14081863          	bnez	a6,13fc4 <_free_r+0x31c>
   13e78:	01063583          	ld	a1,16(a2)
   13e7c:	01863603          	ld	a2,24(a2)
   13e80:	00f687b3          	add	a5,a3,a5
   13e84:	0017e693          	ori	a3,a5,1
   13e88:	00c5bc23          	sd	a2,24(a1)
   13e8c:	00b63823          	sd	a1,16(a2)
   13e90:	00d73423          	sd	a3,8(a4)
   13e94:	00f70733          	add	a4,a4,a5
   13e98:	00f73023          	sd	a5,0(a4)
   13e9c:	ef5ff06f          	j	13d90 <_free_r+0xe8>
   13ea0:	00157513          	andi	a0,a0,1
   13ea4:	00d787b3          	add	a5,a5,a3
   13ea8:	02051063          	bnez	a0,13ec8 <_free_r+0x220>
   13eac:	ff043503          	ld	a0,-16(s0)
   13eb0:	40a70733          	sub	a4,a4,a0
   13eb4:	01873683          	ld	a3,24(a4)
   13eb8:	01073603          	ld	a2,16(a4)
   13ebc:	00a787b3          	add	a5,a5,a0
   13ec0:	00d63c23          	sd	a3,24(a2)
   13ec4:	00c6b823          	sd	a2,16(a3)
   13ec8:	0017e613          	ori	a2,a5,1
   13ecc:	7281b683          	ld	a3,1832(gp) # 24488 <__malloc_trim_threshold>
   13ed0:	00c73423          	sd	a2,8(a4)
   13ed4:	00e5b823          	sd	a4,16(a1)
   13ed8:	ead7ece3          	bltu	a5,a3,13d90 <_free_r+0xe8>
   13edc:	7481b583          	ld	a1,1864(gp) # 244a8 <__malloc_top_pad>
   13ee0:	00048513          	mv	a0,s1
   13ee4:	c99ff0ef          	jal	ra,13b7c <_malloc_trim_r>
   13ee8:	ea9ff06f          	j	13d90 <_free_r+0xe8>
   13eec:	01400613          	li	a2,20
   13ef0:	02d67863          	bgeu	a2,a3,13f20 <_free_r+0x278>
   13ef4:	05400613          	li	a2,84
   13ef8:	06d66c63          	bltu	a2,a3,13f70 <_free_r+0x2c8>
   13efc:	00c7d693          	srli	a3,a5,0xc
   13f00:	0006869b          	sext.w	a3,a3
   13f04:	06f6851b          	addiw	a0,a3,111
   13f08:	0015151b          	slliw	a0,a0,0x1
   13f0c:	06e6861b          	addiw	a2,a3,110
   13f10:	00351513          	slli	a0,a0,0x3
   13f14:	f11ff06f          	j	13e24 <_free_r+0x17c>
   13f18:	00d787b3          	add	a5,a5,a3
   13f1c:	ea5ff06f          	j	13dc0 <_free_r+0x118>
   13f20:	0006869b          	sext.w	a3,a3
   13f24:	05c6851b          	addiw	a0,a3,92
   13f28:	0015151b          	slliw	a0,a0,0x1
   13f2c:	05b6861b          	addiw	a2,a3,91
   13f30:	00351513          	slli	a0,a0,0x3
   13f34:	ef1ff06f          	j	13e24 <_free_r+0x17c>
   13f38:	02e5b423          	sd	a4,40(a1)
   13f3c:	02e5b023          	sd	a4,32(a1)
   13f40:	00a73c23          	sd	a0,24(a4)
   13f44:	00a73823          	sd	a0,16(a4)
   13f48:	01173423          	sd	a7,8(a4)
   13f4c:	00f83023          	sd	a5,0(a6)
   13f50:	e41ff06f          	j	13d90 <_free_r+0xe8>
   13f54:	0085b803          	ld	a6,8(a1)
   13f58:	4026561b          	sraiw	a2,a2,0x2
   13f5c:	00100793          	li	a5,1
   13f60:	00c79633          	sll	a2,a5,a2
   13f64:	01066633          	or	a2,a2,a6
   13f68:	00c5b423          	sd	a2,8(a1)
   13f6c:	ee1ff06f          	j	13e4c <_free_r+0x1a4>
   13f70:	15400613          	li	a2,340
   13f74:	02d66063          	bltu	a2,a3,13f94 <_free_r+0x2ec>
   13f78:	00f7d693          	srli	a3,a5,0xf
   13f7c:	0006869b          	sext.w	a3,a3
   13f80:	0786851b          	addiw	a0,a3,120
   13f84:	0015151b          	slliw	a0,a0,0x1
   13f88:	0776861b          	addiw	a2,a3,119
   13f8c:	00351513          	slli	a0,a0,0x3
   13f90:	e95ff06f          	j	13e24 <_free_r+0x17c>
   13f94:	55400613          	li	a2,1364
   13f98:	02d66063          	bltu	a2,a3,13fb8 <_free_r+0x310>
   13f9c:	0127d693          	srli	a3,a5,0x12
   13fa0:	0006869b          	sext.w	a3,a3
   13fa4:	07d6851b          	addiw	a0,a3,125
   13fa8:	0015151b          	slliw	a0,a0,0x1
   13fac:	07c6861b          	addiw	a2,a3,124
   13fb0:	00351513          	slli	a0,a0,0x3
   13fb4:	e71ff06f          	j	13e24 <_free_r+0x17c>
   13fb8:	7f000513          	li	a0,2032
   13fbc:	07e00613          	li	a2,126
   13fc0:	e65ff06f          	j	13e24 <_free_r+0x17c>
   13fc4:	0017e693          	ori	a3,a5,1
   13fc8:	00d73423          	sd	a3,8(a4)
   13fcc:	00f63023          	sd	a5,0(a2)
   13fd0:	dc1ff06f          	j	13d90 <_free_r+0xe8>

0000000000013fd4 <__sfvwrite_r>:
   13fd4:	01063783          	ld	a5,16(a2)
   13fd8:	28078c63          	beqz	a5,14270 <__sfvwrite_r+0x29c>
   13fdc:	0105d783          	lhu	a5,16(a1)
   13fe0:	fa010113          	addi	sp,sp,-96
   13fe4:	04813823          	sd	s0,80(sp)
   13fe8:	03413823          	sd	s4,48(sp)
   13fec:	03513423          	sd	s5,40(sp)
   13ff0:	04113c23          	sd	ra,88(sp)
   13ff4:	04913423          	sd	s1,72(sp)
   13ff8:	05213023          	sd	s2,64(sp)
   13ffc:	03313c23          	sd	s3,56(sp)
   14000:	03613023          	sd	s6,32(sp)
   14004:	01713c23          	sd	s7,24(sp)
   14008:	01813823          	sd	s8,16(sp)
   1400c:	01913423          	sd	s9,8(sp)
   14010:	01a13023          	sd	s10,0(sp)
   14014:	0087f713          	andi	a4,a5,8
   14018:	00058413          	mv	s0,a1
   1401c:	00050a93          	mv	s5,a0
   14020:	00060a13          	mv	s4,a2
   14024:	08070c63          	beqz	a4,140bc <__sfvwrite_r+0xe8>
   14028:	0185b703          	ld	a4,24(a1)
   1402c:	08070863          	beqz	a4,140bc <__sfvwrite_r+0xe8>
   14030:	0027f713          	andi	a4,a5,2
   14034:	000a3903          	ld	s2,0(s4)
   14038:	0a070263          	beqz	a4,140dc <__sfvwrite_r+0x108>
   1403c:	04043703          	ld	a4,64(s0)
   14040:	03043783          	ld	a5,48(s0)
   14044:	80000b37          	lui	s6,0x80000
   14048:	00000993          	li	s3,0
   1404c:	00000493          	li	s1,0
   14050:	c00b4b13          	xori	s6,s6,-1024
   14054:	00098613          	mv	a2,s3
   14058:	00078593          	mv	a1,a5
   1405c:	000a8513          	mv	a0,s5
   14060:	04048663          	beqz	s1,140ac <__sfvwrite_r+0xd8>
   14064:	00048693          	mv	a3,s1
   14068:	009b7463          	bgeu	s6,s1,14070 <__sfvwrite_r+0x9c>
   1406c:	000b0693          	mv	a3,s6
   14070:	0006869b          	sext.w	a3,a3
   14074:	000700e7          	jalr	a4
   14078:	1ea05263          	blez	a0,1425c <__sfvwrite_r+0x288>
   1407c:	010a3783          	ld	a5,16(s4)
   14080:	00a989b3          	add	s3,s3,a0
   14084:	40a484b3          	sub	s1,s1,a0
   14088:	40a78533          	sub	a0,a5,a0
   1408c:	00aa3823          	sd	a0,16(s4)
   14090:	18050063          	beqz	a0,14210 <__sfvwrite_r+0x23c>
   14094:	03043783          	ld	a5,48(s0)
   14098:	04043703          	ld	a4,64(s0)
   1409c:	00098613          	mv	a2,s3
   140a0:	00078593          	mv	a1,a5
   140a4:	000a8513          	mv	a0,s5
   140a8:	fa049ee3          	bnez	s1,14064 <__sfvwrite_r+0x90>
   140ac:	00093983          	ld	s3,0(s2)
   140b0:	00893483          	ld	s1,8(s2)
   140b4:	01090913          	addi	s2,s2,16
   140b8:	f9dff06f          	j	14054 <__sfvwrite_r+0x80>
   140bc:	00040593          	mv	a1,s0
   140c0:	000a8513          	mv	a0,s5
   140c4:	958ff0ef          	jal	ra,1321c <__swsetup_r>
   140c8:	3c051663          	bnez	a0,14494 <__sfvwrite_r+0x4c0>
   140cc:	01045783          	lhu	a5,16(s0)
   140d0:	000a3903          	ld	s2,0(s4)
   140d4:	0027f713          	andi	a4,a5,2
   140d8:	f60712e3          	bnez	a4,1403c <__sfvwrite_r+0x68>
   140dc:	0017f713          	andi	a4,a5,1
   140e0:	0a071263          	bnez	a4,14184 <__sfvwrite_r+0x1b0>
   140e4:	00c42483          	lw	s1,12(s0)
   140e8:	00043503          	ld	a0,0(s0)
   140ec:	80000b37          	lui	s6,0x80000
   140f0:	ffeb4b93          	xori	s7,s6,-2
   140f4:	00000c13          	li	s8,0
   140f8:	00000993          	li	s3,0
   140fc:	fffb4b13          	not	s6,s6
   14100:	00048c93          	mv	s9,s1
   14104:	06098863          	beqz	s3,14174 <__sfvwrite_r+0x1a0>
   14108:	2007f713          	andi	a4,a5,512
   1410c:	1c070863          	beqz	a4,142dc <__sfvwrite_r+0x308>
   14110:	00048d13          	mv	s10,s1
   14114:	2699f663          	bgeu	s3,s1,14380 <__sfvwrite_r+0x3ac>
   14118:	00098c93          	mv	s9,s3
   1411c:	00098d13          	mv	s10,s3
   14120:	000d0613          	mv	a2,s10
   14124:	000c0593          	mv	a1,s8
   14128:	721030ef          	jal	ra,18048 <memmove>
   1412c:	00c42783          	lw	a5,12(s0)
   14130:	00043603          	ld	a2,0(s0)
   14134:	00098493          	mv	s1,s3
   14138:	41978cbb          	subw	s9,a5,s9
   1413c:	01a60633          	add	a2,a2,s10
   14140:	01942623          	sw	s9,12(s0)
   14144:	00c43023          	sd	a2,0(s0)
   14148:	00000993          	li	s3,0
   1414c:	010a3783          	ld	a5,16(s4)
   14150:	009c0c33          	add	s8,s8,s1
   14154:	409784b3          	sub	s1,a5,s1
   14158:	009a3823          	sd	s1,16(s4)
   1415c:	0a048a63          	beqz	s1,14210 <__sfvwrite_r+0x23c>
   14160:	00c42483          	lw	s1,12(s0)
   14164:	00043503          	ld	a0,0(s0)
   14168:	01045783          	lhu	a5,16(s0)
   1416c:	00048c93          	mv	s9,s1
   14170:	f8099ce3          	bnez	s3,14108 <__sfvwrite_r+0x134>
   14174:	00093c03          	ld	s8,0(s2)
   14178:	00893983          	ld	s3,8(s2)
   1417c:	01090913          	addi	s2,s2,16
   14180:	f81ff06f          	j	14100 <__sfvwrite_r+0x12c>
   14184:	00000993          	li	s3,0
   14188:	00000513          	li	a0,0
   1418c:	00000c93          	li	s9,0
   14190:	00000493          	li	s1,0
   14194:	0e048263          	beqz	s1,14278 <__sfvwrite_r+0x2a4>
   14198:	0e050863          	beqz	a0,14288 <__sfvwrite_r+0x2b4>
   1419c:	00098c13          	mv	s8,s3
   141a0:	0134f463          	bgeu	s1,s3,141a8 <__sfvwrite_r+0x1d4>
   141a4:	00048c13          	mv	s8,s1
   141a8:	00043503          	ld	a0,0(s0)
   141ac:	01843783          	ld	a5,24(s0)
   141b0:	000c0b13          	mv	s6,s8
   141b4:	02042683          	lw	a3,32(s0)
   141b8:	00a7f863          	bgeu	a5,a0,141c8 <__sfvwrite_r+0x1f4>
   141bc:	00c42603          	lw	a2,12(s0)
   141c0:	00d60bbb          	addw	s7,a2,a3
   141c4:	0f8bc263          	blt	s7,s8,142a8 <__sfvwrite_r+0x2d4>
   141c8:	24dc4a63          	blt	s8,a3,1441c <__sfvwrite_r+0x448>
   141cc:	04043783          	ld	a5,64(s0)
   141d0:	03043583          	ld	a1,48(s0)
   141d4:	000c8613          	mv	a2,s9
   141d8:	000a8513          	mv	a0,s5
   141dc:	000780e7          	jalr	a5 # ffffffffffff0000 <__BSS_END__+0xfffffffffffcbaa0>
   141e0:	00050b13          	mv	s6,a0
   141e4:	06a05c63          	blez	a0,1425c <__sfvwrite_r+0x288>
   141e8:	0005061b          	sext.w	a2,a0
   141ec:	40c989bb          	subw	s3,s3,a2
   141f0:	00100513          	li	a0,1
   141f4:	04098c63          	beqz	s3,1424c <__sfvwrite_r+0x278>
   141f8:	010a3783          	ld	a5,16(s4)
   141fc:	016c8cb3          	add	s9,s9,s6
   14200:	416484b3          	sub	s1,s1,s6
   14204:	41678b33          	sub	s6,a5,s6
   14208:	016a3823          	sd	s6,16(s4)
   1420c:	f80b14e3          	bnez	s6,14194 <__sfvwrite_r+0x1c0>
   14210:	00000513          	li	a0,0
   14214:	05813083          	ld	ra,88(sp)
   14218:	05013403          	ld	s0,80(sp)
   1421c:	04813483          	ld	s1,72(sp)
   14220:	04013903          	ld	s2,64(sp)
   14224:	03813983          	ld	s3,56(sp)
   14228:	03013a03          	ld	s4,48(sp)
   1422c:	02813a83          	ld	s5,40(sp)
   14230:	02013b03          	ld	s6,32(sp)
   14234:	01813b83          	ld	s7,24(sp)
   14238:	01013c03          	ld	s8,16(sp)
   1423c:	00813c83          	ld	s9,8(sp)
   14240:	00013d03          	ld	s10,0(sp)
   14244:	06010113          	addi	sp,sp,96
   14248:	00008067          	ret
   1424c:	00040593          	mv	a1,s0
   14250:	000a8513          	mv	a0,s5
   14254:	d50ff0ef          	jal	ra,137a4 <_fflush_r>
   14258:	fa0500e3          	beqz	a0,141f8 <__sfvwrite_r+0x224>
   1425c:	01041783          	lh	a5,16(s0)
   14260:	0407e793          	ori	a5,a5,64
   14264:	00f41823          	sh	a5,16(s0)
   14268:	fff00513          	li	a0,-1
   1426c:	fa9ff06f          	j	14214 <__sfvwrite_r+0x240>
   14270:	00000513          	li	a0,0
   14274:	00008067          	ret
   14278:	00893483          	ld	s1,8(s2)
   1427c:	00093c83          	ld	s9,0(s2)
   14280:	01090913          	addi	s2,s2,16
   14284:	fe048ae3          	beqz	s1,14278 <__sfvwrite_r+0x2a4>
   14288:	00048613          	mv	a2,s1
   1428c:	00a00593          	li	a1,10
   14290:	000c8513          	mv	a0,s9
   14294:	3b1030ef          	jal	ra,17e44 <memchr>
   14298:	1e050263          	beqz	a0,1447c <__sfvwrite_r+0x4a8>
   1429c:	00150513          	addi	a0,a0,1
   142a0:	419509bb          	subw	s3,a0,s9
   142a4:	ef9ff06f          	j	1419c <__sfvwrite_r+0x1c8>
   142a8:	000c8593          	mv	a1,s9
   142ac:	000b8613          	mv	a2,s7
   142b0:	599030ef          	jal	ra,18048 <memmove>
   142b4:	00043783          	ld	a5,0(s0)
   142b8:	00040593          	mv	a1,s0
   142bc:	000a8513          	mv	a0,s5
   142c0:	017787b3          	add	a5,a5,s7
   142c4:	00f43023          	sd	a5,0(s0)
   142c8:	cdcff0ef          	jal	ra,137a4 <_fflush_r>
   142cc:	f80518e3          	bnez	a0,1425c <__sfvwrite_r+0x288>
   142d0:	000b8613          	mv	a2,s7
   142d4:	000b8b13          	mv	s6,s7
   142d8:	f15ff06f          	j	141ec <__sfvwrite_r+0x218>
   142dc:	01843783          	ld	a5,24(s0)
   142e0:	04a7ec63          	bltu	a5,a0,14338 <__sfvwrite_r+0x364>
   142e4:	02042c83          	lw	s9,32(s0)
   142e8:	0599e863          	bltu	s3,s9,14338 <__sfvwrite_r+0x364>
   142ec:	00098513          	mv	a0,s3
   142f0:	013bf463          	bgeu	s7,s3,142f8 <__sfvwrite_r+0x324>
   142f4:	000b0513          	mv	a0,s6
   142f8:	000c8593          	mv	a1,s9
   142fc:	0005051b          	sext.w	a0,a0
   14300:	0b00d0ef          	jal	ra,213b0 <__divdi3>
   14304:	00050593          	mv	a1,a0
   14308:	000c8513          	mv	a0,s9
   1430c:	b18fc0ef          	jal	ra,10624 <__muldi3>
   14310:	03043583          	ld	a1,48(s0)
   14314:	04043783          	ld	a5,64(s0)
   14318:	0005069b          	sext.w	a3,a0
   1431c:	000c0613          	mv	a2,s8
   14320:	000a8513          	mv	a0,s5
   14324:	000780e7          	jalr	a5
   14328:	f2a05ae3          	blez	a0,1425c <__sfvwrite_r+0x288>
   1432c:	00050493          	mv	s1,a0
   14330:	409989b3          	sub	s3,s3,s1
   14334:	e19ff06f          	j	1414c <__sfvwrite_r+0x178>
   14338:	0099f463          	bgeu	s3,s1,14340 <__sfvwrite_r+0x36c>
   1433c:	00098493          	mv	s1,s3
   14340:	00048613          	mv	a2,s1
   14344:	000c0593          	mv	a1,s8
   14348:	501030ef          	jal	ra,18048 <memmove>
   1434c:	00c42783          	lw	a5,12(s0)
   14350:	00043703          	ld	a4,0(s0)
   14354:	409786bb          	subw	a3,a5,s1
   14358:	00970733          	add	a4,a4,s1
   1435c:	00d42623          	sw	a3,12(s0)
   14360:	00e43023          	sd	a4,0(s0)
   14364:	fc0696e3          	bnez	a3,14330 <__sfvwrite_r+0x35c>
   14368:	00040593          	mv	a1,s0
   1436c:	000a8513          	mv	a0,s5
   14370:	c34ff0ef          	jal	ra,137a4 <_fflush_r>
   14374:	ee0514e3          	bnez	a0,1425c <__sfvwrite_r+0x288>
   14378:	409989b3          	sub	s3,s3,s1
   1437c:	dd1ff06f          	j	1414c <__sfvwrite_r+0x178>
   14380:	4807f713          	andi	a4,a5,1152
   14384:	d8070ee3          	beqz	a4,14120 <__sfvwrite_r+0x14c>
   14388:	02042683          	lw	a3,32(s0)
   1438c:	01843583          	ld	a1,24(s0)
   14390:	00198713          	addi	a4,s3,1
   14394:	0016949b          	slliw	s1,a3,0x1
   14398:	00d486bb          	addw	a3,s1,a3
   1439c:	40b50533          	sub	a0,a0,a1
   143a0:	01f6d49b          	srliw	s1,a3,0x1f
   143a4:	00050c9b          	sext.w	s9,a0
   143a8:	00d484bb          	addw	s1,s1,a3
   143ac:	4014d49b          	sraiw	s1,s1,0x1
   143b0:	01970733          	add	a4,a4,s9
   143b4:	00e4f663          	bgeu	s1,a4,143c0 <__sfvwrite_r+0x3ec>
   143b8:	0019849b          	addiw	s1,s3,1
   143bc:	00a484bb          	addw	s1,s1,a0
   143c0:	4007f793          	andi	a5,a5,1024
   143c4:	08078263          	beqz	a5,14448 <__sfvwrite_r+0x474>
   143c8:	00048593          	mv	a1,s1
   143cc:	000a8513          	mv	a0,s5
   143d0:	1c8030ef          	jal	ra,17598 <_malloc_r>
   143d4:	00050d13          	mv	s10,a0
   143d8:	0a050663          	beqz	a0,14484 <__sfvwrite_r+0x4b0>
   143dc:	01843583          	ld	a1,24(s0)
   143e0:	000c8613          	mv	a2,s9
   143e4:	349030ef          	jal	ra,17f2c <memcpy>
   143e8:	01045783          	lhu	a5,16(s0)
   143ec:	b7f7f793          	andi	a5,a5,-1153
   143f0:	0807e793          	ori	a5,a5,128
   143f4:	00f41823          	sh	a5,16(s0)
   143f8:	019d0533          	add	a0,s10,s9
   143fc:	419487bb          	subw	a5,s1,s9
   14400:	01a43c23          	sd	s10,24(s0)
   14404:	00a43023          	sd	a0,0(s0)
   14408:	02942023          	sw	s1,32(s0)
   1440c:	00098c93          	mv	s9,s3
   14410:	00f42623          	sw	a5,12(s0)
   14414:	00098d13          	mv	s10,s3
   14418:	d09ff06f          	j	14120 <__sfvwrite_r+0x14c>
   1441c:	000c0613          	mv	a2,s8
   14420:	000c8593          	mv	a1,s9
   14424:	425030ef          	jal	ra,18048 <memmove>
   14428:	00c42703          	lw	a4,12(s0)
   1442c:	00043783          	ld	a5,0(s0)
   14430:	000c061b          	sext.w	a2,s8
   14434:	40c7073b          	subw	a4,a4,a2
   14438:	01878c33          	add	s8,a5,s8
   1443c:	00e42623          	sw	a4,12(s0)
   14440:	01843023          	sd	s8,0(s0)
   14444:	da9ff06f          	j	141ec <__sfvwrite_r+0x218>
   14448:	00048613          	mv	a2,s1
   1444c:	000a8513          	mv	a0,s5
   14450:	5c9040ef          	jal	ra,19218 <_realloc_r>
   14454:	00050d13          	mv	s10,a0
   14458:	fa0510e3          	bnez	a0,143f8 <__sfvwrite_r+0x424>
   1445c:	01843583          	ld	a1,24(s0)
   14460:	000a8513          	mv	a0,s5
   14464:	845ff0ef          	jal	ra,13ca8 <_free_r>
   14468:	01041783          	lh	a5,16(s0)
   1446c:	00c00713          	li	a4,12
   14470:	00eaa023          	sw	a4,0(s5)
   14474:	f7f7f793          	andi	a5,a5,-129
   14478:	de9ff06f          	j	14260 <__sfvwrite_r+0x28c>
   1447c:	0014899b          	addiw	s3,s1,1
   14480:	d1dff06f          	j	1419c <__sfvwrite_r+0x1c8>
   14484:	00c00793          	li	a5,12
   14488:	00faa023          	sw	a5,0(s5)
   1448c:	01041783          	lh	a5,16(s0)
   14490:	dd1ff06f          	j	14260 <__sfvwrite_r+0x28c>
   14494:	fff00513          	li	a0,-1
   14498:	d7dff06f          	j	14214 <__sfvwrite_r+0x240>

000000000001449c <_fwalk>:
   1449c:	fc010113          	addi	sp,sp,-64
   144a0:	01313c23          	sd	s3,24(sp)
   144a4:	02113c23          	sd	ra,56(sp)
   144a8:	02813823          	sd	s0,48(sp)
   144ac:	02913423          	sd	s1,40(sp)
   144b0:	03213023          	sd	s2,32(sp)
   144b4:	01413823          	sd	s4,16(sp)
   144b8:	01513423          	sd	s5,8(sp)
   144bc:	01613023          	sd	s6,0(sp)
   144c0:	52050993          	addi	s3,a0,1312
   144c4:	0a098263          	beqz	s3,14568 <_fwalk+0xcc>
   144c8:	00058a93          	mv	s5,a1
   144cc:	00000913          	li	s2,0
   144d0:	00100b13          	li	s6,1
   144d4:	fff00a13          	li	s4,-1
   144d8:	0089a783          	lw	a5,8(s3)
   144dc:	0109b403          	ld	s0,16(s3)
   144e0:	04f05a63          	blez	a5,14534 <_fwalk+0x98>
   144e4:	fff7879b          	addiw	a5,a5,-1
   144e8:	02079493          	slli	s1,a5,0x20
   144ec:	0204d493          	srli	s1,s1,0x20
   144f0:	00148793          	addi	a5,s1,1
   144f4:	00179493          	slli	s1,a5,0x1
   144f8:	00f484b3          	add	s1,s1,a5
   144fc:	00249493          	slli	s1,s1,0x2
   14500:	40f484b3          	sub	s1,s1,a5
   14504:	00449493          	slli	s1,s1,0x4
   14508:	009404b3          	add	s1,s0,s1
   1450c:	01045783          	lhu	a5,16(s0)
   14510:	00fb7e63          	bgeu	s6,a5,1452c <_fwalk+0x90>
   14514:	01241783          	lh	a5,18(s0)
   14518:	00040513          	mv	a0,s0
   1451c:	01478863          	beq	a5,s4,1452c <_fwalk+0x90>
   14520:	000a80e7          	jalr	s5
   14524:	01256933          	or	s2,a0,s2
   14528:	0009091b          	sext.w	s2,s2
   1452c:	0b040413          	addi	s0,s0,176
   14530:	fc941ee3          	bne	s0,s1,1450c <_fwalk+0x70>
   14534:	0009b983          	ld	s3,0(s3)
   14538:	fa0990e3          	bnez	s3,144d8 <_fwalk+0x3c>
   1453c:	03813083          	ld	ra,56(sp)
   14540:	03013403          	ld	s0,48(sp)
   14544:	00090513          	mv	a0,s2
   14548:	02813483          	ld	s1,40(sp)
   1454c:	02013903          	ld	s2,32(sp)
   14550:	01813983          	ld	s3,24(sp)
   14554:	01013a03          	ld	s4,16(sp)
   14558:	00813a83          	ld	s5,8(sp)
   1455c:	00013b03          	ld	s6,0(sp)
   14560:	04010113          	addi	sp,sp,64
   14564:	00008067          	ret
   14568:	00000913          	li	s2,0
   1456c:	fd1ff06f          	j	1453c <_fwalk+0xa0>

0000000000014570 <_fwalk_reent>:
   14570:	fb010113          	addi	sp,sp,-80
   14574:	03213823          	sd	s2,48(sp)
   14578:	04113423          	sd	ra,72(sp)
   1457c:	04813023          	sd	s0,64(sp)
   14580:	02913c23          	sd	s1,56(sp)
   14584:	03313423          	sd	s3,40(sp)
   14588:	03413023          	sd	s4,32(sp)
   1458c:	01513c23          	sd	s5,24(sp)
   14590:	01613823          	sd	s6,16(sp)
   14594:	01713423          	sd	s7,8(sp)
   14598:	52050913          	addi	s2,a0,1312
   1459c:	0a090863          	beqz	s2,1464c <_fwalk_reent+0xdc>
   145a0:	00058a93          	mv	s5,a1
   145a4:	00050993          	mv	s3,a0
   145a8:	00000b13          	li	s6,0
   145ac:	00100b93          	li	s7,1
   145b0:	fff00a13          	li	s4,-1
   145b4:	00892783          	lw	a5,8(s2)
   145b8:	01093403          	ld	s0,16(s2)
   145bc:	04f05c63          	blez	a5,14614 <_fwalk_reent+0xa4>
   145c0:	fff7879b          	addiw	a5,a5,-1
   145c4:	02079493          	slli	s1,a5,0x20
   145c8:	0204d493          	srli	s1,s1,0x20
   145cc:	00148793          	addi	a5,s1,1
   145d0:	00179493          	slli	s1,a5,0x1
   145d4:	00f484b3          	add	s1,s1,a5
   145d8:	00249493          	slli	s1,s1,0x2
   145dc:	40f484b3          	sub	s1,s1,a5
   145e0:	00449493          	slli	s1,s1,0x4
   145e4:	009404b3          	add	s1,s0,s1
   145e8:	01045783          	lhu	a5,16(s0)
   145ec:	02fbf063          	bgeu	s7,a5,1460c <_fwalk_reent+0x9c>
   145f0:	01241783          	lh	a5,18(s0)
   145f4:	00040593          	mv	a1,s0
   145f8:	00098513          	mv	a0,s3
   145fc:	01478863          	beq	a5,s4,1460c <_fwalk_reent+0x9c>
   14600:	000a80e7          	jalr	s5
   14604:	01656b33          	or	s6,a0,s6
   14608:	000b0b1b          	sext.w	s6,s6
   1460c:	0b040413          	addi	s0,s0,176
   14610:	fc941ce3          	bne	s0,s1,145e8 <_fwalk_reent+0x78>
   14614:	00093903          	ld	s2,0(s2)
   14618:	f8091ee3          	bnez	s2,145b4 <_fwalk_reent+0x44>
   1461c:	04813083          	ld	ra,72(sp)
   14620:	04013403          	ld	s0,64(sp)
   14624:	000b0513          	mv	a0,s6
   14628:	03813483          	ld	s1,56(sp)
   1462c:	03013903          	ld	s2,48(sp)
   14630:	02813983          	ld	s3,40(sp)
   14634:	02013a03          	ld	s4,32(sp)
   14638:	01813a83          	ld	s5,24(sp)
   1463c:	01013b03          	ld	s6,16(sp)
   14640:	00813b83          	ld	s7,8(sp)
   14644:	05010113          	addi	sp,sp,80
   14648:	00008067          	ret
   1464c:	00000b13          	li	s6,0
   14650:	fcdff06f          	j	1461c <_fwalk_reent+0xac>

0000000000014654 <eshdn1>:
   14654:	00450693          	addi	a3,a0,4
   14658:	00000793          	li	a5,0
   1465c:	01a50513          	addi	a0,a0,26
   14660:	ffff8837          	lui	a6,0xffff8
   14664:	01c0006f          	j	14680 <eshdn1+0x2c>
   14668:	0017979b          	slliw	a5,a5,0x1
   1466c:	00e69023          	sh	a4,0(a3)
   14670:	03079793          	slli	a5,a5,0x30
   14674:	00268693          	addi	a3,a3,2
   14678:	0307d793          	srli	a5,a5,0x30
   1467c:	02d50e63          	beq	a0,a3,146b8 <eshdn1+0x64>
   14680:	0006d703          	lhu	a4,0(a3)
   14684:	00177613          	andi	a2,a4,1
   14688:	00060463          	beqz	a2,14690 <eshdn1+0x3c>
   1468c:	0017e793          	ori	a5,a5,1
   14690:	00175713          	srli	a4,a4,0x1
   14694:	0027f613          	andi	a2,a5,2
   14698:	010765b3          	or	a1,a4,a6
   1469c:	fc0606e3          	beqz	a2,14668 <eshdn1+0x14>
   146a0:	0017979b          	slliw	a5,a5,0x1
   146a4:	00b69023          	sh	a1,0(a3)
   146a8:	03079793          	slli	a5,a5,0x30
   146ac:	00268693          	addi	a3,a3,2
   146b0:	0307d793          	srli	a5,a5,0x30
   146b4:	fcd516e3          	bne	a0,a3,14680 <eshdn1+0x2c>
   146b8:	00008067          	ret

00000000000146bc <eshup1>:
   146bc:	01850693          	addi	a3,a0,24
   146c0:	00000713          	li	a4,0
   146c4:	00250513          	addi	a0,a0,2
   146c8:	01c0006f          	j	146e4 <eshup1+0x28>
   146cc:	0017171b          	slliw	a4,a4,0x1
   146d0:	00f69023          	sh	a5,0(a3)
   146d4:	03071713          	slli	a4,a4,0x30
   146d8:	ffe68693          	addi	a3,a3,-2
   146dc:	03075713          	srli	a4,a4,0x30
   146e0:	04d50663          	beq	a0,a3,1472c <eshup1+0x70>
   146e4:	0006d783          	lhu	a5,0(a3)
   146e8:	0107961b          	slliw	a2,a5,0x10
   146ec:	4106561b          	sraiw	a2,a2,0x10
   146f0:	02061593          	slli	a1,a2,0x20
   146f4:	0017979b          	slliw	a5,a5,0x1
   146f8:	0005d463          	bgez	a1,14700 <eshup1+0x44>
   146fc:	00176713          	ori	a4,a4,1
   14700:	03079793          	slli	a5,a5,0x30
   14704:	0307d793          	srli	a5,a5,0x30
   14708:	00277613          	andi	a2,a4,2
   1470c:	0017e593          	ori	a1,a5,1
   14710:	fa060ee3          	beqz	a2,146cc <eshup1+0x10>
   14714:	0017171b          	slliw	a4,a4,0x1
   14718:	00b69023          	sh	a1,0(a3)
   1471c:	03071713          	slli	a4,a4,0x30
   14720:	ffe68693          	addi	a3,a3,-2
   14724:	03075713          	srli	a4,a4,0x30
   14728:	fad51ee3          	bne	a0,a3,146e4 <eshup1+0x28>
   1472c:	00008067          	ret

0000000000014730 <m16m>:
   14730:	fa010113          	addi	sp,sp,-96
   14734:	03413823          	sd	s4,48(sp)
   14738:	00010a37          	lui	s4,0x10
   1473c:	04813823          	sd	s0,80(sp)
   14740:	04913423          	sd	s1,72(sp)
   14744:	05213023          	sd	s2,64(sp)
   14748:	03313c23          	sd	s3,56(sp)
   1474c:	03513423          	sd	s5,40(sp)
   14750:	04113c23          	sd	ra,88(sp)
   14754:	00050a93          	mv	s5,a0
   14758:	00060493          	mv	s1,a2
   1475c:	00011b23          	sh	zero,22(sp)
   14760:	00011c23          	sh	zero,24(sp)
   14764:	01858913          	addi	s2,a1,24
   14768:	01810413          	addi	s0,sp,24
   1476c:	00410993          	addi	s3,sp,4
   14770:	fffa0a13          	addi	s4,s4,-1 # ffff <register_fini-0xb1>
   14774:	00095783          	lhu	a5,0(s2)
   14778:	000a8593          	mv	a1,s5
   1477c:	ffe40413          	addi	s0,s0,-2
   14780:	ffe90913          	addi	s2,s2,-2
   14784:	00078513          	mv	a0,a5
   14788:	04079663          	bnez	a5,147d4 <m16m+0xa4>
   1478c:	fe041f23          	sh	zero,-2(s0)
   14790:	ff3412e3          	bne	s0,s3,14774 <m16m+0x44>
   14794:	00448613          	addi	a2,s1,4
   14798:	01a10713          	addi	a4,sp,26
   1479c:	00045783          	lhu	a5,0(s0)
   147a0:	00260613          	addi	a2,a2,2
   147a4:	00240413          	addi	s0,s0,2
   147a8:	fef61f23          	sh	a5,-2(a2)
   147ac:	fee418e3          	bne	s0,a4,1479c <m16m+0x6c>
   147b0:	05813083          	ld	ra,88(sp)
   147b4:	05013403          	ld	s0,80(sp)
   147b8:	04813483          	ld	s1,72(sp)
   147bc:	04013903          	ld	s2,64(sp)
   147c0:	03813983          	ld	s3,56(sp)
   147c4:	03013a03          	ld	s4,48(sp)
   147c8:	02813a83          	ld	s5,40(sp)
   147cc:	06010113          	addi	sp,sp,96
   147d0:	00008067          	ret
   147d4:	e51fb0ef          	jal	ra,10624 <__muldi3>
   147d8:	00245703          	lhu	a4,2(s0)
   147dc:	00045683          	lhu	a3,0(s0)
   147e0:	014577b3          	and	a5,a0,s4
   147e4:	00e787b3          	add	a5,a5,a4
   147e8:	01055513          	srli	a0,a0,0x10
   147ec:	0107d713          	srli	a4,a5,0x10
   147f0:	00d50533          	add	a0,a0,a3
   147f4:	00e50533          	add	a0,a0,a4
   147f8:	01055713          	srli	a4,a0,0x10
   147fc:	00f41123          	sh	a5,2(s0)
   14800:	00a41023          	sh	a0,0(s0)
   14804:	fee41f23          	sh	a4,-2(s0)
   14808:	f73416e3          	bne	s0,s3,14774 <m16m+0x44>
   1480c:	f89ff06f          	j	14794 <m16m+0x64>

0000000000014810 <eisnan.part.0>:
   14810:	01250713          	addi	a4,a0,18
   14814:	00250513          	addi	a0,a0,2
   14818:	ffe55783          	lhu	a5,-2(a0)
   1481c:	00079863          	bnez	a5,1482c <eisnan.part.0+0x1c>
   14820:	fea71ae3          	bne	a4,a0,14814 <eisnan.part.0+0x4>
   14824:	00000513          	li	a0,0
   14828:	00008067          	ret
   1482c:	00100513          	li	a0,1
   14830:	00008067          	ret

0000000000014834 <eneg>:
   14834:	fe010113          	addi	sp,sp,-32
   14838:	00813823          	sd	s0,16(sp)
   1483c:	01255403          	lhu	s0,18(a0)
   14840:	00913423          	sd	s1,8(sp)
   14844:	00113c23          	sd	ra,24(sp)
   14848:	fff44793          	not	a5,s0
   1484c:	03179713          	slli	a4,a5,0x31
   14850:	00050493          	mv	s1,a0
   14854:	00071663          	bnez	a4,14860 <eneg+0x2c>
   14858:	fb9ff0ef          	jal	ra,14810 <eisnan.part.0>
   1485c:	00051863          	bnez	a0,1486c <eneg+0x38>
   14860:	ffff87b7          	lui	a5,0xffff8
   14864:	00f44433          	xor	s0,s0,a5
   14868:	00849923          	sh	s0,18(s1)
   1486c:	01813083          	ld	ra,24(sp)
   14870:	01013403          	ld	s0,16(sp)
   14874:	00813483          	ld	s1,8(sp)
   14878:	02010113          	addi	sp,sp,32
   1487c:	00008067          	ret

0000000000014880 <eisneg>:
   14880:	ff010113          	addi	sp,sp,-16
   14884:	00813023          	sd	s0,0(sp)
   14888:	01255403          	lhu	s0,18(a0)
   1488c:	00113423          	sd	ra,8(sp)
   14890:	fff44793          	not	a5,s0
   14894:	03179713          	slli	a4,a5,0x31
   14898:	00071863          	bnez	a4,148a8 <eisneg+0x28>
   1489c:	f75ff0ef          	jal	ra,14810 <eisnan.part.0>
   148a0:	00000793          	li	a5,0
   148a4:	00051463          	bnez	a0,148ac <eisneg+0x2c>
   148a8:	00f45793          	srli	a5,s0,0xf
   148ac:	00813083          	ld	ra,8(sp)
   148b0:	00013403          	ld	s0,0(sp)
   148b4:	00078513          	mv	a0,a5
   148b8:	01010113          	addi	sp,sp,16
   148bc:	00008067          	ret

00000000000148c0 <emovi>:
   148c0:	01251783          	lh	a5,18(a0)
   148c4:	fe010113          	addi	sp,sp,-32
   148c8:	00113c23          	sd	ra,24(sp)
   148cc:	00813823          	sd	s0,16(sp)
   148d0:	00913423          	sd	s1,8(sp)
   148d4:	01213023          	sd	s2,0(sp)
   148d8:	0607c263          	bltz	a5,1493c <emovi+0x7c>
   148dc:	00059023          	sh	zero,0(a1)
   148e0:	01255783          	lhu	a5,18(a0)
   148e4:	00008737          	lui	a4,0x8
   148e8:	fff70713          	addi	a4,a4,-1 # 7fff <register_fini-0x80b1>
   148ec:	00f777b3          	and	a5,a4,a5
   148f0:	00f59123          	sh	a5,2(a1)
   148f4:	0007879b          	sext.w	a5,a5
   148f8:	01050413          	addi	s0,a0,16
   148fc:	06e78463          	beq	a5,a4,14964 <emovi+0xa4>
   14900:	00658793          	addi	a5,a1,6
   14904:	00059223          	sh	zero,4(a1)
   14908:	ffe50513          	addi	a0,a0,-2
   1490c:	ffe40413          	addi	s0,s0,-2
   14910:	00245703          	lhu	a4,2(s0)
   14914:	00278793          	addi	a5,a5,2 # ffffffffffff8002 <__BSS_END__+0xfffffffffffd3aa2>
   14918:	fee79f23          	sh	a4,-2(a5)
   1491c:	fe8518e3          	bne	a0,s0,1490c <emovi+0x4c>
   14920:	00059c23          	sh	zero,24(a1)
   14924:	01813083          	ld	ra,24(sp)
   14928:	01013403          	ld	s0,16(sp)
   1492c:	00813483          	ld	s1,8(sp)
   14930:	00013903          	ld	s2,0(sp)
   14934:	02010113          	addi	sp,sp,32
   14938:	00008067          	ret
   1493c:	fff00793          	li	a5,-1
   14940:	00f59023          	sh	a5,0(a1)
   14944:	01255783          	lhu	a5,18(a0)
   14948:	00008737          	lui	a4,0x8
   1494c:	fff70713          	addi	a4,a4,-1 # 7fff <register_fini-0x80b1>
   14950:	00f777b3          	and	a5,a4,a5
   14954:	00f59123          	sh	a5,2(a1)
   14958:	0007879b          	sext.w	a5,a5
   1495c:	01050413          	addi	s0,a0,16
   14960:	fae790e3          	bne	a5,a4,14900 <emovi+0x40>
   14964:	01255703          	lhu	a4,18(a0)
   14968:	00058913          	mv	s2,a1
   1496c:	00050493          	mv	s1,a0
   14970:	00e7f733          	and	a4,a5,a4
   14974:	02f71863          	bne	a4,a5,149a4 <emovi+0xe4>
   14978:	e99ff0ef          	jal	ra,14810 <eisnan.part.0>
   1497c:	02050463          	beqz	a0,149a4 <emovi+0xe4>
   14980:	00690713          	addi	a4,s2,6
   14984:	00091223          	sh	zero,4(s2)
   14988:	ffc48793          	addi	a5,s1,-4
   1498c:	ffe40413          	addi	s0,s0,-2
   14990:	00245683          	lhu	a3,2(s0)
   14994:	00270713          	addi	a4,a4,2
   14998:	fed71f23          	sh	a3,-2(a4)
   1499c:	fe8798e3          	bne	a5,s0,1498c <emovi+0xcc>
   149a0:	f85ff06f          	j	14924 <emovi+0x64>
   149a4:	00490793          	addi	a5,s2,4
   149a8:	01a90593          	addi	a1,s2,26
   149ac:	00278793          	addi	a5,a5,2
   149b0:	fe079f23          	sh	zero,-2(a5)
   149b4:	fef59ce3          	bne	a1,a5,149ac <emovi+0xec>
   149b8:	01813083          	ld	ra,24(sp)
   149bc:	01013403          	ld	s0,16(sp)
   149c0:	00813483          	ld	s1,8(sp)
   149c4:	00013903          	ld	s2,0(sp)
   149c8:	02010113          	addi	sp,sp,32
   149cc:	00008067          	ret

00000000000149d0 <ecmp>:
   149d0:	01255783          	lhu	a5,18(a0)
   149d4:	fa010113          	addi	sp,sp,-96
   149d8:	04813823          	sd	s0,80(sp)
   149dc:	fff7c793          	not	a5,a5
   149e0:	04913423          	sd	s1,72(sp)
   149e4:	04113c23          	sd	ra,88(sp)
   149e8:	03179713          	slli	a4,a5,0x31
   149ec:	00050493          	mv	s1,a0
   149f0:	00058413          	mv	s0,a1
   149f4:	00071663          	bnez	a4,14a00 <ecmp+0x30>
   149f8:	e19ff0ef          	jal	ra,14810 <eisnan.part.0>
   149fc:	08051263          	bnez	a0,14a80 <ecmp+0xb0>
   14a00:	01245783          	lhu	a5,18(s0)
   14a04:	fff7c793          	not	a5,a5
   14a08:	03179713          	slli	a4,a5,0x31
   14a0c:	06070463          	beqz	a4,14a74 <ecmp+0xa4>
   14a10:	00010593          	mv	a1,sp
   14a14:	00048513          	mv	a0,s1
   14a18:	ea9ff0ef          	jal	ra,148c0 <emovi>
   14a1c:	02010593          	addi	a1,sp,32
   14a20:	00040513          	mv	a0,s0
   14a24:	e9dff0ef          	jal	ra,148c0 <emovi>
   14a28:	00015583          	lhu	a1,0(sp)
   14a2c:	02015783          	lhu	a5,32(sp)
   14a30:	04b78c63          	beq	a5,a1,14a88 <ecmp+0xb8>
   14a34:	00210793          	addi	a5,sp,2
   14a38:	02210713          	addi	a4,sp,34
   14a3c:	01810613          	addi	a2,sp,24
   14a40:	0007d683          	lhu	a3,0(a5)
   14a44:	00278793          	addi	a5,a5,2
   14a48:	08069663          	bnez	a3,14ad4 <ecmp+0x104>
   14a4c:	00075683          	lhu	a3,0(a4)
   14a50:	00270713          	addi	a4,a4,2
   14a54:	08069063          	bnez	a3,14ad4 <ecmp+0x104>
   14a58:	fec794e3          	bne	a5,a2,14a40 <ecmp+0x70>
   14a5c:	00000513          	li	a0,0
   14a60:	05813083          	ld	ra,88(sp)
   14a64:	05013403          	ld	s0,80(sp)
   14a68:	04813483          	ld	s1,72(sp)
   14a6c:	06010113          	addi	sp,sp,96
   14a70:	00008067          	ret
   14a74:	00040513          	mv	a0,s0
   14a78:	d99ff0ef          	jal	ra,14810 <eisnan.part.0>
   14a7c:	f8050ae3          	beqz	a0,14a10 <ecmp+0x40>
   14a80:	ffe00513          	li	a0,-2
   14a84:	fddff06f          	j	14a60 <ecmp+0x90>
   14a88:	00100513          	li	a0,1
   14a8c:	04059c63          	bnez	a1,14ae4 <ecmp+0x114>
   14a90:	00210713          	addi	a4,sp,2
   14a94:	02210793          	addi	a5,sp,34
   14a98:	00278793          	addi	a5,a5,2
   14a9c:	00270713          	addi	a4,a4,2
   14aa0:	ffe75603          	lhu	a2,-2(a4)
   14aa4:	ffe7d683          	lhu	a3,-2(a5)
   14aa8:	03810593          	addi	a1,sp,56
   14aac:	00d61e63          	bne	a2,a3,14ac8 <ecmp+0xf8>
   14ab0:	fab786e3          	beq	a5,a1,14a5c <ecmp+0x8c>
   14ab4:	00278793          	addi	a5,a5,2
   14ab8:	00270713          	addi	a4,a4,2
   14abc:	ffe75603          	lhu	a2,-2(a4)
   14ac0:	ffe7d683          	lhu	a3,-2(a5)
   14ac4:	fed606e3          	beq	a2,a3,14ab0 <ecmp+0xe0>
   14ac8:	f8c6ece3          	bltu	a3,a2,14a60 <ecmp+0x90>
   14acc:	40a0053b          	negw	a0,a0
   14ad0:	f91ff06f          	j	14a60 <ecmp+0x90>
   14ad4:	00100513          	li	a0,1
   14ad8:	f80584e3          	beqz	a1,14a60 <ecmp+0x90>
   14adc:	fff00513          	li	a0,-1
   14ae0:	f81ff06f          	j	14a60 <ecmp+0x90>
   14ae4:	fff00513          	li	a0,-1
   14ae8:	fa9ff06f          	j	14a90 <ecmp+0xc0>

0000000000014aec <eisinf.part.1>:
   14aec:	ff010113          	addi	sp,sp,-16
   14af0:	00113423          	sd	ra,8(sp)
   14af4:	d1dff0ef          	jal	ra,14810 <eisnan.part.0>
   14af8:	00813083          	ld	ra,8(sp)
   14afc:	00153513          	seqz	a0,a0
   14b00:	01010113          	addi	sp,sp,16
   14b04:	00008067          	ret

0000000000014b08 <eshift.part.3>:
   14b08:	fe010113          	addi	sp,sp,-32
   14b0c:	00813823          	sd	s0,16(sp)
   14b10:	00913423          	sd	s1,8(sp)
   14b14:	00113c23          	sd	ra,24(sp)
   14b18:	01213023          	sd	s2,0(sp)
   14b1c:	00058493          	mv	s1,a1
   14b20:	00050413          	mv	s0,a0
   14b24:	0a05ca63          	bltz	a1,14bd8 <eshift.part.3+0xd0>
   14b28:	00f00793          	li	a5,15
   14b2c:	00058613          	mv	a2,a1
   14b30:	00450513          	addi	a0,a0,4
   14b34:	01840693          	addi	a3,s0,24
   14b38:	00f00593          	li	a1,15
   14b3c:	0297dc63          	bge	a5,s1,14b74 <eshift.part.3+0x6c>
   14b40:	00050793          	mv	a5,a0
   14b44:	00278793          	addi	a5,a5,2
   14b48:	0007d703          	lhu	a4,0(a5)
   14b4c:	fee79f23          	sh	a4,-2(a5)
   14b50:	fed79ae3          	bne	a5,a3,14b44 <eshift.part.3+0x3c>
   14b54:	00041c23          	sh	zero,24(s0)
   14b58:	ff06061b          	addiw	a2,a2,-16
   14b5c:	fec5c2e3          	blt	a1,a2,14b40 <eshift.part.3+0x38>
   14b60:	ff04849b          	addiw	s1,s1,-16
   14b64:	0044d79b          	srliw	a5,s1,0x4
   14b68:	ff000713          	li	a4,-16
   14b6c:	48e7f48b          	custom0.madd.s	s1,a5,a4,s1
   14b70:	0004849b          	sext.w	s1,s1
   14b74:	00700793          	li	a5,7
   14b78:	0297d863          	bge	a5,s1,14ba8 <eshift.part.3+0xa0>
   14b7c:	01840793          	addi	a5,s0,24
   14b80:	00240593          	addi	a1,s0,2
   14b84:	00000713          	li	a4,0
   14b88:	0007d683          	lhu	a3,0(a5)
   14b8c:	ffe78793          	addi	a5,a5,-2
   14b90:	00869613          	slli	a2,a3,0x8
   14b94:	00c76733          	or	a4,a4,a2
   14b98:	00e79123          	sh	a4,2(a5)
   14b9c:	0086d713          	srli	a4,a3,0x8
   14ba0:	feb794e3          	bne	a5,a1,14b88 <eshift.part.3+0x80>
   14ba4:	ff84849b          	addiw	s1,s1,-8
   14ba8:	00048a63          	beqz	s1,14bbc <eshift.part.3+0xb4>
   14bac:	fff4849b          	addiw	s1,s1,-1
   14bb0:	00040513          	mv	a0,s0
   14bb4:	b09ff0ef          	jal	ra,146bc <eshup1>
   14bb8:	fe049ae3          	bnez	s1,14bac <eshift.part.3+0xa4>
   14bbc:	01813083          	ld	ra,24(sp)
   14bc0:	01013403          	ld	s0,16(sp)
   14bc4:	00813483          	ld	s1,8(sp)
   14bc8:	00013903          	ld	s2,0(sp)
   14bcc:	00000513          	li	a0,0
   14bd0:	02010113          	addi	sp,sp,32
   14bd4:	00008067          	ret
   14bd8:	ff100793          	li	a5,-15
   14bdc:	40b0093b          	negw	s2,a1
   14be0:	0cf5d463          	bge	a1,a5,14ca8 <eshift.part.3+0x1a0>
   14be4:	01850593          	addi	a1,a0,24
   14be8:	00000493          	li	s1,0
   14bec:	00450693          	addi	a3,a0,4
   14bf0:	00f00613          	li	a2,15
   14bf4:	01845703          	lhu	a4,24(s0)
   14bf8:	00058793          	mv	a5,a1
   14bfc:	00e4e4b3          	or	s1,s1,a4
   14c00:	ffe78793          	addi	a5,a5,-2
   14c04:	0007d703          	lhu	a4,0(a5)
   14c08:	00e79123          	sh	a4,2(a5)
   14c0c:	fed79ae3          	bne	a5,a3,14c00 <eshift.part.3+0xf8>
   14c10:	00041223          	sh	zero,4(s0)
   14c14:	ff09091b          	addiw	s2,s2,-16
   14c18:	fd264ee3          	blt	a2,s2,14bf4 <eshift.part.3+0xec>
   14c1c:	00700793          	li	a5,7
   14c20:	0527d663          	bge	a5,s2,14c6c <eshift.part.3+0x164>
   14c24:	0104949b          	slliw	s1,s1,0x10
   14c28:	4104d49b          	sraiw	s1,s1,0x10
   14c2c:	01844783          	lbu	a5,24(s0)
   14c30:	01a40593          	addi	a1,s0,26
   14c34:	00000713          	li	a4,0
   14c38:	00f4e4b3          	or	s1,s1,a5
   14c3c:	03049493          	slli	s1,s1,0x30
   14c40:	0304d493          	srli	s1,s1,0x30
   14c44:	0006d783          	lhu	a5,0(a3)
   14c48:	00268693          	addi	a3,a3,2
   14c4c:	0087d61b          	srliw	a2,a5,0x8
   14c50:	00c76733          	or	a4,a4,a2
   14c54:	0087979b          	slliw	a5,a5,0x8
   14c58:	fee69f23          	sh	a4,-2(a3)
   14c5c:	03079713          	slli	a4,a5,0x30
   14c60:	03075713          	srli	a4,a4,0x30
   14c64:	feb690e3          	bne	a3,a1,14c44 <eshift.part.3+0x13c>
   14c68:	ff89091b          	addiw	s2,s2,-8
   14c6c:	02090063          	beqz	s2,14c8c <eshift.part.3+0x184>
   14c70:	01845783          	lhu	a5,24(s0)
   14c74:	fff9091b          	addiw	s2,s2,-1
   14c78:	00040513          	mv	a0,s0
   14c7c:	0017f793          	andi	a5,a5,1
   14c80:	0097e4b3          	or	s1,a5,s1
   14c84:	9d1ff0ef          	jal	ra,14654 <eshdn1>
   14c88:	fe0914e3          	bnez	s2,14c70 <eshift.part.3+0x168>
   14c8c:	01813083          	ld	ra,24(sp)
   14c90:	01013403          	ld	s0,16(sp)
   14c94:	00903533          	snez	a0,s1
   14c98:	00013903          	ld	s2,0(sp)
   14c9c:	00813483          	ld	s1,8(sp)
   14ca0:	02010113          	addi	sp,sp,32
   14ca4:	00008067          	ret
   14ca8:	ff900793          	li	a5,-7
   14cac:	00f5c663          	blt	a1,a5,14cb8 <eshift.part.3+0x1b0>
   14cb0:	00000493          	li	s1,0
   14cb4:	fbdff06f          	j	14c70 <eshift.part.3+0x168>
   14cb8:	00000493          	li	s1,0
   14cbc:	00440693          	addi	a3,s0,4
   14cc0:	f6dff06f          	j	14c2c <eshift.part.3+0x124>

0000000000014cc4 <enormlz>:
   14cc4:	00455783          	lhu	a5,4(a0)
   14cc8:	fe010113          	addi	sp,sp,-32
   14ccc:	00913423          	sd	s1,8(sp)
   14cd0:	00113c23          	sd	ra,24(sp)
   14cd4:	00813823          	sd	s0,16(sp)
   14cd8:	01213023          	sd	s2,0(sp)
   14cdc:	00050493          	mv	s1,a0
   14ce0:	0e079063          	bnez	a5,14dc0 <enormlz+0xfc>
   14ce4:	00655703          	lhu	a4,6(a0)
   14ce8:	00000413          	li	s0,0
   14cec:	0107179b          	slliw	a5,a4,0x10
   14cf0:	4107d79b          	sraiw	a5,a5,0x10
   14cf4:	02079693          	slli	a3,a5,0x20
   14cf8:	0a06c663          	bltz	a3,14da4 <enormlz+0xe0>
   14cfc:	01a50693          	addi	a3,a0,26
   14d00:	0a000613          	li	a2,160
   14d04:	02071863          	bnez	a4,14d34 <enormlz+0x70>
   14d08:	00648793          	addi	a5,s1,6
   14d0c:	0080006f          	j	14d14 <enormlz+0x50>
   14d10:	0007d703          	lhu	a4,0(a5)
   14d14:	00278793          	addi	a5,a5,2
   14d18:	fee79e23          	sh	a4,-4(a5)
   14d1c:	fef69ae3          	bne	a3,a5,14d10 <enormlz+0x4c>
   14d20:	00049c23          	sh	zero,24(s1)
   14d24:	0104041b          	addiw	s0,s0,16
   14d28:	06c40e63          	beq	s0,a2,14da4 <enormlz+0xe0>
   14d2c:	0064d703          	lhu	a4,6(s1)
   14d30:	fc070ce3          	beqz	a4,14d08 <enormlz+0x44>
   14d34:	f0077793          	andi	a5,a4,-256
   14d38:	04079063          	bnez	a5,14d78 <enormlz+0xb4>
   14d3c:	01848513          	addi	a0,s1,24
   14d40:	00248593          	addi	a1,s1,2
   14d44:	00000713          	li	a4,0
   14d48:	00050793          	mv	a5,a0
   14d4c:	0007d683          	lhu	a3,0(a5)
   14d50:	ffe78793          	addi	a5,a5,-2
   14d54:	00869613          	slli	a2,a3,0x8
   14d58:	00c76733          	or	a4,a4,a2
   14d5c:	00e79123          	sh	a4,2(a5)
   14d60:	0086d713          	srli	a4,a3,0x8
   14d64:	fef594e3          	bne	a1,a5,14d4c <enormlz+0x88>
   14d68:	0064d703          	lhu	a4,6(s1)
   14d6c:	0084041b          	addiw	s0,s0,8
   14d70:	f0077793          	andi	a5,a4,-256
   14d74:	fc0788e3          	beqz	a5,14d44 <enormlz+0x80>
   14d78:	0a000913          	li	s2,160
   14d7c:	0140006f          	j	14d90 <enormlz+0xcc>
   14d80:	0014041b          	addiw	s0,s0,1
   14d84:	939ff0ef          	jal	ra,146bc <eshup1>
   14d88:	00894e63          	blt	s2,s0,14da4 <enormlz+0xe0>
   14d8c:	0064d703          	lhu	a4,6(s1)
   14d90:	0107171b          	slliw	a4,a4,0x10
   14d94:	4107571b          	sraiw	a4,a4,0x10
   14d98:	02071793          	slli	a5,a4,0x20
   14d9c:	00048513          	mv	a0,s1
   14da0:	fe07d0e3          	bgez	a5,14d80 <enormlz+0xbc>
   14da4:	00040513          	mv	a0,s0
   14da8:	01813083          	ld	ra,24(sp)
   14dac:	01013403          	ld	s0,16(sp)
   14db0:	00813483          	ld	s1,8(sp)
   14db4:	00013903          	ld	s2,0(sp)
   14db8:	02010113          	addi	sp,sp,32
   14dbc:	00008067          	ret
   14dc0:	f007f713          	andi	a4,a5,-256
   14dc4:	00000413          	li	s0,0
   14dc8:	04071063          	bnez	a4,14e08 <enormlz+0x144>
   14dcc:	f6f00913          	li	s2,-145
   14dd0:	0140006f          	j	14de4 <enormlz+0x120>
   14dd4:	fff4041b          	addiw	s0,s0,-1
   14dd8:	87dff0ef          	jal	ra,14654 <eshdn1>
   14ddc:	fd2404e3          	beq	s0,s2,14da4 <enormlz+0xe0>
   14de0:	0044d783          	lhu	a5,4(s1)
   14de4:	00048513          	mv	a0,s1
   14de8:	fe0796e3          	bnez	a5,14dd4 <enormlz+0x110>
   14dec:	00040513          	mv	a0,s0
   14df0:	01813083          	ld	ra,24(sp)
   14df4:	01013403          	ld	s0,16(sp)
   14df8:	00813483          	ld	s1,8(sp)
   14dfc:	00013903          	ld	s2,0(sp)
   14e00:	02010113          	addi	sp,sp,32
   14e04:	00008067          	ret
   14e08:	00450693          	addi	a3,a0,4
   14e0c:	01a50593          	addi	a1,a0,26
   14e10:	00000713          	li	a4,0
   14e14:	0080006f          	j	14e1c <enormlz+0x158>
   14e18:	0006d783          	lhu	a5,0(a3)
   14e1c:	0087d61b          	srliw	a2,a5,0x8
   14e20:	00c76733          	or	a4,a4,a2
   14e24:	0087979b          	slliw	a5,a5,0x8
   14e28:	00e69023          	sh	a4,0(a3)
   14e2c:	03079713          	slli	a4,a5,0x30
   14e30:	00268693          	addi	a3,a3,2
   14e34:	03075713          	srli	a4,a4,0x30
   14e38:	feb690e3          	bne	a3,a1,14e18 <enormlz+0x154>
   14e3c:	0044d783          	lhu	a5,4(s1)
   14e40:	ff800413          	li	s0,-8
   14e44:	f89ff06f          	j	14dcc <enormlz+0x108>

0000000000014e48 <emdnorm>:
   14e48:	fc010113          	addi	sp,sp,-64
   14e4c:	02813823          	sd	s0,48(sp)
   14e50:	02913423          	sd	s1,40(sp)
   14e54:	03213023          	sd	s2,32(sp)
   14e58:	01313c23          	sd	s3,24(sp)
   14e5c:	01413823          	sd	s4,16(sp)
   14e60:	01513423          	sd	s5,8(sp)
   14e64:	00068913          	mv	s2,a3
   14e68:	00078493          	mv	s1,a5
   14e6c:	02113c23          	sd	ra,56(sp)
   14e70:	00050413          	mv	s0,a0
   14e74:	00058993          	mv	s3,a1
   14e78:	00060a13          	mv	s4,a2
   14e7c:	00070a93          	mv	s5,a4
   14e80:	e45ff0ef          	jal	ra,14cc4 <enormlz>
   14e84:	09000793          	li	a5,144
   14e88:	40a90933          	sub	s2,s2,a0
   14e8c:	08a7d063          	bge	a5,a0,14f0c <emdnorm+0xc4>
   14e90:	000087b7          	lui	a5,0x8
   14e94:	ffe78793          	addi	a5,a5,-2 # 7ffe <register_fini-0x80b2>
   14e98:	2527d063          	bge	a5,s2,150d8 <emdnorm+0x290>
   14e9c:	200a8a63          	beqz	s5,150b0 <emdnorm+0x268>
   14ea0:	0044a503          	lw	a0,4(s1)
   14ea4:	0004a783          	lw	a5,0(s1)
   14ea8:	10a78263          	beq	a5,a0,14fac <emdnorm+0x164>
   14eac:	01a48713          	addi	a4,s1,26
   14eb0:	03448793          	addi	a5,s1,52
   14eb4:	00270713          	addi	a4,a4,2
   14eb8:	fe071f23          	sh	zero,-2(a4)
   14ebc:	fef71ce3          	bne	a4,a5,14eb4 <emdnorm+0x6c>
   14ec0:	03800793          	li	a5,56
   14ec4:	38f50c63          	beq	a0,a5,1525c <emdnorm+0x414>
   14ec8:	06a7d463          	bge	a5,a0,14f30 <emdnorm+0xe8>
   14ecc:	04000793          	li	a5,64
   14ed0:	32f50263          	beq	a0,a5,151f4 <emdnorm+0x3ac>
   14ed4:	07100793          	li	a5,113
   14ed8:	34f51663          	bne	a0,a5,15224 <emdnorm+0x3dc>
   14edc:	00a00793          	li	a5,10
   14ee0:	40008737          	lui	a4,0x40008
   14ee4:	fff7071b          	addiw	a4,a4,-1
   14ee8:	02079793          	slli	a5,a5,0x20
   14eec:	00a78793          	addi	a5,a5,10
   14ef0:	00e4aa23          	sw	a4,20(s1)
   14ef4:	ffff8737          	lui	a4,0xffff8
   14ef8:	00e49c23          	sh	a4,24(s1)
   14efc:	00f4b423          	sd	a5,8(s1)
   14f00:	00008737          	lui	a4,0x8
   14f04:	00a00793          	li	a5,10
   14f08:	06c0006f          	j	14f74 <emdnorm+0x12c>
   14f0c:	20095663          	bgez	s2,15118 <emdnorm+0x2d0>
   14f10:	f7000793          	li	a5,-144
   14f14:	1cf95e63          	bge	s2,a5,150f0 <emdnorm+0x2a8>
   14f18:	00240793          	addi	a5,s0,2
   14f1c:	01a40413          	addi	s0,s0,26
   14f20:	00278793          	addi	a5,a5,2
   14f24:	fe079f23          	sh	zero,-2(a5)
   14f28:	fe879ce3          	bne	a5,s0,14f20 <emdnorm+0xd8>
   14f2c:	1600006f          	j	1508c <emdnorm+0x244>
   14f30:	01800793          	li	a5,24
   14f34:	28f50863          	beq	a0,a5,151c4 <emdnorm+0x37c>
   14f38:	03500793          	li	a5,53
   14f3c:	2ef51463          	bne	a0,a5,15224 <emdnorm+0x3dc>
   14f40:	04000737          	lui	a4,0x4000
   14f44:	7ff7071b          	addiw	a4,a4,2047
   14f48:	00600793          	li	a5,6
   14f4c:	00e4aa23          	sw	a4,20(s1)
   14f50:	00001737          	lui	a4,0x1
   14f54:	8007071b          	addiw	a4,a4,-2048
   14f58:	02079793          	slli	a5,a5,0x20
   14f5c:	00678793          	addi	a5,a5,6
   14f60:	00e49c23          	sh	a4,24(s1)
   14f64:	00001737          	lui	a4,0x1
   14f68:	00f4b423          	sd	a5,8(s1)
   14f6c:	80070713          	addi	a4,a4,-2048 # 800 <register_fini-0xf8b0>
   14f70:	00600793          	li	a5,6
   14f74:	00878793          	addi	a5,a5,8
   14f78:	00179793          	slli	a5,a5,0x1
   14f7c:	00f487b3          	add	a5,s1,a5
   14f80:	00e79523          	sh	a4,10(a5)
   14f84:	00a4a023          	sw	a0,0(s1)
   14f88:	03204263          	bgtz	s2,14fac <emdnorm+0x164>
   14f8c:	09000793          	li	a5,144
   14f90:	20f50663          	beq	a0,a5,1519c <emdnorm+0x354>
   14f94:	01845783          	lhu	a5,24(s0)
   14f98:	00040513          	mv	a0,s0
   14f9c:	0017f793          	andi	a5,a5,1
   14fa0:	00f9e9b3          	or	s3,s3,a5
   14fa4:	eb0ff0ef          	jal	ra,14654 <eshdn1>
   14fa8:	0044a503          	lw	a0,4(s1)
   14fac:	0084a683          	lw	a3,8(s1)
   14fb0:	0144d603          	lhu	a2,20(s1)
   14fb4:	08f00793          	li	a5,143
   14fb8:	00169713          	slli	a4,a3,0x1
   14fbc:	00e40833          	add	a6,s0,a4
   14fc0:	00085883          	lhu	a7,0(a6) # ffffffffffff8000 <__BSS_END__+0xfffffffffffd3aa0>
   14fc4:	00c8f5b3          	and	a1,a7,a2
   14fc8:	04a7c863          	blt	a5,a0,15018 <emdnorm+0x1d0>
   14fcc:	00b00793          	li	a5,11
   14fd0:	04d7c463          	blt	a5,a3,15018 <emdnorm+0x1d0>
   14fd4:	40d787bb          	subw	a5,a5,a3
   14fd8:	02079793          	slli	a5,a5,0x20
   14fdc:	0207d793          	srli	a5,a5,0x20
   14fe0:	00d787b3          	add	a5,a5,a3
   14fe4:	00179693          	slli	a3,a5,0x1
   14fe8:	00270713          	addi	a4,a4,2
   14fec:	00440793          	addi	a5,s0,4
   14ff0:	00e40733          	add	a4,s0,a4
   14ff4:	00f687b3          	add	a5,a3,a5
   14ff8:	00075683          	lhu	a3,0(a4)
   14ffc:	00068463          	beqz	a3,15004 <emdnorm+0x1bc>
   15000:	0015e593          	ori	a1,a1,1
   15004:	00071023          	sh	zero,0(a4)
   15008:	00270713          	addi	a4,a4,2
   1500c:	fee796e3          	bne	a5,a4,14ff8 <emdnorm+0x1b0>
   15010:	00085883          	lhu	a7,0(a6)
   15014:	0144d603          	lhu	a2,20(s1)
   15018:	fff64613          	not	a2,a2
   1501c:	01167633          	and	a2,a2,a7
   15020:	00c81023          	sh	a2,0(a6)
   15024:	0164d783          	lhu	a5,22(s1)
   15028:	00b7f733          	and	a4,a5,a1
   1502c:	04070063          	beqz	a4,1506c <emdnorm+0x224>
   15030:	12b78263          	beq	a5,a1,15154 <emdnorm+0x30c>
   15034:	03248613          	addi	a2,s1,50
   15038:	01840713          	addi	a4,s0,24
   1503c:	01c48493          	addi	s1,s1,28
   15040:	00000693          	li	a3,0
   15044:	00065783          	lhu	a5,0(a2)
   15048:	00075583          	lhu	a1,0(a4)
   1504c:	ffe70713          	addi	a4,a4,-2
   15050:	ffe60613          	addi	a2,a2,-2
   15054:	00b787b3          	add	a5,a5,a1
   15058:	00d787b3          	add	a5,a5,a3
   1505c:	00f71123          	sh	a5,2(a4)
   15060:	0107d793          	srli	a5,a5,0x10
   15064:	0017f693          	andi	a3,a5,1
   15068:	fc961ee3          	bne	a2,s1,15044 <emdnorm+0x1fc>
   1506c:	11205663          	blez	s2,15178 <emdnorm+0x330>
   15070:	00445783          	lhu	a5,4(s0)
   15074:	0a079c63          	bnez	a5,1512c <emdnorm+0x2e4>
   15078:	000087b7          	lui	a5,0x8
   1507c:	00041c23          	sh	zero,24(s0)
   15080:	ffe78793          	addi	a5,a5,-2 # 7ffe <register_fini-0x80b2>
   15084:	0327c863          	blt	a5,s2,150b4 <emdnorm+0x26c>
   15088:	01241123          	sh	s2,2(s0)
   1508c:	03813083          	ld	ra,56(sp)
   15090:	03013403          	ld	s0,48(sp)
   15094:	02813483          	ld	s1,40(sp)
   15098:	02013903          	ld	s2,32(sp)
   1509c:	01813983          	ld	s3,24(sp)
   150a0:	01013a03          	ld	s4,16(sp)
   150a4:	00813a83          	ld	s5,8(sp)
   150a8:	04010113          	addi	sp,sp,64
   150ac:	00008067          	ret
   150b0:	00041c23          	sh	zero,24(s0)
   150b4:	ffff87b7          	lui	a5,0xffff8
   150b8:	fff7c793          	not	a5,a5
   150bc:	00f41123          	sh	a5,2(s0)
   150c0:	00440793          	addi	a5,s0,4
   150c4:	01840413          	addi	s0,s0,24
   150c8:	00079023          	sh	zero,0(a5) # ffffffffffff8000 <__BSS_END__+0xfffffffffffd3aa0>
   150cc:	00278793          	addi	a5,a5,2
   150d0:	fef41ce3          	bne	s0,a5,150c8 <emdnorm+0x280>
   150d4:	fb9ff06f          	j	1508c <emdnorm+0x244>
   150d8:	00240793          	addi	a5,s0,2
   150dc:	01a40413          	addi	s0,s0,26
   150e0:	00278793          	addi	a5,a5,2
   150e4:	fe079f23          	sh	zero,-2(a5)
   150e8:	fe879ce3          	bne	a5,s0,150e0 <emdnorm+0x298>
   150ec:	fa1ff06f          	j	1508c <emdnorm+0x244>
   150f0:	0009059b          	sext.w	a1,s2
   150f4:	00040513          	mv	a0,s0
   150f8:	a11ff0ef          	jal	ra,14b08 <eshift.part.3>
   150fc:	00050463          	beqz	a0,15104 <emdnorm+0x2bc>
   15100:	00100993          	li	s3,1
   15104:	0a0a8a63          	beqz	s5,151b8 <emdnorm+0x370>
   15108:	0044a503          	lw	a0,4(s1)
   1510c:	0004a783          	lw	a5,0(s1)
   15110:	d8a79ee3          	bne	a5,a0,14eac <emdnorm+0x64>
   15114:	e79ff06f          	j	14f8c <emdnorm+0x144>
   15118:	f60a80e3          	beqz	s5,15078 <emdnorm+0x230>
   1511c:	0044a503          	lw	a0,4(s1)
   15120:	0004a783          	lw	a5,0(s1)
   15124:	d8a794e3          	bne	a5,a0,14eac <emdnorm+0x64>
   15128:	e61ff06f          	j	14f88 <emdnorm+0x140>
   1512c:	00040513          	mv	a0,s0
   15130:	d24ff0ef          	jal	ra,14654 <eshdn1>
   15134:	000087b7          	lui	a5,0x8
   15138:	00190913          	addi	s2,s2,1
   1513c:	00041c23          	sh	zero,24(s0)
   15140:	ffe78793          	addi	a5,a5,-2 # 7ffe <register_fini-0x80b2>
   15144:	f727c8e3          	blt	a5,s2,150b4 <emdnorm+0x26c>
   15148:	f40950e3          	bgez	s2,15088 <emdnorm+0x240>
   1514c:	00041123          	sh	zero,2(s0)
   15150:	f3dff06f          	j	1508c <emdnorm+0x244>
   15154:	10099063          	bnez	s3,15254 <emdnorm+0x40c>
   15158:	00c4a783          	lw	a5,12(s1)
   1515c:	0184d703          	lhu	a4,24(s1)
   15160:	00179793          	slli	a5,a5,0x1
   15164:	00f407b3          	add	a5,s0,a5
   15168:	0007d783          	lhu	a5,0(a5)
   1516c:	00e7f7b3          	and	a5,a5,a4
   15170:	ec0792e3          	bnez	a5,15034 <emdnorm+0x1ec>
   15174:	ef204ee3          	bgtz	s2,15070 <emdnorm+0x228>
   15178:	09000793          	li	a5,144
   1517c:	00f50663          	beq	a0,a5,15188 <emdnorm+0x340>
   15180:	00040513          	mv	a0,s0
   15184:	d38ff0ef          	jal	ra,146bc <eshup1>
   15188:	00445783          	lhu	a5,4(s0)
   1518c:	fa0790e3          	bnez	a5,1512c <emdnorm+0x2e4>
   15190:	00041c23          	sh	zero,24(s0)
   15194:	fa094ce3          	bltz	s2,1514c <emdnorm+0x304>
   15198:	ef1ff06f          	j	15088 <emdnorm+0x240>
   1519c:	0084a803          	lw	a6,8(s1)
   151a0:	0144d603          	lhu	a2,20(s1)
   151a4:	00181813          	slli	a6,a6,0x1
   151a8:	01040833          	add	a6,s0,a6
   151ac:	00085883          	lhu	a7,0(a6)
   151b0:	011675b3          	and	a1,a2,a7
   151b4:	e65ff06f          	j	15018 <emdnorm+0x1d0>
   151b8:	00041c23          	sh	zero,24(s0)
   151bc:	00041123          	sh	zero,2(s0)
   151c0:	ecdff06f          	j	1508c <emdnorm+0x244>
   151c4:	00400793          	li	a5,4
   151c8:	00800737          	lui	a4,0x800
   151cc:	0ff7071b          	addiw	a4,a4,255
   151d0:	02079793          	slli	a5,a5,0x20
   151d4:	00478793          	addi	a5,a5,4
   151d8:	00e4aa23          	sw	a4,20(s1)
   151dc:	10000713          	li	a4,256
   151e0:	00e49c23          	sh	a4,24(s1)
   151e4:	00f4b423          	sd	a5,8(s1)
   151e8:	10000713          	li	a4,256
   151ec:	00400793          	li	a5,4
   151f0:	d85ff06f          	j	14f74 <emdnorm+0x12c>
   151f4:	00300793          	li	a5,3
   151f8:	80010737          	lui	a4,0x80010
   151fc:	fff7071b          	addiw	a4,a4,-1
   15200:	02179793          	slli	a5,a5,0x21
   15204:	00778793          	addi	a5,a5,7
   15208:	00e4aa23          	sw	a4,20(s1)
   1520c:	00100713          	li	a4,1
   15210:	00e49c23          	sh	a4,24(s1)
   15214:	00f4b423          	sd	a5,8(s1)
   15218:	00100713          	li	a4,1
   1521c:	00600793          	li	a5,6
   15220:	d55ff06f          	j	14f74 <emdnorm+0x12c>
   15224:	00b00793          	li	a5,11
   15228:	80010737          	lui	a4,0x80010
   1522c:	fff7071b          	addiw	a4,a4,-1
   15230:	02079793          	slli	a5,a5,0x20
   15234:	00c78793          	addi	a5,a5,12
   15238:	00e4aa23          	sw	a4,20(s1)
   1523c:	00100713          	li	a4,1
   15240:	00e49c23          	sh	a4,24(s1)
   15244:	00f4b423          	sd	a5,8(s1)
   15248:	00100713          	li	a4,1
   1524c:	00b00793          	li	a5,11
   15250:	d25ff06f          	j	14f74 <emdnorm+0x12c>
   15254:	de0a00e3          	beqz	s4,15034 <emdnorm+0x1ec>
   15258:	e15ff06f          	j	1506c <emdnorm+0x224>
   1525c:	00600793          	li	a5,6
   15260:	00800737          	lui	a4,0x800
   15264:	0ff7071b          	addiw	a4,a4,255
   15268:	02079793          	slli	a5,a5,0x20
   1526c:	00678793          	addi	a5,a5,6
   15270:	00e4aa23          	sw	a4,20(s1)
   15274:	10000713          	li	a4,256
   15278:	00e49c23          	sh	a4,24(s1)
   1527c:	00f4b423          	sd	a5,8(s1)
   15280:	10000713          	li	a4,256
   15284:	00600793          	li	a5,6
   15288:	cedff06f          	j	14f74 <emdnorm+0x12c>

000000000001528c <eiremain>:
   1528c:	fa010113          	addi	sp,sp,-96
   15290:	03313c23          	sd	s3,56(sp)
   15294:	00255983          	lhu	s3,2(a0)
   15298:	04913423          	sd	s1,72(sp)
   1529c:	00058493          	mv	s1,a1
   152a0:	04113c23          	sd	ra,88(sp)
   152a4:	04813823          	sd	s0,80(sp)
   152a8:	05213023          	sd	s2,64(sp)
   152ac:	03413823          	sd	s4,48(sp)
   152b0:	00060913          	mv	s2,a2
   152b4:	03513423          	sd	s5,40(sp)
   152b8:	03613023          	sd	s6,32(sp)
   152bc:	01713c23          	sd	s7,24(sp)
   152c0:	01813823          	sd	s8,16(sp)
   152c4:	01913423          	sd	s9,8(sp)
   152c8:	01a13023          	sd	s10,0(sp)
   152cc:	00050a13          	mv	s4,a0
   152d0:	9f5ff0ef          	jal	ra,14cc4 <enormlz>
   152d4:	0024d403          	lhu	s0,2(s1)
   152d8:	40a989b3          	sub	s3,s3,a0
   152dc:	00048513          	mv	a0,s1
   152e0:	9e5ff0ef          	jal	ra,14cc4 <enormlz>
   152e4:	03490a93          	addi	s5,s2,52
   152e8:	40a40433          	sub	s0,s0,a0
   152ec:	04e90713          	addi	a4,s2,78
   152f0:	000a8793          	mv	a5,s5
   152f4:	00278793          	addi	a5,a5,2
   152f8:	fe079f23          	sh	zero,-2(a5)
   152fc:	fee79ce3          	bne	a5,a4,152f4 <eiremain+0x68>
   15300:	09344a63          	blt	s0,s3,15394 <eiremain+0x108>
   15304:	004a0b93          	addi	s7,s4,4
   15308:	00448b13          	addi	s6,s1,4
   1530c:	fff98993          	addi	s3,s3,-1
   15310:	01aa0c93          	addi	s9,s4,26
   15314:	00248c13          	addi	s8,s1,2
   15318:	000b0713          	mv	a4,s6
   1531c:	000b8793          	mv	a5,s7
   15320:	00278793          	addi	a5,a5,2
   15324:	00270713          	addi	a4,a4,2 # 800002 <__BSS_END__+0x7dbaa2>
   15328:	ffe7d603          	lhu	a2,-2(a5)
   1532c:	ffe75683          	lhu	a3,-2(a4)
   15330:	0ad61a63          	bne	a2,a3,153e4 <eiremain+0x158>
   15334:	fefc96e3          	bne	s9,a5,15320 <eiremain+0x94>
   15338:	018a0693          	addi	a3,s4,24
   1533c:	01848713          	addi	a4,s1,24
   15340:	00000613          	li	a2,0
   15344:	00075783          	lhu	a5,0(a4)
   15348:	0006d583          	lhu	a1,0(a3)
   1534c:	ffe70713          	addi	a4,a4,-2
   15350:	40c787b3          	sub	a5,a5,a2
   15354:	40b787b3          	sub	a5,a5,a1
   15358:	00f71123          	sh	a5,2(a4)
   1535c:	0107d793          	srli	a5,a5,0x10
   15360:	ffe68693          	addi	a3,a3,-2
   15364:	0017f613          	andi	a2,a5,1
   15368:	fcec1ee3          	bne	s8,a4,15344 <eiremain+0xb8>
   1536c:	00100d13          	li	s10,1
   15370:	000a8513          	mv	a0,s5
   15374:	b48ff0ef          	jal	ra,146bc <eshup1>
   15378:	04c95783          	lhu	a5,76(s2)
   1537c:	fff40413          	addi	s0,s0,-1
   15380:	00048513          	mv	a0,s1
   15384:	00fd6d33          	or	s10,s10,a5
   15388:	05a91623          	sh	s10,76(s2)
   1538c:	b30ff0ef          	jal	ra,146bc <eshup1>
   15390:	f93414e3          	bne	s0,s3,15318 <eiremain+0x8c>
   15394:	00040693          	mv	a3,s0
   15398:	05013403          	ld	s0,80(sp)
   1539c:	05813083          	ld	ra,88(sp)
   153a0:	03813983          	ld	s3,56(sp)
   153a4:	03013a03          	ld	s4,48(sp)
   153a8:	02813a83          	ld	s5,40(sp)
   153ac:	02013b03          	ld	s6,32(sp)
   153b0:	01813b83          	ld	s7,24(sp)
   153b4:	01013c03          	ld	s8,16(sp)
   153b8:	00813c83          	ld	s9,8(sp)
   153bc:	00013d03          	ld	s10,0(sp)
   153c0:	00090793          	mv	a5,s2
   153c4:	00048513          	mv	a0,s1
   153c8:	04013903          	ld	s2,64(sp)
   153cc:	04813483          	ld	s1,72(sp)
   153d0:	00000713          	li	a4,0
   153d4:	00000613          	li	a2,0
   153d8:	00000593          	li	a1,0
   153dc:	06010113          	addi	sp,sp,96
   153e0:	a69ff06f          	j	14e48 <emdnorm>
   153e4:	00000d13          	li	s10,0
   153e8:	f8c6e4e3          	bltu	a3,a2,15370 <eiremain+0xe4>
   153ec:	f4dff06f          	j	15338 <eiremain+0xac>

00000000000153f0 <emovo.isra.6>:
   153f0:	00055703          	lhu	a4,0(a0)
   153f4:	00255783          	lhu	a5,2(a0)
   153f8:	04070263          	beqz	a4,1543c <emovo.isra.6+0x4c>
   153fc:	ffff8737          	lui	a4,0xffff8
   15400:	00e7e7b3          	or	a5,a5,a4
   15404:	00f59923          	sh	a5,18(a1)
   15408:	00255703          	lhu	a4,2(a0)
   1540c:	000087b7          	lui	a5,0x8
   15410:	fff78793          	addi	a5,a5,-1 # 7fff <register_fini-0x80b1>
   15414:	02f70e63          	beq	a4,a5,15450 <emovo.isra.6+0x60>
   15418:	00650793          	addi	a5,a0,6
   1541c:	01058593          	addi	a1,a1,16
   15420:	01850513          	addi	a0,a0,24
   15424:	00278793          	addi	a5,a5,2
   15428:	ffe7d703          	lhu	a4,-2(a5)
   1542c:	ffe58593          	addi	a1,a1,-2
   15430:	00e59123          	sh	a4,2(a1)
   15434:	fea798e3          	bne	a5,a0,15424 <emovo.isra.6+0x34>
   15438:	00008067          	ret
   1543c:	00f59923          	sh	a5,18(a1)
   15440:	00255703          	lhu	a4,2(a0)
   15444:	000087b7          	lui	a5,0x8
   15448:	fff78793          	addi	a5,a5,-1 # 7fff <register_fini-0x80b1>
   1544c:	fcf716e3          	bne	a4,a5,15418 <emovo.isra.6+0x28>
   15450:	00650793          	addi	a5,a0,6
   15454:	01a50513          	addi	a0,a0,26
   15458:	0007d703          	lhu	a4,0(a5)
   1545c:	00278793          	addi	a5,a5,2
   15460:	02071a63          	bnez	a4,15494 <emovo.isra.6+0xa4>
   15464:	fea79ae3          	bne	a5,a0,15458 <emovo.isra.6+0x68>
   15468:	01258713          	addi	a4,a1,18
   1546c:	00058793          	mv	a5,a1
   15470:	00278793          	addi	a5,a5,2
   15474:	fe079f23          	sh	zero,-2(a5)
   15478:	fef71ce3          	bne	a4,a5,15470 <emovo.isra.6+0x80>
   1547c:	0125d783          	lhu	a5,18(a1)
   15480:	00008737          	lui	a4,0x8
   15484:	fff70713          	addi	a4,a4,-1 # 7fff <register_fini-0x80b1>
   15488:	00e7e7b3          	or	a5,a5,a4
   1548c:	00f59923          	sh	a5,18(a1)
   15490:	00008067          	ret
   15494:	01058713          	addi	a4,a1,16
   15498:	00058793          	mv	a5,a1
   1549c:	00278793          	addi	a5,a5,2
   154a0:	fe079f23          	sh	zero,-2(a5)
   154a4:	fee79ce3          	bne	a5,a4,1549c <emovo.isra.6+0xac>
   154a8:	7fffc7b7          	lui	a5,0x7fffc
   154ac:	00f5a823          	sw	a5,16(a1)
   154b0:	00008067          	ret

00000000000154b4 <emul>:
   154b4:	f4010113          	addi	sp,sp,-192
   154b8:	09513423          	sd	s5,136(sp)
   154bc:	01255a83          	lhu	s5,18(a0)
   154c0:	000087b7          	lui	a5,0x8
   154c4:	fff78793          	addi	a5,a5,-1 # 7fff <register_fini-0x80b1>
   154c8:	0a813823          	sd	s0,176(sp)
   154cc:	0a913423          	sd	s1,168(sp)
   154d0:	0b213023          	sd	s2,160(sp)
   154d4:	09313c23          	sd	s3,152(sp)
   154d8:	09613023          	sd	s6,128(sp)
   154dc:	0a113c23          	sd	ra,184(sp)
   154e0:	09413823          	sd	s4,144(sp)
   154e4:	07713c23          	sd	s7,120(sp)
   154e8:	07813823          	sd	s8,112(sp)
   154ec:	07913423          	sd	s9,104(sp)
   154f0:	0157fb33          	and	s6,a5,s5
   154f4:	00050493          	mv	s1,a0
   154f8:	00058913          	mv	s2,a1
   154fc:	00060413          	mv	s0,a2
   15500:	00068993          	mv	s3,a3
   15504:	0afb1863          	bne	s6,a5,155b4 <emul+0x100>
   15508:	b08ff0ef          	jal	ra,14810 <eisnan.part.0>
   1550c:	20051a63          	bnez	a0,15720 <emul+0x26c>
   15510:	01295a03          	lhu	s4,18(s2)
