
malloc.elf:     file format elf64-littleriscv


Disassembly of section .text:

00000000000100b0 <register_fini>:
   100b0:	000007b7          	lui	a5,0x0
   100b4:	00078793          	mv	a5,a5
   100b8:	c799                	beqz	a5,100c6 <register_fini+0x16>
   100ba:	00010537          	lui	a0,0x10
   100be:	25050513          	addi	a0,a0,592 # 10250 <__libc_fini_array>
   100c2:	1640006f          	j	10226 <atexit>
   100c6:	8082                	ret

00000000000100c8 <_start>:
   100c8:	0000e197          	auipc	gp,0xe
   100cc:	95018193          	addi	gp,gp,-1712 # 1da18 <__global_pointer$>
   100d0:	76018513          	addi	a0,gp,1888 # 1e178 <_edata>
   100d4:	0000e617          	auipc	a2,0xe
   100d8:	14460613          	addi	a2,a2,324 # 1e218 <__BSS_END__>
   100dc:	8e09                	sub	a2,a2,a0
   100de:	4581                	li	a1,0
   100e0:	051000ef          	jal	ra,10930 <memset>
   100e4:	00000517          	auipc	a0,0x0
   100e8:	16c50513          	addi	a0,a0,364 # 10250 <__libc_fini_array>
   100ec:	13a000ef          	jal	ra,10226 <atexit>
   100f0:	196000ef          	jal	ra,10286 <__libc_init_array>
   100f4:	4502                	lw	a0,0(sp)
   100f6:	002c                	addi	a1,sp,8
   100f8:	4601                	li	a2,0
   100fa:	0b4000ef          	jal	ra,101ae <main>
   100fe:	1340006f          	j	10232 <exit>

0000000000010102 <_fini>:
   10102:	8082                	ret

0000000000010104 <deregister_tm_clones>:
   10104:	70818713          	addi	a4,gp,1800 # 1e120 <__SDATA_BEGIN__>
   10108:	70818793          	addi	a5,gp,1800 # 1e120 <__SDATA_BEGIN__>
   1010c:	00e78b63          	beq	a5,a4,10122 <deregister_tm_clones+0x1e>
   10110:	00000337          	lui	t1,0x0
   10114:	00030313          	mv	t1,t1
   10118:	00030563          	beqz	t1,10122 <deregister_tm_clones+0x1e>
   1011c:	70818513          	addi	a0,gp,1800 # 1e120 <__SDATA_BEGIN__>
   10120:	8302                	jr	t1
   10122:	8082                	ret

0000000000010124 <register_tm_clones>:
   10124:	70818593          	addi	a1,gp,1800 # 1e120 <__SDATA_BEGIN__>
   10128:	70818793          	addi	a5,gp,1800 # 1e120 <__SDATA_BEGIN__>
   1012c:	8d9d                	sub	a1,a1,a5
   1012e:	858d                	srai	a1,a1,0x3
   10130:	4789                	li	a5,2
   10132:	02f5c5b3          	div	a1,a1,a5
   10136:	c991                	beqz	a1,1014a <register_tm_clones+0x26>
   10138:	00000337          	lui	t1,0x0
   1013c:	00030313          	mv	t1,t1
   10140:	00030563          	beqz	t1,1014a <register_tm_clones+0x26>
   10144:	70818513          	addi	a0,gp,1800 # 1e120 <__SDATA_BEGIN__>
   10148:	8302                	jr	t1
   1014a:	8082                	ret

000000000001014c <__do_global_dtors_aux>:
   1014c:	7881c703          	lbu	a4,1928(gp) # 1e1a0 <completed.5466>
   10150:	eb15                	bnez	a4,10184 <__do_global_dtors_aux+0x38>
   10152:	1141                	addi	sp,sp,-16
   10154:	e022                	sd	s0,0(sp)
   10156:	e406                	sd	ra,8(sp)
   10158:	843e                	mv	s0,a5
   1015a:	fabff0ef          	jal	ra,10104 <deregister_tm_clones>
   1015e:	000007b7          	lui	a5,0x0
   10162:	00078793          	mv	a5,a5
   10166:	cb81                	beqz	a5,10176 <__do_global_dtors_aux+0x2a>
   10168:	6575                	lui	a0,0x1d
   1016a:	00050513          	mv	a0,a0
   1016e:	00000097          	auipc	ra,0x0
   10172:	000000e7          	jalr	zero # 0 <register_fini-0x100b0>
   10176:	4785                	li	a5,1
   10178:	78f18423          	sb	a5,1928(gp) # 1e1a0 <completed.5466>
   1017c:	60a2                	ld	ra,8(sp)
   1017e:	6402                	ld	s0,0(sp)
   10180:	0141                	addi	sp,sp,16
   10182:	8082                	ret
   10184:	8082                	ret

0000000000010186 <frame_dummy>:
   10186:	000007b7          	lui	a5,0x0
   1018a:	00078793          	mv	a5,a5
   1018e:	cf91                	beqz	a5,101aa <frame_dummy+0x24>
   10190:	6575                	lui	a0,0x1d
   10192:	1141                	addi	sp,sp,-16
   10194:	79018593          	addi	a1,gp,1936 # 1e1a8 <object.5471>
   10198:	00050513          	mv	a0,a0
   1019c:	e406                	sd	ra,8(sp)
   1019e:	00000097          	auipc	ra,0x0
   101a2:	000000e7          	jalr	zero # 0 <register_fini-0x100b0>
   101a6:	60a2                	ld	ra,8(sp)
   101a8:	0141                	addi	sp,sp,16
   101aa:	f7bff06f          	j	10124 <register_tm_clones>

00000000000101ae <main>:
   101ae:	7179                	addi	sp,sp,-48
   101b0:	f406                	sd	ra,40(sp)
   101b2:	f022                	sd	s0,32(sp)
   101b4:	1800                	addi	s0,sp,48
   101b6:	67f9                	lui	a5,0x1e
   101b8:	20078593          	addi	a1,a5,512 # 1e200 <static_array>
   101bc:	67f1                	lui	a5,0x1c
   101be:	0a078513          	addi	a0,a5,160 # 1c0a0 <__clzdi2+0x32>
   101c2:	041000ef          	jal	ra,10a02 <printf>
   101c6:	fd040793          	addi	a5,s0,-48
   101ca:	85be                	mv	a1,a5
   101cc:	67f1                	lui	a5,0x1c
   101ce:	0c078513          	addi	a0,a5,192 # 1c0c0 <__clzdi2+0x52>
   101d2:	031000ef          	jal	ra,10a02 <printf>
   101d6:	4511                	li	a0,4
   101d8:	11c000ef          	jal	ra,102f4 <malloc>
   101dc:	87aa                	mv	a5,a0
   101de:	fef43423          	sd	a5,-24(s0)
   101e2:	fe843583          	ld	a1,-24(s0)
   101e6:	67f1                	lui	a5,0x1c
   101e8:	0e078513          	addi	a0,a5,224 # 1c0e0 <__clzdi2+0x72>
   101ec:	017000ef          	jal	ra,10a02 <printf>
   101f0:	fe843503          	ld	a0,-24(s0)
   101f4:	10a000ef          	jal	ra,102fe <free>
   101f8:	4511                	li	a0,4
   101fa:	0fa000ef          	jal	ra,102f4 <malloc>
   101fe:	87aa                	mv	a5,a0
   10200:	fef43023          	sd	a5,-32(s0)
   10204:	fe043583          	ld	a1,-32(s0)
   10208:	67f1                	lui	a5,0x1c
   1020a:	10078513          	addi	a0,a5,256 # 1c100 <__clzdi2+0x92>
   1020e:	7f4000ef          	jal	ra,10a02 <printf>
   10212:	fe043503          	ld	a0,-32(s0)
   10216:	0e8000ef          	jal	ra,102fe <free>
   1021a:	4781                	li	a5,0
   1021c:	853e                	mv	a0,a5
   1021e:	70a2                	ld	ra,40(sp)
   10220:	7402                	ld	s0,32(sp)
   10222:	6145                	addi	sp,sp,48
   10224:	8082                	ret

0000000000010226 <atexit>:
   10226:	85aa                	mv	a1,a0
   10228:	4681                	li	a3,0
   1022a:	4601                	li	a2,0
   1022c:	4501                	li	a0,0
   1022e:	5a00206f          	j	127ce <__register_exitproc>

0000000000010232 <exit>:
   10232:	1141                	addi	sp,sp,-16
   10234:	4581                	li	a1,0
   10236:	e022                	sd	s0,0(sp)
   10238:	e406                	sd	ra,8(sp)
   1023a:	842a                	mv	s0,a0
   1023c:	608020ef          	jal	ra,12844 <__call_exitprocs>
   10240:	7381b503          	ld	a0,1848(gp) # 1e150 <_global_impure_ptr>
   10244:	6d3c                	ld	a5,88(a0)
   10246:	c391                	beqz	a5,1024a <exit+0x18>
   10248:	9782                	jalr	a5
   1024a:	8522                	mv	a0,s0
   1024c:	0110a0ef          	jal	ra,1aa5c <_exit>

0000000000010250 <__libc_fini_array>:
   10250:	1101                	addi	sp,sp,-32
   10252:	e822                	sd	s0,16(sp)
   10254:	67f5                	lui	a5,0x1d
   10256:	6475                	lui	s0,0x1d
   10258:	01840413          	addi	s0,s0,24 # 1d018 <__init_array_end>
   1025c:	02078793          	addi	a5,a5,32 # 1d020 <__fini_array_end>
   10260:	8f81                	sub	a5,a5,s0
   10262:	e426                	sd	s1,8(sp)
   10264:	ec06                	sd	ra,24(sp)
   10266:	4037d493          	srai	s1,a5,0x3
   1026a:	c881                	beqz	s1,1027a <__libc_fini_array+0x2a>
   1026c:	17e1                	addi	a5,a5,-8
   1026e:	943e                	add	s0,s0,a5
   10270:	601c                	ld	a5,0(s0)
   10272:	14fd                	addi	s1,s1,-1
   10274:	1461                	addi	s0,s0,-8
   10276:	9782                	jalr	a5
   10278:	fce5                	bnez	s1,10270 <__libc_fini_array+0x20>
   1027a:	6442                	ld	s0,16(sp)
   1027c:	60e2                	ld	ra,24(sp)
   1027e:	64a2                	ld	s1,8(sp)
   10280:	6105                	addi	sp,sp,32
   10282:	e81ff06f          	j	10102 <_fini>

0000000000010286 <__libc_init_array>:
   10286:	1101                	addi	sp,sp,-32
   10288:	e822                	sd	s0,16(sp)
   1028a:	e04a                	sd	s2,0(sp)
   1028c:	6475                	lui	s0,0x1d
   1028e:	6975                	lui	s2,0x1d
   10290:	00440793          	addi	a5,s0,4 # 1d004 <__preinit_array_end>
   10294:	00490913          	addi	s2,s2,4 # 1d004 <__preinit_array_end>
   10298:	40f90933          	sub	s2,s2,a5
   1029c:	ec06                	sd	ra,24(sp)
   1029e:	e426                	sd	s1,8(sp)
   102a0:	40395913          	srai	s2,s2,0x3
   102a4:	00090b63          	beqz	s2,102ba <__libc_init_array+0x34>
   102a8:	00440413          	addi	s0,s0,4
   102ac:	4481                	li	s1,0
   102ae:	601c                	ld	a5,0(s0)
   102b0:	0485                	addi	s1,s1,1
   102b2:	0421                	addi	s0,s0,8
   102b4:	9782                	jalr	a5
   102b6:	fe991ce3          	bne	s2,s1,102ae <__libc_init_array+0x28>
   102ba:	e49ff0ef          	jal	ra,10102 <_fini>
   102be:	6475                	lui	s0,0x1d
   102c0:	6975                	lui	s2,0x1d
   102c2:	00840793          	addi	a5,s0,8 # 1d008 <__init_array_start>
   102c6:	01890913          	addi	s2,s2,24 # 1d018 <__init_array_end>
   102ca:	40f90933          	sub	s2,s2,a5
   102ce:	40395913          	srai	s2,s2,0x3
   102d2:	00090b63          	beqz	s2,102e8 <__libc_init_array+0x62>
   102d6:	00840413          	addi	s0,s0,8
   102da:	4481                	li	s1,0
   102dc:	601c                	ld	a5,0(s0)
   102de:	0485                	addi	s1,s1,1
   102e0:	0421                	addi	s0,s0,8
   102e2:	9782                	jalr	a5
   102e4:	fe991ce3          	bne	s2,s1,102dc <__libc_init_array+0x56>
   102e8:	60e2                	ld	ra,24(sp)
   102ea:	6442                	ld	s0,16(sp)
   102ec:	64a2                	ld	s1,8(sp)
   102ee:	6902                	ld	s2,0(sp)
   102f0:	6105                	addi	sp,sp,32
   102f2:	8082                	ret

00000000000102f4 <malloc>:
   102f4:	85aa                	mv	a1,a0
   102f6:	7481b503          	ld	a0,1864(gp) # 1e160 <_impure_ptr>
   102fa:	00e0006f          	j	10308 <_malloc_r>

00000000000102fe <free>:
   102fe:	85aa                	mv	a1,a0
   10300:	7481b503          	ld	a0,1864(gp) # 1e160 <_impure_ptr>
   10304:	32f0206f          	j	12e32 <_free_r>

0000000000010308 <_malloc_r>:
   10308:	711d                	addi	sp,sp,-96
   1030a:	e4a6                	sd	s1,72(sp)
   1030c:	e0ca                	sd	s2,64(sp)
   1030e:	ec86                	sd	ra,88(sp)
   10310:	e8a2                	sd	s0,80(sp)
   10312:	fc4e                	sd	s3,56(sp)
   10314:	f852                	sd	s4,48(sp)
   10316:	f456                	sd	s5,40(sp)
   10318:	f05a                	sd	s6,32(sp)
   1031a:	ec5e                	sd	s7,24(sp)
   1031c:	e862                	sd	s8,16(sp)
   1031e:	e466                	sd	s9,8(sp)
   10320:	01758493          	addi	s1,a1,23
   10324:	02e00793          	li	a5,46
   10328:	892a                	mv	s2,a0
   1032a:	0697e863          	bltu	a5,s1,1039a <_malloc_r+0x92>
   1032e:	02000793          	li	a5,32
   10332:	04b7e363          	bltu	a5,a1,10378 <_malloc_r+0x70>
   10336:	6a4000ef          	jal	ra,109da <__malloc_lock>
   1033a:	02000493          	li	s1,32
   1033e:	05000793          	li	a5,80
   10342:	4611                	li	a2,4
   10344:	69f5                	lui	s3,0x1d
   10346:	76898993          	addi	s3,s3,1896 # 1d768 <__malloc_av_>
   1034a:	97ce                	add	a5,a5,s3
   1034c:	6780                	ld	s0,8(a5)
   1034e:	ff078713          	addi	a4,a5,-16
   10352:	1ee40a63          	beq	s0,a4,10546 <_malloc_r+0x23e>
   10356:	641c                	ld	a5,8(s0)
   10358:	6c14                	ld	a3,24(s0)
   1035a:	6810                	ld	a2,16(s0)
   1035c:	9bf1                	andi	a5,a5,-4
   1035e:	97a2                	add	a5,a5,s0
   10360:	6798                	ld	a4,8(a5)
   10362:	ee14                	sd	a3,24(a2)
   10364:	ea90                	sd	a2,16(a3)
   10366:	00176713          	ori	a4,a4,1
   1036a:	854a                	mv	a0,s2
   1036c:	e798                	sd	a4,8(a5)
   1036e:	66e000ef          	jal	ra,109dc <__malloc_unlock>
   10372:	01040513          	addi	a0,s0,16
   10376:	a029                	j	10380 <_malloc_r+0x78>
   10378:	47b1                	li	a5,12
   1037a:	00f92023          	sw	a5,0(s2)
   1037e:	4501                	li	a0,0
   10380:	60e6                	ld	ra,88(sp)
   10382:	6446                	ld	s0,80(sp)
   10384:	64a6                	ld	s1,72(sp)
   10386:	6906                	ld	s2,64(sp)
   10388:	79e2                	ld	s3,56(sp)
   1038a:	7a42                	ld	s4,48(sp)
   1038c:	7aa2                	ld	s5,40(sp)
   1038e:	7b02                	ld	s6,32(sp)
   10390:	6be2                	ld	s7,24(sp)
   10392:	6c42                	ld	s8,16(sp)
   10394:	6ca2                	ld	s9,8(sp)
   10396:	6125                	addi	sp,sp,96
   10398:	8082                	ret
   1039a:	800007b7          	lui	a5,0x80000
   1039e:	98c1                	andi	s1,s1,-16
   103a0:	fff7c793          	not	a5,a5
   103a4:	fc97eae3          	bltu	a5,s1,10378 <_malloc_r+0x70>
   103a8:	fcb4e8e3          	bltu	s1,a1,10378 <_malloc_r+0x70>
   103ac:	62e000ef          	jal	ra,109da <__malloc_lock>
   103b0:	1f700793          	li	a5,503
   103b4:	3697fa63          	bgeu	a5,s1,10728 <_malloc_r+0x420>
   103b8:	0094d793          	srli	a5,s1,0x9
   103bc:	28078263          	beqz	a5,10640 <_malloc_r+0x338>
   103c0:	4711                	li	a4,4
   103c2:	30f76763          	bltu	a4,a5,106d0 <_malloc_r+0x3c8>
   103c6:	0064d513          	srli	a0,s1,0x6
   103ca:	2501                	sext.w	a0,a0
   103cc:	0395061b          	addiw	a2,a0,57
   103d0:	0016169b          	slliw	a3,a2,0x1
   103d4:	0385051b          	addiw	a0,a0,56
   103d8:	068e                	slli	a3,a3,0x3
   103da:	69f5                	lui	s3,0x1d
   103dc:	76898993          	addi	s3,s3,1896 # 1d768 <__malloc_av_>
   103e0:	96ce                	add	a3,a3,s3
   103e2:	6680                	ld	s0,8(a3)
   103e4:	16c1                	addi	a3,a3,-16
   103e6:	16868463          	beq	a3,s0,1054e <_malloc_r+0x246>
   103ea:	641c                	ld	a5,8(s0)
   103ec:	45fd                	li	a1,31
   103ee:	9bf1                	andi	a5,a5,-4
   103f0:	40978733          	sub	a4,a5,s1
   103f4:	00e5cd63          	blt	a1,a4,1040e <_malloc_r+0x106>
   103f8:	28075563          	bgez	a4,10682 <_malloc_r+0x37a>
   103fc:	6c00                	ld	s0,24(s0)
   103fe:	14868863          	beq	a3,s0,1054e <_malloc_r+0x246>
   10402:	641c                	ld	a5,8(s0)
   10404:	9bf1                	andi	a5,a5,-4
   10406:	40978733          	sub	a4,a5,s1
   1040a:	fee5d7e3          	bge	a1,a4,103f8 <_malloc_r+0xf0>
   1040e:	0209b403          	ld	s0,32(s3)
   10412:	862a                	mv	a2,a0
   10414:	6575                	lui	a0,0x1d
   10416:	77850513          	addi	a0,a0,1912 # 1d778 <__malloc_av_+0x10>
   1041a:	14a41163          	bne	s0,a0,1055c <_malloc_r+0x254>
   1041e:	0089b783          	ld	a5,8(s3)
   10422:	4026571b          	sraiw	a4,a2,0x2
   10426:	4685                	li	a3,1
   10428:	00e696b3          	sll	a3,a3,a4
   1042c:	18d7fa63          	bgeu	a5,a3,105c0 <_malloc_r+0x2b8>
   10430:	0109b403          	ld	s0,16(s3)
   10434:	00843a03          	ld	s4,8(s0)
   10438:	ffca7a93          	andi	s5,s4,-4
   1043c:	009ae763          	bltu	s5,s1,1044a <_malloc_r+0x142>
   10440:	409a87b3          	sub	a5,s5,s1
   10444:	477d                	li	a4,31
   10446:	20f74f63          	blt	a4,a5,10664 <_malloc_r+0x35c>
   1044a:	7701ba03          	ld	s4,1904(gp) # 1e188 <__malloc_top_pad>
   1044e:	7501b703          	ld	a4,1872(gp) # 1e168 <__malloc_sbrk_base>
   10452:	57fd                	li	a5,-1
   10454:	01540c33          	add	s8,s0,s5
   10458:	9a26                	add	s4,s4,s1
   1045a:	36f70763          	beq	a4,a5,107c8 <_malloc_r+0x4c0>
   1045e:	6785                	lui	a5,0x1
   10460:	07fd                	addi	a5,a5,31
   10462:	9a3e                	add	s4,s4,a5
   10464:	77fd                	lui	a5,0xfffff
   10466:	00fa7a33          	and	s4,s4,a5
   1046a:	85d2                	mv	a1,s4
   1046c:	854a                	mv	a0,s2
   1046e:	5c2000ef          	jal	ra,10a30 <_sbrk_r>
   10472:	57fd                	li	a5,-1
   10474:	8b2a                	mv	s6,a0
   10476:	2cf50f63          	beq	a0,a5,10754 <_malloc_r+0x44c>
   1047a:	2d856b63          	bltu	a0,s8,10750 <_malloc_r+0x448>
   1047e:	7c018b93          	addi	s7,gp,1984 # 1e1d8 <__malloc_current_mallinfo>
   10482:	000ba703          	lw	a4,0(s7)
   10486:	014707bb          	addw	a5,a4,s4
   1048a:	00fba023          	sw	a5,0(s7)
   1048e:	86be                	mv	a3,a5
   10490:	3cac0c63          	beq	s8,a0,10868 <_malloc_r+0x560>
   10494:	7501b703          	ld	a4,1872(gp) # 1e168 <__malloc_sbrk_base>
   10498:	57fd                	li	a5,-1
   1049a:	3ef70363          	beq	a4,a5,10880 <_malloc_r+0x578>
   1049e:	418b07b3          	sub	a5,s6,s8
   104a2:	9fb5                	addw	a5,a5,a3
   104a4:	00fba023          	sw	a5,0(s7)
   104a8:	00fb7c13          	andi	s8,s6,15
   104ac:	320c0d63          	beqz	s8,107e6 <_malloc_r+0x4de>
   104b0:	418b0b33          	sub	s6,s6,s8
   104b4:	6785                	lui	a5,0x1
   104b6:	0b41                	addi	s6,s6,16
   104b8:	fff78713          	addi	a4,a5,-1 # fff <register_fini-0xf0b1>
   104bc:	014b0cb3          	add	s9,s6,s4
   104c0:	07c1                	addi	a5,a5,16
   104c2:	41878a33          	sub	s4,a5,s8
   104c6:	00ecf7b3          	and	a5,s9,a4
   104ca:	40fa0a33          	sub	s4,s4,a5
   104ce:	00ea7a33          	and	s4,s4,a4
   104d2:	85d2                	mv	a1,s4
   104d4:	854a                	mv	a0,s2
   104d6:	55a000ef          	jal	ra,10a30 <_sbrk_r>
   104da:	57fd                	li	a5,-1
   104dc:	3ef50963          	beq	a0,a5,108ce <_malloc_r+0x5c6>
   104e0:	41650533          	sub	a0,a0,s6
   104e4:	000a071b          	sext.w	a4,s4
   104e8:	9a2a                	add	s4,s4,a0
   104ea:	000ba783          	lw	a5,0(s7)
   104ee:	0169b823          	sd	s6,16(s3)
   104f2:	001a6a13          	ori	s4,s4,1
   104f6:	9fb9                	addw	a5,a5,a4
   104f8:	00fba023          	sw	a5,0(s7)
   104fc:	014b3423          	sd	s4,8(s6)
   10500:	39340363          	beq	s0,s3,10886 <_malloc_r+0x57e>
   10504:	467d                	li	a2,31
   10506:	39567263          	bgeu	a2,s5,1088a <_malloc_r+0x582>
   1050a:	6414                	ld	a3,8(s0)
   1050c:	fe8a8713          	addi	a4,s5,-24
   10510:	9b41                	andi	a4,a4,-16
   10512:	8a85                	andi	a3,a3,1
   10514:	8ed9                	or	a3,a3,a4
   10516:	e414                	sd	a3,8(s0)
   10518:	45a5                	li	a1,9
   1051a:	00e406b3          	add	a3,s0,a4
   1051e:	e68c                	sd	a1,8(a3)
   10520:	ea8c                	sd	a1,16(a3)
   10522:	3ae66d63          	bltu	a2,a4,108dc <_malloc_r+0x5d4>
   10526:	008b3a03          	ld	s4,8(s6)
   1052a:	845a                	mv	s0,s6
   1052c:	7681b683          	ld	a3,1896(gp) # 1e180 <__malloc_max_sbrked_mem>
   10530:	00f6f463          	bgeu	a3,a5,10538 <_malloc_r+0x230>
   10534:	76f1b423          	sd	a5,1896(gp) # 1e180 <__malloc_max_sbrked_mem>
   10538:	7601b683          	ld	a3,1888(gp) # 1e178 <_edata>
   1053c:	22f6f063          	bgeu	a3,a5,1075c <_malloc_r+0x454>
   10540:	76f1b023          	sd	a5,1888(gp) # 1e178 <_edata>
   10544:	ac21                	j	1075c <_malloc_r+0x454>
   10546:	6f80                	ld	s0,24(a5)
   10548:	2609                	addiw	a2,a2,2
   1054a:	e08796e3          	bne	a5,s0,10356 <_malloc_r+0x4e>
   1054e:	0209b403          	ld	s0,32(s3)
   10552:	6575                	lui	a0,0x1d
   10554:	77850513          	addi	a0,a0,1912 # 1d778 <__malloc_av_+0x10>
   10558:	eca403e3          	beq	s0,a0,1041e <_malloc_r+0x116>
   1055c:	641c                	ld	a5,8(s0)
   1055e:	46fd                	li	a3,31
   10560:	9bf1                	andi	a5,a5,-4
   10562:	40978733          	sub	a4,a5,s1
   10566:	1ae6cd63          	blt	a3,a4,10720 <_malloc_r+0x418>
   1056a:	02a9b423          	sd	a0,40(s3)
   1056e:	02a9b023          	sd	a0,32(s3)
   10572:	0c075e63          	bgez	a4,1064e <_malloc_r+0x346>
   10576:	1ff00713          	li	a4,511
   1057a:	10f76763          	bltu	a4,a5,10688 <_malloc_r+0x380>
   1057e:	838d                	srli	a5,a5,0x3
   10580:	2781                	sext.w	a5,a5
   10582:	0017871b          	addiw	a4,a5,1
   10586:	0017171b          	slliw	a4,a4,0x1
   1058a:	070e                	slli	a4,a4,0x3
   1058c:	0089b803          	ld	a6,8(s3)
   10590:	974e                	add	a4,a4,s3
   10592:	630c                	ld	a1,0(a4)
   10594:	4027d69b          	sraiw	a3,a5,0x2
   10598:	4785                	li	a5,1
   1059a:	00d797b3          	sll	a5,a5,a3
   1059e:	0107e7b3          	or	a5,a5,a6
   105a2:	ff070693          	addi	a3,a4,-16
   105a6:	ec14                	sd	a3,24(s0)
   105a8:	e80c                	sd	a1,16(s0)
   105aa:	00f9b423          	sd	a5,8(s3)
   105ae:	e300                	sd	s0,0(a4)
   105b0:	ed80                	sd	s0,24(a1)
   105b2:	4026571b          	sraiw	a4,a2,0x2
   105b6:	4685                	li	a3,1
   105b8:	00e696b3          	sll	a3,a3,a4
   105bc:	e6d7eae3          	bltu	a5,a3,10430 <_malloc_r+0x128>
   105c0:	00f6f733          	and	a4,a3,a5
   105c4:	ef01                	bnez	a4,105dc <_malloc_r+0x2d4>
   105c6:	0686                	slli	a3,a3,0x1
   105c8:	9a71                	andi	a2,a2,-4
   105ca:	00f6f733          	and	a4,a3,a5
   105ce:	2611                	addiw	a2,a2,4
   105d0:	e711                	bnez	a4,105dc <_malloc_r+0x2d4>
   105d2:	0686                	slli	a3,a3,0x1
   105d4:	00f6f733          	and	a4,a3,a5
   105d8:	2611                	addiw	a2,a2,4
   105da:	df65                	beqz	a4,105d2 <_malloc_r+0x2ca>
   105dc:	487d                	li	a6,31
   105de:	0016089b          	addiw	a7,a2,1
   105e2:	0018989b          	slliw	a7,a7,0x1
   105e6:	088e                	slli	a7,a7,0x3
   105e8:	18c1                	addi	a7,a7,-16
   105ea:	98ce                	add	a7,a7,s3
   105ec:	85c6                	mv	a1,a7
   105ee:	8332                	mv	t1,a2
   105f0:	6d80                	ld	s0,24(a1)
   105f2:	00859863          	bne	a1,s0,10602 <_malloc_r+0x2fa>
   105f6:	a8fd                	j	106f4 <_malloc_r+0x3ec>
   105f8:	10075563          	bgez	a4,10702 <_malloc_r+0x3fa>
   105fc:	6c00                	ld	s0,24(s0)
   105fe:	0e858b63          	beq	a1,s0,106f4 <_malloc_r+0x3ec>
   10602:	641c                	ld	a5,8(s0)
   10604:	9bf1                	andi	a5,a5,-4
   10606:	40978733          	sub	a4,a5,s1
   1060a:	fee857e3          	bge	a6,a4,105f8 <_malloc_r+0x2f0>
   1060e:	6c14                	ld	a3,24(s0)
   10610:	6810                	ld	a2,16(s0)
   10612:	0014e593          	ori	a1,s1,1
   10616:	e40c                	sd	a1,8(s0)
   10618:	ee14                	sd	a3,24(a2)
   1061a:	ea90                	sd	a2,16(a3)
   1061c:	94a2                	add	s1,s1,s0
   1061e:	0299b423          	sd	s1,40(s3)
   10622:	0299b023          	sd	s1,32(s3)
   10626:	00176693          	ori	a3,a4,1
   1062a:	ec88                	sd	a0,24(s1)
   1062c:	e888                	sd	a0,16(s1)
   1062e:	e494                	sd	a3,8(s1)
   10630:	97a2                	add	a5,a5,s0
   10632:	854a                	mv	a0,s2
   10634:	e398                	sd	a4,0(a5)
   10636:	3a6000ef          	jal	ra,109dc <__malloc_unlock>
   1063a:	01040513          	addi	a0,s0,16
   1063e:	b389                	j	10380 <_malloc_r+0x78>
   10640:	40000693          	li	a3,1024
   10644:	04000613          	li	a2,64
   10648:	03f00513          	li	a0,63
   1064c:	b379                	j	103da <_malloc_r+0xd2>
   1064e:	97a2                	add	a5,a5,s0
   10650:	6798                	ld	a4,8(a5)
   10652:	854a                	mv	a0,s2
   10654:	00176713          	ori	a4,a4,1
   10658:	e798                	sd	a4,8(a5)
   1065a:	382000ef          	jal	ra,109dc <__malloc_unlock>
   1065e:	01040513          	addi	a0,s0,16
   10662:	bb39                	j	10380 <_malloc_r+0x78>
   10664:	0014e713          	ori	a4,s1,1
   10668:	e418                	sd	a4,8(s0)
   1066a:	94a2                	add	s1,s1,s0
   1066c:	0099b823          	sd	s1,16(s3)
   10670:	0017e793          	ori	a5,a5,1
   10674:	854a                	mv	a0,s2
   10676:	e49c                	sd	a5,8(s1)
   10678:	364000ef          	jal	ra,109dc <__malloc_unlock>
   1067c:	01040513          	addi	a0,s0,16
   10680:	b301                	j	10380 <_malloc_r+0x78>
   10682:	6c14                	ld	a3,24(s0)
   10684:	6810                	ld	a2,16(s0)
   10686:	b9e1                	j	1035e <_malloc_r+0x56>
   10688:	0097d713          	srli	a4,a5,0x9
   1068c:	4691                	li	a3,4
   1068e:	0ae6f663          	bgeu	a3,a4,1073a <_malloc_r+0x432>
   10692:	46d1                	li	a3,20
   10694:	18e6e363          	bltu	a3,a4,1081a <_malloc_r+0x512>
   10698:	2701                	sext.w	a4,a4
   1069a:	05c7059b          	addiw	a1,a4,92
   1069e:	0015959b          	slliw	a1,a1,0x1
   106a2:	05b7069b          	addiw	a3,a4,91
   106a6:	058e                	slli	a1,a1,0x3
   106a8:	95ce                	add	a1,a1,s3
   106aa:	6198                	ld	a4,0(a1)
   106ac:	15c1                	addi	a1,a1,-16
   106ae:	12e58063          	beq	a1,a4,107ce <_malloc_r+0x4c6>
   106b2:	6714                	ld	a3,8(a4)
   106b4:	9af1                	andi	a3,a3,-4
   106b6:	00d7f563          	bgeu	a5,a3,106c0 <_malloc_r+0x3b8>
   106ba:	6b18                	ld	a4,16(a4)
   106bc:	fee59be3          	bne	a1,a4,106b2 <_malloc_r+0x3aa>
   106c0:	6f0c                	ld	a1,24(a4)
   106c2:	0089b783          	ld	a5,8(s3)
   106c6:	ec0c                	sd	a1,24(s0)
   106c8:	e818                	sd	a4,16(s0)
   106ca:	e980                	sd	s0,16(a1)
   106cc:	ef00                	sd	s0,24(a4)
   106ce:	b5d5                	j	105b2 <_malloc_r+0x2aa>
   106d0:	4751                	li	a4,20
   106d2:	0af77363          	bgeu	a4,a5,10778 <_malloc_r+0x470>
   106d6:	05400713          	li	a4,84
   106da:	14f76f63          	bltu	a4,a5,10838 <_malloc_r+0x530>
   106de:	00c4d513          	srli	a0,s1,0xc
   106e2:	2501                	sext.w	a0,a0
   106e4:	06f5061b          	addiw	a2,a0,111
   106e8:	0016169b          	slliw	a3,a2,0x1
   106ec:	06e5051b          	addiw	a0,a0,110
   106f0:	068e                	slli	a3,a3,0x3
   106f2:	b1e5                	j	103da <_malloc_r+0xd2>
   106f4:	2305                	addiw	t1,t1,1
   106f6:	00337793          	andi	a5,t1,3
   106fa:	05c1                	addi	a1,a1,16
   106fc:	ee079ae3          	bnez	a5,105f0 <_malloc_r+0x2e8>
   10700:	a851                	j	10794 <_malloc_r+0x48c>
   10702:	97a2                	add	a5,a5,s0
   10704:	6798                	ld	a4,8(a5)
   10706:	6c14                	ld	a3,24(s0)
   10708:	6810                	ld	a2,16(s0)
   1070a:	00176713          	ori	a4,a4,1
   1070e:	e798                	sd	a4,8(a5)
   10710:	ee14                	sd	a3,24(a2)
   10712:	854a                	mv	a0,s2
   10714:	ea90                	sd	a2,16(a3)
   10716:	2c6000ef          	jal	ra,109dc <__malloc_unlock>
   1071a:	01040513          	addi	a0,s0,16
   1071e:	b18d                	j	10380 <_malloc_r+0x78>
   10720:	0014e693          	ori	a3,s1,1
   10724:	e414                	sd	a3,8(s0)
   10726:	bddd                	j	1061c <_malloc_r+0x314>
   10728:	0034d613          	srli	a2,s1,0x3
   1072c:	2601                	sext.w	a2,a2
   1072e:	0016079b          	addiw	a5,a2,1
   10732:	0017979b          	slliw	a5,a5,0x1
   10736:	078e                	slli	a5,a5,0x3
   10738:	b131                	j	10344 <_malloc_r+0x3c>
   1073a:	0067d713          	srli	a4,a5,0x6
   1073e:	2701                	sext.w	a4,a4
   10740:	0397059b          	addiw	a1,a4,57
   10744:	0015959b          	slliw	a1,a1,0x1
   10748:	0387069b          	addiw	a3,a4,56
   1074c:	058e                	slli	a1,a1,0x3
   1074e:	bfa9                	j	106a8 <_malloc_r+0x3a0>
   10750:	11340363          	beq	s0,s3,10856 <_malloc_r+0x54e>
   10754:	0109b403          	ld	s0,16(s3)
   10758:	00843a03          	ld	s4,8(s0)
   1075c:	ffca7a13          	andi	s4,s4,-4
   10760:	409a07b3          	sub	a5,s4,s1
   10764:	009a6563          	bltu	s4,s1,1076e <_malloc_r+0x466>
   10768:	477d                	li	a4,31
   1076a:	eef74de3          	blt	a4,a5,10664 <_malloc_r+0x35c>
   1076e:	854a                	mv	a0,s2
   10770:	26c000ef          	jal	ra,109dc <__malloc_unlock>
   10774:	4501                	li	a0,0
   10776:	b129                	j	10380 <_malloc_r+0x78>
   10778:	2781                	sext.w	a5,a5
   1077a:	05c7861b          	addiw	a2,a5,92
   1077e:	0016169b          	slliw	a3,a2,0x1
   10782:	05b7851b          	addiw	a0,a5,91
   10786:	068e                	slli	a3,a3,0x3
   10788:	b989                	j	103da <_malloc_r+0xd2>
   1078a:	0108b783          	ld	a5,16(a7)
   1078e:	367d                	addiw	a2,a2,-1
   10790:	19179d63          	bne	a5,a7,1092a <_malloc_r+0x622>
   10794:	00367793          	andi	a5,a2,3
   10798:	18c1                	addi	a7,a7,-16
   1079a:	fbe5                	bnez	a5,1078a <_malloc_r+0x482>
   1079c:	0089b703          	ld	a4,8(s3)
   107a0:	fff6c793          	not	a5,a3
   107a4:	8ff9                	and	a5,a5,a4
   107a6:	00f9b423          	sd	a5,8(s3)
   107aa:	0686                	slli	a3,a3,0x1
   107ac:	c8d7e2e3          	bltu	a5,a3,10430 <_malloc_r+0x128>
   107b0:	c80680e3          	beqz	a3,10430 <_malloc_r+0x128>
   107b4:	00f6f733          	and	a4,a3,a5
   107b8:	e711                	bnez	a4,107c4 <_malloc_r+0x4bc>
   107ba:	0686                	slli	a3,a3,0x1
   107bc:	00f6f733          	and	a4,a3,a5
   107c0:	2311                	addiw	t1,t1,4
   107c2:	df65                	beqz	a4,107ba <_malloc_r+0x4b2>
   107c4:	861a                	mv	a2,t1
   107c6:	bd21                	j	105de <_malloc_r+0x2d6>
   107c8:	020a0a13          	addi	s4,s4,32
   107cc:	b979                	j	1046a <_malloc_r+0x162>
   107ce:	0089b803          	ld	a6,8(s3)
   107d2:	4026d69b          	sraiw	a3,a3,0x2
   107d6:	4785                	li	a5,1
   107d8:	00d797b3          	sll	a5,a5,a3
   107dc:	0107e7b3          	or	a5,a5,a6
   107e0:	00f9b423          	sd	a5,8(s3)
   107e4:	b5cd                	j	106c6 <_malloc_r+0x3be>
   107e6:	6785                	lui	a5,0x1
   107e8:	fff78713          	addi	a4,a5,-1 # fff <register_fini-0xf0b1>
   107ec:	014b0c33          	add	s8,s6,s4
   107f0:	00ec7c33          	and	s8,s8,a4
   107f4:	418787b3          	sub	a5,a5,s8
   107f8:	00e7fc33          	and	s8,a5,a4
   107fc:	85e2                	mv	a1,s8
   107fe:	854a                	mv	a0,s2
   10800:	230000ef          	jal	ra,10a30 <_sbrk_r>
   10804:	57fd                	li	a5,-1
   10806:	4701                	li	a4,0
   10808:	cef501e3          	beq	a0,a5,104ea <_malloc_r+0x1e2>
   1080c:	41650533          	sub	a0,a0,s6
   10810:	000c071b          	sext.w	a4,s8
   10814:	01850a33          	add	s4,a0,s8
   10818:	b9c9                	j	104ea <_malloc_r+0x1e2>
   1081a:	05400693          	li	a3,84
   1081e:	06e6ea63          	bltu	a3,a4,10892 <_malloc_r+0x58a>
   10822:	00c7d713          	srli	a4,a5,0xc
   10826:	2701                	sext.w	a4,a4
   10828:	06f7059b          	addiw	a1,a4,111
   1082c:	0015959b          	slliw	a1,a1,0x1
   10830:	06e7069b          	addiw	a3,a4,110
   10834:	058e                	slli	a1,a1,0x3
   10836:	bd8d                	j	106a8 <_malloc_r+0x3a0>
   10838:	15400713          	li	a4,340
   1083c:	06f76a63          	bltu	a4,a5,108b0 <_malloc_r+0x5a8>
   10840:	00f4d513          	srli	a0,s1,0xf
   10844:	2501                	sext.w	a0,a0
   10846:	0785061b          	addiw	a2,a0,120
   1084a:	0016169b          	slliw	a3,a2,0x1
   1084e:	0775051b          	addiw	a0,a0,119
   10852:	068e                	slli	a3,a3,0x3
   10854:	b659                	j	103da <_malloc_r+0xd2>
   10856:	7c018b93          	addi	s7,gp,1984 # 1e1d8 <__malloc_current_mallinfo>
   1085a:	000ba783          	lw	a5,0(s7)
   1085e:	014786bb          	addw	a3,a5,s4
   10862:	00dba023          	sw	a3,0(s7)
   10866:	b13d                	j	10494 <_malloc_r+0x18c>
   10868:	034c1713          	slli	a4,s8,0x34
   1086c:	c20714e3          	bnez	a4,10494 <_malloc_r+0x18c>
   10870:	0109b403          	ld	s0,16(s3)
   10874:	9a56                	add	s4,s4,s5
   10876:	001a6a13          	ori	s4,s4,1
   1087a:	01443423          	sd	s4,8(s0)
   1087e:	b17d                	j	1052c <_malloc_r+0x224>
   10880:	7561b823          	sd	s6,1872(gp) # 1e168 <__malloc_sbrk_base>
   10884:	b115                	j	104a8 <_malloc_r+0x1a0>
   10886:	845a                	mv	s0,s6
   10888:	b155                	j	1052c <_malloc_r+0x224>
   1088a:	4785                	li	a5,1
   1088c:	00fb3423          	sd	a5,8(s6)
   10890:	bdf9                	j	1076e <_malloc_r+0x466>
   10892:	15400693          	li	a3,340
   10896:	04e6ef63          	bltu	a3,a4,108f4 <_malloc_r+0x5ec>
   1089a:	00f7d713          	srli	a4,a5,0xf
   1089e:	2701                	sext.w	a4,a4
   108a0:	0787059b          	addiw	a1,a4,120
   108a4:	0015959b          	slliw	a1,a1,0x1
   108a8:	0777069b          	addiw	a3,a4,119
   108ac:	058e                	slli	a1,a1,0x3
   108ae:	bbed                	j	106a8 <_malloc_r+0x3a0>
   108b0:	55400713          	li	a4,1364
   108b4:	04f76f63          	bltu	a4,a5,10912 <_malloc_r+0x60a>
   108b8:	0124d513          	srli	a0,s1,0x12
   108bc:	2501                	sext.w	a0,a0
   108be:	07d5061b          	addiw	a2,a0,125
   108c2:	0016169b          	slliw	a3,a2,0x1
   108c6:	07c5051b          	addiw	a0,a0,124
   108ca:	068e                	slli	a3,a3,0x3
   108cc:	b639                	j	103da <_malloc_r+0xd2>
   108ce:	1c41                	addi	s8,s8,-16
   108d0:	018c8a33          	add	s4,s9,s8
   108d4:	416a0a33          	sub	s4,s4,s6
   108d8:	4701                	li	a4,0
   108da:	b901                	j	104ea <_malloc_r+0x1e2>
   108dc:	01040593          	addi	a1,s0,16
   108e0:	854a                	mv	a0,s2
   108e2:	550020ef          	jal	ra,12e32 <_free_r>
   108e6:	0109b403          	ld	s0,16(s3)
   108ea:	000ba783          	lw	a5,0(s7)
   108ee:	00843a03          	ld	s4,8(s0)
   108f2:	b92d                	j	1052c <_malloc_r+0x224>
   108f4:	55400693          	li	a3,1364
   108f8:	02e6e463          	bltu	a3,a4,10920 <_malloc_r+0x618>
   108fc:	0127d713          	srli	a4,a5,0x12
   10900:	2701                	sext.w	a4,a4
   10902:	07d7059b          	addiw	a1,a4,125
   10906:	0015959b          	slliw	a1,a1,0x1
   1090a:	07c7069b          	addiw	a3,a4,124
   1090e:	058e                	slli	a1,a1,0x3
   10910:	bb61                	j	106a8 <_malloc_r+0x3a0>
   10912:	7f000693          	li	a3,2032
   10916:	07f00613          	li	a2,127
   1091a:	07e00513          	li	a0,126
   1091e:	bc75                	j	103da <_malloc_r+0xd2>
   10920:	7f000593          	li	a1,2032
   10924:	07e00693          	li	a3,126
   10928:	b341                	j	106a8 <_malloc_r+0x3a0>
   1092a:	0089b783          	ld	a5,8(s3)
   1092e:	bdb5                	j	107aa <_malloc_r+0x4a2>

0000000000010930 <memset>:
   10930:	433d                	li	t1,15
   10932:	872a                	mv	a4,a0
   10934:	02c37163          	bgeu	t1,a2,10956 <memset+0x26>
   10938:	00f77793          	andi	a5,a4,15
   1093c:	e3c1                	bnez	a5,109bc <memset+0x8c>
   1093e:	e1bd                	bnez	a1,109a4 <memset+0x74>
   10940:	ff067693          	andi	a3,a2,-16
   10944:	8a3d                	andi	a2,a2,15
   10946:	96ba                	add	a3,a3,a4
   10948:	e30c                	sd	a1,0(a4)
   1094a:	e70c                	sd	a1,8(a4)
   1094c:	0741                	addi	a4,a4,16
   1094e:	fed76de3          	bltu	a4,a3,10948 <memset+0x18>
   10952:	e211                	bnez	a2,10956 <memset+0x26>
   10954:	8082                	ret
   10956:	40c306b3          	sub	a3,t1,a2
   1095a:	068a                	slli	a3,a3,0x2
   1095c:	00000297          	auipc	t0,0x0
   10960:	9696                	add	a3,a3,t0
   10962:	00a68067          	jr	10(a3)
   10966:	00b70723          	sb	a1,14(a4)
   1096a:	00b706a3          	sb	a1,13(a4)
   1096e:	00b70623          	sb	a1,12(a4)
   10972:	00b705a3          	sb	a1,11(a4)
   10976:	00b70523          	sb	a1,10(a4)
   1097a:	00b704a3          	sb	a1,9(a4)
   1097e:	00b70423          	sb	a1,8(a4)
   10982:	00b703a3          	sb	a1,7(a4)
   10986:	00b70323          	sb	a1,6(a4)
   1098a:	00b702a3          	sb	a1,5(a4)
   1098e:	00b70223          	sb	a1,4(a4)
   10992:	00b701a3          	sb	a1,3(a4)
   10996:	00b70123          	sb	a1,2(a4)
   1099a:	00b700a3          	sb	a1,1(a4)
   1099e:	00b70023          	sb	a1,0(a4)
   109a2:	8082                	ret
   109a4:	0ff5f593          	andi	a1,a1,255
   109a8:	00859693          	slli	a3,a1,0x8
   109ac:	8dd5                	or	a1,a1,a3
   109ae:	01059693          	slli	a3,a1,0x10
   109b2:	8dd5                	or	a1,a1,a3
   109b4:	02059693          	slli	a3,a1,0x20
   109b8:	8dd5                	or	a1,a1,a3
   109ba:	b759                	j	10940 <memset+0x10>
   109bc:	00279693          	slli	a3,a5,0x2
   109c0:	00000297          	auipc	t0,0x0
   109c4:	9696                	add	a3,a3,t0
   109c6:	8286                	mv	t0,ra
   109c8:	fa2680e7          	jalr	-94(a3)
   109cc:	8096                	mv	ra,t0
   109ce:	17c1                	addi	a5,a5,-16
   109d0:	8f1d                	sub	a4,a4,a5
   109d2:	963e                	add	a2,a2,a5
   109d4:	f8c371e3          	bgeu	t1,a2,10956 <memset+0x26>
   109d8:	b79d                	j	1093e <memset+0xe>

00000000000109da <__malloc_lock>:
   109da:	8082                	ret

00000000000109dc <__malloc_unlock>:
   109dc:	8082                	ret

00000000000109de <_printf_r>:
   109de:	715d                	addi	sp,sp,-80
   109e0:	f032                	sd	a2,32(sp)
   109e2:	f436                	sd	a3,40(sp)
   109e4:	fc3e                	sd	a5,56(sp)
   109e6:	f83a                	sd	a4,48(sp)
   109e8:	e0c2                	sd	a6,64(sp)
   109ea:	e4c6                	sd	a7,72(sp)
   109ec:	862e                	mv	a2,a1
   109ee:	690c                	ld	a1,16(a0)
   109f0:	101c                	addi	a5,sp,32
   109f2:	86be                	mv	a3,a5
   109f4:	ec06                	sd	ra,24(sp)
   109f6:	e43e                	sd	a5,8(sp)
   109f8:	070000ef          	jal	ra,10a68 <_vfprintf_r>
   109fc:	60e2                	ld	ra,24(sp)
   109fe:	6161                	addi	sp,sp,80
   10a00:	8082                	ret

0000000000010a02 <printf>:
   10a02:	7481b303          	ld	t1,1864(gp) # 1e160 <_impure_ptr>
   10a06:	711d                	addi	sp,sp,-96
   10a08:	f832                	sd	a2,48(sp)
   10a0a:	fc36                	sd	a3,56(sp)
   10a0c:	e4be                	sd	a5,72(sp)
   10a0e:	f42e                	sd	a1,40(sp)
   10a10:	e0ba                	sd	a4,64(sp)
   10a12:	e8c2                	sd	a6,80(sp)
   10a14:	ecc6                	sd	a7,88(sp)
   10a16:	01033583          	ld	a1,16(t1) # 10 <register_fini-0x100a0>
   10a1a:	103c                	addi	a5,sp,40
   10a1c:	862a                	mv	a2,a0
   10a1e:	86be                	mv	a3,a5
   10a20:	851a                	mv	a0,t1
   10a22:	ec06                	sd	ra,24(sp)
   10a24:	e43e                	sd	a5,8(sp)
   10a26:	042000ef          	jal	ra,10a68 <_vfprintf_r>
   10a2a:	60e2                	ld	ra,24(sp)
   10a2c:	6125                	addi	sp,sp,96
   10a2e:	8082                	ret

0000000000010a30 <_sbrk_r>:
   10a30:	1101                	addi	sp,sp,-32
   10a32:	e822                	sd	s0,16(sp)
   10a34:	e426                	sd	s1,8(sp)
   10a36:	6479                	lui	s0,0x1e
   10a38:	84aa                	mv	s1,a0
   10a3a:	852e                	mv	a0,a1
   10a3c:	ec06                	sd	ra,24(sp)
   10a3e:	20042823          	sw	zero,528(s0) # 1e210 <errno>
   10a42:	1180a0ef          	jal	ra,1ab5a <_sbrk>
   10a46:	57fd                	li	a5,-1
   10a48:	00f50763          	beq	a0,a5,10a56 <_sbrk_r+0x26>
   10a4c:	60e2                	ld	ra,24(sp)
   10a4e:	6442                	ld	s0,16(sp)
   10a50:	64a2                	ld	s1,8(sp)
   10a52:	6105                	addi	sp,sp,32
   10a54:	8082                	ret
   10a56:	21042783          	lw	a5,528(s0)
   10a5a:	dbed                	beqz	a5,10a4c <_sbrk_r+0x1c>
   10a5c:	60e2                	ld	ra,24(sp)
   10a5e:	6442                	ld	s0,16(sp)
   10a60:	c09c                	sw	a5,0(s1)
   10a62:	64a2                	ld	s1,8(sp)
   10a64:	6105                	addi	sp,sp,32
   10a66:	8082                	ret

0000000000010a68 <_vfprintf_r>:
   10a68:	d8010113          	addi	sp,sp,-640
   10a6c:	26113c23          	sd	ra,632(sp)
   10a70:	25313c23          	sd	s3,600(sp)
   10a74:	25413823          	sd	s4,592(sp)
   10a78:	23a13023          	sd	s10,544(sp)
   10a7c:	89ae                	mv	s3,a1
   10a7e:	8d32                	mv	s10,a2
   10a80:	e836                	sd	a3,16(sp)
   10a82:	26813823          	sd	s0,624(sp)
   10a86:	26913423          	sd	s1,616(sp)
   10a8a:	27213023          	sd	s2,608(sp)
   10a8e:	25513423          	sd	s5,584(sp)
   10a92:	25613023          	sd	s6,576(sp)
   10a96:	23713c23          	sd	s7,568(sp)
   10a9a:	23813823          	sd	s8,560(sp)
   10a9e:	23913423          	sd	s9,552(sp)
   10aa2:	21b13c23          	sd	s11,536(sp)
   10aa6:	8a2a                	mv	s4,a0
   10aa8:	7b6040ef          	jal	ra,1525e <_localeconv_r>
   10aac:	611c                	ld	a5,0(a0)
   10aae:	853e                	mv	a0,a5
   10ab0:	f8be                	sd	a5,112(sp)
   10ab2:	205050ef          	jal	ra,164b6 <strlen>
   10ab6:	f4aa                	sd	a0,104(sp)
   10ab8:	e202                	sd	zero,256(sp)
   10aba:	e602                	sd	zero,264(sp)
   10abc:	000a0663          	beqz	s4,10ac8 <_vfprintf_r+0x60>
   10ac0:	050a2783          	lw	a5,80(s4)
   10ac4:	1c0780e3          	beqz	a5,11484 <_vfprintf_r+0xa1c>
   10ac8:	01099683          	lh	a3,16(s3)
   10acc:	03069793          	slli	a5,a3,0x30
   10ad0:	93c1                	srli	a5,a5,0x30
   10ad2:	03279713          	slli	a4,a5,0x32
   10ad6:	00074f63          	bltz	a4,10af4 <_vfprintf_r+0x8c>
   10ada:	0ac9a603          	lw	a2,172(s3)
   10ade:	6789                	lui	a5,0x2
   10ae0:	8fd5                	or	a5,a5,a3
   10ae2:	76f9                	lui	a3,0xffffe
   10ae4:	16fd                	addi	a3,a3,-1
   10ae6:	8ef1                	and	a3,a3,a2
   10ae8:	00f99823          	sh	a5,16(s3)
   10aec:	17c2                	slli	a5,a5,0x30
   10aee:	0ad9a623          	sw	a3,172(s3)
   10af2:	93c1                	srli	a5,a5,0x30
   10af4:	0087f693          	andi	a3,a5,8
   10af8:	cafd                	beqz	a3,10bee <_vfprintf_r+0x186>
   10afa:	0189b683          	ld	a3,24(s3)
   10afe:	cae5                	beqz	a3,10bee <_vfprintf_r+0x186>
   10b00:	8be9                	andi	a5,a5,26
   10b02:	46a9                	li	a3,10
   10b04:	10d78263          	beq	a5,a3,10c08 <_vfprintf_r+0x1a0>
   10b08:	0001c7b7          	lui	a5,0x1c
   10b0c:	2d87b783          	ld	a5,728(a5) # 1c2d8 <zeroes.4550+0x38>
   10b10:	19010a93          	addi	s5,sp,400
   10b14:	ea56                	sd	s5,272(sp)
   10b16:	f13e                	sd	a5,160(sp)
   10b18:	0001c7b7          	lui	a5,0x1c
   10b1c:	2b87b783          	ld	a5,696(a5) # 1c2b8 <zeroes.4550+0x18>
   10b20:	f202                	sd	zero,288(sp)
   10b22:	10012c23          	sw	zero,280(sp)
   10b26:	e93e                	sd	a5,144(sp)
   10b28:	0001c7b7          	lui	a5,0x1c
   10b2c:	2c87b783          	ld	a5,712(a5) # 1c2c8 <zeroes.4550+0x28>
   10b30:	f002                	sd	zero,32(sp)
   10b32:	f402                	sd	zero,40(sp)
   10b34:	ed3e                	sd	a5,152(sp)
   10b36:	000d4783          	lbu	a5,0(s10)
   10b3a:	e102                	sd	zero,128(sp)
   10b3c:	f082                	sd	zero,96(sp)
   10b3e:	fc82                	sd	zero,120(sp)
   10b40:	e502                	sd	zero,136(sp)
   10b42:	e402                	sd	zero,8(sp)
   10b44:	8356                	mv	t1,s5
   10b46:	72078e63          	beqz	a5,11282 <_vfprintf_r+0x81a>
   10b4a:	02500693          	li	a3,37
   10b4e:	00d79463          	bne	a5,a3,10b56 <_vfprintf_r+0xee>
   10b52:	0960106f          	j	11be8 <_vfprintf_r+0x1180>
   10b56:	846a                	mv	s0,s10
   10b58:	a021                	j	10b60 <_vfprintf_r+0xf8>
   10b5a:	0cd78363          	beq	a5,a3,10c20 <_vfprintf_r+0x1b8>
   10b5e:	844a                	mv	s0,s2
   10b60:	00144783          	lbu	a5,1(s0)
   10b64:	00140913          	addi	s2,s0,1
   10b68:	fbed                	bnez	a5,10b5a <_vfprintf_r+0xf2>
   10b6a:	41a904bb          	subw	s1,s2,s10
   10b6e:	70048a63          	beqz	s1,11282 <_vfprintf_r+0x81a>
   10b72:	7692                	ld	a3,288(sp)
   10b74:	11812783          	lw	a5,280(sp)
   10b78:	01a33023          	sd	s10,0(t1)
   10b7c:	96a6                	add	a3,a3,s1
   10b7e:	2785                	addiw	a5,a5,1
   10b80:	00933423          	sd	s1,8(t1)
   10b84:	f236                	sd	a3,288(sp)
   10b86:	10f12c23          	sw	a5,280(sp)
   10b8a:	0007869b          	sext.w	a3,a5
   10b8e:	479d                	li	a5,7
   10b90:	0341                	addi	t1,t1,16
   10b92:	08d7cb63          	blt	a5,a3,10c28 <_vfprintf_r+0x1c0>
   10b96:	6722                	ld	a4,8(sp)
   10b98:	00144783          	lbu	a5,1(s0)
   10b9c:	9f25                	addw	a4,a4,s1
   10b9e:	e43a                	sd	a4,8(sp)
   10ba0:	6e078163          	beqz	a5,11282 <_vfprintf_r+0x81a>
   10ba4:	67f1                	lui	a5,0x1c
   10ba6:	00190493          	addi	s1,s2,1
   10baa:	00194e83          	lbu	t4,1(s2)
   10bae:	0c010fa3          	sb	zero,223(sp)
   10bb2:	5c7d                	li	s8,-1
   10bb4:	4b01                	li	s6,0
   10bb6:	4401                	li	s0,0
   10bb8:	05a00913          	li	s2,90
   10bbc:	12078b93          	addi	s7,a5,288 # 1c120 <__clzdi2+0xb2>
   10bc0:	4da5                	li	s11,9
   10bc2:	0485                	addi	s1,s1,1
   10bc4:	000e8c9b          	sext.w	s9,t4
   10bc8:	02a00613          	li	a2,42
   10bcc:	fe0c879b          	addiw	a5,s9,-32
   10bd0:	0007869b          	sext.w	a3,a5
   10bd4:	18d96363          	bltu	s2,a3,10d5a <_vfprintf_r+0x2f2>
   10bd8:	1782                	slli	a5,a5,0x20
   10bda:	83f9                	srli	a5,a5,0x1e
   10bdc:	97de                	add	a5,a5,s7
   10bde:	439c                	lw	a5,0(a5)
   10be0:	8782                	jr	a5
   10be2:	01046413          	ori	s0,s0,16
   10be6:	2401                	sext.w	s0,s0
   10be8:	0004ce83          	lbu	t4,0(s1)
   10bec:	bfd9                	j	10bc2 <_vfprintf_r+0x15a>
   10bee:	85ce                	mv	a1,s3
   10bf0:	8552                	mv	a0,s4
   10bf2:	2eb010ef          	jal	ra,126dc <__swsetup_r>
   10bf6:	c119                	beqz	a0,10bfc <_vfprintf_r+0x194>
   10bf8:	7700106f          	j	12368 <_vfprintf_r+0x1900>
   10bfc:	0109d783          	lhu	a5,16(s3)
   10c00:	46a9                	li	a3,10
   10c02:	8be9                	andi	a5,a5,26
   10c04:	f0d792e3          	bne	a5,a3,10b08 <_vfprintf_r+0xa0>
   10c08:	01299783          	lh	a5,18(s3)
   10c0c:	ee07cee3          	bltz	a5,10b08 <_vfprintf_r+0xa0>
   10c10:	66c2                	ld	a3,16(sp)
   10c12:	866a                	mv	a2,s10
   10c14:	85ce                	mv	a1,s3
   10c16:	8552                	mv	a0,s4
   10c18:	231010ef          	jal	ra,12648 <__sbprintf>
   10c1c:	e42a                	sd	a0,8(sp)
   10c1e:	a089                	j	10c60 <_vfprintf_r+0x1f8>
   10c20:	41a904bb          	subw	s1,s2,s10
   10c24:	d0c1                	beqz	s1,10ba4 <_vfprintf_r+0x13c>
   10c26:	b7b1                	j	10b72 <_vfprintf_r+0x10a>
   10c28:	0a10                	addi	a2,sp,272
   10c2a:	85ce                	mv	a1,s3
   10c2c:	8552                	mv	a0,s4
   10c2e:	5d2070ef          	jal	ra,18200 <__sprint_r>
   10c32:	e105                	bnez	a0,10c52 <_vfprintf_r+0x1ea>
   10c34:	8356                	mv	t1,s5
   10c36:	b785                	j	10b96 <_vfprintf_r+0x12e>
   10c38:	0a10                	addi	a2,sp,272
   10c3a:	85ce                	mv	a1,s3
   10c3c:	8552                	mv	a0,s4
   10c3e:	5c2070ef          	jal	ra,18200 <__sprint_r>
   10c42:	62050263          	beqz	a0,11266 <_vfprintf_r+0x7fe>
   10c46:	67e2                	ld	a5,24(sp)
   10c48:	c789                	beqz	a5,10c52 <_vfprintf_r+0x1ea>
   10c4a:	85be                	mv	a1,a5
   10c4c:	8552                	mv	a0,s4
   10c4e:	1e4020ef          	jal	ra,12e32 <_free_r>
   10c52:	0109d783          	lhu	a5,16(s3)
   10c56:	0407f793          	andi	a5,a5,64
   10c5a:	c399                	beqz	a5,10c60 <_vfprintf_r+0x1f8>
   10c5c:	70c0106f          	j	12368 <_vfprintf_r+0x1900>
   10c60:	27813083          	ld	ra,632(sp)
   10c64:	27013403          	ld	s0,624(sp)
   10c68:	6522                	ld	a0,8(sp)
   10c6a:	26813483          	ld	s1,616(sp)
   10c6e:	26013903          	ld	s2,608(sp)
   10c72:	25813983          	ld	s3,600(sp)
   10c76:	25013a03          	ld	s4,592(sp)
   10c7a:	24813a83          	ld	s5,584(sp)
   10c7e:	24013b03          	ld	s6,576(sp)
   10c82:	23813b83          	ld	s7,568(sp)
   10c86:	23013c03          	ld	s8,560(sp)
   10c8a:	22813c83          	ld	s9,552(sp)
   10c8e:	22013d03          	ld	s10,544(sp)
   10c92:	21813d83          	ld	s11,536(sp)
   10c96:	28010113          	addi	sp,sp,640
   10c9a:	8082                	ret
   10c9c:	0001c7b7          	lui	a5,0x1c
   10ca0:	66c2                	ld	a3,16(sp)
   10ca2:	30078793          	addi	a5,a5,768 # 1c300 <zeroes.4550+0x60>
   10ca6:	f43e                	sd	a5,40(sp)
   10ca8:	02047793          	andi	a5,s0,32
   10cac:	00868713          	addi	a4,a3,8 # ffffffffffffe008 <__BSS_END__+0xfffffffffffdfdf0>
   10cb0:	cbf9                	beqz	a5,10d86 <_vfprintf_r+0x31e>
   10cb2:	0006b903          	ld	s2,0(a3)
   10cb6:	00147793          	andi	a5,s0,1
   10cba:	cf81                	beqz	a5,10cd2 <_vfprintf_r+0x26a>
   10cbc:	00090b63          	beqz	s2,10cd2 <_vfprintf_r+0x26a>
   10cc0:	00246413          	ori	s0,s0,2
   10cc4:	03000793          	li	a5,48
   10cc8:	0ef10023          	sb	a5,224(sp)
   10ccc:	0f9100a3          	sb	s9,225(sp)
   10cd0:	2401                	sext.w	s0,s0
   10cd2:	bff47413          	andi	s0,s0,-1025
   10cd6:	00040d9b          	sext.w	s11,s0
   10cda:	e83a                	sd	a4,16(sp)
   10cdc:	4789                	li	a5,2
   10cde:	0c010fa3          	sb	zero,223(sp)
   10ce2:	577d                	li	a4,-1
   10ce4:	44ec0263          	beq	s8,a4,11128 <_vfprintf_r+0x6c0>
   10ce8:	f7fdf413          	andi	s0,s11,-129
   10cec:	2401                	sext.w	s0,s0
   10cee:	2c0913e3          	bnez	s2,117b4 <_vfprintf_r+0xd4c>
   10cf2:	3e0c19e3          	bnez	s8,118e4 <_vfprintf_r+0xe7c>
   10cf6:	3a079363          	bnez	a5,1109c <_vfprintf_r+0x634>
   10cfa:	001dfb93          	andi	s7,s11,1
   10cfe:	18c10d13          	addi	s10,sp,396
   10d02:	5a0b9be3          	bnez	s7,11ab8 <_vfprintf_r+0x1050>
   10d06:	000b891b          	sext.w	s2,s7
   10d0a:	018bd463          	bge	s7,s8,10d12 <_vfprintf_r+0x2aa>
   10d0e:	000c091b          	sext.w	s2,s8
   10d12:	0df14783          	lbu	a5,223(sp)
   10d16:	ec02                	sd	zero,24(sp)
   10d18:	e482                	sd	zero,72(sp)
   10d1a:	ec82                	sd	zero,88(sp)
   10d1c:	e882                	sd	zero,80(sp)
   10d1e:	46078d63          	beqz	a5,11198 <_vfprintf_r+0x730>
   10d22:	2905                	addiw	s2,s2,1
   10d24:	a995                	j	11198 <_vfprintf_r+0x730>
   10d26:	4b01                	li	s6,0
   10d28:	0485                	addi	s1,s1,1
   10d2a:	fff4c683          	lbu	a3,-1(s1)
   10d2e:	002b179b          	slliw	a5,s6,0x2
   10d32:	01678b3b          	addw	s6,a5,s6
   10d36:	fd0c8e9b          	addiw	t4,s9,-48
   10d3a:	001b1b1b          	slliw	s6,s6,0x1
   10d3e:	fd06879b          	addiw	a5,a3,-48
   10d42:	016e8b3b          	addw	s6,t4,s6
   10d46:	00068c9b          	sext.w	s9,a3
   10d4a:	fcfdffe3          	bgeu	s11,a5,10d28 <_vfprintf_r+0x2c0>
   10d4e:	fe0c879b          	addiw	a5,s9,-32
   10d52:	0007869b          	sext.w	a3,a5
   10d56:	e8d971e3          	bgeu	s2,a3,10bd8 <_vfprintf_r+0x170>
   10d5a:	520c8463          	beqz	s9,11282 <_vfprintf_r+0x81a>
   10d5e:	13910423          	sb	s9,296(sp)
   10d62:	0c010fa3          	sb	zero,223(sp)
   10d66:	4905                	li	s2,1
   10d68:	4b85                	li	s7,1
   10d6a:	12810d13          	addi	s10,sp,296
   10d6e:	a105                	j	1118e <_vfprintf_r+0x726>
   10d70:	0001c7b7          	lui	a5,0x1c
   10d74:	66c2                	ld	a3,16(sp)
   10d76:	31878793          	addi	a5,a5,792 # 1c318 <zeroes.4550+0x78>
   10d7a:	f43e                	sd	a5,40(sp)
   10d7c:	02047793          	andi	a5,s0,32
   10d80:	00868713          	addi	a4,a3,8
   10d84:	f79d                	bnez	a5,10cb2 <_vfprintf_r+0x24a>
   10d86:	01047793          	andi	a5,s0,16
   10d8a:	560792e3          	bnez	a5,11aee <_vfprintf_r+0x1086>
   10d8e:	66c2                	ld	a3,16(sp)
   10d90:	04047793          	andi	a5,s0,64
   10d94:	0006a903          	lw	s2,0(a3)
   10d98:	e399                	bnez	a5,10d9e <_vfprintf_r+0x336>
   10d9a:	78b0006f          	j	11d24 <_vfprintf_r+0x12bc>
   10d9e:	1942                	slli	s2,s2,0x30
   10da0:	03095913          	srli	s2,s2,0x30
   10da4:	bf09                	j	10cb6 <_vfprintf_r+0x24e>
   10da6:	0004ce83          	lbu	t4,0(s1)
   10daa:	00446413          	ori	s0,s0,4
   10dae:	2401                	sext.w	s0,s0
   10db0:	bd09                	j	10bc2 <_vfprintf_r+0x15a>
   10db2:	0004ce83          	lbu	t4,0(s1)
   10db6:	06800793          	li	a5,104
   10dba:	58fe86e3          	beq	t4,a5,11b46 <_vfprintf_r+0x10de>
   10dbe:	04046413          	ori	s0,s0,64
   10dc2:	2401                	sext.w	s0,s0
   10dc4:	bbfd                	j	10bc2 <_vfprintf_r+0x15a>
   10dc6:	00847793          	andi	a5,s0,8
   10dca:	500794e3          	bnez	a5,11ad2 <_vfprintf_r+0x106a>
   10dce:	67c2                	ld	a5,16(sp)
   10dd0:	ec1a                	sd	t1,24(sp)
   10dd2:	2388                	fld	fa0,0(a5)
   10dd4:	07a1                	addi	a5,a5,8
   10dd6:	e83e                	sd	a5,16(sp)
   10dd8:	7ab0a0ef          	jal	ra,1bd82 <__extenddftf2>
   10ddc:	6362                	ld	t1,24(sp)
   10dde:	e22a                	sd	a0,256(sp)
   10de0:	e62e                	sd	a1,264(sp)
   10de2:	0208                	addi	a0,sp,256
   10de4:	ec1a                	sd	t1,24(sp)
   10de6:	43c040ef          	jal	ra,15222 <_ldcheck>
   10dea:	d5aa                	sw	a0,232(sp)
   10dec:	4789                	li	a5,2
   10dee:	6362                	ld	t1,24(sp)
   10df0:	6af50de3          	beq	a0,a5,11caa <_vfprintf_r+0x1242>
   10df4:	4785                	li	a5,1
   10df6:	00f51463          	bne	a0,a5,10dfe <_vfprintf_r+0x396>
   10dfa:	77b0006f          	j	11d74 <_vfprintf_r+0x130c>
   10dfe:	06100793          	li	a5,97
   10e02:	00fc9463          	bne	s9,a5,10e0a <_vfprintf_r+0x3a2>
   10e06:	6040106f          	j	1240a <_vfprintf_r+0x19a2>
   10e0a:	04100793          	li	a5,65
   10e0e:	00fc9463          	bne	s9,a5,10e16 <_vfprintf_r+0x3ae>
   10e12:	1f40106f          	j	12006 <_vfprintf_r+0x159e>
   10e16:	fdfcf713          	andi	a4,s9,-33
   10e1a:	57fd                	li	a5,-1
   10e1c:	f53a                	sd	a4,168(sp)
   10e1e:	00fc1463          	bne	s8,a5,10e26 <_vfprintf_r+0x3be>
   10e22:	6760106f          	j	12498 <_vfprintf_r+0x1a30>
   10e26:	04700793          	li	a5,71
   10e2a:	00f71463          	bne	a4,a5,10e32 <_vfprintf_r+0x3ca>
   10e2e:	65c0106f          	j	1248a <_vfprintf_r+0x1a22>
   10e32:	6bb2                	ld	s7,264(sp)
   10e34:	10046793          	ori	a5,s0,256
   10e38:	f922                	sd	s0,176(sp)
   10e3a:	2781                	sext.w	a5,a5
   10e3c:	6d92                	ld	s11,256(sp)
   10e3e:	000bd463          	bgez	s7,10e46 <_vfprintf_r+0x3de>
   10e42:	4220106f          	j	12264 <_vfprintf_r+0x17fc>
   10e46:	e582                	sd	zero,200(sp)
   10e48:	843e                	mv	s0,a5
   10e4a:	ec02                	sd	zero,24(sp)
   10e4c:	772a                	ld	a4,168(sp)
   10e4e:	04600793          	li	a5,70
   10e52:	00f71463          	bne	a4,a5,10e5a <_vfprintf_r+0x3f2>
   10e56:	3540106f          	j	121aa <_vfprintf_r+0x1742>
   10e5a:	04500793          	li	a5,69
   10e5e:	f01a                	sd	t1,32(sp)
   10e60:	00f71463          	bne	a4,a5,10e68 <_vfprintf_r+0x400>
   10e64:	6020106f          	j	12466 <_vfprintf_r+0x19fe>
   10e68:	11bc                	addi	a5,sp,232
   10e6a:	8762                	mv	a4,s8
   10e6c:	0f810893          	addi	a7,sp,248
   10e70:	0ec10813          	addi	a6,sp,236
   10e74:	4689                	li	a3,2
   10e76:	85ee                	mv	a1,s11
   10e78:	865e                	mv	a2,s7
   10e7a:	8552                	mv	a0,s4
   10e7c:	4f8030ef          	jal	ra,14374 <_ldtoa_r>
   10e80:	772a                	ld	a4,168(sp)
   10e82:	04700793          	li	a5,71
   10e86:	8d2a                	mv	s10,a0
   10e88:	7302                	ld	t1,32(sp)
   10e8a:	00f70463          	beq	a4,a5,10e92 <_vfprintf_r+0x42a>
   10e8e:	7a60106f          	j	12634 <_vfprintf_r+0x1bcc>
   10e92:	77ca                	ld	a5,176(sp)
   10e94:	01850933          	add	s2,a0,s8
   10e98:	8b85                	andi	a5,a5,1
   10e9a:	c399                	beqz	a5,10ea0 <_vfprintf_r+0x438>
   10e9c:	3400106f          	j	121dc <_vfprintf_r+0x1774>
   10ea0:	776e                	ld	a4,248(sp)
   10ea2:	41a707bb          	subw	a5,a4,s10
   10ea6:	f03e                	sd	a5,32(sp)
   10ea8:	572e                	lw	a4,232(sp)
   10eaa:	04700793          	li	a5,71
   10eae:	e8ba                	sd	a4,80(sp)
   10eb0:	772a                	ld	a4,168(sp)
   10eb2:	00f71463          	bne	a4,a5,10eba <_vfprintf_r+0x452>
   10eb6:	2dc0106f          	j	12192 <_vfprintf_r+0x172a>
   10eba:	772a                	ld	a4,168(sp)
   10ebc:	04600793          	li	a5,70
   10ec0:	00f71463          	bne	a4,a5,10ec8 <_vfprintf_r+0x460>
   10ec4:	4680106f          	j	1232c <_vfprintf_r+0x18c4>
   10ec8:	67c6                	ld	a5,80(sp)
   10eca:	772a                	ld	a4,168(sp)
   10ecc:	04100593          	li	a1,65
   10ed0:	37fd                	addiw	a5,a5,-1
   10ed2:	d5be                	sw	a5,232(sp)
   10ed4:	0ffcf693          	andi	a3,s9,255
   10ed8:	4601                	li	a2,0
   10eda:	00b71663          	bne	a4,a1,10ee6 <_vfprintf_r+0x47e>
   10ede:	26bd                	addiw	a3,a3,15
   10ee0:	0ff6f693          	andi	a3,a3,255
   10ee4:	4605                	li	a2,1
   10ee6:	0ed10823          	sb	a3,240(sp)
   10eea:	0007d463          	bgez	a5,10ef2 <_vfprintf_r+0x48a>
   10eee:	6aa0106f          	j	12598 <_vfprintf_r+0x1b30>
   10ef2:	02b00693          	li	a3,43
   10ef6:	0ed108a3          	sb	a3,241(sp)
   10efa:	46a5                	li	a3,9
   10efc:	00f6c463          	blt	a3,a5,10f04 <_vfprintf_r+0x49c>
   10f00:	65e0106f          	j	1255e <_vfprintf_r+0x1af6>
   10f04:	0ff10813          	addi	a6,sp,255
   10f08:	85c2                	mv	a1,a6
   10f0a:	4529                	li	a0,10
   10f0c:	06300893          	li	a7,99
   10f10:	a019                	j	10f16 <_vfprintf_r+0x4ae>
   10f12:	85b2                	mv	a1,a2
   10f14:	87b6                	mv	a5,a3
   10f16:	02a7e6bb          	remw	a3,a5,a0
   10f1a:	fff58613          	addi	a2,a1,-1
   10f1e:	0306869b          	addiw	a3,a3,48
   10f22:	fed58fa3          	sb	a3,-1(a1)
   10f26:	02a7c6bb          	divw	a3,a5,a0
   10f2a:	fef8c4e3          	blt	a7,a5,10f12 <_vfprintf_r+0x4aa>
   10f2e:	0306879b          	addiw	a5,a3,48
   10f32:	0ff7f793          	andi	a5,a5,255
   10f36:	ffe58693          	addi	a3,a1,-2
   10f3a:	fef60fa3          	sb	a5,-1(a2)
   10f3e:	0106e463          	bltu	a3,a6,10f46 <_vfprintf_r+0x4de>
   10f42:	6ea0106f          	j	1262c <_vfprintf_r+0x1bc4>
   10f46:	0f210613          	addi	a2,sp,242
   10f4a:	a019                	j	10f50 <_vfprintf_r+0x4e8>
   10f4c:	0006c783          	lbu	a5,0(a3)
   10f50:	0605                	addi	a2,a2,1
   10f52:	0685                	addi	a3,a3,1
   10f54:	fef60fa3          	sb	a5,-1(a2)
   10f58:	ff069ae3          	bne	a3,a6,10f4c <_vfprintf_r+0x4e4>
   10f5c:	10110793          	addi	a5,sp,257
   10f60:	8f8d                	sub	a5,a5,a1
   10f62:	0f210713          	addi	a4,sp,242
   10f66:	97ba                	add	a5,a5,a4
   10f68:	1994                	addi	a3,sp,240
   10f6a:	9f95                	subw	a5,a5,a3
   10f6c:	e13e                	sd	a5,128(sp)
   10f6e:	678a                	ld	a5,128(sp)
   10f70:	7702                	ld	a4,32(sp)
   10f72:	4685                	li	a3,1
   10f74:	00f70bbb          	addw	s7,a4,a5
   10f78:	87de                	mv	a5,s7
   10f7a:	00e6c463          	blt	a3,a4,10f82 <_vfprintf_r+0x51a>
   10f7e:	60a0106f          	j	12588 <_vfprintf_r+0x1b20>
   10f82:	7726                	ld	a4,104(sp)
   10f84:	00e78bbb          	addw	s7,a5,a4
   10f88:	77ca                	ld	a5,176(sp)
   10f8a:	fffbc913          	not	s2,s7
   10f8e:	43f95913          	srai	s2,s2,0x3f
   10f92:	bff7f413          	andi	s0,a5,-1025
   10f96:	2401                	sext.w	s0,s0
   10f98:	012bf933          	and	s2,s7,s2
   10f9c:	10046413          	ori	s0,s0,256
   10fa0:	2901                	sext.w	s2,s2
   10fa2:	e482                	sd	zero,72(sp)
   10fa4:	ec82                	sd	zero,88(sp)
   10fa6:	e882                	sd	zero,80(sp)
   10fa8:	67ae                	ld	a5,200(sp)
   10faa:	e399                	bnez	a5,10fb0 <_vfprintf_r+0x548>
   10fac:	2a80106f          	j	12254 <_vfprintf_r+0x17ec>
   10fb0:	02d00793          	li	a5,45
   10fb4:	0cf10fa3          	sb	a5,223(sp)
   10fb8:	4c01                	li	s8,0
   10fba:	2905                	addiw	s2,s2,1
   10fbc:	aaf1                	j	11198 <_vfprintf_r+0x730>
   10fbe:	67c2                	ld	a5,16(sp)
   10fc0:	01046d93          	ori	s11,s0,16
   10fc4:	2d81                	sext.w	s11,s11
   10fc6:	00878713          	addi	a4,a5,8
   10fca:	67c2                	ld	a5,16(sp)
   10fcc:	0007b903          	ld	s2,0(a5)
   10fd0:	4785                	li	a5,1
   10fd2:	e83a                	sd	a4,16(sp)
   10fd4:	b329                	j	10cde <_vfprintf_r+0x276>
   10fd6:	67c2                	ld	a5,16(sp)
   10fd8:	0c010fa3          	sb	zero,223(sp)
   10fdc:	0007bd03          	ld	s10,0(a5)
   10fe0:	00878d93          	addi	s11,a5,8
   10fe4:	380d0be3          	beqz	s10,11b7a <_vfprintf_r+0x1112>
   10fe8:	57fd                	li	a5,-1
   10fea:	50fc02e3          	beq	s8,a5,11cee <_vfprintf_r+0x1286>
   10fee:	8662                	mv	a2,s8
   10ff0:	4581                	li	a1,0
   10ff2:	856a                	mv	a0,s10
   10ff4:	e81a                	sd	t1,16(sp)
   10ff6:	4be040ef          	jal	ra,154b4 <memchr>
   10ffa:	ec2a                	sd	a0,24(sp)
   10ffc:	6342                	ld	t1,16(sp)
   10ffe:	e119                	bnez	a0,11004 <_vfprintf_r+0x59c>
   11000:	2da0106f          	j	122da <_vfprintf_r+0x1872>
   11004:	67e2                	ld	a5,24(sp)
   11006:	e86e                	sd	s11,16(sp)
   11008:	ec02                	sd	zero,24(sp)
   1100a:	41a78bbb          	subw	s7,a5,s10
   1100e:	fffbc913          	not	s2,s7
   11012:	0df14783          	lbu	a5,223(sp)
   11016:	43f95913          	srai	s2,s2,0x3f
   1101a:	012bf933          	and	s2,s7,s2
   1101e:	e482                	sd	zero,72(sp)
   11020:	ec82                	sd	zero,88(sp)
   11022:	e882                	sd	zero,80(sp)
   11024:	2901                	sext.w	s2,s2
   11026:	4c01                	li	s8,0
   11028:	ce079de3          	bnez	a5,10d22 <_vfprintf_r+0x2ba>
   1102c:	a2b5                	j	11198 <_vfprintf_r+0x730>
   1102e:	6742                	ld	a4,16(sp)
   11030:	01046d93          	ori	s11,s0,16
   11034:	000d841b          	sext.w	s0,s11
   11038:	0721                	addi	a4,a4,8
   1103a:	67c2                	ld	a5,16(sp)
   1103c:	0007b903          	ld	s2,0(a5)
   11040:	e83a                	sd	a4,16(sp)
   11042:	bff47d93          	andi	s11,s0,-1025
   11046:	2d81                	sext.w	s11,s11
   11048:	4781                	li	a5,0
   1104a:	b951                	j	10cde <_vfprintf_r+0x276>
   1104c:	00846413          	ori	s0,s0,8
   11050:	2401                	sext.w	s0,s0
   11052:	0004ce83          	lbu	t4,0(s1)
   11056:	b6b5                	j	10bc2 <_vfprintf_r+0x15a>
   11058:	6742                	ld	a4,16(sp)
   1105a:	02047793          	andi	a5,s0,32
   1105e:	0721                	addi	a4,a4,8
   11060:	280794e3          	bnez	a5,11ae8 <_vfprintf_r+0x1080>
   11064:	01047793          	andi	a5,s0,16
   11068:	280790e3          	bnez	a5,11ae8 <_vfprintf_r+0x1080>
   1106c:	04047793          	andi	a5,s0,64
   11070:	4e0786e3          	beqz	a5,11d5c <_vfprintf_r+0x12f4>
   11074:	67c2                	ld	a5,16(sp)
   11076:	8da2                	mv	s11,s0
   11078:	e83a                	sd	a4,16(sp)
   1107a:	00079903          	lh	s2,0(a5)
   1107e:	87ca                	mv	a5,s2
   11080:	0807ca63          	bltz	a5,11114 <_vfprintf_r+0x6ac>
   11084:	57fd                	li	a5,-1
   11086:	40fc0563          	beq	s8,a5,11490 <_vfprintf_r+0xa28>
   1108a:	f7fdf413          	andi	s0,s11,-129
   1108e:	2401                	sext.w	s0,s0
   11090:	3e091f63          	bnez	s2,1148e <_vfprintf_r+0xa26>
   11094:	000c0463          	beqz	s8,1109c <_vfprintf_r+0x634>
   11098:	0e40106f          	j	1217c <_vfprintf_r+0x1714>
   1109c:	4c01                	li	s8,0
   1109e:	4b81                	li	s7,0
   110a0:	18c10d13          	addi	s10,sp,396
   110a4:	b18d                	j	10d06 <_vfprintf_r+0x29e>
   110a6:	02b00793          	li	a5,43
   110aa:	0cf10fa3          	sb	a5,223(sp)
   110ae:	0004ce83          	lbu	t4,0(s1)
   110b2:	be01                	j	10bc2 <_vfprintf_r+0x15a>
   110b4:	08046413          	ori	s0,s0,128
   110b8:	2401                	sext.w	s0,s0
   110ba:	0004ce83          	lbu	t4,0(s1)
   110be:	b611                	j	10bc2 <_vfprintf_r+0x15a>
   110c0:	0004cc83          	lbu	s9,0(s1)
   110c4:	00148793          	addi	a5,s1,1
   110c8:	00cc9463          	bne	s9,a2,110d0 <_vfprintf_r+0x668>
   110cc:	5340106f          	j	12600 <_vfprintf_r+0x1b98>
   110d0:	fd0c869b          	addiw	a3,s9,-48
   110d4:	84be                	mv	s1,a5
   110d6:	4c01                	li	s8,0
   110d8:	aeddeae3          	bltu	s11,a3,10bcc <_vfprintf_r+0x164>
   110dc:	0485                	addi	s1,s1,1
   110de:	002c179b          	slliw	a5,s8,0x2
   110e2:	fff4cc83          	lbu	s9,-1(s1)
   110e6:	01878e3b          	addw	t3,a5,s8
   110ea:	001e1e1b          	slliw	t3,t3,0x1
   110ee:	00de0c3b          	addw	s8,t3,a3
   110f2:	fd0c869b          	addiw	a3,s9,-48
   110f6:	feddf3e3          	bgeu	s11,a3,110dc <_vfprintf_r+0x674>
   110fa:	bcc9                	j	10bcc <_vfprintf_r+0x164>
   110fc:	67c2                	ld	a5,16(sp)
   110fe:	01046d93          	ori	s11,s0,16
   11102:	2d81                	sext.w	s11,s11
   11104:	00878713          	addi	a4,a5,8
   11108:	67c2                	ld	a5,16(sp)
   1110a:	639c                	ld	a5,0(a5)
   1110c:	e83a                	sd	a4,16(sp)
   1110e:	893e                	mv	s2,a5
   11110:	f607dae3          	bgez	a5,11084 <_vfprintf_r+0x61c>
   11114:	02d00793          	li	a5,45
   11118:	0cf10fa3          	sb	a5,223(sp)
   1111c:	577d                	li	a4,-1
   1111e:	41200933          	neg	s2,s2
   11122:	4785                	li	a5,1
   11124:	bcec12e3          	bne	s8,a4,10ce8 <_vfprintf_r+0x280>
   11128:	4705                	li	a4,1
   1112a:	36e78363          	beq	a5,a4,11490 <_vfprintf_r+0xa28>
   1112e:	4709                	li	a4,2
   11130:	7ce78163          	beq	a5,a4,118f2 <_vfprintf_r+0xe8a>
   11134:	18c10b93          	addi	s7,sp,396
   11138:	86de                	mv	a3,s7
   1113a:	a011                	j	1113e <_vfprintf_r+0x6d6>
   1113c:	86ea                	mv	a3,s10
   1113e:	00797793          	andi	a5,s2,7
   11142:	03078793          	addi	a5,a5,48
   11146:	fef68fa3          	sb	a5,-1(a3)
   1114a:	00395913          	srli	s2,s2,0x3
   1114e:	fff68d13          	addi	s10,a3,-1
   11152:	fe0915e3          	bnez	s2,1113c <_vfprintf_r+0x6d4>
   11156:	001df613          	andi	a2,s11,1
   1115a:	38060e63          	beqz	a2,114f6 <_vfprintf_r+0xa8e>
   1115e:	03000613          	li	a2,48
   11162:	38c78a63          	beq	a5,a2,114f6 <_vfprintf_r+0xa8e>
   11166:	16f9                	addi	a3,a3,-2
   11168:	fecd0fa3          	sb	a2,-1(s10)
   1116c:	40db8bbb          	subw	s7,s7,a3
   11170:	846e                	mv	s0,s11
   11172:	8d36                	mv	s10,a3
   11174:	be49                	j	10d06 <_vfprintf_r+0x29e>
   11176:	6742                	ld	a4,16(sp)
   11178:	0c010fa3          	sb	zero,223(sp)
   1117c:	4905                	li	s2,1
   1117e:	431c                	lw	a5,0(a4)
   11180:	0721                	addi	a4,a4,8
   11182:	e83a                	sd	a4,16(sp)
   11184:	12f10423          	sb	a5,296(sp)
   11188:	4b85                	li	s7,1
   1118a:	12810d13          	addi	s10,sp,296
   1118e:	ec02                	sd	zero,24(sp)
   11190:	4c01                	li	s8,0
   11192:	e482                	sd	zero,72(sp)
   11194:	ec82                	sd	zero,88(sp)
   11196:	e882                	sd	zero,80(sp)
   11198:	00247f13          	andi	t5,s0,2
   1119c:	2f01                	sext.w	t5,t5
   1119e:	000f0363          	beqz	t5,111a4 <_vfprintf_r+0x73c>
   111a2:	2909                	addiw	s2,s2,2
   111a4:	08447293          	andi	t0,s0,132
   111a8:	7792                	ld	a5,288(sp)
   111aa:	00029663          	bnez	t0,111b6 <_vfprintf_r+0x74e>
   111ae:	412b083b          	subw	a6,s6,s2
   111b2:	61004363          	bgtz	a6,117b8 <_vfprintf_r+0xd50>
   111b6:	0df14683          	lbu	a3,223(sp)
   111ba:	c68d                	beqz	a3,111e4 <_vfprintf_r+0x77c>
   111bc:	11812683          	lw	a3,280(sp)
   111c0:	0df10613          	addi	a2,sp,223
   111c4:	00c33023          	sd	a2,0(t1)
   111c8:	2685                	addiw	a3,a3,1
   111ca:	4605                	li	a2,1
   111cc:	0785                	addi	a5,a5,1
   111ce:	00c33423          	sd	a2,8(t1)
   111d2:	10d12c23          	sw	a3,280(sp)
   111d6:	0006861b          	sext.w	a2,a3
   111da:	f23e                	sd	a5,288(sp)
   111dc:	469d                	li	a3,7
   111de:	0341                	addi	t1,t1,16
   111e0:	0ac6ca63          	blt	a3,a2,11294 <_vfprintf_r+0x82c>
   111e4:	020f0563          	beqz	t5,1120e <_vfprintf_r+0x7a6>
   111e8:	11812683          	lw	a3,280(sp)
   111ec:	1190                	addi	a2,sp,224
   111ee:	00c33023          	sd	a2,0(t1)
   111f2:	2685                	addiw	a3,a3,1
   111f4:	4609                	li	a2,2
   111f6:	0789                	addi	a5,a5,2
   111f8:	00c33423          	sd	a2,8(t1)
   111fc:	10d12c23          	sw	a3,280(sp)
   11200:	0006861b          	sext.w	a2,a3
   11204:	f23e                	sd	a5,288(sp)
   11206:	469d                	li	a3,7
   11208:	0341                	addi	t1,t1,16
   1120a:	64c6c363          	blt	a3,a2,11850 <_vfprintf_r+0xde8>
   1120e:	08000693          	li	a3,128
   11212:	3cd28563          	beq	t0,a3,115dc <_vfprintf_r+0xb74>
   11216:	417c0c3b          	subw	s8,s8,s7
   1121a:	45804963          	bgtz	s8,1166c <_vfprintf_r+0xc04>
   1121e:	10047693          	andi	a3,s0,256
   11222:	2c069f63          	bnez	a3,11500 <_vfprintf_r+0xa98>
   11226:	11812703          	lw	a4,280(sp)
   1122a:	97de                	add	a5,a5,s7
   1122c:	01a33023          	sd	s10,0(t1)
   11230:	0017069b          	addiw	a3,a4,1
   11234:	8736                	mv	a4,a3
   11236:	01733423          	sd	s7,8(t1)
   1123a:	10e12c23          	sw	a4,280(sp)
   1123e:	f23e                	sd	a5,288(sp)
   11240:	471d                	li	a4,7
   11242:	0cd74763          	blt	a4,a3,11310 <_vfprintf_r+0x8a8>
   11246:	0341                	addi	t1,t1,16
   11248:	8811                	andi	s0,s0,4
   1124a:	c409                	beqz	s0,11254 <_vfprintf_r+0x7ec>
   1124c:	412b043b          	subw	s0,s6,s2
   11250:	60804c63          	bgtz	s0,11868 <_vfprintf_r+0xe00>
   11254:	875a                	mv	a4,s6
   11256:	012b5363          	bge	s6,s2,1125c <_vfprintf_r+0x7f4>
   1125a:	874a                	mv	a4,s2
   1125c:	66a2                	ld	a3,8(sp)
   1125e:	9f35                	addw	a4,a4,a3
   11260:	e43a                	sd	a4,8(sp)
   11262:	9c079be3          	bnez	a5,10c38 <_vfprintf_r+0x1d0>
   11266:	67e2                	ld	a5,24(sp)
   11268:	10012c23          	sw	zero,280(sp)
   1126c:	c789                	beqz	a5,11276 <_vfprintf_r+0x80e>
   1126e:	65e2                	ld	a1,24(sp)
   11270:	8552                	mv	a0,s4
   11272:	3c1010ef          	jal	ra,12e32 <_free_r>
   11276:	8356                	mv	t1,s5
   11278:	8d26                	mv	s10,s1
   1127a:	000d4783          	lbu	a5,0(s10)
   1127e:	8c0796e3          	bnez	a5,10b4a <_vfprintf_r+0xe2>
   11282:	7792                	ld	a5,288(sp)
   11284:	9c0787e3          	beqz	a5,10c52 <_vfprintf_r+0x1ea>
   11288:	0a10                	addi	a2,sp,272
   1128a:	85ce                	mv	a1,s3
   1128c:	8552                	mv	a0,s4
   1128e:	773060ef          	jal	ra,18200 <__sprint_r>
   11292:	b2c1                	j	10c52 <_vfprintf_r+0x1ea>
   11294:	0a10                	addi	a2,sp,272
   11296:	85ce                	mv	a1,s3
   11298:	8552                	mv	a0,s4
   1129a:	fc16                	sd	t0,56(sp)
   1129c:	f87a                	sd	t5,48(sp)
   1129e:	763060ef          	jal	ra,18200 <__sprint_r>
   112a2:	9a0512e3          	bnez	a0,10c46 <_vfprintf_r+0x1de>
   112a6:	7792                	ld	a5,288(sp)
   112a8:	8356                	mv	t1,s5
   112aa:	72e2                	ld	t0,56(sp)
   112ac:	7f42                	ld	t5,48(sp)
   112ae:	bf1d                	j	111e4 <_vfprintf_r+0x77c>
   112b0:	11812603          	lw	a2,280(sp)
   112b4:	7726                	ld	a4,104(sp)
   112b6:	76c6                	ld	a3,112(sp)
   112b8:	0341                	addi	t1,t1,16
   112ba:	97ba                	add	a5,a5,a4
   112bc:	fed33823          	sd	a3,-16(t1)
   112c0:	0016069b          	addiw	a3,a2,1
   112c4:	fee33c23          	sd	a4,-8(t1)
   112c8:	f23e                	sd	a5,288(sp)
   112ca:	10d12c23          	sw	a3,280(sp)
   112ce:	461d                	li	a2,7
   112d0:	00d65e63          	bge	a2,a3,112ec <_vfprintf_r+0x884>
   112d4:	0a10                	addi	a2,sp,272
   112d6:	85ce                	mv	a1,s3
   112d8:	8552                	mv	a0,s4
   112da:	727060ef          	jal	ra,18200 <__sprint_r>
   112de:	960514e3          	bnez	a0,10c46 <_vfprintf_r+0x1de>
   112e2:	55ae                	lw	a1,232(sp)
   112e4:	7792                	ld	a5,288(sp)
   112e6:	11812683          	lw	a3,280(sp)
   112ea:	8356                	mv	t1,s5
   112ec:	0005d463          	bgez	a1,112f4 <_vfprintf_r+0x88c>
   112f0:	0800106f          	j	12370 <_vfprintf_r+0x1908>
   112f4:	7702                	ld	a4,32(sp)
   112f6:	0016861b          	addiw	a2,a3,1
   112fa:	01a33023          	sd	s10,0(t1)
   112fe:	97ba                	add	a5,a5,a4
   11300:	00e33423          	sd	a4,8(t1)
   11304:	f23e                	sd	a5,288(sp)
   11306:	10c12c23          	sw	a2,280(sp)
   1130a:	471d                	li	a4,7
   1130c:	f2c75de3          	bge	a4,a2,11246 <_vfprintf_r+0x7de>
   11310:	0a10                	addi	a2,sp,272
   11312:	85ce                	mv	a1,s3
   11314:	8552                	mv	a0,s4
   11316:	6eb060ef          	jal	ra,18200 <__sprint_r>
   1131a:	920516e3          	bnez	a0,10c46 <_vfprintf_r+0x1de>
   1131e:	7792                	ld	a5,288(sp)
   11320:	8356                	mv	t1,s5
   11322:	b71d                	j	11248 <_vfprintf_r+0x7e0>
   11324:	67c2                	ld	a5,16(sp)
   11326:	0004ce83          	lbu	t4,0(s1)
   1132a:	0007ab03          	lw	s6,0(a5)
   1132e:	07a1                	addi	a5,a5,8
   11330:	e83e                	sd	a5,16(sp)
   11332:	880b58e3          	bgez	s6,10bc2 <_vfprintf_r+0x15a>
   11336:	41600b3b          	negw	s6,s6
   1133a:	bc85                	j	10daa <_vfprintf_r+0x342>
   1133c:	8552                	mv	a0,s4
   1133e:	ec1a                	sd	t1,24(sp)
   11340:	71f030ef          	jal	ra,1525e <_localeconv_r>
   11344:	651c                	ld	a5,8(a0)
   11346:	853e                	mv	a0,a5
   11348:	e53e                	sd	a5,136(sp)
   1134a:	16c050ef          	jal	ra,164b6 <strlen>
   1134e:	fcaa                	sd	a0,120(sp)
   11350:	8caa                	mv	s9,a0
   11352:	8552                	mv	a0,s4
   11354:	70b030ef          	jal	ra,1525e <_localeconv_r>
   11358:	6918                	ld	a4,16(a0)
   1135a:	6362                	ld	t1,24(sp)
   1135c:	0004ce83          	lbu	t4,0(s1)
   11360:	f0ba                	sd	a4,96(sp)
   11362:	860c80e3          	beqz	s9,10bc2 <_vfprintf_r+0x15a>
   11366:	84070ee3          	beqz	a4,10bc2 <_vfprintf_r+0x15a>
   1136a:	00074783          	lbu	a5,0(a4)
   1136e:	84078ae3          	beqz	a5,10bc2 <_vfprintf_r+0x15a>
   11372:	40046413          	ori	s0,s0,1024
   11376:	2401                	sext.w	s0,s0
   11378:	b0a9                	j	10bc2 <_vfprintf_r+0x15a>
   1137a:	00146413          	ori	s0,s0,1
   1137e:	2401                	sext.w	s0,s0
   11380:	0004ce83          	lbu	t4,0(s1)
   11384:	83fff06f          	j	10bc2 <_vfprintf_r+0x15a>
   11388:	0df14783          	lbu	a5,223(sp)
   1138c:	0004ce83          	lbu	t4,0(s1)
   11390:	820799e3          	bnez	a5,10bc2 <_vfprintf_r+0x15a>
   11394:	02000793          	li	a5,32
   11398:	0cf10fa3          	sb	a5,223(sp)
   1139c:	827ff06f          	j	10bc2 <_vfprintf_r+0x15a>
   113a0:	6742                	ld	a4,16(sp)
   113a2:	02047793          	andi	a5,s0,32
   113a6:	0721                	addi	a4,a4,8
   113a8:	74079863          	bnez	a5,11af8 <_vfprintf_r+0x1090>
   113ac:	01047793          	andi	a5,s0,16
   113b0:	74079463          	bnez	a5,11af8 <_vfprintf_r+0x1090>
   113b4:	66c2                	ld	a3,16(sp)
   113b6:	04047793          	andi	a5,s0,64
   113ba:	0006a903          	lw	s2,0(a3)
   113be:	16078be3          	beqz	a5,11d34 <_vfprintf_r+0x12cc>
   113c2:	1942                	slli	s2,s2,0x30
   113c4:	03095913          	srli	s2,s2,0x30
   113c8:	e83a                	sd	a4,16(sp)
   113ca:	8da2                	mv	s11,s0
   113cc:	4785                	li	a5,1
   113ce:	ba01                	j	10cde <_vfprintf_r+0x276>
   113d0:	02046413          	ori	s0,s0,32
   113d4:	2401                	sext.w	s0,s0
   113d6:	0004ce83          	lbu	t4,0(s1)
   113da:	fe8ff06f          	j	10bc2 <_vfprintf_r+0x15a>
   113de:	6742                	ld	a4,16(sp)
   113e0:	77e1                	lui	a5,0xffff8
   113e2:	8307c793          	xori	a5,a5,-2000
   113e6:	0ef11023          	sh	a5,224(sp)
   113ea:	00870793          	addi	a5,a4,8
   113ee:	e83e                	sd	a5,16(sp)
   113f0:	0001c7b7          	lui	a5,0x1c
   113f4:	30078793          	addi	a5,a5,768 # 1c300 <zeroes.4550+0x60>
   113f8:	00246413          	ori	s0,s0,2
   113fc:	f43e                	sd	a5,40(sp)
   113fe:	00073903          	ld	s2,0(a4)
   11402:	00040d9b          	sext.w	s11,s0
   11406:	4789                	li	a5,2
   11408:	07800c93          	li	s9,120
   1140c:	b8c9                	j	10cde <_vfprintf_r+0x276>
   1140e:	6742                	ld	a4,16(sp)
   11410:	02047793          	andi	a5,s0,32
   11414:	0721                	addi	a4,a4,8
   11416:	c20792e3          	bnez	a5,1103a <_vfprintf_r+0x5d2>
   1141a:	01047793          	andi	a5,s0,16
   1141e:	c0079ee3          	bnez	a5,1103a <_vfprintf_r+0x5d2>
   11422:	66c2                	ld	a3,16(sp)
   11424:	04047793          	andi	a5,s0,64
   11428:	0006a903          	lw	s2,0(a3)
   1142c:	10078fe3          	beqz	a5,11d4a <_vfprintf_r+0x12e2>
   11430:	1942                	slli	s2,s2,0x30
   11432:	03095913          	srli	s2,s2,0x30
   11436:	e83a                	sd	a4,16(sp)
   11438:	b129                	j	11042 <_vfprintf_r+0x5da>
   1143a:	66c2                	ld	a3,16(sp)
   1143c:	02047793          	andi	a5,s0,32
   11440:	6298                	ld	a4,0(a3)
   11442:	06a1                	addi	a3,a3,8
   11444:	e836                	sd	a3,16(sp)
   11446:	68079163          	bnez	a5,11ac8 <_vfprintf_r+0x1060>
   1144a:	01047793          	andi	a5,s0,16
   1144e:	66079d63          	bnez	a5,11ac8 <_vfprintf_r+0x1060>
   11452:	04047793          	andi	a5,s0,64
   11456:	360790e3          	bnez	a5,11fb6 <_vfprintf_r+0x154e>
   1145a:	20047413          	andi	s0,s0,512
   1145e:	67a2                	ld	a5,8(sp)
   11460:	e019                	bnez	s0,11466 <_vfprintf_r+0x9fe>
   11462:	03c0106f          	j	1249e <_vfprintf_r+0x1a36>
   11466:	00f70023          	sb	a5,0(a4)
   1146a:	8d26                	mv	s10,s1
   1146c:	b539                	j	1127a <_vfprintf_r+0x812>
   1146e:	0004ce83          	lbu	t4,0(s1)
   11472:	06c00793          	li	a5,108
   11476:	6efe8a63          	beq	t4,a5,11b6a <_vfprintf_r+0x1102>
   1147a:	01046413          	ori	s0,s0,16
   1147e:	2401                	sext.w	s0,s0
   11480:	f42ff06f          	j	10bc2 <_vfprintf_r+0x15a>
   11484:	8552                	mv	a0,s4
   11486:	0b5010ef          	jal	ra,12d3a <__sinit>
   1148a:	e3eff06f          	j	10ac8 <_vfprintf_r+0x60>
   1148e:	8da2                	mv	s11,s0
   11490:	47a5                	li	a5,9
   11492:	0127eb63          	bltu	a5,s2,114a8 <_vfprintf_r+0xa40>
   11496:	0309091b          	addiw	s2,s2,48
   1149a:	192105a3          	sb	s2,395(sp)
   1149e:	846e                	mv	s0,s11
   114a0:	4b85                	li	s7,1
   114a2:	18b10d13          	addi	s10,sp,395
   114a6:	b085                	j	10d06 <_vfprintf_r+0x29e>
   114a8:	400df693          	andi	a3,s11,1024
   114ac:	18c10b93          	addi	s7,sp,396
   114b0:	2681                	sext.w	a3,a3
   114b2:	f002                	sd	zero,32(sp)
   114b4:	865e                	mv	a2,s7
   114b6:	4429                	li	s0,10
   114b8:	4825                	li	a6,9
   114ba:	0ff00893          	li	a7,255
   114be:	a039                	j	114cc <_vfprintf_r+0xa64>
   114c0:	028957b3          	divu	a5,s2,s0
   114c4:	03287963          	bgeu	a6,s2,114f6 <_vfprintf_r+0xa8e>
   114c8:	893e                	mv	s2,a5
   114ca:	866a                	mv	a2,s10
   114cc:	7702                	ld	a4,32(sp)
   114ce:	fff60d13          	addi	s10,a2,-1
   114d2:	2705                	addiw	a4,a4,1
   114d4:	f03a                	sd	a4,32(sp)
   114d6:	028977b3          	remu	a5,s2,s0
   114da:	0307879b          	addiw	a5,a5,48
   114de:	fef60fa3          	sb	a5,-1(a2)
   114e2:	def9                	beqz	a3,114c0 <_vfprintf_r+0xa58>
   114e4:	7786                	ld	a5,96(sp)
   114e6:	0007c783          	lbu	a5,0(a5)
   114ea:	fcf71be3          	bne	a4,a5,114c0 <_vfprintf_r+0xa58>
   114ee:	fd1789e3          	beq	a5,a7,114c0 <_vfprintf_r+0xa58>
   114f2:	272869e3          	bltu	a6,s2,11f64 <_vfprintf_r+0x14fc>
   114f6:	41ab8bbb          	subw	s7,s7,s10
   114fa:	846e                	mv	s0,s11
   114fc:	80bff06f          	j	10d06 <_vfprintf_r+0x29e>
   11500:	06500693          	li	a3,101
   11504:	1f96d663          	bge	a3,s9,116f0 <_vfprintf_r+0xc88>
   11508:	6512                	ld	a0,256(sp)
   1150a:	65b2                	ld	a1,264(sp)
   1150c:	4601                	li	a2,0
   1150e:	4681                	li	a3,0
   11510:	fc3e                	sd	a5,56(sp)
   11512:	f81a                	sd	t1,48(sp)
   11514:	76c090ef          	jal	ra,1ac80 <__eqtf2>
   11518:	7342                	ld	t1,48(sp)
   1151a:	77e2                	ld	a5,56(sp)
   1151c:	40051063          	bnez	a0,1191c <_vfprintf_r+0xeb4>
   11520:	11812703          	lw	a4,280(sp)
   11524:	0001c6b7          	lui	a3,0x1c
   11528:	33868693          	addi	a3,a3,824 # 1c338 <zeroes.4550+0x98>
   1152c:	2705                	addiw	a4,a4,1
   1152e:	0785                	addi	a5,a5,1
   11530:	00d33023          	sd	a3,0(t1)
   11534:	4685                	li	a3,1
   11536:	00d33423          	sd	a3,8(t1)
   1153a:	f23e                	sd	a5,288(sp)
   1153c:	0007069b          	sext.w	a3,a4
   11540:	10e12c23          	sw	a4,280(sp)
   11544:	479d                	li	a5,7
   11546:	0341                	addi	t1,t1,16
   11548:	72d7cf63          	blt	a5,a3,11c86 <_vfprintf_r+0x121e>
   1154c:	57ae                	lw	a5,232(sp)
   1154e:	7702                	ld	a4,32(sp)
   11550:	00e7c763          	blt	a5,a4,1155e <_vfprintf_r+0xaf6>
   11554:	00147793          	andi	a5,s0,1
   11558:	e399                	bnez	a5,1155e <_vfprintf_r+0xaf6>
   1155a:	7792                	ld	a5,288(sp)
   1155c:	b1f5                	j	11248 <_vfprintf_r+0x7e0>
   1155e:	77c6                	ld	a5,112(sp)
   11560:	76a6                	ld	a3,104(sp)
   11562:	11812703          	lw	a4,280(sp)
   11566:	00f33023          	sd	a5,0(t1)
   1156a:	7792                	ld	a5,288(sp)
   1156c:	2705                	addiw	a4,a4,1
   1156e:	00d33423          	sd	a3,8(t1)
   11572:	97b6                	add	a5,a5,a3
   11574:	10e12c23          	sw	a4,280(sp)
   11578:	0007069b          	sext.w	a3,a4
   1157c:	f23e                	sd	a5,288(sp)
   1157e:	471d                	li	a4,7
   11580:	0341                	addi	t1,t1,16
   11582:	5cd74a63          	blt	a4,a3,11b56 <_vfprintf_r+0x10ee>
   11586:	7702                	ld	a4,32(sp)
   11588:	fff70b9b          	addiw	s7,a4,-1
   1158c:	cb705ee3          	blez	s7,11248 <_vfprintf_r+0x7e0>
   11590:	6871                	lui	a6,0x1c
   11592:	46c1                	li	a3,16
   11594:	11812703          	lw	a4,280(sp)
   11598:	2a080d93          	addi	s11,a6,672 # 1c2a0 <zeroes.4550>
   1159c:	4cc1                	li	s9,16
   1159e:	4c1d                	li	s8,7
   115a0:	0176c663          	blt	a3,s7,115ac <_vfprintf_r+0xb44>
   115a4:	addd                	j	11c9a <_vfprintf_r+0x1232>
   115a6:	3bc1                	addiw	s7,s7,-16
   115a8:	6f7cd963          	bge	s9,s7,11c9a <_vfprintf_r+0x1232>
   115ac:	2705                	addiw	a4,a4,1
   115ae:	07c1                	addi	a5,a5,16
   115b0:	01b33023          	sd	s11,0(t1)
   115b4:	01933423          	sd	s9,8(t1)
   115b8:	f23e                	sd	a5,288(sp)
   115ba:	10e12c23          	sw	a4,280(sp)
   115be:	0341                	addi	t1,t1,16
   115c0:	feec53e3          	bge	s8,a4,115a6 <_vfprintf_r+0xb3e>
   115c4:	0a10                	addi	a2,sp,272
   115c6:	85ce                	mv	a1,s3
   115c8:	8552                	mv	a0,s4
   115ca:	437060ef          	jal	ra,18200 <__sprint_r>
   115ce:	e6051c63          	bnez	a0,10c46 <_vfprintf_r+0x1de>
   115d2:	7792                	ld	a5,288(sp)
   115d4:	11812703          	lw	a4,280(sp)
   115d8:	8356                	mv	t1,s5
   115da:	b7f1                	j	115a6 <_vfprintf_r+0xb3e>
   115dc:	412b08bb          	subw	a7,s6,s2
   115e0:	c3105be3          	blez	a7,11216 <_vfprintf_r+0x7ae>
   115e4:	6871                	lui	a6,0x1c
   115e6:	4641                	li	a2,16
   115e8:	11812683          	lw	a3,280(sp)
   115ec:	2a080d93          	addi	s11,a6,672 # 1c2a0 <zeroes.4550>
   115f0:	4f41                	li	t5,16
   115f2:	4f9d                	li	t6,7
   115f4:	01164663          	blt	a2,a7,11600 <_vfprintf_r+0xb98>
   115f8:	a091                	j	1163c <_vfprintf_r+0xbd4>
   115fa:	38c1                	addiw	a7,a7,-16
   115fc:	051f5063          	bge	t5,a7,1163c <_vfprintf_r+0xbd4>
   11600:	2685                	addiw	a3,a3,1
   11602:	07c1                	addi	a5,a5,16
   11604:	01b33023          	sd	s11,0(t1)
   11608:	01e33423          	sd	t5,8(t1)
   1160c:	f23e                	sd	a5,288(sp)
   1160e:	10d12c23          	sw	a3,280(sp)
   11612:	0341                	addi	t1,t1,16
   11614:	fedfd3e3          	bge	t6,a3,115fa <_vfprintf_r+0xb92>
   11618:	0a10                	addi	a2,sp,272
   1161a:	85ce                	mv	a1,s3
   1161c:	8552                	mv	a0,s4
   1161e:	f846                	sd	a7,48(sp)
   11620:	3e1060ef          	jal	ra,18200 <__sprint_r>
   11624:	e2051163          	bnez	a0,10c46 <_vfprintf_r+0x1de>
   11628:	78c2                	ld	a7,48(sp)
   1162a:	4f41                	li	t5,16
   1162c:	7792                	ld	a5,288(sp)
   1162e:	38c1                	addiw	a7,a7,-16
   11630:	11812683          	lw	a3,280(sp)
   11634:	8356                	mv	t1,s5
   11636:	4f9d                	li	t6,7
   11638:	fd1f44e3          	blt	t5,a7,11600 <_vfprintf_r+0xb98>
   1163c:	0016861b          	addiw	a2,a3,1
   11640:	97c6                	add	a5,a5,a7
   11642:	01b33023          	sd	s11,0(t1)
   11646:	01133423          	sd	a7,8(t1)
   1164a:	f23e                	sd	a5,288(sp)
   1164c:	10c12c23          	sw	a2,280(sp)
   11650:	469d                	li	a3,7
   11652:	0341                	addi	t1,t1,16
   11654:	bcc6d1e3          	bge	a3,a2,11216 <_vfprintf_r+0x7ae>
   11658:	0a10                	addi	a2,sp,272
   1165a:	85ce                	mv	a1,s3
   1165c:	8552                	mv	a0,s4
   1165e:	3a3060ef          	jal	ra,18200 <__sprint_r>
   11662:	de051263          	bnez	a0,10c46 <_vfprintf_r+0x1de>
   11666:	7792                	ld	a5,288(sp)
   11668:	8356                	mv	t1,s5
   1166a:	b675                	j	11216 <_vfprintf_r+0x7ae>
   1166c:	6871                	lui	a6,0x1c
   1166e:	4641                	li	a2,16
   11670:	11812683          	lw	a3,280(sp)
   11674:	2a080d93          	addi	s11,a6,672 # 1c2a0 <zeroes.4550>
   11678:	48c1                	li	a7,16
   1167a:	4f1d                	li	t5,7
   1167c:	01864663          	blt	a2,s8,11688 <_vfprintf_r+0xc20>
   11680:	a081                	j	116c0 <_vfprintf_r+0xc58>
   11682:	3c41                	addiw	s8,s8,-16
   11684:	0388de63          	bge	a7,s8,116c0 <_vfprintf_r+0xc58>
   11688:	2685                	addiw	a3,a3,1
   1168a:	07c1                	addi	a5,a5,16
   1168c:	01b33023          	sd	s11,0(t1)
   11690:	01133423          	sd	a7,8(t1)
   11694:	f23e                	sd	a5,288(sp)
   11696:	10d12c23          	sw	a3,280(sp)
   1169a:	0341                	addi	t1,t1,16
   1169c:	fedf53e3          	bge	t5,a3,11682 <_vfprintf_r+0xc1a>
   116a0:	0a10                	addi	a2,sp,272
   116a2:	85ce                	mv	a1,s3
   116a4:	8552                	mv	a0,s4
   116a6:	35b060ef          	jal	ra,18200 <__sprint_r>
   116aa:	d8051e63          	bnez	a0,10c46 <_vfprintf_r+0x1de>
   116ae:	48c1                	li	a7,16
   116b0:	3c41                	addiw	s8,s8,-16
   116b2:	7792                	ld	a5,288(sp)
   116b4:	11812683          	lw	a3,280(sp)
   116b8:	8356                	mv	t1,s5
   116ba:	4f1d                	li	t5,7
   116bc:	fd88c6e3          	blt	a7,s8,11688 <_vfprintf_r+0xc20>
   116c0:	0016861b          	addiw	a2,a3,1
   116c4:	97e2                	add	a5,a5,s8
   116c6:	01b33023          	sd	s11,0(t1)
   116ca:	01833423          	sd	s8,8(t1)
   116ce:	f23e                	sd	a5,288(sp)
   116d0:	10c12c23          	sw	a2,280(sp)
   116d4:	469d                	li	a3,7
   116d6:	0341                	addi	t1,t1,16
   116d8:	b4c6d3e3          	bge	a3,a2,1121e <_vfprintf_r+0x7b6>
   116dc:	0a10                	addi	a2,sp,272
   116de:	85ce                	mv	a1,s3
   116e0:	8552                	mv	a0,s4
   116e2:	31f060ef          	jal	ra,18200 <__sprint_r>
   116e6:	d6051063          	bnez	a0,10c46 <_vfprintf_r+0x1de>
   116ea:	7792                	ld	a5,288(sp)
   116ec:	8356                	mv	t1,s5
   116ee:	be05                	j	1121e <_vfprintf_r+0x7b6>
   116f0:	11812f03          	lw	t5,280(sp)
   116f4:	00178c93          	addi	s9,a5,1
   116f8:	7782                	ld	a5,32(sp)
   116fa:	001f069b          	addiw	a3,t5,1
   116fe:	4585                	li	a1,1
   11700:	01a33023          	sd	s10,0(t1)
   11704:	8636                	mv	a2,a3
   11706:	01030b93          	addi	s7,t1,16
   1170a:	32f5db63          	bge	a1,a5,11a40 <_vfprintf_r+0xfd8>
   1170e:	4585                	li	a1,1
   11710:	10c12c23          	sw	a2,280(sp)
   11714:	00b33423          	sd	a1,8(t1)
   11718:	f266                	sd	s9,288(sp)
   1171a:	461d                	li	a2,7
   1171c:	4cd64963          	blt	a2,a3,11bee <_vfprintf_r+0x1186>
   11720:	77a6                	ld	a5,104(sp)
   11722:	7746                	ld	a4,112(sp)
   11724:	0016889b          	addiw	a7,a3,1
   11728:	9cbe                	add	s9,s9,a5
   1172a:	00ebb023          	sd	a4,0(s7)
   1172e:	00fbb423          	sd	a5,8(s7)
   11732:	f266                	sd	s9,288(sp)
   11734:	11112c23          	sw	a7,280(sp)
   11738:	469d                	li	a3,7
   1173a:	0bc1                	addi	s7,s7,16
   1173c:	4d16c663          	blt	a3,a7,11c08 <_vfprintf_r+0x11a0>
   11740:	7782                	ld	a5,32(sp)
   11742:	6512                	ld	a0,256(sp)
   11744:	65b2                	ld	a1,264(sp)
   11746:	00188e9b          	addiw	t4,a7,1
   1174a:	010b8313          	addi	t1,s7,16
   1174e:	37fd                	addiw	a5,a5,-1
   11750:	4601                	li	a2,0
   11752:	4681                	li	a3,0
   11754:	000e8c1b          	sext.w	s8,t4
   11758:	e0f6                	sd	t4,64(sp)
   1175a:	fc1a                	sd	t1,56(sp)
   1175c:	f83e                	sd	a5,48(sp)
   1175e:	e4c6                	sd	a7,72(sp)
   11760:	520090ef          	jal	ra,1ac80 <__eqtf2>
   11764:	77c2                	ld	a5,48(sp)
   11766:	7362                	ld	t1,56(sp)
   11768:	6e86                	ld	t4,64(sp)
   1176a:	2e050c63          	beqz	a0,11a62 <_vfprintf_r+0xffa>
   1176e:	001d0713          	addi	a4,s10,1
   11772:	9cbe                	add	s9,s9,a5
   11774:	00ebb023          	sd	a4,0(s7)
   11778:	00fbb423          	sd	a5,8(s7)
   1177c:	f266                	sd	s9,288(sp)
   1177e:	11d12c23          	sw	t4,280(sp)
   11782:	471d                	li	a4,7
   11784:	3b874163          	blt	a4,s8,11b26 <_vfprintf_r+0x10be>
   11788:	68a6                	ld	a7,72(sp)
   1178a:	020b8713          	addi	a4,s7,32
   1178e:	8b9a                	mv	s7,t1
   11790:	00288c1b          	addiw	s8,a7,2
   11794:	833a                	mv	t1,a4
   11796:	668a                	ld	a3,128(sp)
   11798:	1998                	addi	a4,sp,240
   1179a:	00ebb023          	sd	a4,0(s7)
   1179e:	00dc87b3          	add	a5,s9,a3
   117a2:	00dbb423          	sd	a3,8(s7)
   117a6:	f23e                	sd	a5,288(sp)
   117a8:	11812c23          	sw	s8,280(sp)
   117ac:	471d                	li	a4,7
   117ae:	a9875de3          	bge	a4,s8,11248 <_vfprintf_r+0x7e0>
   117b2:	beb9                	j	11310 <_vfprintf_r+0x8a8>
   117b4:	8da2                	mv	s11,s0
   117b6:	ba8d                	j	11128 <_vfprintf_r+0x6c0>
   117b8:	68f1                	lui	a7,0x1c
   117ba:	4641                	li	a2,16
   117bc:	11812683          	lw	a3,280(sp)
   117c0:	29088d93          	addi	s11,a7,656 # 1c290 <blanks.4549>
   117c4:	4fc1                	li	t6,16
   117c6:	439d                	li	t2,7
   117c8:	01064663          	blt	a2,a6,117d4 <_vfprintf_r+0xd6c>
   117cc:	a0b1                	j	11818 <_vfprintf_r+0xdb0>
   117ce:	3841                	addiw	a6,a6,-16
   117d0:	050fd463          	bge	t6,a6,11818 <_vfprintf_r+0xdb0>
   117d4:	2685                	addiw	a3,a3,1
   117d6:	07c1                	addi	a5,a5,16
   117d8:	01b33023          	sd	s11,0(t1)
   117dc:	01f33423          	sd	t6,8(t1)
   117e0:	f23e                	sd	a5,288(sp)
   117e2:	10d12c23          	sw	a3,280(sp)
   117e6:	0341                	addi	t1,t1,16
   117e8:	fed3d3e3          	bge	t2,a3,117ce <_vfprintf_r+0xd66>
   117ec:	0a10                	addi	a2,sp,272
   117ee:	85ce                	mv	a1,s3
   117f0:	8552                	mv	a0,s4
   117f2:	e0c2                	sd	a6,64(sp)
   117f4:	fc16                	sd	t0,56(sp)
   117f6:	f87a                	sd	t5,48(sp)
   117f8:	209060ef          	jal	ra,18200 <__sprint_r>
   117fc:	c4051563          	bnez	a0,10c46 <_vfprintf_r+0x1de>
   11800:	6806                	ld	a6,64(sp)
   11802:	4fc1                	li	t6,16
   11804:	7792                	ld	a5,288(sp)
   11806:	3841                	addiw	a6,a6,-16
   11808:	11812683          	lw	a3,280(sp)
   1180c:	8356                	mv	t1,s5
   1180e:	439d                	li	t2,7
   11810:	72e2                	ld	t0,56(sp)
   11812:	7f42                	ld	t5,48(sp)
   11814:	fd0fc0e3          	blt	t6,a6,117d4 <_vfprintf_r+0xd6c>
   11818:	0016861b          	addiw	a2,a3,1
   1181c:	97c2                	add	a5,a5,a6
   1181e:	01b33023          	sd	s11,0(t1)
   11822:	01033423          	sd	a6,8(t1)
   11826:	f23e                	sd	a5,288(sp)
   11828:	10c12c23          	sw	a2,280(sp)
   1182c:	469d                	li	a3,7
   1182e:	0341                	addi	t1,t1,16
   11830:	98c6d3e3          	bge	a3,a2,111b6 <_vfprintf_r+0x74e>
   11834:	0a10                	addi	a2,sp,272
   11836:	85ce                	mv	a1,s3
   11838:	8552                	mv	a0,s4
   1183a:	fc16                	sd	t0,56(sp)
   1183c:	f87a                	sd	t5,48(sp)
   1183e:	1c3060ef          	jal	ra,18200 <__sprint_r>
   11842:	c0051263          	bnez	a0,10c46 <_vfprintf_r+0x1de>
   11846:	7792                	ld	a5,288(sp)
   11848:	8356                	mv	t1,s5
   1184a:	72e2                	ld	t0,56(sp)
   1184c:	7f42                	ld	t5,48(sp)
   1184e:	b2a5                	j	111b6 <_vfprintf_r+0x74e>
   11850:	0a10                	addi	a2,sp,272
   11852:	85ce                	mv	a1,s3
   11854:	8552                	mv	a0,s4
   11856:	f816                	sd	t0,48(sp)
   11858:	1a9060ef          	jal	ra,18200 <__sprint_r>
   1185c:	be051563          	bnez	a0,10c46 <_vfprintf_r+0x1de>
   11860:	7792                	ld	a5,288(sp)
   11862:	8356                	mv	t1,s5
   11864:	72c2                	ld	t0,48(sp)
   11866:	b265                	j	1120e <_vfprintf_r+0x7a6>
   11868:	68f1                	lui	a7,0x1c
   1186a:	46c1                	li	a3,16
   1186c:	11812703          	lw	a4,280(sp)
   11870:	29088d93          	addi	s11,a7,656 # 1c290 <blanks.4549>
   11874:	4bc1                	li	s7,16
   11876:	4c1d                	li	s8,7
   11878:	0086c663          	blt	a3,s0,11884 <_vfprintf_r+0xe1c>
   1187c:	a835                	j	118b8 <_vfprintf_r+0xe50>
   1187e:	3441                	addiw	s0,s0,-16
   11880:	028bdc63          	bge	s7,s0,118b8 <_vfprintf_r+0xe50>
   11884:	2705                	addiw	a4,a4,1
   11886:	07c1                	addi	a5,a5,16
   11888:	01b33023          	sd	s11,0(t1)
   1188c:	01733423          	sd	s7,8(t1)
   11890:	f23e                	sd	a5,288(sp)
   11892:	10e12c23          	sw	a4,280(sp)
   11896:	0341                	addi	t1,t1,16
   11898:	feec53e3          	bge	s8,a4,1187e <_vfprintf_r+0xe16>
   1189c:	0a10                	addi	a2,sp,272
   1189e:	85ce                	mv	a1,s3
   118a0:	8552                	mv	a0,s4
   118a2:	15f060ef          	jal	ra,18200 <__sprint_r>
   118a6:	ba051063          	bnez	a0,10c46 <_vfprintf_r+0x1de>
   118aa:	3441                	addiw	s0,s0,-16
   118ac:	7792                	ld	a5,288(sp)
   118ae:	11812703          	lw	a4,280(sp)
   118b2:	8356                	mv	t1,s5
   118b4:	fc8bc8e3          	blt	s7,s0,11884 <_vfprintf_r+0xe1c>
   118b8:	0017069b          	addiw	a3,a4,1
   118bc:	97a2                	add	a5,a5,s0
   118be:	01b33023          	sd	s11,0(t1)
   118c2:	00833423          	sd	s0,8(t1)
   118c6:	f23e                	sd	a5,288(sp)
   118c8:	10d12c23          	sw	a3,280(sp)
   118cc:	471d                	li	a4,7
   118ce:	98d753e3          	bge	a4,a3,11254 <_vfprintf_r+0x7ec>
   118d2:	0a10                	addi	a2,sp,272
   118d4:	85ce                	mv	a1,s3
   118d6:	8552                	mv	a0,s4
   118d8:	129060ef          	jal	ra,18200 <__sprint_r>
   118dc:	b6051563          	bnez	a0,10c46 <_vfprintf_r+0x1de>
   118e0:	7792                	ld	a5,288(sp)
   118e2:	ba8d                	j	11254 <_vfprintf_r+0x7ec>
   118e4:	4705                	li	a4,1
   118e6:	08e78be3          	beq	a5,a4,1217c <_vfprintf_r+0x1714>
   118ea:	4709                	li	a4,2
   118ec:	8da2                	mv	s11,s0
   118ee:	84e793e3          	bne	a5,a4,11134 <_vfprintf_r+0x6cc>
   118f2:	18c10b93          	addi	s7,sp,396
   118f6:	8d5e                	mv	s10,s7
   118f8:	7722                	ld	a4,40(sp)
   118fa:	00f97793          	andi	a5,s2,15
   118fe:	1d7d                	addi	s10,s10,-1
   11900:	97ba                	add	a5,a5,a4
   11902:	0007c783          	lbu	a5,0(a5)
   11906:	00495913          	srli	s2,s2,0x4
   1190a:	00fd0023          	sb	a5,0(s10)
   1190e:	fe0915e3          	bnez	s2,118f8 <_vfprintf_r+0xe90>
   11912:	41ab8bbb          	subw	s7,s7,s10
   11916:	846e                	mv	s0,s11
   11918:	beeff06f          	j	10d06 <_vfprintf_r+0x29e>
   1191c:	55ae                	lw	a1,232(sp)
   1191e:	30b05263          	blez	a1,11c22 <_vfprintf_r+0x11ba>
   11922:	7702                	ld	a4,32(sp)
   11924:	66c6                	ld	a3,80(sp)
   11926:	00070b9b          	sext.w	s7,a4
   1192a:	1ce6ca63          	blt	a3,a4,11afe <_vfprintf_r+0x1096>
   1192e:	03705263          	blez	s7,11952 <_vfprintf_r+0xeea>
   11932:	11812683          	lw	a3,280(sp)
   11936:	97de                	add	a5,a5,s7
   11938:	01a33023          	sd	s10,0(t1)
   1193c:	0016861b          	addiw	a2,a3,1
   11940:	01733423          	sd	s7,8(t1)
   11944:	f23e                	sd	a5,288(sp)
   11946:	10c12c23          	sw	a2,280(sp)
   1194a:	469d                	li	a3,7
   1194c:	0341                	addi	t1,t1,16
   1194e:	5ec6ce63          	blt	a3,a2,11f4a <_vfprintf_r+0x14e2>
   11952:	fffbc693          	not	a3,s7
   11956:	6746                	ld	a4,80(sp)
   11958:	96fd                	srai	a3,a3,0x3f
   1195a:	00dbfbb3          	and	s7,s7,a3
   1195e:	41770bbb          	subw	s7,a4,s7
   11962:	23704c63          	bgtz	s7,11b9a <_vfprintf_r+0x1132>
   11966:	6746                	ld	a4,80(sp)
   11968:	40047693          	andi	a3,s0,1024
   1196c:	00ed0c33          	add	s8,s10,a4
   11970:	44069963          	bnez	a3,11dc2 <_vfprintf_r+0x135a>
   11974:	5bae                	lw	s7,232(sp)
   11976:	7702                	ld	a4,32(sp)
   11978:	00ebc663          	blt	s7,a4,11984 <_vfprintf_r+0xf1c>
   1197c:	00147693          	andi	a3,s0,1
   11980:	60068d63          	beqz	a3,11f9a <_vfprintf_r+0x1532>
   11984:	76c6                	ld	a3,112(sp)
   11986:	7726                	ld	a4,104(sp)
   11988:	0341                	addi	t1,t1,16
   1198a:	fed33823          	sd	a3,-16(t1)
   1198e:	11812683          	lw	a3,280(sp)
   11992:	97ba                	add	a5,a5,a4
   11994:	fee33c23          	sd	a4,-8(t1)
   11998:	0016861b          	addiw	a2,a3,1
   1199c:	f23e                	sd	a5,288(sp)
   1199e:	10c12c23          	sw	a2,280(sp)
   119a2:	469d                	li	a3,7
   119a4:	0ec6c9e3          	blt	a3,a2,12296 <_vfprintf_r+0x182e>
   119a8:	7702                	ld	a4,32(sp)
   119aa:	4177063b          	subw	a2,a4,s7
   119ae:	976a                	add	a4,a4,s10
   119b0:	4187073b          	subw	a4,a4,s8
   119b4:	8bb2                	mv	s7,a2
   119b6:	00c75463          	bge	a4,a2,119be <_vfprintf_r+0xf56>
   119ba:	00070b9b          	sext.w	s7,a4
   119be:	03705263          	blez	s7,119e2 <_vfprintf_r+0xf7a>
   119c2:	11812703          	lw	a4,280(sp)
   119c6:	97de                	add	a5,a5,s7
   119c8:	01833023          	sd	s8,0(t1)
   119cc:	0017069b          	addiw	a3,a4,1
   119d0:	01733423          	sd	s7,8(t1)
   119d4:	f23e                	sd	a5,288(sp)
   119d6:	10d12c23          	sw	a3,280(sp)
   119da:	471d                	li	a4,7
   119dc:	0341                	addi	t1,t1,16
   119de:	16d745e3          	blt	a4,a3,12348 <_vfprintf_r+0x18e0>
   119e2:	fffbc713          	not	a4,s7
   119e6:	977d                	srai	a4,a4,0x3f
   119e8:	00ebfbb3          	and	s7,s7,a4
   119ec:	41760bbb          	subw	s7,a2,s7
   119f0:	85705ce3          	blez	s7,11248 <_vfprintf_r+0x7e0>
   119f4:	6871                	lui	a6,0x1c
   119f6:	46c1                	li	a3,16
   119f8:	11812703          	lw	a4,280(sp)
   119fc:	2a080d93          	addi	s11,a6,672 # 1c2a0 <zeroes.4550>
   11a00:	4cc1                	li	s9,16
   11a02:	4c1d                	li	s8,7
   11a04:	0176c663          	blt	a3,s7,11a10 <_vfprintf_r+0xfa8>
   11a08:	ac49                	j	11c9a <_vfprintf_r+0x1232>
   11a0a:	3bc1                	addiw	s7,s7,-16
   11a0c:	297cd763          	bge	s9,s7,11c9a <_vfprintf_r+0x1232>
   11a10:	2705                	addiw	a4,a4,1
   11a12:	07c1                	addi	a5,a5,16
   11a14:	01b33023          	sd	s11,0(t1)
   11a18:	01933423          	sd	s9,8(t1)
   11a1c:	f23e                	sd	a5,288(sp)
   11a1e:	10e12c23          	sw	a4,280(sp)
   11a22:	0341                	addi	t1,t1,16
   11a24:	feec53e3          	bge	s8,a4,11a0a <_vfprintf_r+0xfa2>
   11a28:	0a10                	addi	a2,sp,272
   11a2a:	85ce                	mv	a1,s3
   11a2c:	8552                	mv	a0,s4
   11a2e:	7d2060ef          	jal	ra,18200 <__sprint_r>
   11a32:	a0051a63          	bnez	a0,10c46 <_vfprintf_r+0x1de>
   11a36:	7792                	ld	a5,288(sp)
   11a38:	11812703          	lw	a4,280(sp)
   11a3c:	8356                	mv	t1,s5
   11a3e:	b7f1                	j	11a0a <_vfprintf_r+0xfa2>
   11a40:	00147513          	andi	a0,s0,1
   11a44:	cc0515e3          	bnez	a0,1170e <_vfprintf_r+0xca6>
   11a48:	00b33423          	sd	a1,8(t1)
   11a4c:	f266                	sd	s9,288(sp)
   11a4e:	10d12c23          	sw	a3,280(sp)
   11a52:	471d                	li	a4,7
   11a54:	0cd74963          	blt	a4,a3,11b26 <_vfprintf_r+0x10be>
   11a58:	002f0c1b          	addiw	s8,t5,2
   11a5c:	02030313          	addi	t1,t1,32
   11a60:	bb1d                	j	11796 <_vfprintf_r+0xd2e>
   11a62:	d2f05ae3          	blez	a5,11796 <_vfprintf_r+0xd2e>
   11a66:	4741                	li	a4,16
   11a68:	38f756e3          	bge	a4,a5,125f4 <_vfprintf_r+0x1b8c>
   11a6c:	6871                	lui	a6,0x1c
   11a6e:	2a080d93          	addi	s11,a6,672 # 1c2a0 <zeroes.4550>
   11a72:	4d41                	li	s10,16
   11a74:	4c1d                	li	s8,7
   11a76:	a031                	j	11a82 <_vfprintf_r+0x101a>
   11a78:	37c1                	addiw	a5,a5,-16
   11a7a:	08fd5763          	bge	s10,a5,11b08 <_vfprintf_r+0x10a0>
   11a7e:	00188e9b          	addiw	t4,a7,1
   11a82:	0cc1                	addi	s9,s9,16
   11a84:	01bbb023          	sd	s11,0(s7)
   11a88:	01abb423          	sd	s10,8(s7)
   11a8c:	f266                	sd	s9,288(sp)
   11a8e:	000e889b          	sext.w	a7,t4
   11a92:	11d12c23          	sw	t4,280(sp)
   11a96:	0bc1                	addi	s7,s7,16
   11a98:	ff1c50e3          	bge	s8,a7,11a78 <_vfprintf_r+0x1010>
   11a9c:	0a10                	addi	a2,sp,272
   11a9e:	85ce                	mv	a1,s3
   11aa0:	8552                	mv	a0,s4
   11aa2:	f83e                	sd	a5,48(sp)
   11aa4:	75c060ef          	jal	ra,18200 <__sprint_r>
   11aa8:	98051f63          	bnez	a0,10c46 <_vfprintf_r+0x1de>
   11aac:	7c92                	ld	s9,288(sp)
   11aae:	11812883          	lw	a7,280(sp)
   11ab2:	8bd6                	mv	s7,s5
   11ab4:	77c2                	ld	a5,48(sp)
   11ab6:	b7c9                	j	11a78 <_vfprintf_r+0x1010>
   11ab8:	03000793          	li	a5,48
   11abc:	18f105a3          	sb	a5,395(sp)
   11ac0:	18b10d13          	addi	s10,sp,395
   11ac4:	a42ff06f          	j	10d06 <_vfprintf_r+0x29e>
   11ac8:	67a2                	ld	a5,8(sp)
   11aca:	8d26                	mv	s10,s1
   11acc:	e31c                	sd	a5,0(a4)
   11ace:	facff06f          	j	1127a <_vfprintf_r+0x812>
   11ad2:	67c2                	ld	a5,16(sp)
   11ad4:	07bd                	addi	a5,a5,15
   11ad6:	9bc1                	andi	a5,a5,-16
   11ad8:	6394                	ld	a3,0(a5)
   11ada:	6798                	ld	a4,8(a5)
   11adc:	07c1                	addi	a5,a5,16
   11ade:	e83e                	sd	a5,16(sp)
   11ae0:	e236                	sd	a3,256(sp)
   11ae2:	e63a                	sd	a4,264(sp)
   11ae4:	afeff06f          	j	10de2 <_vfprintf_r+0x37a>
   11ae8:	8da2                	mv	s11,s0
   11aea:	e1eff06f          	j	11108 <_vfprintf_r+0x6a0>
   11aee:	67c2                	ld	a5,16(sp)
   11af0:	0007b903          	ld	s2,0(a5)
   11af4:	9c2ff06f          	j	10cb6 <_vfprintf_r+0x24e>
   11af8:	8da2                	mv	s11,s0
   11afa:	cd0ff06f          	j	10fca <_vfprintf_r+0x562>
   11afe:	00068b9b          	sext.w	s7,a3
   11b02:	e37048e3          	bgtz	s7,11932 <_vfprintf_r+0xeca>
   11b06:	b5b1                	j	11952 <_vfprintf_r+0xeea>
   11b08:	00188c1b          	addiw	s8,a7,1
   11b0c:	010b8713          	addi	a4,s7,16
   11b10:	9cbe                	add	s9,s9,a5
   11b12:	01bbb023          	sd	s11,0(s7)
   11b16:	00fbb423          	sd	a5,8(s7)
   11b1a:	f266                	sd	s9,288(sp)
   11b1c:	11812c23          	sw	s8,280(sp)
   11b20:	469d                	li	a3,7
   11b22:	3f86de63          	bge	a3,s8,11f1e <_vfprintf_r+0x14b6>
   11b26:	0a10                	addi	a2,sp,272
   11b28:	85ce                	mv	a1,s3
   11b2a:	8552                	mv	a0,s4
   11b2c:	6d4060ef          	jal	ra,18200 <__sprint_r>
   11b30:	90051b63          	bnez	a0,10c46 <_vfprintf_r+0x1de>
   11b34:	11812f03          	lw	t5,280(sp)
   11b38:	7c92                	ld	s9,288(sp)
   11b3a:	1a010313          	addi	t1,sp,416
   11b3e:	001f0c1b          	addiw	s8,t5,1
   11b42:	8bd6                	mv	s7,s5
   11b44:	b989                	j	11796 <_vfprintf_r+0xd2e>
   11b46:	20046413          	ori	s0,s0,512
   11b4a:	0014ce83          	lbu	t4,1(s1)
   11b4e:	2401                	sext.w	s0,s0
   11b50:	0485                	addi	s1,s1,1
   11b52:	870ff06f          	j	10bc2 <_vfprintf_r+0x15a>
   11b56:	0a10                	addi	a2,sp,272
   11b58:	85ce                	mv	a1,s3
   11b5a:	8552                	mv	a0,s4
   11b5c:	6a4060ef          	jal	ra,18200 <__sprint_r>
   11b60:	8e051363          	bnez	a0,10c46 <_vfprintf_r+0x1de>
   11b64:	7792                	ld	a5,288(sp)
   11b66:	8356                	mv	t1,s5
   11b68:	bc39                	j	11586 <_vfprintf_r+0xb1e>
   11b6a:	02046413          	ori	s0,s0,32
   11b6e:	0014ce83          	lbu	t4,1(s1)
   11b72:	2401                	sext.w	s0,s0
   11b74:	0485                	addi	s1,s1,1
   11b76:	84cff06f          	j	10bc2 <_vfprintf_r+0x15a>
   11b7a:	000c071b          	sext.w	a4,s8
   11b7e:	4799                	li	a5,6
   11b80:	8e62                	mv	t3,s8
   11b82:	3ce7ef63          	bltu	a5,a4,11f60 <_vfprintf_r+0x14f8>
   11b86:	000e0b9b          	sext.w	s7,t3
   11b8a:	0001c737          	lui	a4,0x1c
   11b8e:	895e                	mv	s2,s7
   11b90:	e86e                	sd	s11,16(sp)
   11b92:	33070d13          	addi	s10,a4,816 # 1c330 <zeroes.4550+0x90>
   11b96:	df8ff06f          	j	1118e <_vfprintf_r+0x726>
   11b9a:	6871                	lui	a6,0x1c
   11b9c:	4641                	li	a2,16
   11b9e:	11812683          	lw	a3,280(sp)
   11ba2:	2a080d93          	addi	s11,a6,672 # 1c2a0 <zeroes.4550>
   11ba6:	4cc1                	li	s9,16
   11ba8:	4c1d                	li	s8,7
   11baa:	01764663          	blt	a2,s7,11bb6 <_vfprintf_r+0x114e>
   11bae:	a2cd                	j	11d90 <_vfprintf_r+0x1328>
   11bb0:	3bc1                	addiw	s7,s7,-16
   11bb2:	1d7cdf63          	bge	s9,s7,11d90 <_vfprintf_r+0x1328>
   11bb6:	2685                	addiw	a3,a3,1
   11bb8:	07c1                	addi	a5,a5,16
   11bba:	01b33023          	sd	s11,0(t1)
   11bbe:	01933423          	sd	s9,8(t1)
   11bc2:	f23e                	sd	a5,288(sp)
   11bc4:	10d12c23          	sw	a3,280(sp)
   11bc8:	0341                	addi	t1,t1,16
   11bca:	fedc53e3          	bge	s8,a3,11bb0 <_vfprintf_r+0x1148>
   11bce:	0a10                	addi	a2,sp,272
   11bd0:	85ce                	mv	a1,s3
   11bd2:	8552                	mv	a0,s4
   11bd4:	62c060ef          	jal	ra,18200 <__sprint_r>
   11bd8:	c119                	beqz	a0,11bde <_vfprintf_r+0x1176>
   11bda:	86cff06f          	j	10c46 <_vfprintf_r+0x1de>
   11bde:	7792                	ld	a5,288(sp)
   11be0:	11812683          	lw	a3,280(sp)
   11be4:	8356                	mv	t1,s5
   11be6:	b7e9                	j	11bb0 <_vfprintf_r+0x1148>
   11be8:	896a                	mv	s2,s10
   11bea:	fbbfe06f          	j	10ba4 <_vfprintf_r+0x13c>
   11bee:	0a10                	addi	a2,sp,272
   11bf0:	85ce                	mv	a1,s3
   11bf2:	8552                	mv	a0,s4
   11bf4:	60c060ef          	jal	ra,18200 <__sprint_r>
   11bf8:	c119                	beqz	a0,11bfe <_vfprintf_r+0x1196>
   11bfa:	84cff06f          	j	10c46 <_vfprintf_r+0x1de>
   11bfe:	7c92                	ld	s9,288(sp)
   11c00:	11812683          	lw	a3,280(sp)
   11c04:	8bd6                	mv	s7,s5
   11c06:	be29                	j	11720 <_vfprintf_r+0xcb8>
   11c08:	0a10                	addi	a2,sp,272
   11c0a:	85ce                	mv	a1,s3
   11c0c:	8552                	mv	a0,s4
   11c0e:	5f2060ef          	jal	ra,18200 <__sprint_r>
   11c12:	c119                	beqz	a0,11c18 <_vfprintf_r+0x11b0>
   11c14:	832ff06f          	j	10c46 <_vfprintf_r+0x1de>
   11c18:	7c92                	ld	s9,288(sp)
   11c1a:	11812883          	lw	a7,280(sp)
   11c1e:	8bd6                	mv	s7,s5
   11c20:	b605                	j	11740 <_vfprintf_r+0xcd8>
   11c22:	11812683          	lw	a3,280(sp)
   11c26:	0001c637          	lui	a2,0x1c
   11c2a:	33860613          	addi	a2,a2,824 # 1c338 <zeroes.4550+0x98>
   11c2e:	2685                	addiw	a3,a3,1
   11c30:	00c33023          	sd	a2,0(t1)
   11c34:	0785                	addi	a5,a5,1
   11c36:	4605                	li	a2,1
   11c38:	00c33423          	sd	a2,8(t1)
   11c3c:	10d12c23          	sw	a3,280(sp)
   11c40:	0006861b          	sext.w	a2,a3
   11c44:	f23e                	sd	a5,288(sp)
   11c46:	469d                	li	a3,7
   11c48:	0341                	addi	t1,t1,16
   11c4a:	2cc6cf63          	blt	a3,a2,11f28 <_vfprintf_r+0x14c0>
   11c4e:	e6059163          	bnez	a1,112b0 <_vfprintf_r+0x848>
   11c52:	7702                	ld	a4,32(sp)
   11c54:	00147693          	andi	a3,s0,1
   11c58:	8ed9                	or	a3,a3,a4
   11c5a:	de068763          	beqz	a3,11248 <_vfprintf_r+0x7e0>
   11c5e:	11812603          	lw	a2,280(sp)
   11c62:	7726                	ld	a4,104(sp)
   11c64:	76c6                	ld	a3,112(sp)
   11c66:	97ba                	add	a5,a5,a4
   11c68:	00d33023          	sd	a3,0(t1)
   11c6c:	0016069b          	addiw	a3,a2,1
   11c70:	00e33423          	sd	a4,8(t1)
   11c74:	f23e                	sd	a5,288(sp)
   11c76:	10d12c23          	sw	a3,280(sp)
   11c7a:	461d                	li	a2,7
   11c7c:	e4d64c63          	blt	a2,a3,112d4 <_vfprintf_r+0x86c>
   11c80:	0341                	addi	t1,t1,16
   11c82:	e72ff06f          	j	112f4 <_vfprintf_r+0x88c>
   11c86:	0a10                	addi	a2,sp,272
   11c88:	85ce                	mv	a1,s3
   11c8a:	8552                	mv	a0,s4
   11c8c:	574060ef          	jal	ra,18200 <__sprint_r>
   11c90:	c119                	beqz	a0,11c96 <_vfprintf_r+0x122e>
   11c92:	fb5fe06f          	j	10c46 <_vfprintf_r+0x1de>
   11c96:	8356                	mv	t1,s5
   11c98:	b855                	j	1154c <_vfprintf_r+0xae4>
   11c9a:	0017069b          	addiw	a3,a4,1
   11c9e:	8736                	mv	a4,a3
   11ca0:	97de                	add	a5,a5,s7
   11ca2:	01b33023          	sd	s11,0(t1)
   11ca6:	d90ff06f          	j	11236 <_vfprintf_r+0x7ce>
   11caa:	6512                	ld	a0,256(sp)
   11cac:	65b2                	ld	a1,264(sp)
   11cae:	4601                	li	a2,0
   11cb0:	4681                	li	a3,0
   11cb2:	118090ef          	jal	ra,1adca <__letf2>
   11cb6:	6362                	ld	t1,24(sp)
   11cb8:	60054a63          	bltz	a0,122cc <_vfprintf_r+0x1864>
   11cbc:	0df14783          	lbu	a5,223(sp)
   11cc0:	04700713          	li	a4,71
   11cc4:	27974e63          	blt	a4,s9,11f40 <_vfprintf_r+0x14d8>
   11cc8:	0001c737          	lui	a4,0x1c
   11ccc:	2e070d13          	addi	s10,a4,736 # 1c2e0 <zeroes.4550+0x40>
   11cd0:	f7f47413          	andi	s0,s0,-129
   11cd4:	ec02                	sd	zero,24(sp)
   11cd6:	e482                	sd	zero,72(sp)
   11cd8:	ec82                	sd	zero,88(sp)
   11cda:	e882                	sd	zero,80(sp)
   11cdc:	2401                	sext.w	s0,s0
   11cde:	490d                	li	s2,3
   11ce0:	4b8d                	li	s7,3
   11ce2:	4c01                	li	s8,0
   11ce4:	c399                	beqz	a5,11cea <_vfprintf_r+0x1282>
   11ce6:	83cff06f          	j	10d22 <_vfprintf_r+0x2ba>
   11cea:	caeff06f          	j	11198 <_vfprintf_r+0x730>
   11cee:	856a                	mv	a0,s10
   11cf0:	f81a                	sd	t1,48(sp)
   11cf2:	7c4040ef          	jal	ra,164b6 <strlen>
   11cf6:	00050b9b          	sext.w	s7,a0
   11cfa:	fffbc913          	not	s2,s7
   11cfe:	0df14783          	lbu	a5,223(sp)
   11d02:	43f95913          	srai	s2,s2,0x3f
   11d06:	012bf933          	and	s2,s7,s2
   11d0a:	e86e                	sd	s11,16(sp)
   11d0c:	ec02                	sd	zero,24(sp)
   11d0e:	e482                	sd	zero,72(sp)
   11d10:	ec82                	sd	zero,88(sp)
   11d12:	e882                	sd	zero,80(sp)
   11d14:	2901                	sext.w	s2,s2
   11d16:	4c01                	li	s8,0
   11d18:	7342                	ld	t1,48(sp)
   11d1a:	c399                	beqz	a5,11d20 <_vfprintf_r+0x12b8>
   11d1c:	806ff06f          	j	10d22 <_vfprintf_r+0x2ba>
   11d20:	c78ff06f          	j	11198 <_vfprintf_r+0x730>
   11d24:	20047793          	andi	a5,s0,512
   11d28:	2c078363          	beqz	a5,11fee <_vfprintf_r+0x1586>
   11d2c:	0ff97913          	andi	s2,s2,255
   11d30:	f87fe06f          	j	10cb6 <_vfprintf_r+0x24e>
   11d34:	20047793          	andi	a5,s0,512
   11d38:	2a078363          	beqz	a5,11fde <_vfprintf_r+0x1576>
   11d3c:	0ff97913          	andi	s2,s2,255
   11d40:	e83a                	sd	a4,16(sp)
   11d42:	8da2                	mv	s11,s0
   11d44:	4785                	li	a5,1
   11d46:	f99fe06f          	j	10cde <_vfprintf_r+0x276>
   11d4a:	20047793          	andi	a5,s0,512
   11d4e:	28078263          	beqz	a5,11fd2 <_vfprintf_r+0x156a>
   11d52:	0ff97913          	andi	s2,s2,255
   11d56:	e83a                	sd	a4,16(sp)
   11d58:	aeaff06f          	j	11042 <_vfprintf_r+0x5da>
   11d5c:	20047793          	andi	a5,s0,512
   11d60:	26078163          	beqz	a5,11fc2 <_vfprintf_r+0x155a>
   11d64:	67c2                	ld	a5,16(sp)
   11d66:	8da2                	mv	s11,s0
   11d68:	e83a                	sd	a4,16(sp)
   11d6a:	00078903          	lb	s2,0(a5)
   11d6e:	87ca                	mv	a5,s2
   11d70:	b10ff06f          	j	11080 <_vfprintf_r+0x618>
   11d74:	67b2                	ld	a5,264(sp)
   11d76:	2807c163          	bltz	a5,11ff8 <_vfprintf_r+0x1590>
   11d7a:	0df14783          	lbu	a5,223(sp)
   11d7e:	04700713          	li	a4,71
   11d82:	5b975063          	bge	a4,s9,12322 <_vfprintf_r+0x18ba>
   11d86:	0001c737          	lui	a4,0x1c
   11d8a:	2f870d13          	addi	s10,a4,760 # 1c2f8 <zeroes.4550+0x58>
   11d8e:	b789                	j	11cd0 <_vfprintf_r+0x1268>
   11d90:	0016861b          	addiw	a2,a3,1
   11d94:	97de                	add	a5,a5,s7
   11d96:	01b33023          	sd	s11,0(t1)
   11d9a:	01733423          	sd	s7,8(t1)
   11d9e:	f23e                	sd	a5,288(sp)
   11da0:	10c12c23          	sw	a2,280(sp)
   11da4:	469d                	li	a3,7
   11da6:	0341                	addi	t1,t1,16
   11da8:	bac6dfe3          	bge	a3,a2,11966 <_vfprintf_r+0xefe>
   11dac:	0a10                	addi	a2,sp,272
   11dae:	85ce                	mv	a1,s3
   11db0:	8552                	mv	a0,s4
   11db2:	44e060ef          	jal	ra,18200 <__sprint_r>
   11db6:	c119                	beqz	a0,11dbc <_vfprintf_r+0x1354>
   11db8:	e8ffe06f          	j	10c46 <_vfprintf_r+0x1de>
   11dbc:	7792                	ld	a5,288(sp)
   11dbe:	8356                	mv	t1,s5
   11dc0:	b65d                	j	11966 <_vfprintf_r+0xefe>
   11dc2:	7702                	ld	a4,32(sp)
   11dc4:	6ef1                	lui	t4,0x1c
   11dc6:	4b9d                	li	s7,7
   11dc8:	976a                	add	a4,a4,s10
   11dca:	fc3a                	sd	a4,56(sp)
   11dcc:	6766                	ld	a4,88(sp)
   11dce:	4dc1                	li	s11,16
   11dd0:	2a0e8c93          	addi	s9,t4,672 # 1c2a0 <zeroes.4550>
   11dd4:	cb49                	beqz	a4,11e66 <_vfprintf_r+0x13fe>
   11dd6:	6726                	ld	a4,72(sp)
   11dd8:	eb51                	bnez	a4,11e6c <_vfprintf_r+0x1404>
   11dda:	7706                	ld	a4,96(sp)
   11ddc:	177d                	addi	a4,a4,-1
   11dde:	f0ba                	sd	a4,96(sp)
   11de0:	6766                	ld	a4,88(sp)
   11de2:	377d                	addiw	a4,a4,-1
   11de4:	ecba                	sd	a4,88(sp)
   11de6:	66aa                	ld	a3,136(sp)
   11de8:	7766                	ld	a4,120(sp)
   11dea:	0341                	addi	t1,t1,16
   11dec:	fed33823          	sd	a3,-16(t1)
   11df0:	11812683          	lw	a3,280(sp)
   11df4:	97ba                	add	a5,a5,a4
   11df6:	fee33c23          	sd	a4,-8(t1)
   11dfa:	0016861b          	addiw	a2,a3,1
   11dfe:	f23e                	sd	a5,288(sp)
   11e00:	10c12c23          	sw	a2,280(sp)
   11e04:	0ecbc063          	blt	s7,a2,11ee4 <_vfprintf_r+0x147c>
   11e08:	7706                	ld	a4,96(sp)
   11e0a:	00074583          	lbu	a1,0(a4)
   11e0e:	7762                	ld	a4,56(sp)
   11e10:	0005869b          	sext.w	a3,a1
   11e14:	4187053b          	subw	a0,a4,s8
   11e18:	8636                	mv	a2,a3
   11e1a:	00d55363          	bge	a0,a3,11e20 <_vfprintf_r+0x13b8>
   11e1e:	862a                	mv	a2,a0
   11e20:	00060f1b          	sext.w	t5,a2
   11e24:	03e05663          	blez	t5,11e50 <_vfprintf_r+0x13e8>
   11e28:	11812683          	lw	a3,280(sp)
   11e2c:	97fa                	add	a5,a5,t5
   11e2e:	01833023          	sd	s8,0(t1)
   11e32:	0016861b          	addiw	a2,a3,1
   11e36:	01e33423          	sd	t5,8(t1)
   11e3a:	f23e                	sd	a5,288(sp)
   11e3c:	10c12c23          	sw	a2,280(sp)
   11e40:	0acbcd63          	blt	s7,a2,11efa <_vfprintf_r+0x1492>
   11e44:	7706                	ld	a4,96(sp)
   11e46:	0341                	addi	t1,t1,16
   11e48:	00074583          	lbu	a1,0(a4)
   11e4c:	0005869b          	sext.w	a3,a1
   11e50:	ffff4613          	not	a2,t5
   11e54:	967d                	srai	a2,a2,0x3f
   11e56:	00cf7633          	and	a2,t5,a2
   11e5a:	9e91                	subw	a3,a3,a2
   11e5c:	00d04c63          	bgtz	a3,11e74 <_vfprintf_r+0x140c>
   11e60:	9c2e                	add	s8,s8,a1
   11e62:	6766                	ld	a4,88(sp)
   11e64:	fb2d                	bnez	a4,11dd6 <_vfprintf_r+0x136e>
   11e66:	6726                	ld	a4,72(sp)
   11e68:	30070d63          	beqz	a4,12182 <_vfprintf_r+0x171a>
   11e6c:	6726                	ld	a4,72(sp)
   11e6e:	377d                	addiw	a4,a4,-1
   11e70:	e4ba                	sd	a4,72(sp)
   11e72:	bf95                	j	11de6 <_vfprintf_r+0x137e>
   11e74:	11812603          	lw	a2,280(sp)
   11e78:	00ddc663          	blt	s11,a3,11e84 <_vfprintf_r+0x141c>
   11e7c:	a089                	j	11ebe <_vfprintf_r+0x1456>
   11e7e:	36c1                	addiw	a3,a3,-16
   11e80:	02dddf63          	bge	s11,a3,11ebe <_vfprintf_r+0x1456>
   11e84:	2605                	addiw	a2,a2,1
   11e86:	07c1                	addi	a5,a5,16
   11e88:	01933023          	sd	s9,0(t1)
   11e8c:	01b33423          	sd	s11,8(t1)
   11e90:	f23e                	sd	a5,288(sp)
   11e92:	10c12c23          	sw	a2,280(sp)
   11e96:	0341                	addi	t1,t1,16
   11e98:	fecbd3e3          	bge	s7,a2,11e7e <_vfprintf_r+0x1416>
   11e9c:	0a10                	addi	a2,sp,272
   11e9e:	85ce                	mv	a1,s3
   11ea0:	8552                	mv	a0,s4
   11ea2:	f836                	sd	a3,48(sp)
   11ea4:	35c060ef          	jal	ra,18200 <__sprint_r>
   11ea8:	c119                	beqz	a0,11eae <_vfprintf_r+0x1446>
   11eaa:	d9dfe06f          	j	10c46 <_vfprintf_r+0x1de>
   11eae:	76c2                	ld	a3,48(sp)
   11eb0:	7792                	ld	a5,288(sp)
   11eb2:	11812603          	lw	a2,280(sp)
   11eb6:	36c1                	addiw	a3,a3,-16
   11eb8:	8356                	mv	t1,s5
   11eba:	fcddc5e3          	blt	s11,a3,11e84 <_vfprintf_r+0x141c>
   11ebe:	2605                	addiw	a2,a2,1
   11ec0:	97b6                	add	a5,a5,a3
   11ec2:	00d33423          	sd	a3,8(t1)
   11ec6:	01933023          	sd	s9,0(t1)
   11eca:	f23e                	sd	a5,288(sp)
   11ecc:	0006069b          	sext.w	a3,a2
   11ed0:	10c12c23          	sw	a2,280(sp)
   11ed4:	3adbc263          	blt	s7,a3,12278 <_vfprintf_r+0x1810>
   11ed8:	7706                	ld	a4,96(sp)
   11eda:	0341                	addi	t1,t1,16
   11edc:	00074583          	lbu	a1,0(a4)
   11ee0:	9c2e                	add	s8,s8,a1
   11ee2:	b741                	j	11e62 <_vfprintf_r+0x13fa>
   11ee4:	0a10                	addi	a2,sp,272
   11ee6:	85ce                	mv	a1,s3
   11ee8:	8552                	mv	a0,s4
   11eea:	316060ef          	jal	ra,18200 <__sprint_r>
   11eee:	c119                	beqz	a0,11ef4 <_vfprintf_r+0x148c>
   11ef0:	d57fe06f          	j	10c46 <_vfprintf_r+0x1de>
   11ef4:	7792                	ld	a5,288(sp)
   11ef6:	8356                	mv	t1,s5
   11ef8:	bf01                	j	11e08 <_vfprintf_r+0x13a0>
   11efa:	0a10                	addi	a2,sp,272
   11efc:	85ce                	mv	a1,s3
   11efe:	8552                	mv	a0,s4
   11f00:	f87a                	sd	t5,48(sp)
   11f02:	2fe060ef          	jal	ra,18200 <__sprint_r>
   11f06:	c119                	beqz	a0,11f0c <_vfprintf_r+0x14a4>
   11f08:	d3ffe06f          	j	10c46 <_vfprintf_r+0x1de>
   11f0c:	7786                	ld	a5,96(sp)
   11f0e:	8356                	mv	t1,s5
   11f10:	7f42                	ld	t5,48(sp)
   11f12:	0007c583          	lbu	a1,0(a5)
   11f16:	7792                	ld	a5,288(sp)
   11f18:	0005869b          	sext.w	a3,a1
   11f1c:	bf15                	j	11e50 <_vfprintf_r+0x13e8>
   11f1e:	2c05                	addiw	s8,s8,1
   11f20:	01070313          	addi	t1,a4,16
   11f24:	8bba                	mv	s7,a4
   11f26:	b885                	j	11796 <_vfprintf_r+0xd2e>
   11f28:	0a10                	addi	a2,sp,272
   11f2a:	85ce                	mv	a1,s3
   11f2c:	8552                	mv	a0,s4
   11f2e:	2d2060ef          	jal	ra,18200 <__sprint_r>
   11f32:	c119                	beqz	a0,11f38 <_vfprintf_r+0x14d0>
   11f34:	d13fe06f          	j	10c46 <_vfprintf_r+0x1de>
   11f38:	55ae                	lw	a1,232(sp)
   11f3a:	7792                	ld	a5,288(sp)
   11f3c:	8356                	mv	t1,s5
   11f3e:	bb01                	j	11c4e <_vfprintf_r+0x11e6>
   11f40:	0001c737          	lui	a4,0x1c
   11f44:	2e870d13          	addi	s10,a4,744 # 1c2e8 <zeroes.4550+0x48>
   11f48:	b361                	j	11cd0 <_vfprintf_r+0x1268>
   11f4a:	0a10                	addi	a2,sp,272
   11f4c:	85ce                	mv	a1,s3
   11f4e:	8552                	mv	a0,s4
   11f50:	2b0060ef          	jal	ra,18200 <__sprint_r>
   11f54:	c119                	beqz	a0,11f5a <_vfprintf_r+0x14f2>
   11f56:	cf1fe06f          	j	10c46 <_vfprintf_r+0x1de>
   11f5a:	7792                	ld	a5,288(sp)
   11f5c:	8356                	mv	t1,s5
   11f5e:	bad5                	j	11952 <_vfprintf_r+0xeea>
   11f60:	4e19                	li	t3,6
   11f62:	b115                	j	11b86 <_vfprintf_r+0x111e>
   11f64:	77e6                	ld	a5,120(sp)
   11f66:	65aa                	ld	a1,136(sp)
   11f68:	f836                	sd	a3,48(sp)
   11f6a:	40fd0d33          	sub	s10,s10,a5
   11f6e:	863e                	mv	a2,a5
   11f70:	856a                	mv	a0,s10
   11f72:	ec1a                	sd	t1,24(sp)
   11f74:	5d8040ef          	jal	ra,1654c <strncpy>
   11f78:	7706                	ld	a4,96(sp)
   11f7a:	028957b3          	divu	a5,s2,s0
   11f7e:	f002                	sd	zero,32(sp)
   11f80:	00174603          	lbu	a2,1(a4)
   11f84:	6362                	ld	t1,24(sp)
   11f86:	76c2                	ld	a3,48(sp)
   11f88:	00c03633          	snez	a2,a2
   11f8c:	9732                	add	a4,a4,a2
   11f8e:	f0ba                	sd	a4,96(sp)
   11f90:	4825                	li	a6,9
   11f92:	0ff00893          	li	a7,255
   11f96:	d32ff06f          	j	114c8 <_vfprintf_r+0xa60>
   11f9a:	7682                	ld	a3,32(sp)
   11f9c:	00dd0733          	add	a4,s10,a3
   11fa0:	4176863b          	subw	a2,a3,s7
   11fa4:	418708bb          	subw	a7,a4,s8
   11fa8:	00088b9b          	sext.w	s7,a7
   11fac:	a3165be3          	bge	a2,a7,119e2 <_vfprintf_r+0xf7a>
   11fb0:	00060b9b          	sext.w	s7,a2
   11fb4:	b43d                	j	119e2 <_vfprintf_r+0xf7a>
   11fb6:	67a2                	ld	a5,8(sp)
   11fb8:	8d26                	mv	s10,s1
   11fba:	00f71023          	sh	a5,0(a4)
   11fbe:	abcff06f          	j	1127a <_vfprintf_r+0x812>
   11fc2:	67c2                	ld	a5,16(sp)
   11fc4:	8da2                	mv	s11,s0
   11fc6:	e83a                	sd	a4,16(sp)
   11fc8:	0007a903          	lw	s2,0(a5)
   11fcc:	87ca                	mv	a5,s2
   11fce:	8b2ff06f          	j	11080 <_vfprintf_r+0x618>
   11fd2:	1902                	slli	s2,s2,0x20
   11fd4:	02095913          	srli	s2,s2,0x20
   11fd8:	e83a                	sd	a4,16(sp)
   11fda:	868ff06f          	j	11042 <_vfprintf_r+0x5da>
   11fde:	1902                	slli	s2,s2,0x20
   11fe0:	02095913          	srli	s2,s2,0x20
   11fe4:	e83a                	sd	a4,16(sp)
   11fe6:	8da2                	mv	s11,s0
   11fe8:	4785                	li	a5,1
   11fea:	cf5fe06f          	j	10cde <_vfprintf_r+0x276>
   11fee:	1902                	slli	s2,s2,0x20
   11ff0:	02095913          	srli	s2,s2,0x20
   11ff4:	cc3fe06f          	j	10cb6 <_vfprintf_r+0x24e>
   11ff8:	02d00793          	li	a5,45
   11ffc:	0cf10fa3          	sb	a5,223(sp)
   12000:	02d00793          	li	a5,45
   12004:	bbad                	j	11d7e <_vfprintf_r+0x1316>
   12006:	03000793          	li	a5,48
   1200a:	0ef10023          	sb	a5,224(sp)
   1200e:	05800713          	li	a4,88
   12012:	00246793          	ori	a5,s0,2
   12016:	2781                	sext.w	a5,a5
   12018:	0ee100a3          	sb	a4,225(sp)
   1201c:	06300693          	li	a3,99
   12020:	f93e                	sd	a5,176(sp)
   12022:	ec02                	sd	zero,24(sp)
   12024:	12810d13          	addi	s10,sp,296
   12028:	3d86c563          	blt	a3,s8,123f2 <_vfprintf_r+0x198a>
   1202c:	6bb2                	ld	s7,264(sp)
   1202e:	fdfcf793          	andi	a5,s9,-33
   12032:	10246413          	ori	s0,s0,258
   12036:	f53e                	sd	a5,168(sp)
   12038:	e582                	sd	zero,200(sp)
   1203a:	2401                	sext.w	s0,s0
   1203c:	6d92                	ld	s11,256(sp)
   1203e:	220bc563          	bltz	s7,12268 <_vfprintf_r+0x1800>
   12042:	06100793          	li	a5,97
   12046:	4cfc8e63          	beq	s9,a5,12522 <_vfprintf_r+0x1aba>
   1204a:	04100793          	li	a5,65
   1204e:	00fc8463          	beq	s9,a5,12056 <_vfprintf_r+0x15ee>
   12052:	dfbfe06f          	j	10e4c <_vfprintf_r+0x3e4>
   12056:	85de                	mv	a1,s7
   12058:	856e                	mv	a0,s11
   1205a:	f01a                	sd	t1,32(sp)
   1205c:	5eb090ef          	jal	ra,1be46 <__trunctfdf2>
   12060:	11a8                	addi	a0,sp,232
   12062:	0e0040ef          	jal	ra,16142 <frexp>
   12066:	51d090ef          	jal	ra,1bd82 <__extenddftf2>
   1206a:	00fff7b7          	lui	a5,0xfff
   1206e:	02679693          	slli	a3,a5,0x26
   12072:	4601                	li	a2,0
   12074:	605080ef          	jal	ra,1ae78 <__multf3>
   12078:	4601                	li	a2,0
   1207a:	4681                	li	a3,0
   1207c:	8baa                	mv	s7,a0
   1207e:	892e                	mv	s2,a1
   12080:	401080ef          	jal	ra,1ac80 <__eqtf2>
   12084:	7302                	ld	t1,32(sp)
   12086:	e119                	bnez	a0,1208c <_vfprintf_r+0x1624>
   12088:	4785                	li	a5,1
   1208a:	d5be                	sw	a5,232(sp)
   1208c:	0001c7b7          	lui	a5,0x1c
   12090:	31878793          	addi	a5,a5,792 # 1c318 <zeroes.4550+0x78>
   12094:	e4be                	sd	a5,72(sp)
   12096:	000c069b          	sext.w	a3,s8
   1209a:	02069793          	slli	a5,a3,0x20
   1209e:	9381                	srli	a5,a5,0x20
   120a0:	0785                	addi	a5,a5,1
   120a2:	97ea                	add	a5,a5,s10
   120a4:	ecbe                	sd	a5,88(sp)
   120a6:	00dd07bb          	addw	a5,s10,a3
   120aa:	f06a                	sd	s10,32(sp)
   120ac:	c3be                	sw	a5,196(sp)
   120ae:	a821                	j	120c6 <_vfprintf_r+0x165e>
   120b0:	4601                	li	a2,0
   120b2:	4681                	li	a3,0
   120b4:	e0ae                	sd	a1,64(sp)
   120b6:	fc2a                	sd	a0,56(sp)
   120b8:	3c9080ef          	jal	ra,1ac80 <__eqtf2>
   120bc:	7342                	ld	t1,48(sp)
   120be:	78e2                	ld	a7,56(sp)
   120c0:	6806                	ld	a6,64(sp)
   120c2:	c125                	beqz	a0,12122 <_vfprintf_r+0x16ba>
   120c4:	f06e                	sd	s11,32(sp)
   120c6:	66ca                	ld	a3,144(sp)
   120c8:	4601                	li	a2,0
   120ca:	855e                	mv	a0,s7
   120cc:	85ca                	mv	a1,s2
   120ce:	f81a                	sd	t1,48(sp)
   120d0:	5a9080ef          	jal	ra,1ae78 <__multf3>
   120d4:	892e                	mv	s2,a1
   120d6:	8baa                	mv	s7,a0
   120d8:	3bd090ef          	jal	ra,1bc94 <__fixtfsi>
   120dc:	00050d9b          	sext.w	s11,a0
   120e0:	fd6e                	sd	s11,184(sp)
   120e2:	443090ef          	jal	ra,1bd24 <__floatsitf>
   120e6:	86ae                	mv	a3,a1
   120e8:	862a                	mv	a2,a0
   120ea:	85ca                	mv	a1,s2
   120ec:	855e                	mv	a0,s7
   120ee:	38c090ef          	jal	ra,1b47a <__subtf3>
   120f2:	67a6                	ld	a5,72(sp)
   120f4:	88aa                	mv	a7,a0
   120f6:	882e                	mv	a6,a1
   120f8:	97ee                	add	a5,a5,s11
   120fa:	0007c683          	lbu	a3,0(a5)
   120fe:	7782                	ld	a5,32(sp)
   12100:	8baa                	mv	s7,a0
   12102:	892e                	mv	s2,a1
   12104:	00178d93          	addi	s11,a5,1
   12108:	479e                	lw	a5,196(sp)
   1210a:	fedd8fa3          	sb	a3,-1(s11)
   1210e:	7342                	ld	t1,48(sp)
   12110:	41b787bb          	subw	a5,a5,s11
   12114:	e8be                	sd	a5,80(sp)
   12116:	67e6                	ld	a5,88(sp)
   12118:	f8fd9ce3          	bne	s11,a5,120b0 <_vfprintf_r+0x1648>
   1211c:	6de6                	ld	s11,88(sp)
   1211e:	57fd                	li	a5,-1
   12120:	e8be                	sd	a5,80(sp)
   12122:	66ea                	ld	a3,152(sp)
   12124:	4601                	li	a2,0
   12126:	8546                	mv	a0,a7
   12128:	85c2                	mv	a1,a6
   1212a:	f81a                	sd	t1,48(sp)
   1212c:	e0c6                	sd	a7,64(sp)
   1212e:	fc42                	sd	a6,56(sp)
   12130:	3ed080ef          	jal	ra,1ad1c <__getf2>
   12134:	7342                	ld	t1,48(sp)
   12136:	2ea04163          	bgtz	a0,12418 <_vfprintf_r+0x19b0>
   1213a:	6886                	ld	a7,64(sp)
   1213c:	7862                	ld	a6,56(sp)
   1213e:	66ea                	ld	a3,152(sp)
   12140:	4601                	li	a2,0
   12142:	8546                	mv	a0,a7
   12144:	85c2                	mv	a1,a6
   12146:	33b080ef          	jal	ra,1ac80 <__eqtf2>
   1214a:	7342                	ld	t1,48(sp)
   1214c:	e511                	bnez	a0,12158 <_vfprintf_r+0x16f0>
   1214e:	77ea                	ld	a5,184(sp)
   12150:	0017f913          	andi	s2,a5,1
   12154:	2c091263          	bnez	s2,12418 <_vfprintf_r+0x19b0>
   12158:	67c6                	ld	a5,80(sp)
   1215a:	03000613          	li	a2,48
   1215e:	00178693          	addi	a3,a5,1
   12162:	96ee                	add	a3,a3,s11
   12164:	0007c763          	bltz	a5,12172 <_vfprintf_r+0x170a>
   12168:	0d85                	addi	s11,s11,1
   1216a:	fecd8fa3          	sb	a2,-1(s11)
   1216e:	ffb69de3          	bne	a3,s11,12168 <_vfprintf_r+0x1700>
   12172:	41ad87bb          	subw	a5,s11,s10
   12176:	f03e                	sd	a5,32(sp)
   12178:	d31fe06f          	j	10ea8 <_vfprintf_r+0x440>
   1217c:	8da2                	mv	s11,s0
   1217e:	b18ff06f          	j	11496 <_vfprintf_r+0xa2e>
   12182:	7702                	ld	a4,32(sp)
   12184:	00ed06b3          	add	a3,s10,a4
   12188:	ff86f663          	bgeu	a3,s8,11974 <_vfprintf_r+0xf0c>
   1218c:	8c36                	mv	s8,a3
   1218e:	fe6ff06f          	j	11974 <_vfprintf_r+0xf0c>
   12192:	6746                	ld	a4,80(sp)
   12194:	57f5                	li	a5,-3
   12196:	00f74463          	blt	a4,a5,1219e <_vfprintf_r+0x1736>
   1219a:	06ec5e63          	bge	s8,a4,12216 <_vfprintf_r+0x17ae>
   1219e:	3cf9                	addiw	s9,s9,-2
   121a0:	fdfcf793          	andi	a5,s9,-33
   121a4:	f53e                	sd	a5,168(sp)
   121a6:	d23fe06f          	j	10ec8 <_vfprintf_r+0x460>
   121aa:	11bc                	addi	a5,sp,232
   121ac:	468d                	li	a3,3
   121ae:	0f810893          	addi	a7,sp,248
   121b2:	0ec10813          	addi	a6,sp,236
   121b6:	8762                	mv	a4,s8
   121b8:	85ee                	mv	a1,s11
   121ba:	865e                	mv	a2,s7
   121bc:	8552                	mv	a0,s4
   121be:	f01a                	sd	t1,32(sp)
   121c0:	1b4020ef          	jal	ra,14374 <_ldtoa_r>
   121c4:	00054683          	lbu	a3,0(a0)
   121c8:	03000793          	li	a5,48
   121cc:	8d2a                	mv	s10,a0
   121ce:	7302                	ld	t1,32(sp)
   121d0:	0ef68063          	beq	a3,a5,122b0 <_vfprintf_r+0x1848>
   121d4:	57ae                	lw	a5,232(sp)
   121d6:	97e2                	add	a5,a5,s8
   121d8:	00fd0933          	add	s2,s10,a5
   121dc:	4601                	li	a2,0
   121de:	4681                	li	a3,0
   121e0:	856e                	mv	a0,s11
   121e2:	85de                	mv	a1,s7
   121e4:	f01a                	sd	t1,32(sp)
   121e6:	29b080ef          	jal	ra,1ac80 <__eqtf2>
   121ea:	874a                	mv	a4,s2
   121ec:	7302                	ld	t1,32(sp)
   121ee:	e119                	bnez	a0,121f4 <_vfprintf_r+0x178c>
   121f0:	cb3fe06f          	j	10ea2 <_vfprintf_r+0x43a>
   121f4:	776e                	ld	a4,248(sp)
   121f6:	03000693          	li	a3,48
   121fa:	01276463          	bltu	a4,s2,12202 <_vfprintf_r+0x179a>
   121fe:	ca5fe06f          	j	10ea2 <_vfprintf_r+0x43a>
   12202:	00170793          	addi	a5,a4,1
   12206:	fdbe                	sd	a5,248(sp)
   12208:	00d70023          	sb	a3,0(a4)
   1220c:	776e                	ld	a4,248(sp)
   1220e:	ff276ae3          	bltu	a4,s2,12202 <_vfprintf_r+0x179a>
   12212:	c91fe06f          	j	10ea2 <_vfprintf_r+0x43a>
   12216:	7782                	ld	a5,32(sp)
   12218:	6746                	ld	a4,80(sp)
   1221a:	0cf74e63          	blt	a4,a5,122f6 <_vfprintf_r+0x188e>
   1221e:	77ca                	ld	a5,176(sp)
   12220:	8bba                	mv	s7,a4
   12222:	8b85                	andi	a5,a5,1
   12224:	c781                	beqz	a5,1222c <_vfprintf_r+0x17c4>
   12226:	77a6                	ld	a5,104(sp)
   12228:	00e78bbb          	addw	s7,a5,a4
   1222c:	77ca                	ld	a5,176(sp)
   1222e:	4007f793          	andi	a5,a5,1024
   12232:	c781                	beqz	a5,1223a <_vfprintf_r+0x17d2>
   12234:	67c6                	ld	a5,80(sp)
   12236:	28f04063          	bgtz	a5,124b6 <_vfprintf_r+0x1a4e>
   1223a:	fffbc913          	not	s2,s7
   1223e:	43f95913          	srai	s2,s2,0x3f
   12242:	012bf933          	and	s2,s7,s2
   12246:	2901                	sext.w	s2,s2
   12248:	06700c93          	li	s9,103
   1224c:	e482                	sd	zero,72(sp)
   1224e:	ec82                	sd	zero,88(sp)
   12250:	d59fe06f          	j	10fa8 <_vfprintf_r+0x540>
   12254:	0df14783          	lbu	a5,223(sp)
   12258:	4c01                	li	s8,0
   1225a:	c399                	beqz	a5,12260 <_vfprintf_r+0x17f8>
   1225c:	ac7fe06f          	j	10d22 <_vfprintf_r+0x2ba>
   12260:	f39fe06f          	j	11198 <_vfprintf_r+0x730>
   12264:	ec02                	sd	zero,24(sp)
   12266:	843e                	mv	s0,a5
   12268:	57fd                	li	a5,-1
   1226a:	17fe                	slli	a5,a5,0x3f
   1226c:	00fbcbb3          	xor	s7,s7,a5
   12270:	02d00793          	li	a5,45
   12274:	e5be                	sd	a5,200(sp)
   12276:	b3f1                	j	12042 <_vfprintf_r+0x15da>
   12278:	0a10                	addi	a2,sp,272
   1227a:	85ce                	mv	a1,s3
   1227c:	8552                	mv	a0,s4
   1227e:	783050ef          	jal	ra,18200 <__sprint_r>
   12282:	c119                	beqz	a0,12288 <_vfprintf_r+0x1820>
   12284:	9c3fe06f          	j	10c46 <_vfprintf_r+0x1de>
   12288:	7786                	ld	a5,96(sp)
   1228a:	8356                	mv	t1,s5
   1228c:	0007c583          	lbu	a1,0(a5)
   12290:	7792                	ld	a5,288(sp)
   12292:	9c2e                	add	s8,s8,a1
   12294:	b6f9                	j	11e62 <_vfprintf_r+0x13fa>
   12296:	0a10                	addi	a2,sp,272
   12298:	85ce                	mv	a1,s3
   1229a:	8552                	mv	a0,s4
   1229c:	765050ef          	jal	ra,18200 <__sprint_r>
   122a0:	c119                	beqz	a0,122a6 <_vfprintf_r+0x183e>
   122a2:	9a5fe06f          	j	10c46 <_vfprintf_r+0x1de>
   122a6:	5bae                	lw	s7,232(sp)
   122a8:	7792                	ld	a5,288(sp)
   122aa:	8356                	mv	t1,s5
   122ac:	efcff06f          	j	119a8 <_vfprintf_r+0xf40>
   122b0:	4601                	li	a2,0
   122b2:	4681                	li	a3,0
   122b4:	856e                	mv	a0,s11
   122b6:	85de                	mv	a1,s7
   122b8:	f01a                	sd	t1,32(sp)
   122ba:	1c7080ef          	jal	ra,1ac80 <__eqtf2>
   122be:	7302                	ld	t1,32(sp)
   122c0:	d911                	beqz	a0,121d4 <_vfprintf_r+0x176c>
   122c2:	4685                	li	a3,1
   122c4:	418687bb          	subw	a5,a3,s8
   122c8:	d5be                	sw	a5,232(sp)
   122ca:	b731                	j	121d6 <_vfprintf_r+0x176e>
   122cc:	02d00793          	li	a5,45
   122d0:	0cf10fa3          	sb	a5,223(sp)
   122d4:	02d00793          	li	a5,45
   122d8:	b2e5                	j	11cc0 <_vfprintf_r+0x1258>
   122da:	0df14783          	lbu	a5,223(sp)
   122de:	e86e                	sd	s11,16(sp)
   122e0:	e482                	sd	zero,72(sp)
   122e2:	ec82                	sd	zero,88(sp)
   122e4:	e882                	sd	zero,80(sp)
   122e6:	8962                	mv	s2,s8
   122e8:	8be2                	mv	s7,s8
   122ea:	4c01                	li	s8,0
   122ec:	c399                	beqz	a5,122f2 <_vfprintf_r+0x188a>
   122ee:	a35fe06f          	j	10d22 <_vfprintf_r+0x2ba>
   122f2:	ea7fe06f          	j	11198 <_vfprintf_r+0x730>
   122f6:	7702                	ld	a4,32(sp)
   122f8:	77a6                	ld	a5,104(sp)
   122fa:	06700c93          	li	s9,103
   122fe:	00e78bbb          	addw	s7,a5,a4
   12302:	6746                	ld	a4,80(sp)
   12304:	2ae05363          	blez	a4,125aa <_vfprintf_r+0x1b42>
   12308:	77ca                	ld	a5,176(sp)
   1230a:	4007f793          	andi	a5,a5,1024
   1230e:	1a079663          	bnez	a5,124ba <_vfprintf_r+0x1a52>
   12312:	fffbc913          	not	s2,s7
   12316:	43f95913          	srai	s2,s2,0x3f
   1231a:	012bf933          	and	s2,s7,s2
   1231e:	2901                	sext.w	s2,s2
   12320:	b735                	j	1224c <_vfprintf_r+0x17e4>
   12322:	0001c737          	lui	a4,0x1c
   12326:	2f070d13          	addi	s10,a4,752 # 1c2f0 <zeroes.4550+0x50>
   1232a:	b25d                	j	11cd0 <_vfprintf_r+0x1268>
   1232c:	77ca                	ld	a5,176(sp)
   1232e:	6746                	ld	a4,80(sp)
   12330:	8b85                	andi	a5,a5,1
   12332:	00fc67b3          	or	a5,s8,a5
   12336:	2781                	sext.w	a5,a5
   12338:	28e05763          	blez	a4,125c6 <_vfprintf_r+0x1b5e>
   1233c:	16079563          	bnez	a5,124a6 <_vfprintf_r+0x1a3e>
   12340:	6bc6                	ld	s7,80(sp)
   12342:	06600c93          	li	s9,102
   12346:	b7c9                	j	12308 <_vfprintf_r+0x18a0>
   12348:	0a10                	addi	a2,sp,272
   1234a:	85ce                	mv	a1,s3
   1234c:	8552                	mv	a0,s4
   1234e:	6b3050ef          	jal	ra,18200 <__sprint_r>
   12352:	c119                	beqz	a0,12358 <_vfprintf_r+0x18f0>
   12354:	8f3fe06f          	j	10c46 <_vfprintf_r+0x1de>
   12358:	562e                	lw	a2,232(sp)
   1235a:	7702                	ld	a4,32(sp)
   1235c:	7792                	ld	a5,288(sp)
   1235e:	8356                	mv	t1,s5
   12360:	40c7063b          	subw	a2,a4,a2
   12364:	e7eff06f          	j	119e2 <_vfprintf_r+0xf7a>
   12368:	57fd                	li	a5,-1
   1236a:	e43e                	sd	a5,8(sp)
   1236c:	8f5fe06f          	j	10c60 <_vfprintf_r+0x1f8>
   12370:	6871                	lui	a6,0x1c
   12372:	5641                	li	a2,-16
   12374:	40b00bbb          	negw	s7,a1
   12378:	2a080d93          	addi	s11,a6,672 # 1c2a0 <zeroes.4550>
   1237c:	4cc1                	li	s9,16
   1237e:	4c1d                	li	s8,7
   12380:	00c5c663          	blt	a1,a2,1238c <_vfprintf_r+0x1924>
   12384:	a82d                	j	123be <_vfprintf_r+0x1956>
   12386:	3bc1                	addiw	s7,s7,-16
   12388:	037cdb63          	bge	s9,s7,123be <_vfprintf_r+0x1956>
   1238c:	2685                	addiw	a3,a3,1
   1238e:	07c1                	addi	a5,a5,16
   12390:	01b33023          	sd	s11,0(t1)
   12394:	01933423          	sd	s9,8(t1)
   12398:	f23e                	sd	a5,288(sp)
   1239a:	10d12c23          	sw	a3,280(sp)
   1239e:	0341                	addi	t1,t1,16
   123a0:	fedc53e3          	bge	s8,a3,12386 <_vfprintf_r+0x191e>
   123a4:	0a10                	addi	a2,sp,272
   123a6:	85ce                	mv	a1,s3
   123a8:	8552                	mv	a0,s4
   123aa:	657050ef          	jal	ra,18200 <__sprint_r>
   123ae:	c119                	beqz	a0,123b4 <_vfprintf_r+0x194c>
   123b0:	897fe06f          	j	10c46 <_vfprintf_r+0x1de>
   123b4:	7792                	ld	a5,288(sp)
   123b6:	11812683          	lw	a3,280(sp)
   123ba:	8356                	mv	t1,s5
   123bc:	b7e9                	j	12386 <_vfprintf_r+0x191e>
   123be:	2685                	addiw	a3,a3,1
   123c0:	97de                	add	a5,a5,s7
   123c2:	01b33023          	sd	s11,0(t1)
   123c6:	01733423          	sd	s7,8(t1)
   123ca:	f23e                	sd	a5,288(sp)
   123cc:	10d12c23          	sw	a3,280(sp)
   123d0:	461d                	li	a2,7
   123d2:	8ad657e3          	bge	a2,a3,11c80 <_vfprintf_r+0x1218>
   123d6:	0a10                	addi	a2,sp,272
   123d8:	85ce                	mv	a1,s3
   123da:	8552                	mv	a0,s4
   123dc:	625050ef          	jal	ra,18200 <__sprint_r>
   123e0:	c119                	beqz	a0,123e6 <_vfprintf_r+0x197e>
   123e2:	865fe06f          	j	10c46 <_vfprintf_r+0x1de>
   123e6:	7792                	ld	a5,288(sp)
   123e8:	11812683          	lw	a3,280(sp)
   123ec:	8356                	mv	t1,s5
   123ee:	f07fe06f          	j	112f4 <_vfprintf_r+0x88c>
   123f2:	001c059b          	addiw	a1,s8,1
   123f6:	8552                	mv	a0,s4
   123f8:	ec1a                	sd	t1,24(sp)
   123fa:	f0ffd0ef          	jal	ra,10308 <_malloc_r>
   123fe:	8d2a                	mv	s10,a0
   12400:	6362                	ld	t1,24(sp)
   12402:	20050d63          	beqz	a0,1261c <_vfprintf_r+0x1bb4>
   12406:	ec2a                	sd	a0,24(sp)
   12408:	b115                	j	1202c <_vfprintf_r+0x15c4>
   1240a:	03000793          	li	a5,48
   1240e:	0ef10023          	sb	a5,224(sp)
   12412:	07800713          	li	a4,120
   12416:	bef5                	j	12012 <_vfprintf_r+0x15aa>
   12418:	7782                	ld	a5,32(sp)
   1241a:	86ee                	mv	a3,s11
   1241c:	fdbe                	sd	a5,248(sp)
   1241e:	67a6                	ld	a5,72(sp)
   12420:	fffdc603          	lbu	a2,-1(s11)
   12424:	00f7c583          	lbu	a1,15(a5)
   12428:	00b61e63          	bne	a2,a1,12444 <_vfprintf_r+0x19dc>
   1242c:	03000513          	li	a0,48
   12430:	fea68fa3          	sb	a0,-1(a3)
   12434:	76ee                	ld	a3,248(sp)
   12436:	fff68613          	addi	a2,a3,-1
   1243a:	fdb2                	sd	a2,248(sp)
   1243c:	fff6c603          	lbu	a2,-1(a3)
   12440:	feb608e3          	beq	a2,a1,12430 <_vfprintf_r+0x19c8>
   12444:	0016059b          	addiw	a1,a2,1
   12448:	03900513          	li	a0,57
   1244c:	0ff5f593          	andi	a1,a1,255
   12450:	00a60563          	beq	a2,a0,1245a <_vfprintf_r+0x19f2>
   12454:	feb68fa3          	sb	a1,-1(a3)
   12458:	bb29                	j	12172 <_vfprintf_r+0x170a>
   1245a:	67a6                	ld	a5,72(sp)
   1245c:	00a7c583          	lbu	a1,10(a5)
   12460:	feb68fa3          	sb	a1,-1(a3)
   12464:	b339                	j	12172 <_vfprintf_r+0x170a>
   12466:	001c091b          	addiw	s2,s8,1
   1246a:	874a                	mv	a4,s2
   1246c:	0f810893          	addi	a7,sp,248
   12470:	0ec10813          	addi	a6,sp,236
   12474:	11bc                	addi	a5,sp,232
   12476:	4689                	li	a3,2
   12478:	85ee                	mv	a1,s11
   1247a:	865e                	mv	a2,s7
   1247c:	8552                	mv	a0,s4
   1247e:	6f7010ef          	jal	ra,14374 <_ldtoa_r>
   12482:	8d2a                	mv	s10,a0
   12484:	7302                	ld	t1,32(sp)
   12486:	996a                	add	s2,s2,s10
   12488:	bb91                	j	121dc <_vfprintf_r+0x1774>
   1248a:	000c0463          	beqz	s8,12492 <_vfprintf_r+0x1a2a>
   1248e:	9a5fe06f          	j	10e32 <_vfprintf_r+0x3ca>
   12492:	4c05                	li	s8,1
   12494:	99ffe06f          	j	10e32 <_vfprintf_r+0x3ca>
   12498:	4c19                	li	s8,6
   1249a:	999fe06f          	j	10e32 <_vfprintf_r+0x3ca>
   1249e:	c31c                	sw	a5,0(a4)
   124a0:	8d26                	mv	s10,s1
   124a2:	dd9fe06f          	j	1127a <_vfprintf_r+0x812>
   124a6:	77a6                	ld	a5,104(sp)
   124a8:	06600c93          	li	s9,102
   124ac:	00e78bbb          	addw	s7,a5,a4
   124b0:	018b8bbb          	addw	s7,s7,s8
   124b4:	bd91                	j	12308 <_vfprintf_r+0x18a0>
   124b6:	06700c93          	li	s9,103
   124ba:	7786                	ld	a5,96(sp)
   124bc:	e482                	sd	zero,72(sp)
   124be:	ec82                	sd	zero,88(sp)
   124c0:	0007c783          	lbu	a5,0(a5)
   124c4:	0ff00593          	li	a1,255
   124c8:	02b78963          	beq	a5,a1,124fa <_vfprintf_r+0x1a92>
   124cc:	6746                	ld	a4,80(sp)
   124ce:	0007869b          	sext.w	a3,a5
   124d2:	02e6d463          	bge	a3,a4,124fa <_vfprintf_r+0x1a92>
   124d6:	7506                	ld	a0,96(sp)
   124d8:	9f15                	subw	a4,a4,a3
   124da:	e8ba                	sd	a4,80(sp)
   124dc:	00154603          	lbu	a2,1(a0)
   124e0:	ca09                	beqz	a2,124f2 <_vfprintf_r+0x1a8a>
   124e2:	67e6                	ld	a5,88(sp)
   124e4:	2785                	addiw	a5,a5,1
   124e6:	ecbe                	sd	a5,88(sp)
   124e8:	00150793          	addi	a5,a0,1
   124ec:	f0be                	sd	a5,96(sp)
   124ee:	87b2                	mv	a5,a2
   124f0:	bfe1                	j	124c8 <_vfprintf_r+0x1a60>
   124f2:	6726                	ld	a4,72(sp)
   124f4:	2705                	addiw	a4,a4,1
   124f6:	e4ba                	sd	a4,72(sp)
   124f8:	bfc1                	j	124c8 <_vfprintf_r+0x1a60>
   124fa:	6726                	ld	a4,72(sp)
   124fc:	67e6                	ld	a5,88(sp)
   124fe:	9fb9                	addw	a5,a5,a4
   12500:	7766                	ld	a4,120(sp)
   12502:	02e787bb          	mulw	a5,a5,a4
   12506:	017787bb          	addw	a5,a5,s7
   1250a:	00078b9b          	sext.w	s7,a5
   1250e:	fffbc913          	not	s2,s7
   12512:	43f95913          	srai	s2,s2,0x3f
   12516:	0127f7b3          	and	a5,a5,s2
   1251a:	0007891b          	sext.w	s2,a5
   1251e:	a8bfe06f          	j	10fa8 <_vfprintf_r+0x540>
   12522:	85de                	mv	a1,s7
   12524:	856e                	mv	a0,s11
   12526:	f01a                	sd	t1,32(sp)
   12528:	11f090ef          	jal	ra,1be46 <__trunctfdf2>
   1252c:	11a8                	addi	a0,sp,232
   1252e:	415030ef          	jal	ra,16142 <frexp>
   12532:	051090ef          	jal	ra,1bd82 <__extenddftf2>
   12536:	768a                	ld	a3,160(sp)
   12538:	4601                	li	a2,0
   1253a:	13f080ef          	jal	ra,1ae78 <__multf3>
   1253e:	4601                	li	a2,0
   12540:	4681                	li	a3,0
   12542:	8baa                	mv	s7,a0
   12544:	892e                	mv	s2,a1
   12546:	73a080ef          	jal	ra,1ac80 <__eqtf2>
   1254a:	7302                	ld	t1,32(sp)
   1254c:	e119                	bnez	a0,12552 <_vfprintf_r+0x1aea>
   1254e:	4785                	li	a5,1
   12550:	d5be                	sw	a5,232(sp)
   12552:	0001c7b7          	lui	a5,0x1c
   12556:	30078793          	addi	a5,a5,768 # 1c300 <zeroes.4550+0x60>
   1255a:	e4be                	sd	a5,72(sp)
   1255c:	be2d                	j	12096 <_vfprintf_r+0x162e>
   1255e:	0f210693          	addi	a3,sp,242
   12562:	e619                	bnez	a2,12570 <_vfprintf_r+0x1b08>
   12564:	03000693          	li	a3,48
   12568:	0ed10923          	sb	a3,242(sp)
   1256c:	0f310693          	addi	a3,sp,243
   12570:	0c18                	addi	a4,sp,528
   12572:	0307879b          	addiw	a5,a5,48
   12576:	40e68633          	sub	a2,a3,a4
   1257a:	00f68023          	sb	a5,0(a3)
   1257e:	1216079b          	addiw	a5,a2,289
   12582:	e13e                	sd	a5,128(sp)
   12584:	9ebfe06f          	j	10f6e <_vfprintf_r+0x506>
   12588:	774a                	ld	a4,176(sp)
   1258a:	00177693          	andi	a3,a4,1
   1258e:	e299                	bnez	a3,12594 <_vfprintf_r+0x1b2c>
   12590:	9f9fe06f          	j	10f88 <_vfprintf_r+0x520>
   12594:	9effe06f          	j	10f82 <_vfprintf_r+0x51a>
   12598:	6746                	ld	a4,80(sp)
   1259a:	4785                	li	a5,1
   1259c:	02d00693          	li	a3,45
   125a0:	9f99                	subw	a5,a5,a4
   125a2:	0ed108a3          	sb	a3,241(sp)
   125a6:	955fe06f          	j	10efa <_vfprintf_r+0x492>
   125aa:	40eb87bb          	subw	a5,s7,a4
   125ae:	2785                	addiw	a5,a5,1
   125b0:	00078b9b          	sext.w	s7,a5
   125b4:	fffbc913          	not	s2,s7
   125b8:	43f95913          	srai	s2,s2,0x3f
   125bc:	0127f7b3          	and	a5,a5,s2
   125c0:	0007891b          	sext.w	s2,a5
   125c4:	b161                	j	1224c <_vfprintf_r+0x17e4>
   125c6:	e791                	bnez	a5,125d2 <_vfprintf_r+0x1b6a>
   125c8:	4905                	li	s2,1
   125ca:	06600c93          	li	s9,102
   125ce:	4b85                	li	s7,1
   125d0:	b9b5                	j	1224c <_vfprintf_r+0x17e4>
   125d2:	77a6                	ld	a5,104(sp)
   125d4:	06600c93          	li	s9,102
   125d8:	2785                	addiw	a5,a5,1
   125da:	01878e3b          	addw	t3,a5,s8
   125de:	000e0b9b          	sext.w	s7,t3
   125e2:	fffbc913          	not	s2,s7
   125e6:	43f95913          	srai	s2,s2,0x3f
   125ea:	012e7e33          	and	t3,t3,s2
   125ee:	000e091b          	sext.w	s2,t3
   125f2:	b9a9                	j	1224c <_vfprintf_r+0x17e4>
   125f4:	6871                	lui	a6,0x1c
   125f6:	871a                	mv	a4,t1
   125f8:	2a080d93          	addi	s11,a6,672 # 1c2a0 <zeroes.4550>
   125fc:	d14ff06f          	j	11b10 <_vfprintf_r+0x10a8>
   12600:	6742                	ld	a4,16(sp)
   12602:	00072e03          	lw	t3,0(a4)
   12606:	0721                	addi	a4,a4,8
   12608:	000e5363          	bgez	t3,1260e <_vfprintf_r+0x1ba6>
   1260c:	5e7d                	li	t3,-1
   1260e:	0014ce83          	lbu	t4,1(s1)
   12612:	8c72                	mv	s8,t3
   12614:	e83a                	sd	a4,16(sp)
   12616:	84be                	mv	s1,a5
   12618:	daafe06f          	j	10bc2 <_vfprintf_r+0x15a>
   1261c:	0109d783          	lhu	a5,16(s3)
   12620:	0407e793          	ori	a5,a5,64
   12624:	00f99823          	sh	a5,16(s3)
   12628:	e2afe06f          	j	10c52 <_vfprintf_r+0x1ea>
   1262c:	4789                	li	a5,2
   1262e:	e13e                	sd	a5,128(sp)
   12630:	93ffe06f          	j	10f6e <_vfprintf_r+0x506>
   12634:	8962                	mv	s2,s8
   12636:	996a                	add	s2,s2,s10
   12638:	b655                	j	121dc <_vfprintf_r+0x1774>

000000000001263a <vfprintf>:
   1263a:	86b2                	mv	a3,a2
   1263c:	862e                	mv	a2,a1
   1263e:	85aa                	mv	a1,a0
   12640:	7481b503          	ld	a0,1864(gp) # 1e160 <_impure_ptr>
   12644:	c24fe06f          	j	10a68 <_vfprintf_r>

0000000000012648 <__sbprintf>:
   12648:	0105d783          	lhu	a5,16(a1)
   1264c:	0ac5ae03          	lw	t3,172(a1)
   12650:	0125d303          	lhu	t1,18(a1)
   12654:	0305b883          	ld	a7,48(a1)
   12658:	0405b803          	ld	a6,64(a1)
   1265c:	b3010113          	addi	sp,sp,-1232
   12660:	9bf5                	andi	a5,a5,-3
   12662:	40000713          	li	a4,1024
   12666:	4c813023          	sd	s0,1216(sp)
   1266a:	00f11823          	sh	a5,16(sp)
   1266e:	842e                	mv	s0,a1
   12670:	191c                	addi	a5,sp,176
   12672:	858a                	mv	a1,sp
   12674:	4a913c23          	sd	s1,1208(sp)
   12678:	4b213823          	sd	s2,1200(sp)
   1267c:	4c113423          	sd	ra,1224(sp)
   12680:	892a                	mv	s2,a0
   12682:	d772                	sw	t3,172(sp)
   12684:	00611923          	sh	t1,18(sp)
   12688:	f846                	sd	a7,48(sp)
   1268a:	e0c2                	sd	a6,64(sp)
   1268c:	e03e                	sd	a5,0(sp)
   1268e:	ec3e                	sd	a5,24(sp)
   12690:	c63a                	sw	a4,12(sp)
   12692:	d03a                	sw	a4,32(sp)
   12694:	d402                	sw	zero,40(sp)
   12696:	bd2fe0ef          	jal	ra,10a68 <_vfprintf_r>
   1269a:	84aa                	mv	s1,a0
   1269c:	02055963          	bgez	a0,126ce <__sbprintf+0x86>
   126a0:	01015783          	lhu	a5,16(sp)
   126a4:	0407f793          	andi	a5,a5,64
   126a8:	c799                	beqz	a5,126b6 <__sbprintf+0x6e>
   126aa:	01045783          	lhu	a5,16(s0)
   126ae:	0407e793          	ori	a5,a5,64
   126b2:	00f41823          	sh	a5,16(s0)
   126b6:	4c813083          	ld	ra,1224(sp)
   126ba:	4c013403          	ld	s0,1216(sp)
   126be:	8526                	mv	a0,s1
   126c0:	4b013903          	ld	s2,1200(sp)
   126c4:	4b813483          	ld	s1,1208(sp)
   126c8:	4d010113          	addi	sp,sp,1232
   126cc:	8082                	ret
   126ce:	858a                	mv	a1,sp
   126d0:	854a                	mv	a0,s2
   126d2:	3c6000ef          	jal	ra,12a98 <_fflush_r>
   126d6:	d569                	beqz	a0,126a0 <__sbprintf+0x58>
   126d8:	54fd                	li	s1,-1
   126da:	b7d9                	j	126a0 <__sbprintf+0x58>

00000000000126dc <__swsetup_r>:
   126dc:	7481b783          	ld	a5,1864(gp) # 1e160 <_impure_ptr>
   126e0:	1101                	addi	sp,sp,-32
   126e2:	e822                	sd	s0,16(sp)
   126e4:	e426                	sd	s1,8(sp)
   126e6:	ec06                	sd	ra,24(sp)
   126e8:	84aa                	mv	s1,a0
   126ea:	842e                	mv	s0,a1
   126ec:	c399                	beqz	a5,126f2 <__swsetup_r+0x16>
   126ee:	4bb8                	lw	a4,80(a5)
   126f0:	cf29                	beqz	a4,1274a <__swsetup_r+0x6e>
   126f2:	01041703          	lh	a4,16(s0)
   126f6:	03071793          	slli	a5,a4,0x30
   126fa:	93c1                	srli	a5,a5,0x30
   126fc:	0087f693          	andi	a3,a5,8
   12700:	c2a5                	beqz	a3,12760 <__swsetup_r+0x84>
   12702:	6c14                	ld	a3,24(s0)
   12704:	cabd                	beqz	a3,1277a <__swsetup_r+0x9e>
   12706:	0017f713          	andi	a4,a5,1
   1270a:	cf11                	beqz	a4,12726 <__swsetup_r+0x4a>
   1270c:	501c                	lw	a5,32(s0)
   1270e:	00042623          	sw	zero,12(s0)
   12712:	4501                	li	a0,0
   12714:	40f007bb          	negw	a5,a5
   12718:	d41c                	sw	a5,40(s0)
   1271a:	ce89                	beqz	a3,12734 <__swsetup_r+0x58>
   1271c:	60e2                	ld	ra,24(sp)
   1271e:	6442                	ld	s0,16(sp)
   12720:	64a2                	ld	s1,8(sp)
   12722:	6105                	addi	sp,sp,32
   12724:	8082                	ret
   12726:	8b89                	andi	a5,a5,2
   12728:	4701                	li	a4,0
   1272a:	e391                	bnez	a5,1272e <__swsetup_r+0x52>
   1272c:	5018                	lw	a4,32(s0)
   1272e:	c458                	sw	a4,12(s0)
   12730:	4501                	li	a0,0
   12732:	f6ed                	bnez	a3,1271c <__swsetup_r+0x40>
   12734:	01041783          	lh	a5,16(s0)
   12738:	0807f713          	andi	a4,a5,128
   1273c:	d365                	beqz	a4,1271c <__swsetup_r+0x40>
   1273e:	0407e793          	ori	a5,a5,64
   12742:	00f41823          	sh	a5,16(s0)
   12746:	557d                	li	a0,-1
   12748:	bfd1                	j	1271c <__swsetup_r+0x40>
   1274a:	853e                	mv	a0,a5
   1274c:	5ee000ef          	jal	ra,12d3a <__sinit>
   12750:	01041703          	lh	a4,16(s0)
   12754:	03071793          	slli	a5,a4,0x30
   12758:	93c1                	srli	a5,a5,0x30
   1275a:	0087f693          	andi	a3,a5,8
   1275e:	f2d5                	bnez	a3,12702 <__swsetup_r+0x26>
   12760:	0107f693          	andi	a3,a5,16
   12764:	cea9                	beqz	a3,127be <__swsetup_r+0xe2>
   12766:	8b91                	andi	a5,a5,4
   12768:	e79d                	bnez	a5,12796 <__swsetup_r+0xba>
   1276a:	6c14                	ld	a3,24(s0)
   1276c:	00876793          	ori	a5,a4,8
   12770:	00f41823          	sh	a5,16(s0)
   12774:	17c2                	slli	a5,a5,0x30
   12776:	93c1                	srli	a5,a5,0x30
   12778:	f6d9                	bnez	a3,12706 <__swsetup_r+0x2a>
   1277a:	2807f713          	andi	a4,a5,640
   1277e:	20000613          	li	a2,512
   12782:	f8c702e3          	beq	a4,a2,12706 <__swsetup_r+0x2a>
   12786:	85a2                	mv	a1,s0
   12788:	8526                	mv	a0,s1
   1278a:	417020ef          	jal	ra,153a0 <__smakebuf_r>
   1278e:	01045783          	lhu	a5,16(s0)
   12792:	6c14                	ld	a3,24(s0)
   12794:	bf8d                	j	12706 <__swsetup_r+0x2a>
   12796:	6c2c                	ld	a1,88(s0)
   12798:	cd81                	beqz	a1,127b0 <__swsetup_r+0xd4>
   1279a:	07440793          	addi	a5,s0,116
   1279e:	00f58763          	beq	a1,a5,127ac <__swsetup_r+0xd0>
   127a2:	8526                	mv	a0,s1
   127a4:	68e000ef          	jal	ra,12e32 <_free_r>
   127a8:	01041703          	lh	a4,16(s0)
   127ac:	04043c23          	sd	zero,88(s0)
   127b0:	6c14                	ld	a3,24(s0)
   127b2:	fdb77713          	andi	a4,a4,-37
   127b6:	00042423          	sw	zero,8(s0)
   127ba:	e014                	sd	a3,0(s0)
   127bc:	bf45                	j	1276c <__swsetup_r+0x90>
   127be:	47a5                	li	a5,9
   127c0:	c09c                	sw	a5,0(s1)
   127c2:	04076713          	ori	a4,a4,64
   127c6:	00e41823          	sh	a4,16(s0)
   127ca:	557d                	li	a0,-1
   127cc:	bf81                	j	1271c <__swsetup_r+0x40>

00000000000127ce <__register_exitproc>:
   127ce:	7381b703          	ld	a4,1848(gp) # 1e150 <_global_impure_ptr>
   127d2:	1f873783          	ld	a5,504(a4)
   127d6:	c3b1                	beqz	a5,1281a <__register_exitproc+0x4c>
   127d8:	4798                	lw	a4,8(a5)
   127da:	487d                	li	a6,31
   127dc:	06e84263          	blt	a6,a4,12840 <__register_exitproc+0x72>
   127e0:	c505                	beqz	a0,12808 <__register_exitproc+0x3a>
   127e2:	00371813          	slli	a6,a4,0x3
   127e6:	983e                	add	a6,a6,a5
   127e8:	10c83823          	sd	a2,272(a6)
   127ec:	3107a883          	lw	a7,784(a5)
   127f0:	4605                	li	a2,1
   127f2:	00e6163b          	sllw	a2,a2,a4
   127f6:	00c8e8b3          	or	a7,a7,a2
   127fa:	3117a823          	sw	a7,784(a5)
   127fe:	20d83823          	sd	a3,528(a6)
   12802:	4689                	li	a3,2
   12804:	02d50063          	beq	a0,a3,12824 <__register_exitproc+0x56>
   12808:	00270693          	addi	a3,a4,2
   1280c:	068e                	slli	a3,a3,0x3
   1280e:	2705                	addiw	a4,a4,1
   12810:	c798                	sw	a4,8(a5)
   12812:	97b6                	add	a5,a5,a3
   12814:	e38c                	sd	a1,0(a5)
   12816:	4501                	li	a0,0
   12818:	8082                	ret
   1281a:	20070793          	addi	a5,a4,512
   1281e:	1ef73c23          	sd	a5,504(a4)
   12822:	bf5d                	j	127d8 <__register_exitproc+0xa>
   12824:	3147a683          	lw	a3,788(a5)
   12828:	4501                	li	a0,0
   1282a:	8e55                	or	a2,a2,a3
   1282c:	00270693          	addi	a3,a4,2
   12830:	068e                	slli	a3,a3,0x3
   12832:	2705                	addiw	a4,a4,1
   12834:	30c7aa23          	sw	a2,788(a5)
   12838:	c798                	sw	a4,8(a5)
   1283a:	97b6                	add	a5,a5,a3
   1283c:	e38c                	sd	a1,0(a5)
   1283e:	8082                	ret
   12840:	557d                	li	a0,-1
   12842:	8082                	ret

0000000000012844 <__call_exitprocs>:
   12844:	715d                	addi	sp,sp,-80
   12846:	e062                	sd	s8,0(sp)
   12848:	7381bc03          	ld	s8,1848(gp) # 1e150 <_global_impure_ptr>
   1284c:	f44e                	sd	s3,40(sp)
   1284e:	f052                	sd	s4,32(sp)
   12850:	ec56                	sd	s5,24(sp)
   12852:	e85a                	sd	s6,16(sp)
   12854:	e486                	sd	ra,72(sp)
   12856:	e0a2                	sd	s0,64(sp)
   12858:	fc26                	sd	s1,56(sp)
   1285a:	f84a                	sd	s2,48(sp)
   1285c:	e45e                	sd	s7,8(sp)
   1285e:	8aaa                	mv	s5,a0
   12860:	8b2e                	mv	s6,a1
   12862:	4a05                	li	s4,1
   12864:	59fd                	li	s3,-1
   12866:	1f8c3903          	ld	s2,504(s8)
   1286a:	02090463          	beqz	s2,12892 <__call_exitprocs+0x4e>
   1286e:	00892483          	lw	s1,8(s2)
   12872:	fff4841b          	addiw	s0,s1,-1
   12876:	00044e63          	bltz	s0,12892 <__call_exitprocs+0x4e>
   1287a:	048e                	slli	s1,s1,0x3
   1287c:	94ca                	add	s1,s1,s2
   1287e:	020b0663          	beqz	s6,128aa <__call_exitprocs+0x66>
   12882:	2084b783          	ld	a5,520(s1)
   12886:	03678263          	beq	a5,s6,128aa <__call_exitprocs+0x66>
   1288a:	347d                	addiw	s0,s0,-1
   1288c:	14e1                	addi	s1,s1,-8
   1288e:	ff3418e3          	bne	s0,s3,1287e <__call_exitprocs+0x3a>
   12892:	60a6                	ld	ra,72(sp)
   12894:	6406                	ld	s0,64(sp)
   12896:	74e2                	ld	s1,56(sp)
   12898:	7942                	ld	s2,48(sp)
   1289a:	79a2                	ld	s3,40(sp)
   1289c:	7a02                	ld	s4,32(sp)
   1289e:	6ae2                	ld	s5,24(sp)
   128a0:	6b42                	ld	s6,16(sp)
   128a2:	6ba2                	ld	s7,8(sp)
   128a4:	6c02                	ld	s8,0(sp)
   128a6:	6161                	addi	sp,sp,80
   128a8:	8082                	ret
   128aa:	00892783          	lw	a5,8(s2)
   128ae:	6498                	ld	a4,8(s1)
   128b0:	37fd                	addiw	a5,a5,-1
   128b2:	04878263          	beq	a5,s0,128f6 <__call_exitprocs+0xb2>
   128b6:	0004b423          	sd	zero,8(s1)
   128ba:	db61                	beqz	a4,1288a <__call_exitprocs+0x46>
   128bc:	31092783          	lw	a5,784(s2)
   128c0:	008a16bb          	sllw	a3,s4,s0
   128c4:	00892b83          	lw	s7,8(s2)
   128c8:	8ff5                	and	a5,a5,a3
   128ca:	2781                	sext.w	a5,a5
   128cc:	eb99                	bnez	a5,128e2 <__call_exitprocs+0x9e>
   128ce:	9702                	jalr	a4
   128d0:	00892783          	lw	a5,8(s2)
   128d4:	f97799e3          	bne	a5,s7,12866 <__call_exitprocs+0x22>
   128d8:	1f8c3783          	ld	a5,504(s8)
   128dc:	fb2787e3          	beq	a5,s2,1288a <__call_exitprocs+0x46>
   128e0:	b759                	j	12866 <__call_exitprocs+0x22>
   128e2:	31492783          	lw	a5,788(s2)
   128e6:	1084b583          	ld	a1,264(s1)
   128ea:	8ff5                	and	a5,a5,a3
   128ec:	2781                	sext.w	a5,a5
   128ee:	e799                	bnez	a5,128fc <__call_exitprocs+0xb8>
   128f0:	8556                	mv	a0,s5
   128f2:	9702                	jalr	a4
   128f4:	bff1                	j	128d0 <__call_exitprocs+0x8c>
   128f6:	00892423          	sw	s0,8(s2)
   128fa:	b7c1                	j	128ba <__call_exitprocs+0x76>
   128fc:	852e                	mv	a0,a1
   128fe:	9702                	jalr	a4
   12900:	bfc1                	j	128d0 <__call_exitprocs+0x8c>

0000000000012902 <__sflush_r>:
   12902:	01059783          	lh	a5,16(a1)
   12906:	7179                	addi	sp,sp,-48
   12908:	f022                	sd	s0,32(sp)
   1290a:	03079713          	slli	a4,a5,0x30
   1290e:	9341                	srli	a4,a4,0x30
   12910:	e44e                	sd	s3,8(sp)
   12912:	f406                	sd	ra,40(sp)
   12914:	ec26                	sd	s1,24(sp)
   12916:	e84a                	sd	s2,16(sp)
   12918:	00877693          	andi	a3,a4,8
   1291c:	842e                	mv	s0,a1
   1291e:	89aa                	mv	s3,a0
   12920:	eadd                	bnez	a3,129d6 <__sflush_r+0xd4>
   12922:	6705                	lui	a4,0x1
   12924:	80070713          	addi	a4,a4,-2048 # 800 <register_fini-0xf8b0>
   12928:	4594                	lw	a3,8(a1)
   1292a:	8fd9                	or	a5,a5,a4
   1292c:	00f59823          	sh	a5,16(a1)
   12930:	0ed05e63          	blez	a3,12a2c <__sflush_r+0x12a>
   12934:	6438                	ld	a4,72(s0)
   12936:	cb41                	beqz	a4,129c6 <__sflush_r+0xc4>
   12938:	17c2                	slli	a5,a5,0x30
   1293a:	93c1                	srli	a5,a5,0x30
   1293c:	0009a483          	lw	s1,0(s3)
   12940:	03379693          	slli	a3,a5,0x33
   12944:	0009a023          	sw	zero,0(s3)
   12948:	780c                	ld	a1,48(s0)
   1294a:	0e06c563          	bltz	a3,12a34 <__sflush_r+0x132>
   1294e:	4601                	li	a2,0
   12950:	4685                	li	a3,1
   12952:	854e                	mv	a0,s3
   12954:	9702                	jalr	a4
   12956:	57fd                	li	a5,-1
   12958:	862a                	mv	a2,a0
   1295a:	10f50563          	beq	a0,a5,12a64 <__sflush_r+0x162>
   1295e:	01045783          	lhu	a5,16(s0)
   12962:	6438                	ld	a4,72(s0)
   12964:	780c                	ld	a1,48(s0)
   12966:	8b91                	andi	a5,a5,4
   12968:	c799                	beqz	a5,12976 <__sflush_r+0x74>
   1296a:	4414                	lw	a3,8(s0)
   1296c:	6c3c                	ld	a5,88(s0)
   1296e:	8e15                	sub	a2,a2,a3
   12970:	c399                	beqz	a5,12976 <__sflush_r+0x74>
   12972:	583c                	lw	a5,112(s0)
   12974:	8e1d                	sub	a2,a2,a5
   12976:	4681                	li	a3,0
   12978:	854e                	mv	a0,s3
   1297a:	9702                	jalr	a4
   1297c:	57fd                	li	a5,-1
   1297e:	0af51d63          	bne	a0,a5,12a38 <__sflush_r+0x136>
   12982:	0009a703          	lw	a4,0(s3)
   12986:	01041783          	lh	a5,16(s0)
   1298a:	cb7d                	beqz	a4,12a80 <__sflush_r+0x17e>
   1298c:	46f5                	li	a3,29
   1298e:	00d70563          	beq	a4,a3,12998 <__sflush_r+0x96>
   12992:	46d9                	li	a3,22
   12994:	0ed71c63          	bne	a4,a3,12a8c <__sflush_r+0x18a>
   12998:	6c14                	ld	a3,24(s0)
   1299a:	777d                	lui	a4,0xfffff
   1299c:	7ff70713          	addi	a4,a4,2047 # fffffffffffff7ff <__BSS_END__+0xfffffffffffe15e7>
   129a0:	8ff9                	and	a5,a5,a4
   129a2:	00f41823          	sh	a5,16(s0)
   129a6:	00042423          	sw	zero,8(s0)
   129aa:	e014                	sd	a3,0(s0)
   129ac:	6c2c                	ld	a1,88(s0)
   129ae:	0099a023          	sw	s1,0(s3)
   129b2:	c991                	beqz	a1,129c6 <__sflush_r+0xc4>
   129b4:	07440793          	addi	a5,s0,116
   129b8:	00f58563          	beq	a1,a5,129c2 <__sflush_r+0xc0>
   129bc:	854e                	mv	a0,s3
   129be:	474000ef          	jal	ra,12e32 <_free_r>
   129c2:	04043c23          	sd	zero,88(s0)
   129c6:	4501                	li	a0,0
   129c8:	70a2                	ld	ra,40(sp)
   129ca:	7402                	ld	s0,32(sp)
   129cc:	64e2                	ld	s1,24(sp)
   129ce:	6942                	ld	s2,16(sp)
   129d0:	69a2                	ld	s3,8(sp)
   129d2:	6145                	addi	sp,sp,48
   129d4:	8082                	ret
   129d6:	0185b903          	ld	s2,24(a1)
   129da:	fe0906e3          	beqz	s2,129c6 <__sflush_r+0xc4>
   129de:	6184                	ld	s1,0(a1)
   129e0:	8b0d                	andi	a4,a4,3
   129e2:	0125b023          	sd	s2,0(a1)
   129e6:	412484bb          	subw	s1,s1,s2
   129ea:	4781                	li	a5,0
   129ec:	e311                	bnez	a4,129f0 <__sflush_r+0xee>
   129ee:	519c                	lw	a5,32(a1)
   129f0:	c45c                	sw	a5,12(s0)
   129f2:	00904663          	bgtz	s1,129fe <__sflush_r+0xfc>
   129f6:	bfc1                	j	129c6 <__sflush_r+0xc4>
   129f8:	992a                	add	s2,s2,a0
   129fa:	fc9056e3          	blez	s1,129c6 <__sflush_r+0xc4>
   129fe:	603c                	ld	a5,64(s0)
   12a00:	780c                	ld	a1,48(s0)
   12a02:	86a6                	mv	a3,s1
   12a04:	864a                	mv	a2,s2
   12a06:	854e                	mv	a0,s3
   12a08:	9782                	jalr	a5
   12a0a:	9c89                	subw	s1,s1,a0
   12a0c:	fea046e3          	bgtz	a0,129f8 <__sflush_r+0xf6>
   12a10:	01045783          	lhu	a5,16(s0)
   12a14:	70a2                	ld	ra,40(sp)
   12a16:	64e2                	ld	s1,24(sp)
   12a18:	0407e793          	ori	a5,a5,64
   12a1c:	00f41823          	sh	a5,16(s0)
   12a20:	7402                	ld	s0,32(sp)
   12a22:	6942                	ld	s2,16(sp)
   12a24:	69a2                	ld	s3,8(sp)
   12a26:	557d                	li	a0,-1
   12a28:	6145                	addi	sp,sp,48
   12a2a:	8082                	ret
   12a2c:	59b8                	lw	a4,112(a1)
   12a2e:	f0e043e3          	bgtz	a4,12934 <__sflush_r+0x32>
   12a32:	bf51                	j	129c6 <__sflush_r+0xc4>
   12a34:	6850                	ld	a2,144(s0)
   12a36:	bf05                	j	12966 <__sflush_r+0x64>
   12a38:	01045783          	lhu	a5,16(s0)
   12a3c:	777d                	lui	a4,0xfffff
   12a3e:	7ff70713          	addi	a4,a4,2047 # fffffffffffff7ff <__BSS_END__+0xfffffffffffe15e7>
   12a42:	8ff9                	and	a5,a5,a4
   12a44:	6c14                	ld	a3,24(s0)
   12a46:	0107979b          	slliw	a5,a5,0x10
   12a4a:	4107d79b          	sraiw	a5,a5,0x10
   12a4e:	00f41823          	sh	a5,16(s0)
   12a52:	00042423          	sw	zero,8(s0)
   12a56:	e014                	sd	a3,0(s0)
   12a58:	03379713          	slli	a4,a5,0x33
   12a5c:	f40758e3          	bgez	a4,129ac <__sflush_r+0xaa>
   12a60:	e848                	sd	a0,144(s0)
   12a62:	b7a9                	j	129ac <__sflush_r+0xaa>
   12a64:	0009a783          	lw	a5,0(s3)
   12a68:	ee078be3          	beqz	a5,1295e <__sflush_r+0x5c>
   12a6c:	4775                	li	a4,29
   12a6e:	00e78563          	beq	a5,a4,12a78 <__sflush_r+0x176>
   12a72:	4759                	li	a4,22
   12a74:	f8e79ee3          	bne	a5,a4,12a10 <__sflush_r+0x10e>
   12a78:	0099a023          	sw	s1,0(s3)
   12a7c:	4501                	li	a0,0
   12a7e:	b7a9                	j	129c8 <__sflush_r+0xc6>
   12a80:	777d                	lui	a4,0xfffff
   12a82:	7ff70713          	addi	a4,a4,2047 # fffffffffffff7ff <__BSS_END__+0xfffffffffffe15e7>
   12a86:	6c14                	ld	a3,24(s0)
   12a88:	8ff9                	and	a5,a5,a4
   12a8a:	b7d1                	j	12a4e <__sflush_r+0x14c>
   12a8c:	0407e793          	ori	a5,a5,64
   12a90:	00f41823          	sh	a5,16(s0)
   12a94:	557d                	li	a0,-1
   12a96:	bf0d                	j	129c8 <__sflush_r+0xc6>

0000000000012a98 <_fflush_r>:
   12a98:	1101                	addi	sp,sp,-32
   12a9a:	e822                	sd	s0,16(sp)
   12a9c:	ec06                	sd	ra,24(sp)
   12a9e:	842a                	mv	s0,a0
   12aa0:	c119                	beqz	a0,12aa6 <_fflush_r+0xe>
   12aa2:	493c                	lw	a5,80(a0)
   12aa4:	cb89                	beqz	a5,12ab6 <_fflush_r+0x1e>
   12aa6:	01059783          	lh	a5,16(a1)
   12aaa:	ef89                	bnez	a5,12ac4 <_fflush_r+0x2c>
   12aac:	60e2                	ld	ra,24(sp)
   12aae:	6442                	ld	s0,16(sp)
   12ab0:	4501                	li	a0,0
   12ab2:	6105                	addi	sp,sp,32
   12ab4:	8082                	ret
   12ab6:	e42e                	sd	a1,8(sp)
   12ab8:	282000ef          	jal	ra,12d3a <__sinit>
   12abc:	65a2                	ld	a1,8(sp)
   12abe:	01059783          	lh	a5,16(a1)
   12ac2:	d7ed                	beqz	a5,12aac <_fflush_r+0x14>
   12ac4:	8522                	mv	a0,s0
   12ac6:	6442                	ld	s0,16(sp)
   12ac8:	60e2                	ld	ra,24(sp)
   12aca:	6105                	addi	sp,sp,32
   12acc:	e37ff06f          	j	12902 <__sflush_r>

0000000000012ad0 <fflush>:
   12ad0:	85aa                	mv	a1,a0
   12ad2:	c509                	beqz	a0,12adc <fflush+0xc>
   12ad4:	7481b503          	ld	a0,1864(gp) # 1e160 <_impure_ptr>
   12ad8:	fc1ff06f          	j	12a98 <_fflush_r>
   12adc:	7381b503          	ld	a0,1848(gp) # 1e150 <_global_impure_ptr>
   12ae0:	000135b7          	lui	a1,0x13
   12ae4:	a9858593          	addi	a1,a1,-1384 # 12a98 <_fflush_r>
   12ae8:	6200006f          	j	13108 <_fwalk_reent>

0000000000012aec <__fp_lock>:
   12aec:	4501                	li	a0,0
   12aee:	8082                	ret

0000000000012af0 <_cleanup_r>:
   12af0:	000195b7          	lui	a1,0x19
   12af4:	ffe58593          	addi	a1,a1,-2 # 18ffe <_fclose_r>
   12af8:	6100006f          	j	13108 <_fwalk_reent>

0000000000012afc <__sinit.part.0>:
   12afc:	7139                	addi	sp,sp,-64
   12afe:	000137b7          	lui	a5,0x13
   12b02:	fc06                	sd	ra,56(sp)
   12b04:	f822                	sd	s0,48(sp)
   12b06:	f426                	sd	s1,40(sp)
   12b08:	f04a                	sd	s2,32(sp)
   12b0a:	ec4e                	sd	s3,24(sp)
   12b0c:	e852                	sd	s4,16(sp)
   12b0e:	e456                	sd	s5,8(sp)
   12b10:	e05a                	sd	s6,0(sp)
   12b12:	6500                	ld	s0,8(a0)
   12b14:	af078793          	addi	a5,a5,-1296 # 12af0 <_cleanup_r>
   12b18:	ed3c                	sd	a5,88(a0)
   12b1a:	53850713          	addi	a4,a0,1336
   12b1e:	478d                	li	a5,3
   12b20:	52e53823          	sd	a4,1328(a0)
   12b24:	52f52423          	sw	a5,1320(a0)
   12b28:	52053023          	sd	zero,1312(a0)
   12b2c:	4791                	li	a5,4
   12b2e:	892a                	mv	s2,a0
   12b30:	c81c                	sw	a5,16(s0)
   12b32:	4621                	li	a2,8
   12b34:	4581                	li	a1,0
   12b36:	0a042623          	sw	zero,172(s0)
   12b3a:	00043023          	sd	zero,0(s0)
   12b3e:	00043423          	sd	zero,8(s0)
   12b42:	00043c23          	sd	zero,24(s0)
   12b46:	02042023          	sw	zero,32(s0)
   12b4a:	02042423          	sw	zero,40(s0)
   12b4e:	0a440513          	addi	a0,s0,164
   12b52:	ddffd0ef          	jal	ra,10930 <memset>
   12b56:	00016b37          	lui	s6,0x16
   12b5a:	01093483          	ld	s1,16(s2)
   12b5e:	00016ab7          	lui	s5,0x16
   12b62:	00016a37          	lui	s4,0x16
   12b66:	000169b7          	lui	s3,0x16
   12b6a:	250b0b13          	addi	s6,s6,592 # 16250 <__sread>
   12b6e:	28ca8a93          	addi	s5,s5,652 # 1628c <__swrite>
   12b72:	2e0a0a13          	addi	s4,s4,736 # 162e0 <__sseek>
   12b76:	32298993          	addi	s3,s3,802 # 16322 <__sclose>
   12b7a:	67c1                	lui	a5,0x10
   12b7c:	03643c23          	sd	s6,56(s0)
   12b80:	05543023          	sd	s5,64(s0)
   12b84:	05443423          	sd	s4,72(s0)
   12b88:	05343823          	sd	s3,80(s0)
   12b8c:	f800                	sd	s0,48(s0)
   12b8e:	27a5                	addiw	a5,a5,9
   12b90:	c89c                	sw	a5,16(s1)
   12b92:	4621                	li	a2,8
   12b94:	4581                	li	a1,0
   12b96:	0a04a623          	sw	zero,172(s1)
   12b9a:	0004b023          	sd	zero,0(s1)
   12b9e:	0004b423          	sd	zero,8(s1)
   12ba2:	0004bc23          	sd	zero,24(s1)
   12ba6:	0204a023          	sw	zero,32(s1)
   12baa:	0204a423          	sw	zero,40(s1)
   12bae:	0a448513          	addi	a0,s1,164
   12bb2:	d7ffd0ef          	jal	ra,10930 <memset>
   12bb6:	01893403          	ld	s0,24(s2)
   12bba:	000207b7          	lui	a5,0x20
   12bbe:	0364bc23          	sd	s6,56(s1)
   12bc2:	0554b023          	sd	s5,64(s1)
   12bc6:	0544b423          	sd	s4,72(s1)
   12bca:	0534b823          	sd	s3,80(s1)
   12bce:	f884                	sd	s1,48(s1)
   12bd0:	27c9                	addiw	a5,a5,18
   12bd2:	c81c                	sw	a5,16(s0)
   12bd4:	0a042623          	sw	zero,172(s0)
   12bd8:	00043023          	sd	zero,0(s0)
   12bdc:	00043423          	sd	zero,8(s0)
   12be0:	00043c23          	sd	zero,24(s0)
   12be4:	02042023          	sw	zero,32(s0)
   12be8:	02042423          	sw	zero,40(s0)
   12bec:	0a440513          	addi	a0,s0,164
   12bf0:	4621                	li	a2,8
   12bf2:	4581                	li	a1,0
   12bf4:	d3dfd0ef          	jal	ra,10930 <memset>
   12bf8:	70e2                	ld	ra,56(sp)
   12bfa:	03643c23          	sd	s6,56(s0)
   12bfe:	05543023          	sd	s5,64(s0)
   12c02:	05443423          	sd	s4,72(s0)
   12c06:	05343823          	sd	s3,80(s0)
   12c0a:	f800                	sd	s0,48(s0)
   12c0c:	7442                	ld	s0,48(sp)
   12c0e:	4785                	li	a5,1
   12c10:	04f92823          	sw	a5,80(s2)
   12c14:	74a2                	ld	s1,40(sp)
   12c16:	7902                	ld	s2,32(sp)
   12c18:	69e2                	ld	s3,24(sp)
   12c1a:	6a42                	ld	s4,16(sp)
   12c1c:	6aa2                	ld	s5,8(sp)
   12c1e:	6b02                	ld	s6,0(sp)
   12c20:	6121                	addi	sp,sp,64
   12c22:	8082                	ret

0000000000012c24 <__fp_unlock>:
   12c24:	4501                	li	a0,0
   12c26:	8082                	ret

0000000000012c28 <__sfmoreglue>:
   12c28:	1101                	addi	sp,sp,-32
   12c2a:	e426                	sd	s1,8(sp)
   12c2c:	0b000613          	li	a2,176
   12c30:	fff5849b          	addiw	s1,a1,-1
   12c34:	02c484b3          	mul	s1,s1,a2
   12c38:	e04a                	sd	s2,0(sp)
   12c3a:	892e                	mv	s2,a1
   12c3c:	e822                	sd	s0,16(sp)
   12c3e:	ec06                	sd	ra,24(sp)
   12c40:	0c848593          	addi	a1,s1,200
   12c44:	ec4fd0ef          	jal	ra,10308 <_malloc_r>
   12c48:	842a                	mv	s0,a0
   12c4a:	cd01                	beqz	a0,12c62 <__sfmoreglue+0x3a>
   12c4c:	0561                	addi	a0,a0,24
   12c4e:	00043023          	sd	zero,0(s0)
   12c52:	01242423          	sw	s2,8(s0)
   12c56:	e808                	sd	a0,16(s0)
   12c58:	0b048613          	addi	a2,s1,176
   12c5c:	4581                	li	a1,0
   12c5e:	cd3fd0ef          	jal	ra,10930 <memset>
   12c62:	8522                	mv	a0,s0
   12c64:	60e2                	ld	ra,24(sp)
   12c66:	6442                	ld	s0,16(sp)
   12c68:	64a2                	ld	s1,8(sp)
   12c6a:	6902                	ld	s2,0(sp)
   12c6c:	6105                	addi	sp,sp,32
   12c6e:	8082                	ret

0000000000012c70 <__sfp>:
   12c70:	7179                	addi	sp,sp,-48
   12c72:	ec26                	sd	s1,24(sp)
   12c74:	7381b483          	ld	s1,1848(gp) # 1e150 <_global_impure_ptr>
   12c78:	e44e                	sd	s3,8(sp)
   12c7a:	f406                	sd	ra,40(sp)
   12c7c:	48bc                	lw	a5,80(s1)
   12c7e:	f022                	sd	s0,32(sp)
   12c80:	e84a                	sd	s2,16(sp)
   12c82:	89aa                	mv	s3,a0
   12c84:	c7c1                	beqz	a5,12d0c <__sfp+0x9c>
   12c86:	52048493          	addi	s1,s1,1312
   12c8a:	0b000913          	li	s2,176
   12c8e:	449c                	lw	a5,8(s1)
   12c90:	6880                	ld	s0,16(s1)
   12c92:	02f05463          	blez	a5,12cba <__sfp+0x4a>
   12c96:	01041703          	lh	a4,16(s0)
   12c9a:	c705                	beqz	a4,12cc2 <__sfp+0x52>
   12c9c:	37fd                	addiw	a5,a5,-1
   12c9e:	1782                	slli	a5,a5,0x20
   12ca0:	9381                	srli	a5,a5,0x20
   12ca2:	0785                	addi	a5,a5,1
   12ca4:	032787b3          	mul	a5,a5,s2
   12ca8:	97a2                	add	a5,a5,s0
   12caa:	a021                	j	12cb2 <__sfp+0x42>
   12cac:	01041703          	lh	a4,16(s0)
   12cb0:	cb09                	beqz	a4,12cc2 <__sfp+0x52>
   12cb2:	0b040413          	addi	s0,s0,176
   12cb6:	fef41be3          	bne	s0,a5,12cac <__sfp+0x3c>
   12cba:	6080                	ld	s0,0(s1)
   12cbc:	cc21                	beqz	s0,12d14 <__sfp+0xa4>
   12cbe:	84a2                	mv	s1,s0
   12cc0:	b7f9                	j	12c8e <__sfp+0x1e>
   12cc2:	77c1                	lui	a5,0xffff0
   12cc4:	2785                	addiw	a5,a5,1
   12cc6:	0a042623          	sw	zero,172(s0)
   12cca:	00043023          	sd	zero,0(s0)
   12cce:	00043423          	sd	zero,8(s0)
   12cd2:	c81c                	sw	a5,16(s0)
   12cd4:	00043c23          	sd	zero,24(s0)
   12cd8:	02042023          	sw	zero,32(s0)
   12cdc:	02042423          	sw	zero,40(s0)
   12ce0:	4621                	li	a2,8
   12ce2:	4581                	li	a1,0
   12ce4:	0a440513          	addi	a0,s0,164
   12ce8:	c49fd0ef          	jal	ra,10930 <memset>
   12cec:	04043c23          	sd	zero,88(s0)
   12cf0:	06042023          	sw	zero,96(s0)
   12cf4:	06043c23          	sd	zero,120(s0)
   12cf8:	08042023          	sw	zero,128(s0)
   12cfc:	8522                	mv	a0,s0
   12cfe:	70a2                	ld	ra,40(sp)
   12d00:	7402                	ld	s0,32(sp)
   12d02:	64e2                	ld	s1,24(sp)
   12d04:	6942                	ld	s2,16(sp)
   12d06:	69a2                	ld	s3,8(sp)
   12d08:	6145                	addi	sp,sp,48
   12d0a:	8082                	ret
   12d0c:	8526                	mv	a0,s1
   12d0e:	defff0ef          	jal	ra,12afc <__sinit.part.0>
   12d12:	bf95                	j	12c86 <__sfp+0x16>
   12d14:	4591                	li	a1,4
   12d16:	854e                	mv	a0,s3
   12d18:	f11ff0ef          	jal	ra,12c28 <__sfmoreglue>
   12d1c:	e088                	sd	a0,0(s1)
   12d1e:	842a                	mv	s0,a0
   12d20:	fd59                	bnez	a0,12cbe <__sfp+0x4e>
   12d22:	47b1                	li	a5,12
   12d24:	00f9a023          	sw	a5,0(s3)
   12d28:	bfd1                	j	12cfc <__sfp+0x8c>

0000000000012d2a <_cleanup>:
   12d2a:	7381b503          	ld	a0,1848(gp) # 1e150 <_global_impure_ptr>
   12d2e:	000195b7          	lui	a1,0x19
   12d32:	ffe58593          	addi	a1,a1,-2 # 18ffe <_fclose_r>
   12d36:	3d20006f          	j	13108 <_fwalk_reent>

0000000000012d3a <__sinit>:
   12d3a:	493c                	lw	a5,80(a0)
   12d3c:	c391                	beqz	a5,12d40 <__sinit+0x6>
   12d3e:	8082                	ret
   12d40:	dbdff06f          	j	12afc <__sinit.part.0>

0000000000012d44 <__sfp_lock_acquire>:
   12d44:	8082                	ret

0000000000012d46 <__sfp_lock_release>:
   12d46:	8082                	ret

0000000000012d48 <__sinit_lock_acquire>:
   12d48:	8082                	ret

0000000000012d4a <__sinit_lock_release>:
   12d4a:	8082                	ret

0000000000012d4c <__fp_lock_all>:
   12d4c:	7481b503          	ld	a0,1864(gp) # 1e160 <_impure_ptr>
   12d50:	000135b7          	lui	a1,0x13
   12d54:	aec58593          	addi	a1,a1,-1300 # 12aec <__fp_lock>
   12d58:	3260006f          	j	1307e <_fwalk>

0000000000012d5c <__fp_unlock_all>:
   12d5c:	7481b503          	ld	a0,1864(gp) # 1e160 <_impure_ptr>
   12d60:	000135b7          	lui	a1,0x13
   12d64:	c2458593          	addi	a1,a1,-988 # 12c24 <__fp_unlock>
   12d68:	3160006f          	j	1307e <_fwalk>

0000000000012d6c <_malloc_trim_r>:
   12d6c:	7179                	addi	sp,sp,-48
   12d6e:	e84a                	sd	s2,16(sp)
   12d70:	6975                	lui	s2,0x1d
   12d72:	f022                	sd	s0,32(sp)
   12d74:	ec26                	sd	s1,24(sp)
   12d76:	e44e                	sd	s3,8(sp)
   12d78:	842e                	mv	s0,a1
   12d7a:	f406                	sd	ra,40(sp)
   12d7c:	89aa                	mv	s3,a0
   12d7e:	76890913          	addi	s2,s2,1896 # 1d768 <__malloc_av_>
   12d82:	c59fd0ef          	jal	ra,109da <__malloc_lock>
   12d86:	01093683          	ld	a3,16(s2)
   12d8a:	6705                	lui	a4,0x1
   12d8c:	fdf70793          	addi	a5,a4,-33 # fdf <register_fini-0xf0d1>
   12d90:	6684                	ld	s1,8(a3)
   12d92:	40878433          	sub	s0,a5,s0
   12d96:	98f1                	andi	s1,s1,-4
   12d98:	9426                	add	s0,s0,s1
   12d9a:	8031                	srli	s0,s0,0xc
   12d9c:	147d                	addi	s0,s0,-1
   12d9e:	0432                	slli	s0,s0,0xc
   12da0:	00e44b63          	blt	s0,a4,12db6 <_malloc_trim_r+0x4a>
   12da4:	4581                	li	a1,0
   12da6:	854e                	mv	a0,s3
   12da8:	c89fd0ef          	jal	ra,10a30 <_sbrk_r>
   12dac:	01093783          	ld	a5,16(s2)
   12db0:	97a6                	add	a5,a5,s1
   12db2:	00f50d63          	beq	a0,a5,12dcc <_malloc_trim_r+0x60>
   12db6:	854e                	mv	a0,s3
   12db8:	c25fd0ef          	jal	ra,109dc <__malloc_unlock>
   12dbc:	70a2                	ld	ra,40(sp)
   12dbe:	7402                	ld	s0,32(sp)
   12dc0:	64e2                	ld	s1,24(sp)
   12dc2:	6942                	ld	s2,16(sp)
   12dc4:	69a2                	ld	s3,8(sp)
   12dc6:	4501                	li	a0,0
   12dc8:	6145                	addi	sp,sp,48
   12dca:	8082                	ret
   12dcc:	408005b3          	neg	a1,s0
   12dd0:	854e                	mv	a0,s3
   12dd2:	c5ffd0ef          	jal	ra,10a30 <_sbrk_r>
   12dd6:	57fd                	li	a5,-1
   12dd8:	02f50963          	beq	a0,a5,12e0a <_malloc_trim_r+0x9e>
   12ddc:	7c01a783          	lw	a5,1984(gp) # 1e1d8 <__malloc_current_mallinfo>
   12de0:	01093683          	ld	a3,16(s2)
   12de4:	8c81                	sub	s1,s1,s0
   12de6:	0014e493          	ori	s1,s1,1
   12dea:	4087843b          	subw	s0,a5,s0
   12dee:	854e                	mv	a0,s3
   12df0:	e684                	sd	s1,8(a3)
   12df2:	7c81a023          	sw	s0,1984(gp) # 1e1d8 <__malloc_current_mallinfo>
   12df6:	be7fd0ef          	jal	ra,109dc <__malloc_unlock>
   12dfa:	70a2                	ld	ra,40(sp)
   12dfc:	7402                	ld	s0,32(sp)
   12dfe:	64e2                	ld	s1,24(sp)
   12e00:	6942                	ld	s2,16(sp)
   12e02:	69a2                	ld	s3,8(sp)
   12e04:	4505                	li	a0,1
   12e06:	6145                	addi	sp,sp,48
   12e08:	8082                	ret
   12e0a:	4581                	li	a1,0
   12e0c:	854e                	mv	a0,s3
   12e0e:	c23fd0ef          	jal	ra,10a30 <_sbrk_r>
   12e12:	01093703          	ld	a4,16(s2)
   12e16:	46fd                	li	a3,31
   12e18:	40e507b3          	sub	a5,a0,a4
   12e1c:	f8f6dde3          	bge	a3,a5,12db6 <_malloc_trim_r+0x4a>
   12e20:	7501b683          	ld	a3,1872(gp) # 1e168 <__malloc_sbrk_base>
   12e24:	0017e793          	ori	a5,a5,1
   12e28:	e71c                	sd	a5,8(a4)
   12e2a:	8d15                	sub	a0,a0,a3
   12e2c:	7ca1a023          	sw	a0,1984(gp) # 1e1d8 <__malloc_current_mallinfo>
   12e30:	b759                	j	12db6 <_malloc_trim_r+0x4a>

0000000000012e32 <_free_r>:
   12e32:	c5f5                	beqz	a1,12f1e <_free_r+0xec>
   12e34:	1101                	addi	sp,sp,-32
   12e36:	e822                	sd	s0,16(sp)
   12e38:	e426                	sd	s1,8(sp)
   12e3a:	842e                	mv	s0,a1
   12e3c:	84aa                	mv	s1,a0
   12e3e:	ec06                	sd	ra,24(sp)
   12e40:	b9bfd0ef          	jal	ra,109da <__malloc_lock>
   12e44:	ff843503          	ld	a0,-8(s0)
   12e48:	ff040713          	addi	a4,s0,-16
   12e4c:	65f5                	lui	a1,0x1d
   12e4e:	ffe57793          	andi	a5,a0,-2
   12e52:	00f70633          	add	a2,a4,a5
   12e56:	76858593          	addi	a1,a1,1896 # 1d768 <__malloc_av_>
   12e5a:	6614                	ld	a3,8(a2)
   12e5c:	0105b803          	ld	a6,16(a1)
   12e60:	9af1                	andi	a3,a3,-4
   12e62:	12c80c63          	beq	a6,a2,12f9a <_free_r+0x168>
   12e66:	e614                	sd	a3,8(a2)
   12e68:	8905                	andi	a0,a0,1
   12e6a:	00d60833          	add	a6,a2,a3
   12e6e:	e149                	bnez	a0,12ef0 <_free_r+0xbe>
   12e70:	ff043303          	ld	t1,-16(s0)
   12e74:	00883803          	ld	a6,8(a6)
   12e78:	6575                	lui	a0,0x1d
   12e7a:	40670733          	sub	a4,a4,t1
   12e7e:	01073883          	ld	a7,16(a4)
   12e82:	77850513          	addi	a0,a0,1912 # 1d778 <__malloc_av_+0x10>
   12e86:	979a                	add	a5,a5,t1
   12e88:	00187813          	andi	a6,a6,1
   12e8c:	0ea88a63          	beq	a7,a0,12f80 <_free_r+0x14e>
   12e90:	01873303          	ld	t1,24(a4)
   12e94:	0068bc23          	sd	t1,24(a7)
   12e98:	01133823          	sd	a7,16(t1)
   12e9c:	14080a63          	beqz	a6,12ff0 <_free_r+0x1be>
   12ea0:	0017e693          	ori	a3,a5,1
   12ea4:	e714                	sd	a3,8(a4)
   12ea6:	e21c                	sd	a5,0(a2)
   12ea8:	1ff00693          	li	a3,511
   12eac:	08f6e363          	bltu	a3,a5,12f32 <_free_r+0x100>
   12eb0:	838d                	srli	a5,a5,0x3
   12eb2:	2781                	sext.w	a5,a5
   12eb4:	0017869b          	addiw	a3,a5,1
   12eb8:	0016969b          	slliw	a3,a3,0x1
   12ebc:	068e                	slli	a3,a3,0x3
   12ebe:	0085b803          	ld	a6,8(a1)
   12ec2:	96ae                	add	a3,a3,a1
   12ec4:	6288                	ld	a0,0(a3)
   12ec6:	4605                	li	a2,1
   12ec8:	4027d79b          	sraiw	a5,a5,0x2
   12ecc:	00f617b3          	sll	a5,a2,a5
   12ed0:	0107e7b3          	or	a5,a5,a6
   12ed4:	ff068613          	addi	a2,a3,-16
   12ed8:	ef10                	sd	a2,24(a4)
   12eda:	eb08                	sd	a0,16(a4)
   12edc:	e59c                	sd	a5,8(a1)
   12ede:	e298                	sd	a4,0(a3)
   12ee0:	ed18                	sd	a4,24(a0)
   12ee2:	6442                	ld	s0,16(sp)
   12ee4:	60e2                	ld	ra,24(sp)
   12ee6:	8526                	mv	a0,s1
   12ee8:	64a2                	ld	s1,8(sp)
   12eea:	6105                	addi	sp,sp,32
   12eec:	af1fd06f          	j	109dc <__malloc_unlock>
   12ef0:	00883503          	ld	a0,8(a6)
   12ef4:	8905                	andi	a0,a0,1
   12ef6:	e50d                	bnez	a0,12f20 <_free_r+0xee>
   12ef8:	6575                	lui	a0,0x1d
   12efa:	97b6                	add	a5,a5,a3
   12efc:	77850513          	addi	a0,a0,1912 # 1d778 <__malloc_av_+0x10>
   12f00:	6a14                	ld	a3,16(a2)
   12f02:	0017e893          	ori	a7,a5,1
   12f06:	00f70833          	add	a6,a4,a5
   12f0a:	0ea68e63          	beq	a3,a0,13006 <_free_r+0x1d4>
   12f0e:	6e10                	ld	a2,24(a2)
   12f10:	ee90                	sd	a2,24(a3)
   12f12:	ea14                	sd	a3,16(a2)
   12f14:	01173423          	sd	a7,8(a4)
   12f18:	00f83023          	sd	a5,0(a6)
   12f1c:	b771                	j	12ea8 <_free_r+0x76>
   12f1e:	8082                	ret
   12f20:	0017e693          	ori	a3,a5,1
   12f24:	fed43c23          	sd	a3,-8(s0)
   12f28:	e21c                	sd	a5,0(a2)
   12f2a:	1ff00693          	li	a3,511
   12f2e:	f8f6f1e3          	bgeu	a3,a5,12eb0 <_free_r+0x7e>
   12f32:	0097d693          	srli	a3,a5,0x9
   12f36:	4611                	li	a2,4
   12f38:	08d66a63          	bltu	a2,a3,12fcc <_free_r+0x19a>
   12f3c:	0067d693          	srli	a3,a5,0x6
   12f40:	2681                	sext.w	a3,a3
   12f42:	0396851b          	addiw	a0,a3,57
   12f46:	0015151b          	slliw	a0,a0,0x1
   12f4a:	0386861b          	addiw	a2,a3,56
   12f4e:	050e                	slli	a0,a0,0x3
   12f50:	952e                	add	a0,a0,a1
   12f52:	6114                	ld	a3,0(a0)
   12f54:	1541                	addi	a0,a0,-16
   12f56:	0cd50163          	beq	a0,a3,13018 <_free_r+0x1e6>
   12f5a:	6690                	ld	a2,8(a3)
   12f5c:	9a71                	andi	a2,a2,-4
   12f5e:	00c7f563          	bgeu	a5,a2,12f68 <_free_r+0x136>
   12f62:	6a94                	ld	a3,16(a3)
   12f64:	fed51be3          	bne	a0,a3,12f5a <_free_r+0x128>
   12f68:	6e88                	ld	a0,24(a3)
   12f6a:	ef08                	sd	a0,24(a4)
   12f6c:	eb14                	sd	a3,16(a4)
   12f6e:	6442                	ld	s0,16(sp)
   12f70:	e918                	sd	a4,16(a0)
   12f72:	60e2                	ld	ra,24(sp)
   12f74:	8526                	mv	a0,s1
   12f76:	64a2                	ld	s1,8(sp)
   12f78:	ee98                	sd	a4,24(a3)
   12f7a:	6105                	addi	sp,sp,32
   12f7c:	a61fd06f          	j	109dc <__malloc_unlock>
   12f80:	0e081a63          	bnez	a6,13074 <_free_r+0x242>
   12f84:	6a0c                	ld	a1,16(a2)
   12f86:	6e10                	ld	a2,24(a2)
   12f88:	97b6                	add	a5,a5,a3
   12f8a:	0017e693          	ori	a3,a5,1
   12f8e:	ed90                	sd	a2,24(a1)
   12f90:	ea0c                	sd	a1,16(a2)
   12f92:	e714                	sd	a3,8(a4)
   12f94:	973e                	add	a4,a4,a5
   12f96:	e31c                	sd	a5,0(a4)
   12f98:	b7a9                	j	12ee2 <_free_r+0xb0>
   12f9a:	8905                	andi	a0,a0,1
   12f9c:	97b6                	add	a5,a5,a3
   12f9e:	e909                	bnez	a0,12fb0 <_free_r+0x17e>
   12fa0:	ff043503          	ld	a0,-16(s0)
   12fa4:	8f09                	sub	a4,a4,a0
   12fa6:	6f14                	ld	a3,24(a4)
   12fa8:	6b10                	ld	a2,16(a4)
   12faa:	97aa                	add	a5,a5,a0
   12fac:	ee14                	sd	a3,24(a2)
   12fae:	ea90                	sd	a2,16(a3)
   12fb0:	0017e613          	ori	a2,a5,1
   12fb4:	7581b683          	ld	a3,1880(gp) # 1e170 <__malloc_trim_threshold>
   12fb8:	e710                	sd	a2,8(a4)
   12fba:	e998                	sd	a4,16(a1)
   12fbc:	f2d7e3e3          	bltu	a5,a3,12ee2 <_free_r+0xb0>
   12fc0:	7701b583          	ld	a1,1904(gp) # 1e188 <__malloc_top_pad>
   12fc4:	8526                	mv	a0,s1
   12fc6:	da7ff0ef          	jal	ra,12d6c <_malloc_trim_r>
   12fca:	bf21                	j	12ee2 <_free_r+0xb0>
   12fcc:	4651                	li	a2,20
   12fce:	02d67363          	bgeu	a2,a3,12ff4 <_free_r+0x1c2>
   12fd2:	05400613          	li	a2,84
   12fd6:	04d66c63          	bltu	a2,a3,1302e <_free_r+0x1fc>
   12fda:	00c7d693          	srli	a3,a5,0xc
   12fde:	2681                	sext.w	a3,a3
   12fe0:	06f6851b          	addiw	a0,a3,111
   12fe4:	0015151b          	slliw	a0,a0,0x1
   12fe8:	06e6861b          	addiw	a2,a3,110
   12fec:	050e                	slli	a0,a0,0x3
   12fee:	b78d                	j	12f50 <_free_r+0x11e>
   12ff0:	97b6                	add	a5,a5,a3
   12ff2:	b739                	j	12f00 <_free_r+0xce>
   12ff4:	2681                	sext.w	a3,a3
   12ff6:	05c6851b          	addiw	a0,a3,92
   12ffa:	0015151b          	slliw	a0,a0,0x1
   12ffe:	05b6861b          	addiw	a2,a3,91
   13002:	050e                	slli	a0,a0,0x3
   13004:	b7b1                	j	12f50 <_free_r+0x11e>
   13006:	f598                	sd	a4,40(a1)
   13008:	f198                	sd	a4,32(a1)
   1300a:	ef08                	sd	a0,24(a4)
   1300c:	eb08                	sd	a0,16(a4)
   1300e:	01173423          	sd	a7,8(a4)
   13012:	00f83023          	sd	a5,0(a6)
   13016:	b5f1                	j	12ee2 <_free_r+0xb0>
   13018:	0085b803          	ld	a6,8(a1)
   1301c:	4026561b          	sraiw	a2,a2,0x2
   13020:	4785                	li	a5,1
   13022:	00c79633          	sll	a2,a5,a2
   13026:	01066633          	or	a2,a2,a6
   1302a:	e590                	sd	a2,8(a1)
   1302c:	bf3d                	j	12f6a <_free_r+0x138>
   1302e:	15400613          	li	a2,340
   13032:	00d66d63          	bltu	a2,a3,1304c <_free_r+0x21a>
   13036:	00f7d693          	srli	a3,a5,0xf
   1303a:	2681                	sext.w	a3,a3
   1303c:	0786851b          	addiw	a0,a3,120
   13040:	0015151b          	slliw	a0,a0,0x1
   13044:	0776861b          	addiw	a2,a3,119
   13048:	050e                	slli	a0,a0,0x3
   1304a:	b719                	j	12f50 <_free_r+0x11e>
   1304c:	55400613          	li	a2,1364
   13050:	00d66d63          	bltu	a2,a3,1306a <_free_r+0x238>
   13054:	0127d693          	srli	a3,a5,0x12
   13058:	2681                	sext.w	a3,a3
   1305a:	07d6851b          	addiw	a0,a3,125
   1305e:	0015151b          	slliw	a0,a0,0x1
   13062:	07c6861b          	addiw	a2,a3,124
   13066:	050e                	slli	a0,a0,0x3
   13068:	b5e5                	j	12f50 <_free_r+0x11e>
   1306a:	7f000513          	li	a0,2032
   1306e:	07e00613          	li	a2,126
   13072:	bdf9                	j	12f50 <_free_r+0x11e>
   13074:	0017e693          	ori	a3,a5,1
   13078:	e714                	sd	a3,8(a4)
   1307a:	e21c                	sd	a5,0(a2)
   1307c:	b59d                	j	12ee2 <_free_r+0xb0>

000000000001307e <_fwalk>:
   1307e:	715d                	addi	sp,sp,-80
   13080:	f84a                	sd	s2,48(sp)
   13082:	e486                	sd	ra,72(sp)
   13084:	e0a2                	sd	s0,64(sp)
   13086:	fc26                	sd	s1,56(sp)
   13088:	f44e                	sd	s3,40(sp)
   1308a:	f052                	sd	s4,32(sp)
   1308c:	ec56                	sd	s5,24(sp)
   1308e:	e85a                	sd	s6,16(sp)
   13090:	e45e                	sd	s7,8(sp)
   13092:	52050913          	addi	s2,a0,1312
   13096:	06090763          	beqz	s2,13104 <_fwalk+0x86>
   1309a:	8a2e                	mv	s4,a1
   1309c:	4b01                	li	s6,0
   1309e:	0b000a93          	li	s5,176
   130a2:	4b85                	li	s7,1
   130a4:	59fd                	li	s3,-1
   130a6:	00892783          	lw	a5,8(s2)
   130aa:	01093403          	ld	s0,16(s2)
   130ae:	02f05b63          	blez	a5,130e4 <_fwalk+0x66>
   130b2:	fff7849b          	addiw	s1,a5,-1
   130b6:	1482                	slli	s1,s1,0x20
   130b8:	9081                	srli	s1,s1,0x20
   130ba:	0485                	addi	s1,s1,1
   130bc:	035484b3          	mul	s1,s1,s5
   130c0:	94a2                	add	s1,s1,s0
   130c2:	01045783          	lhu	a5,16(s0)
   130c6:	00fbfb63          	bgeu	s7,a5,130dc <_fwalk+0x5e>
   130ca:	01241783          	lh	a5,18(s0)
   130ce:	8522                	mv	a0,s0
   130d0:	01378663          	beq	a5,s3,130dc <_fwalk+0x5e>
   130d4:	9a02                	jalr	s4
   130d6:	01656b33          	or	s6,a0,s6
   130da:	2b01                	sext.w	s6,s6
   130dc:	0b040413          	addi	s0,s0,176
   130e0:	fe9411e3          	bne	s0,s1,130c2 <_fwalk+0x44>
   130e4:	00093903          	ld	s2,0(s2)
   130e8:	fa091fe3          	bnez	s2,130a6 <_fwalk+0x28>
   130ec:	60a6                	ld	ra,72(sp)
   130ee:	6406                	ld	s0,64(sp)
   130f0:	855a                	mv	a0,s6
   130f2:	74e2                	ld	s1,56(sp)
   130f4:	7942                	ld	s2,48(sp)
   130f6:	79a2                	ld	s3,40(sp)
   130f8:	7a02                	ld	s4,32(sp)
   130fa:	6ae2                	ld	s5,24(sp)
   130fc:	6b42                	ld	s6,16(sp)
   130fe:	6ba2                	ld	s7,8(sp)
   13100:	6161                	addi	sp,sp,80
   13102:	8082                	ret
   13104:	4b01                	li	s6,0
   13106:	b7dd                	j	130ec <_fwalk+0x6e>

0000000000013108 <_fwalk_reent>:
   13108:	715d                	addi	sp,sp,-80
   1310a:	f84a                	sd	s2,48(sp)
   1310c:	e486                	sd	ra,72(sp)
   1310e:	e0a2                	sd	s0,64(sp)
   13110:	fc26                	sd	s1,56(sp)
   13112:	f44e                	sd	s3,40(sp)
   13114:	f052                	sd	s4,32(sp)
   13116:	ec56                	sd	s5,24(sp)
   13118:	e85a                	sd	s6,16(sp)
   1311a:	e45e                	sd	s7,8(sp)
   1311c:	e062                	sd	s8,0(sp)
   1311e:	52050913          	addi	s2,a0,1312
   13122:	06090a63          	beqz	s2,13196 <_fwalk_reent+0x8e>
   13126:	8aae                	mv	s5,a1
   13128:	89aa                	mv	s3,a0
   1312a:	4b81                	li	s7,0
   1312c:	0b000b13          	li	s6,176
   13130:	4c05                	li	s8,1
   13132:	5a7d                	li	s4,-1
   13134:	00892783          	lw	a5,8(s2)
   13138:	01093403          	ld	s0,16(s2)
   1313c:	02f05c63          	blez	a5,13174 <_fwalk_reent+0x6c>
   13140:	fff7849b          	addiw	s1,a5,-1
   13144:	1482                	slli	s1,s1,0x20
   13146:	9081                	srli	s1,s1,0x20
   13148:	0485                	addi	s1,s1,1
   1314a:	036484b3          	mul	s1,s1,s6
   1314e:	94a2                	add	s1,s1,s0
   13150:	01045783          	lhu	a5,16(s0)
   13154:	00fc7c63          	bgeu	s8,a5,1316c <_fwalk_reent+0x64>
   13158:	01241783          	lh	a5,18(s0)
   1315c:	85a2                	mv	a1,s0
   1315e:	854e                	mv	a0,s3
   13160:	01478663          	beq	a5,s4,1316c <_fwalk_reent+0x64>
   13164:	9a82                	jalr	s5
   13166:	01756bb3          	or	s7,a0,s7
   1316a:	2b81                	sext.w	s7,s7
   1316c:	0b040413          	addi	s0,s0,176
   13170:	fe9410e3          	bne	s0,s1,13150 <_fwalk_reent+0x48>
   13174:	00093903          	ld	s2,0(s2)
   13178:	fa091ee3          	bnez	s2,13134 <_fwalk_reent+0x2c>
   1317c:	60a6                	ld	ra,72(sp)
   1317e:	6406                	ld	s0,64(sp)
   13180:	855e                	mv	a0,s7
   13182:	74e2                	ld	s1,56(sp)
   13184:	7942                	ld	s2,48(sp)
   13186:	79a2                	ld	s3,40(sp)
   13188:	7a02                	ld	s4,32(sp)
   1318a:	6ae2                	ld	s5,24(sp)
   1318c:	6b42                	ld	s6,16(sp)
   1318e:	6ba2                	ld	s7,8(sp)
   13190:	6c02                	ld	s8,0(sp)
   13192:	6161                	addi	sp,sp,80
   13194:	8082                	ret
   13196:	4b81                	li	s7,0
   13198:	b7d5                	j	1317c <_fwalk_reent+0x74>

000000000001319a <eshdn1>:
   1319a:	00450693          	addi	a3,a0,4
   1319e:	4781                	li	a5,0
   131a0:	0569                	addi	a0,a0,26
   131a2:	7861                	lui	a6,0xffff8
   131a4:	a811                	j	131b8 <eshdn1+0x1e>
   131a6:	0017979b          	slliw	a5,a5,0x1
   131aa:	00e69023          	sh	a4,0(a3)
   131ae:	17c2                	slli	a5,a5,0x30
   131b0:	0689                	addi	a3,a3,2
   131b2:	93c1                	srli	a5,a5,0x30
   131b4:	02d50863          	beq	a0,a3,131e4 <eshdn1+0x4a>
   131b8:	0006d703          	lhu	a4,0(a3)
   131bc:	00177613          	andi	a2,a4,1
   131c0:	c219                	beqz	a2,131c6 <eshdn1+0x2c>
   131c2:	0017e793          	ori	a5,a5,1
   131c6:	8305                	srli	a4,a4,0x1
   131c8:	0027f613          	andi	a2,a5,2
   131cc:	010765b3          	or	a1,a4,a6
   131d0:	da79                	beqz	a2,131a6 <eshdn1+0xc>
   131d2:	0017979b          	slliw	a5,a5,0x1
   131d6:	00b69023          	sh	a1,0(a3)
   131da:	17c2                	slli	a5,a5,0x30
   131dc:	0689                	addi	a3,a3,2
   131de:	93c1                	srli	a5,a5,0x30
   131e0:	fcd51ce3          	bne	a0,a3,131b8 <eshdn1+0x1e>
   131e4:	8082                	ret

00000000000131e6 <eshup1>:
   131e6:	01850693          	addi	a3,a0,24
   131ea:	4701                	li	a4,0
   131ec:	0509                	addi	a0,a0,2
   131ee:	a811                	j	13202 <eshup1+0x1c>
   131f0:	0017171b          	slliw	a4,a4,0x1
   131f4:	00f69023          	sh	a5,0(a3)
   131f8:	1742                	slli	a4,a4,0x30
   131fa:	16f9                	addi	a3,a3,-2
   131fc:	9341                	srli	a4,a4,0x30
   131fe:	04d50063          	beq	a0,a3,1323e <eshup1+0x58>
   13202:	0006d783          	lhu	a5,0(a3)
   13206:	0107961b          	slliw	a2,a5,0x10
   1320a:	4106561b          	sraiw	a2,a2,0x10
   1320e:	02061593          	slli	a1,a2,0x20
   13212:	0017979b          	slliw	a5,a5,0x1
   13216:	0005d463          	bgez	a1,1321e <eshup1+0x38>
   1321a:	00176713          	ori	a4,a4,1
   1321e:	17c2                	slli	a5,a5,0x30
   13220:	93c1                	srli	a5,a5,0x30
   13222:	00277613          	andi	a2,a4,2
   13226:	0017e593          	ori	a1,a5,1
   1322a:	d279                	beqz	a2,131f0 <eshup1+0xa>
   1322c:	0017171b          	slliw	a4,a4,0x1
   13230:	00b69023          	sh	a1,0(a3)
   13234:	1742                	slli	a4,a4,0x30
   13236:	16f9                	addi	a3,a3,-2
   13238:	9341                	srli	a4,a4,0x30
   1323a:	fcd514e3          	bne	a0,a3,13202 <eshup1+0x1c>
   1323e:	8082                	ret

0000000000013240 <m16m>:
   13240:	1101                	addi	sp,sp,-32
   13242:	6e41                	lui	t3,0x10
   13244:	00011b23          	sh	zero,22(sp)
   13248:	00011c23          	sh	zero,24(sp)
   1324c:	05e1                	addi	a1,a1,24
   1324e:	083c                	addi	a5,sp,24
   13250:	00410813          	addi	a6,sp,4
   13254:	1e7d                	addi	t3,t3,-1
   13256:	0005d703          	lhu	a4,0(a1)
   1325a:	17f9                	addi	a5,a5,-2
   1325c:	15f9                	addi	a1,a1,-2
   1325e:	e315                	bnez	a4,13282 <m16m+0x42>
   13260:	fe079f23          	sh	zero,-2(a5) # fffffffffffefffe <__BSS_END__+0xfffffffffffd1de6>
   13264:	ff0799e3          	bne	a5,a6,13256 <m16m+0x16>
   13268:	0611                	addi	a2,a2,4
   1326a:	01a10693          	addi	a3,sp,26
   1326e:	0007d703          	lhu	a4,0(a5)
   13272:	0609                	addi	a2,a2,2
   13274:	0789                	addi	a5,a5,2
   13276:	fee61f23          	sh	a4,-2(a2)
   1327a:	fed79ae3          	bne	a5,a3,1326e <m16m+0x2e>
   1327e:	6105                	addi	sp,sp,32
   13280:	8082                	ret
   13282:	02a70733          	mul	a4,a4,a0
   13286:	0027d883          	lhu	a7,2(a5)
   1328a:	0007d303          	lhu	t1,0(a5)
   1328e:	01c776b3          	and	a3,a4,t3
   13292:	96c6                	add	a3,a3,a7
   13294:	8341                	srli	a4,a4,0x10
   13296:	0106d893          	srli	a7,a3,0x10
   1329a:	971a                	add	a4,a4,t1
   1329c:	9746                	add	a4,a4,a7
   1329e:	01075893          	srli	a7,a4,0x10
   132a2:	00d79123          	sh	a3,2(a5)
   132a6:	00e79023          	sh	a4,0(a5)
   132aa:	ff179f23          	sh	a7,-2(a5)
   132ae:	fb0794e3          	bne	a5,a6,13256 <m16m+0x16>
   132b2:	bf5d                	j	13268 <m16m+0x28>

00000000000132b4 <eisnan.part.0>:
   132b4:	01250713          	addi	a4,a0,18
   132b8:	0509                	addi	a0,a0,2
   132ba:	ffe55783          	lhu	a5,-2(a0)
   132be:	e789                	bnez	a5,132c8 <eisnan.part.0+0x14>
   132c0:	fea71ce3          	bne	a4,a0,132b8 <eisnan.part.0+0x4>
   132c4:	4501                	li	a0,0
   132c6:	8082                	ret
   132c8:	4505                	li	a0,1
   132ca:	8082                	ret

00000000000132cc <eneg>:
   132cc:	1101                	addi	sp,sp,-32
   132ce:	e822                	sd	s0,16(sp)
   132d0:	01255403          	lhu	s0,18(a0)
   132d4:	e426                	sd	s1,8(sp)
   132d6:	ec06                	sd	ra,24(sp)
   132d8:	fff44793          	not	a5,s0
   132dc:	03179713          	slli	a4,a5,0x31
   132e0:	84aa                	mv	s1,a0
   132e2:	e701                	bnez	a4,132ea <eneg+0x1e>
   132e4:	fd1ff0ef          	jal	ra,132b4 <eisnan.part.0>
   132e8:	e509                	bnez	a0,132f2 <eneg+0x26>
   132ea:	77e1                	lui	a5,0xffff8
   132ec:	8c3d                	xor	s0,s0,a5
   132ee:	00849923          	sh	s0,18(s1)
   132f2:	60e2                	ld	ra,24(sp)
   132f4:	6442                	ld	s0,16(sp)
   132f6:	64a2                	ld	s1,8(sp)
   132f8:	6105                	addi	sp,sp,32
   132fa:	8082                	ret

00000000000132fc <eisneg>:
   132fc:	1141                	addi	sp,sp,-16
   132fe:	e022                	sd	s0,0(sp)
   13300:	01255403          	lhu	s0,18(a0)
   13304:	e406                	sd	ra,8(sp)
   13306:	fff44793          	not	a5,s0
   1330a:	03179713          	slli	a4,a5,0x31
   1330e:	e709                	bnez	a4,13318 <eisneg+0x1c>
   13310:	fa5ff0ef          	jal	ra,132b4 <eisnan.part.0>
   13314:	4781                	li	a5,0
   13316:	e119                	bnez	a0,1331c <eisneg+0x20>
   13318:	00f45793          	srli	a5,s0,0xf
   1331c:	60a2                	ld	ra,8(sp)
   1331e:	6402                	ld	s0,0(sp)
   13320:	853e                	mv	a0,a5
   13322:	0141                	addi	sp,sp,16
   13324:	8082                	ret

0000000000013326 <emovi>:
   13326:	01251783          	lh	a5,18(a0)
   1332a:	1101                	addi	sp,sp,-32
   1332c:	ec06                	sd	ra,24(sp)
   1332e:	e822                	sd	s0,16(sp)
   13330:	e426                	sd	s1,8(sp)
   13332:	e04a                	sd	s2,0(sp)
   13334:	0407c563          	bltz	a5,1337e <emovi+0x58>
   13338:	00059023          	sh	zero,0(a1)
   1333c:	01255783          	lhu	a5,18(a0)
   13340:	6721                	lui	a4,0x8
   13342:	177d                	addi	a4,a4,-1
   13344:	8ff9                	and	a5,a5,a4
   13346:	00f59123          	sh	a5,2(a1)
   1334a:	2781                	sext.w	a5,a5
   1334c:	01050413          	addi	s0,a0,16
   13350:	04e78663          	beq	a5,a4,1339c <emovi+0x76>
   13354:	00658793          	addi	a5,a1,6
   13358:	00059223          	sh	zero,4(a1)
   1335c:	1579                	addi	a0,a0,-2
   1335e:	1479                	addi	s0,s0,-2
   13360:	00245703          	lhu	a4,2(s0)
   13364:	0789                	addi	a5,a5,2
   13366:	fee79f23          	sh	a4,-2(a5) # ffffffffffff7ffe <__BSS_END__+0xfffffffffffd9de6>
   1336a:	fe851ae3          	bne	a0,s0,1335e <emovi+0x38>
   1336e:	00059c23          	sh	zero,24(a1)
   13372:	60e2                	ld	ra,24(sp)
   13374:	6442                	ld	s0,16(sp)
   13376:	64a2                	ld	s1,8(sp)
   13378:	6902                	ld	s2,0(sp)
   1337a:	6105                	addi	sp,sp,32
   1337c:	8082                	ret
   1337e:	57fd                	li	a5,-1
   13380:	00f59023          	sh	a5,0(a1)
   13384:	01255783          	lhu	a5,18(a0)
   13388:	6721                	lui	a4,0x8
   1338a:	177d                	addi	a4,a4,-1
   1338c:	8ff9                	and	a5,a5,a4
   1338e:	00f59123          	sh	a5,2(a1)
   13392:	2781                	sext.w	a5,a5
   13394:	01050413          	addi	s0,a0,16
   13398:	fae79ee3          	bne	a5,a4,13354 <emovi+0x2e>
   1339c:	01255703          	lhu	a4,18(a0)
   133a0:	892e                	mv	s2,a1
   133a2:	84aa                	mv	s1,a0
   133a4:	8f7d                	and	a4,a4,a5
   133a6:	02f71463          	bne	a4,a5,133ce <emovi+0xa8>
   133aa:	f0bff0ef          	jal	ra,132b4 <eisnan.part.0>
   133ae:	c105                	beqz	a0,133ce <emovi+0xa8>
   133b0:	00690713          	addi	a4,s2,6
   133b4:	00091223          	sh	zero,4(s2)
   133b8:	ffc48793          	addi	a5,s1,-4
   133bc:	1479                	addi	s0,s0,-2
   133be:	00245683          	lhu	a3,2(s0)
   133c2:	0709                	addi	a4,a4,2
   133c4:	fed71f23          	sh	a3,-2(a4) # 7ffe <register_fini-0x80b2>
   133c8:	fe879ae3          	bne	a5,s0,133bc <emovi+0x96>
   133cc:	b75d                	j	13372 <emovi+0x4c>
   133ce:	00490793          	addi	a5,s2,4
   133d2:	01a90593          	addi	a1,s2,26
   133d6:	0789                	addi	a5,a5,2
   133d8:	fe079f23          	sh	zero,-2(a5)
   133dc:	fef59de3          	bne	a1,a5,133d6 <emovi+0xb0>
   133e0:	60e2                	ld	ra,24(sp)
   133e2:	6442                	ld	s0,16(sp)
   133e4:	64a2                	ld	s1,8(sp)
   133e6:	6902                	ld	s2,0(sp)
   133e8:	6105                	addi	sp,sp,32
   133ea:	8082                	ret

00000000000133ec <ecmp>:
   133ec:	01255783          	lhu	a5,18(a0)
   133f0:	711d                	addi	sp,sp,-96
   133f2:	e8a2                	sd	s0,80(sp)
   133f4:	fff7c793          	not	a5,a5
   133f8:	e4a6                	sd	s1,72(sp)
   133fa:	ec86                	sd	ra,88(sp)
   133fc:	03179713          	slli	a4,a5,0x31
   13400:	84aa                	mv	s1,a0
   13402:	842e                	mv	s0,a1
   13404:	e701                	bnez	a4,1340c <ecmp+0x20>
   13406:	eafff0ef          	jal	ra,132b4 <eisnan.part.0>
   1340a:	ed39                	bnez	a0,13468 <ecmp+0x7c>
   1340c:	01245783          	lhu	a5,18(s0)
   13410:	fff7c793          	not	a5,a5
   13414:	03179713          	slli	a4,a5,0x31
   13418:	c721                	beqz	a4,13460 <ecmp+0x74>
   1341a:	858a                	mv	a1,sp
   1341c:	8526                	mv	a0,s1
   1341e:	f09ff0ef          	jal	ra,13326 <emovi>
   13422:	100c                	addi	a1,sp,32
   13424:	8522                	mv	a0,s0
   13426:	f01ff0ef          	jal	ra,13326 <emovi>
   1342a:	00015583          	lhu	a1,0(sp)
   1342e:	02015783          	lhu	a5,32(sp)
   13432:	02b78d63          	beq	a5,a1,1346c <ecmp+0x80>
   13436:	00210793          	addi	a5,sp,2
   1343a:	02210713          	addi	a4,sp,34
   1343e:	0830                	addi	a2,sp,24
   13440:	0007d683          	lhu	a3,0(a5)
   13444:	0789                	addi	a5,a5,2
   13446:	e2ad                	bnez	a3,134a8 <ecmp+0xbc>
   13448:	00075683          	lhu	a3,0(a4)
   1344c:	0709                	addi	a4,a4,2
   1344e:	eea9                	bnez	a3,134a8 <ecmp+0xbc>
   13450:	fec798e3          	bne	a5,a2,13440 <ecmp+0x54>
   13454:	4501                	li	a0,0
   13456:	60e6                	ld	ra,88(sp)
   13458:	6446                	ld	s0,80(sp)
   1345a:	64a6                	ld	s1,72(sp)
   1345c:	6125                	addi	sp,sp,96
   1345e:	8082                	ret
   13460:	8522                	mv	a0,s0
   13462:	e53ff0ef          	jal	ra,132b4 <eisnan.part.0>
   13466:	d955                	beqz	a0,1341a <ecmp+0x2e>
   13468:	5579                	li	a0,-2
   1346a:	b7f5                	j	13456 <ecmp+0x6a>
   1346c:	4505                	li	a0,1
   1346e:	e1a9                	bnez	a1,134b0 <ecmp+0xc4>
   13470:	00210713          	addi	a4,sp,2
   13474:	02210793          	addi	a5,sp,34
   13478:	0789                	addi	a5,a5,2
   1347a:	0709                	addi	a4,a4,2
   1347c:	ffe75603          	lhu	a2,-2(a4)
   13480:	ffe7d683          	lhu	a3,-2(a5)
   13484:	182c                	addi	a1,sp,56
   13486:	00d61c63          	bne	a2,a3,1349e <ecmp+0xb2>
   1348a:	fcb785e3          	beq	a5,a1,13454 <ecmp+0x68>
   1348e:	0789                	addi	a5,a5,2
   13490:	0709                	addi	a4,a4,2
   13492:	ffe75603          	lhu	a2,-2(a4)
   13496:	ffe7d683          	lhu	a3,-2(a5)
   1349a:	fed608e3          	beq	a2,a3,1348a <ecmp+0x9e>
   1349e:	fac6ece3          	bltu	a3,a2,13456 <ecmp+0x6a>
   134a2:	40a0053b          	negw	a0,a0
   134a6:	bf45                	j	13456 <ecmp+0x6a>
   134a8:	4505                	li	a0,1
   134aa:	d5d5                	beqz	a1,13456 <ecmp+0x6a>
   134ac:	557d                	li	a0,-1
   134ae:	b765                	j	13456 <ecmp+0x6a>
   134b0:	557d                	li	a0,-1
   134b2:	bf7d                	j	13470 <ecmp+0x84>

00000000000134b4 <eisinf.part.1>:
   134b4:	1141                	addi	sp,sp,-16
   134b6:	e406                	sd	ra,8(sp)
   134b8:	dfdff0ef          	jal	ra,132b4 <eisnan.part.0>
   134bc:	60a2                	ld	ra,8(sp)
   134be:	00153513          	seqz	a0,a0
   134c2:	0141                	addi	sp,sp,16
   134c4:	8082                	ret

00000000000134c6 <eshift.part.3>:
   134c6:	1101                	addi	sp,sp,-32
   134c8:	e822                	sd	s0,16(sp)
   134ca:	e04a                	sd	s2,0(sp)
   134cc:	ec06                	sd	ra,24(sp)
   134ce:	e426                	sd	s1,8(sp)
   134d0:	892e                	mv	s2,a1
   134d2:	842a                	mv	s0,a0
   134d4:	0605cd63          	bltz	a1,1354e <eshift.part.3+0x88>
   134d8:	47bd                	li	a5,15
   134da:	862e                	mv	a2,a1
   134dc:	0511                	addi	a0,a0,4
   134de:	01840693          	addi	a3,s0,24
   134e2:	45bd                	li	a1,15
   134e4:	0327d163          	bge	a5,s2,13506 <eshift.part.3+0x40>
   134e8:	87aa                	mv	a5,a0
   134ea:	0789                	addi	a5,a5,2
   134ec:	0007d703          	lhu	a4,0(a5)
   134f0:	fee79f23          	sh	a4,-2(a5)
   134f4:	fed79be3          	bne	a5,a3,134ea <eshift.part.3+0x24>
   134f8:	00041c23          	sh	zero,24(s0)
   134fc:	3641                	addiw	a2,a2,-16
   134fe:	fec5c5e3          	blt	a1,a2,134e8 <eshift.part.3+0x22>
   13502:	00f97913          	andi	s2,s2,15
   13506:	479d                	li	a5,7
   13508:	0327d463          	bge	a5,s2,13530 <eshift.part.3+0x6a>
   1350c:	01840793          	addi	a5,s0,24
   13510:	00240593          	addi	a1,s0,2
   13514:	4701                	li	a4,0
   13516:	0007d683          	lhu	a3,0(a5)
   1351a:	17f9                	addi	a5,a5,-2
   1351c:	00869613          	slli	a2,a3,0x8
   13520:	8f51                	or	a4,a4,a2
   13522:	00e79123          	sh	a4,2(a5)
   13526:	0086d713          	srli	a4,a3,0x8
   1352a:	feb796e3          	bne	a5,a1,13516 <eshift.part.3+0x50>
   1352e:	3961                	addiw	s2,s2,-8
   13530:	00090863          	beqz	s2,13540 <eshift.part.3+0x7a>
   13534:	397d                	addiw	s2,s2,-1
   13536:	8522                	mv	a0,s0
   13538:	cafff0ef          	jal	ra,131e6 <eshup1>
   1353c:	fe091ce3          	bnez	s2,13534 <eshift.part.3+0x6e>
   13540:	60e2                	ld	ra,24(sp)
   13542:	6442                	ld	s0,16(sp)
   13544:	64a2                	ld	s1,8(sp)
   13546:	6902                	ld	s2,0(sp)
   13548:	4501                	li	a0,0
   1354a:	6105                	addi	sp,sp,32
   1354c:	8082                	ret
   1354e:	57c5                	li	a5,-15
   13550:	40b004bb          	negw	s1,a1
   13554:	08f5dd63          	bge	a1,a5,135ee <eshift.part.3+0x128>
   13558:	01850593          	addi	a1,a0,24
   1355c:	4901                	li	s2,0
   1355e:	00450693          	addi	a3,a0,4
   13562:	463d                	li	a2,15
   13564:	01845703          	lhu	a4,24(s0)
   13568:	87ae                	mv	a5,a1
   1356a:	00e96933          	or	s2,s2,a4
   1356e:	17f9                	addi	a5,a5,-2
   13570:	0007d703          	lhu	a4,0(a5)
   13574:	00e79123          	sh	a4,2(a5)
   13578:	fed79be3          	bne	a5,a3,1356e <eshift.part.3+0xa8>
   1357c:	00041223          	sh	zero,4(s0)
   13580:	34c1                	addiw	s1,s1,-16
   13582:	fe9641e3          	blt	a2,s1,13564 <eshift.part.3+0x9e>
   13586:	479d                	li	a5,7
   13588:	0497d063          	bge	a5,s1,135c8 <eshift.part.3+0x102>
   1358c:	0109191b          	slliw	s2,s2,0x10
   13590:	4109591b          	sraiw	s2,s2,0x10
   13594:	01844783          	lbu	a5,24(s0)
   13598:	01a40593          	addi	a1,s0,26
   1359c:	4701                	li	a4,0
   1359e:	00f96933          	or	s2,s2,a5
   135a2:	1942                	slli	s2,s2,0x30
   135a4:	03095913          	srli	s2,s2,0x30
   135a8:	0006d783          	lhu	a5,0(a3)
   135ac:	0689                	addi	a3,a3,2
   135ae:	0087d61b          	srliw	a2,a5,0x8
   135b2:	8f51                	or	a4,a4,a2
   135b4:	0087979b          	slliw	a5,a5,0x8
   135b8:	fee69f23          	sh	a4,-2(a3)
   135bc:	03079713          	slli	a4,a5,0x30
   135c0:	9341                	srli	a4,a4,0x30
   135c2:	feb693e3          	bne	a3,a1,135a8 <eshift.part.3+0xe2>
   135c6:	34e1                	addiw	s1,s1,-8
   135c8:	c899                	beqz	s1,135de <eshift.part.3+0x118>
   135ca:	01845783          	lhu	a5,24(s0)
   135ce:	34fd                	addiw	s1,s1,-1
   135d0:	8522                	mv	a0,s0
   135d2:	8b85                	andi	a5,a5,1
   135d4:	0127e933          	or	s2,a5,s2
   135d8:	bc3ff0ef          	jal	ra,1319a <eshdn1>
   135dc:	f4fd                	bnez	s1,135ca <eshift.part.3+0x104>
   135de:	60e2                	ld	ra,24(sp)
   135e0:	6442                	ld	s0,16(sp)
   135e2:	01203533          	snez	a0,s2
   135e6:	64a2                	ld	s1,8(sp)
   135e8:	6902                	ld	s2,0(sp)
   135ea:	6105                	addi	sp,sp,32
   135ec:	8082                	ret
   135ee:	57e5                	li	a5,-7
   135f0:	00f5c463          	blt	a1,a5,135f8 <eshift.part.3+0x132>
   135f4:	4901                	li	s2,0
   135f6:	bfd1                	j	135ca <eshift.part.3+0x104>
   135f8:	4901                	li	s2,0
   135fa:	00440693          	addi	a3,s0,4
   135fe:	bf59                	j	13594 <eshift.part.3+0xce>

0000000000013600 <enormlz>:
   13600:	00455783          	lhu	a5,4(a0)
   13604:	1101                	addi	sp,sp,-32
   13606:	e426                	sd	s1,8(sp)
   13608:	ec06                	sd	ra,24(sp)
   1360a:	e822                	sd	s0,16(sp)
   1360c:	e04a                	sd	s2,0(sp)
   1360e:	84aa                	mv	s1,a0
   13610:	ebc5                	bnez	a5,136c0 <enormlz+0xc0>
   13612:	00655703          	lhu	a4,6(a0)
   13616:	4401                	li	s0,0
   13618:	0107179b          	slliw	a5,a4,0x10
   1361c:	4107d79b          	sraiw	a5,a5,0x10
   13620:	02079693          	slli	a3,a5,0x20
   13624:	0806c763          	bltz	a3,136b2 <enormlz+0xb2>
   13628:	01a50693          	addi	a3,a0,26
   1362c:	0a000613          	li	a2,160
   13630:	e31d                	bnez	a4,13656 <enormlz+0x56>
   13632:	00648793          	addi	a5,s1,6
   13636:	a019                	j	1363c <enormlz+0x3c>
   13638:	0007d703          	lhu	a4,0(a5)
   1363c:	0789                	addi	a5,a5,2
   1363e:	fee79e23          	sh	a4,-4(a5)
   13642:	fef69be3          	bne	a3,a5,13638 <enormlz+0x38>
   13646:	00049c23          	sh	zero,24(s1)
   1364a:	2441                	addiw	s0,s0,16
   1364c:	06c40363          	beq	s0,a2,136b2 <enormlz+0xb2>
   13650:	0064d703          	lhu	a4,6(s1)
   13654:	df79                	beqz	a4,13632 <enormlz+0x32>
   13656:	f0077793          	andi	a5,a4,-256
   1365a:	eb8d                	bnez	a5,1368c <enormlz+0x8c>
   1365c:	01848513          	addi	a0,s1,24
   13660:	00248593          	addi	a1,s1,2
   13664:	4701                	li	a4,0
   13666:	87aa                	mv	a5,a0
   13668:	0007d683          	lhu	a3,0(a5)
   1366c:	17f9                	addi	a5,a5,-2
   1366e:	00869613          	slli	a2,a3,0x8
   13672:	8f51                	or	a4,a4,a2
   13674:	00e79123          	sh	a4,2(a5)
   13678:	0086d713          	srli	a4,a3,0x8
   1367c:	fef596e3          	bne	a1,a5,13668 <enormlz+0x68>
   13680:	0064d703          	lhu	a4,6(s1)
   13684:	2421                	addiw	s0,s0,8
   13686:	f0077793          	andi	a5,a4,-256
   1368a:	dfe9                	beqz	a5,13664 <enormlz+0x64>
   1368c:	0a000913          	li	s2,160
   13690:	a801                	j	136a0 <enormlz+0xa0>
   13692:	2405                	addiw	s0,s0,1
   13694:	b53ff0ef          	jal	ra,131e6 <eshup1>
   13698:	00894d63          	blt	s2,s0,136b2 <enormlz+0xb2>
   1369c:	0064d703          	lhu	a4,6(s1)
   136a0:	0107171b          	slliw	a4,a4,0x10
   136a4:	4107571b          	sraiw	a4,a4,0x10
   136a8:	02071793          	slli	a5,a4,0x20
   136ac:	8526                	mv	a0,s1
   136ae:	fe07d2e3          	bgez	a5,13692 <enormlz+0x92>
   136b2:	8522                	mv	a0,s0
   136b4:	60e2                	ld	ra,24(sp)
   136b6:	6442                	ld	s0,16(sp)
   136b8:	64a2                	ld	s1,8(sp)
   136ba:	6902                	ld	s2,0(sp)
   136bc:	6105                	addi	sp,sp,32
   136be:	8082                	ret
   136c0:	f007f713          	andi	a4,a5,-256
   136c4:	4401                	li	s0,0
   136c6:	e705                	bnez	a4,136ee <enormlz+0xee>
   136c8:	f6f00913          	li	s2,-145
   136cc:	a801                	j	136dc <enormlz+0xdc>
   136ce:	347d                	addiw	s0,s0,-1
   136d0:	acbff0ef          	jal	ra,1319a <eshdn1>
   136d4:	fd240fe3          	beq	s0,s2,136b2 <enormlz+0xb2>
   136d8:	0044d783          	lhu	a5,4(s1)
   136dc:	8526                	mv	a0,s1
   136de:	fbe5                	bnez	a5,136ce <enormlz+0xce>
   136e0:	8522                	mv	a0,s0
   136e2:	60e2                	ld	ra,24(sp)
   136e4:	6442                	ld	s0,16(sp)
   136e6:	64a2                	ld	s1,8(sp)
   136e8:	6902                	ld	s2,0(sp)
   136ea:	6105                	addi	sp,sp,32
   136ec:	8082                	ret
   136ee:	00450693          	addi	a3,a0,4
   136f2:	01a50593          	addi	a1,a0,26
   136f6:	4701                	li	a4,0
   136f8:	a019                	j	136fe <enormlz+0xfe>
   136fa:	0006d783          	lhu	a5,0(a3)
   136fe:	0087d61b          	srliw	a2,a5,0x8
   13702:	8f51                	or	a4,a4,a2
   13704:	0087979b          	slliw	a5,a5,0x8
   13708:	00e69023          	sh	a4,0(a3)
   1370c:	03079713          	slli	a4,a5,0x30
   13710:	0689                	addi	a3,a3,2
   13712:	9341                	srli	a4,a4,0x30
   13714:	feb693e3          	bne	a3,a1,136fa <enormlz+0xfa>
   13718:	0044d783          	lhu	a5,4(s1)
   1371c:	5461                	li	s0,-8
   1371e:	b76d                	j	136c8 <enormlz+0xc8>

0000000000013720 <emdnorm>:
   13720:	7139                	addi	sp,sp,-64
   13722:	f822                	sd	s0,48(sp)
   13724:	f426                	sd	s1,40(sp)
   13726:	f04a                	sd	s2,32(sp)
   13728:	ec4e                	sd	s3,24(sp)
   1372a:	e852                	sd	s4,16(sp)
   1372c:	e456                	sd	s5,8(sp)
   1372e:	8936                	mv	s2,a3
   13730:	84be                	mv	s1,a5
   13732:	fc06                	sd	ra,56(sp)
   13734:	842a                	mv	s0,a0
   13736:	89ae                	mv	s3,a1
   13738:	8a32                	mv	s4,a2
   1373a:	8aba                	mv	s5,a4
   1373c:	ec5ff0ef          	jal	ra,13600 <enormlz>
   13740:	09000793          	li	a5,144
   13744:	40a90933          	sub	s2,s2,a0
   13748:	06a7d163          	bge	a5,a0,137aa <emdnorm+0x8a>
   1374c:	67a1                	lui	a5,0x8
   1374e:	17f9                	addi	a5,a5,-2
   13750:	1b27dd63          	bge	a5,s2,1390a <emdnorm+0x1ea>
   13754:	180a8b63          	beqz	s5,138ea <emdnorm+0x1ca>
   13758:	40c8                	lw	a0,4(s1)
   1375a:	409c                	lw	a5,0(s1)
   1375c:	0ca78463          	beq	a5,a0,13824 <emdnorm+0x104>
   13760:	01a48713          	addi	a4,s1,26
   13764:	03448793          	addi	a5,s1,52
   13768:	0709                	addi	a4,a4,2
   1376a:	fe071f23          	sh	zero,-2(a4)
   1376e:	fef71de3          	bne	a4,a5,13768 <emdnorm+0x48>
   13772:	03800793          	li	a5,56
   13776:	2af50363          	beq	a0,a5,13a1c <emdnorm+0x2fc>
   1377a:	04a7d763          	bge	a5,a0,137c8 <emdnorm+0xa8>
   1377e:	04000793          	li	a5,64
   13782:	24f50e63          	beq	a0,a5,139de <emdnorm+0x2be>
   13786:	07100793          	li	a5,113
   1378a:	26f51863          	bne	a0,a5,139fa <emdnorm+0x2da>
   1378e:	47a9                	li	a5,10
   13790:	40008737          	lui	a4,0x40008
   13794:	377d                	addiw	a4,a4,-1
   13796:	1782                	slli	a5,a5,0x20
   13798:	07a9                	addi	a5,a5,10
   1379a:	c8d8                	sw	a4,20(s1)
   1379c:	7761                	lui	a4,0xffff8
   1379e:	00e49c23          	sh	a4,24(s1)
   137a2:	e49c                	sd	a5,8(s1)
   137a4:	6721                	lui	a4,0x8
   137a6:	47a9                	li	a5,10
   137a8:	a889                	j	137fa <emdnorm+0xda>
   137aa:	18095763          	bgez	s2,13938 <emdnorm+0x218>
   137ae:	f7000793          	li	a5,-144
   137b2:	16f95563          	bge	s2,a5,1391c <emdnorm+0x1fc>
   137b6:	00240793          	addi	a5,s0,2
   137ba:	0469                	addi	s0,s0,26
   137bc:	0789                	addi	a5,a5,2
   137be:	fe079f23          	sh	zero,-2(a5) # 7ffe <register_fini-0x80b2>
   137c2:	fe879de3          	bne	a5,s0,137bc <emdnorm+0x9c>
   137c6:	aa09                	j	138d8 <emdnorm+0x1b8>
   137c8:	47e1                	li	a5,24
   137ca:	1ef50963          	beq	a0,a5,139bc <emdnorm+0x29c>
   137ce:	03500793          	li	a5,53
   137d2:	22f51463          	bne	a0,a5,139fa <emdnorm+0x2da>
   137d6:	04000737          	lui	a4,0x4000
   137da:	7ff7071b          	addiw	a4,a4,2047
   137de:	4799                	li	a5,6
   137e0:	c8d8                	sw	a4,20(s1)
   137e2:	6705                	lui	a4,0x1
   137e4:	8007071b          	addiw	a4,a4,-2048
   137e8:	1782                	slli	a5,a5,0x20
   137ea:	0799                	addi	a5,a5,6
   137ec:	00e49c23          	sh	a4,24(s1)
   137f0:	6705                	lui	a4,0x1
   137f2:	e49c                	sd	a5,8(s1)
   137f4:	80070713          	addi	a4,a4,-2048 # 800 <register_fini-0xf8b0>
   137f8:	4799                	li	a5,6
   137fa:	07a1                	addi	a5,a5,8
   137fc:	0786                	slli	a5,a5,0x1
   137fe:	97a6                	add	a5,a5,s1
   13800:	00e79523          	sh	a4,10(a5)
   13804:	c088                	sw	a0,0(s1)
   13806:	01204f63          	bgtz	s2,13824 <emdnorm+0x104>
   1380a:	09000793          	li	a5,144
   1380e:	18f50763          	beq	a0,a5,1399c <emdnorm+0x27c>
   13812:	01845783          	lhu	a5,24(s0)
   13816:	8522                	mv	a0,s0
   13818:	8b85                	andi	a5,a5,1
   1381a:	00f9e9b3          	or	s3,s3,a5
   1381e:	97dff0ef          	jal	ra,1319a <eshdn1>
   13822:	40c8                	lw	a0,4(s1)
   13824:	4494                	lw	a3,8(s1)
   13826:	0144d603          	lhu	a2,20(s1)
   1382a:	08f00793          	li	a5,143
   1382e:	00169713          	slli	a4,a3,0x1
   13832:	00e40833          	add	a6,s0,a4
   13836:	00085883          	lhu	a7,0(a6) # ffffffffffff8000 <__BSS_END__+0xfffffffffffd9de8>
   1383a:	00c8f5b3          	and	a1,a7,a2
   1383e:	02a7ce63          	blt	a5,a0,1387a <emdnorm+0x15a>
   13842:	47ad                	li	a5,11
   13844:	02d7cb63          	blt	a5,a3,1387a <emdnorm+0x15a>
   13848:	9f95                	subw	a5,a5,a3
   1384a:	1782                	slli	a5,a5,0x20
   1384c:	9381                	srli	a5,a5,0x20
   1384e:	97b6                	add	a5,a5,a3
   13850:	00179693          	slli	a3,a5,0x1
   13854:	0709                	addi	a4,a4,2
   13856:	00440793          	addi	a5,s0,4
   1385a:	9722                	add	a4,a4,s0
   1385c:	97b6                	add	a5,a5,a3
   1385e:	00075683          	lhu	a3,0(a4)
   13862:	c299                	beqz	a3,13868 <emdnorm+0x148>
   13864:	0015e593          	ori	a1,a1,1
   13868:	00071023          	sh	zero,0(a4)
   1386c:	0709                	addi	a4,a4,2
   1386e:	fee798e3          	bne	a5,a4,1385e <emdnorm+0x13e>
   13872:	00085883          	lhu	a7,0(a6)
   13876:	0144d603          	lhu	a2,20(s1)
   1387a:	fff64613          	not	a2,a2
   1387e:	01167633          	and	a2,a2,a7
   13882:	00c81023          	sh	a2,0(a6)
   13886:	0164d783          	lhu	a5,22(s1)
   1388a:	00b7f733          	and	a4,a5,a1
   1388e:	cb05                	beqz	a4,138be <emdnorm+0x19e>
   13890:	0cb78a63          	beq	a5,a1,13964 <emdnorm+0x244>
   13894:	03248613          	addi	a2,s1,50
   13898:	01840713          	addi	a4,s0,24
   1389c:	04f1                	addi	s1,s1,28
   1389e:	4681                	li	a3,0
   138a0:	00065783          	lhu	a5,0(a2)
   138a4:	00075583          	lhu	a1,0(a4)
   138a8:	1779                	addi	a4,a4,-2
   138aa:	1679                	addi	a2,a2,-2
   138ac:	97ae                	add	a5,a5,a1
   138ae:	97b6                	add	a5,a5,a3
   138b0:	00f71123          	sh	a5,2(a4)
   138b4:	83c1                	srli	a5,a5,0x10
   138b6:	0017f693          	andi	a3,a5,1
   138ba:	fe9613e3          	bne	a2,s1,138a0 <emdnorm+0x180>
   138be:	0d205063          	blez	s2,1397e <emdnorm+0x25e>
   138c2:	00445783          	lhu	a5,4(s0)
   138c6:	e3c1                	bnez	a5,13946 <emdnorm+0x226>
   138c8:	67a1                	lui	a5,0x8
   138ca:	00041c23          	sh	zero,24(s0)
   138ce:	17f9                	addi	a5,a5,-2
   138d0:	0127cf63          	blt	a5,s2,138ee <emdnorm+0x1ce>
   138d4:	01241123          	sh	s2,2(s0)
   138d8:	70e2                	ld	ra,56(sp)
   138da:	7442                	ld	s0,48(sp)
   138dc:	74a2                	ld	s1,40(sp)
   138de:	7902                	ld	s2,32(sp)
   138e0:	69e2                	ld	s3,24(sp)
   138e2:	6a42                	ld	s4,16(sp)
   138e4:	6aa2                	ld	s5,8(sp)
   138e6:	6121                	addi	sp,sp,64
   138e8:	8082                	ret
   138ea:	00041c23          	sh	zero,24(s0)
   138ee:	77e1                	lui	a5,0xffff8
   138f0:	fff7c793          	not	a5,a5
   138f4:	00f41123          	sh	a5,2(s0)
   138f8:	00440793          	addi	a5,s0,4
   138fc:	0461                	addi	s0,s0,24
   138fe:	00079023          	sh	zero,0(a5) # ffffffffffff8000 <__BSS_END__+0xfffffffffffd9de8>
   13902:	0789                	addi	a5,a5,2
   13904:	fef41de3          	bne	s0,a5,138fe <emdnorm+0x1de>
   13908:	bfc1                	j	138d8 <emdnorm+0x1b8>
   1390a:	00240793          	addi	a5,s0,2
   1390e:	0469                	addi	s0,s0,26
   13910:	0789                	addi	a5,a5,2
   13912:	fe079f23          	sh	zero,-2(a5)
   13916:	fe879de3          	bne	a5,s0,13910 <emdnorm+0x1f0>
   1391a:	bf7d                	j	138d8 <emdnorm+0x1b8>
   1391c:	0009059b          	sext.w	a1,s2
   13920:	8522                	mv	a0,s0
   13922:	ba5ff0ef          	jal	ra,134c6 <eshift.part.3>
   13926:	c111                	beqz	a0,1392a <emdnorm+0x20a>
   13928:	4985                	li	s3,1
   1392a:	080a8463          	beqz	s5,139b2 <emdnorm+0x292>
   1392e:	40c8                	lw	a0,4(s1)
   13930:	409c                	lw	a5,0(s1)
   13932:	e2a797e3          	bne	a5,a0,13760 <emdnorm+0x40>
   13936:	bdd1                	j	1380a <emdnorm+0xea>
   13938:	f80a88e3          	beqz	s5,138c8 <emdnorm+0x1a8>
   1393c:	40c8                	lw	a0,4(s1)
   1393e:	409c                	lw	a5,0(s1)
   13940:	e2a790e3          	bne	a5,a0,13760 <emdnorm+0x40>
   13944:	b5c9                	j	13806 <emdnorm+0xe6>
   13946:	8522                	mv	a0,s0
   13948:	853ff0ef          	jal	ra,1319a <eshdn1>
   1394c:	67a1                	lui	a5,0x8
   1394e:	0905                	addi	s2,s2,1
   13950:	00041c23          	sh	zero,24(s0)
   13954:	17f9                	addi	a5,a5,-2
   13956:	f927cce3          	blt	a5,s2,138ee <emdnorm+0x1ce>
   1395a:	f6095de3          	bgez	s2,138d4 <emdnorm+0x1b4>
   1395e:	00041123          	sh	zero,2(s0)
   13962:	bf9d                	j	138d8 <emdnorm+0x1b8>
   13964:	0a099963          	bnez	s3,13a16 <emdnorm+0x2f6>
   13968:	44dc                	lw	a5,12(s1)
   1396a:	0184d703          	lhu	a4,24(s1)
   1396e:	0786                	slli	a5,a5,0x1
   13970:	97a2                	add	a5,a5,s0
   13972:	0007d783          	lhu	a5,0(a5) # 8000 <register_fini-0x80b0>
   13976:	8ff9                	and	a5,a5,a4
   13978:	ff91                	bnez	a5,13894 <emdnorm+0x174>
   1397a:	f52044e3          	bgtz	s2,138c2 <emdnorm+0x1a2>
   1397e:	09000793          	li	a5,144
   13982:	00f50563          	beq	a0,a5,1398c <emdnorm+0x26c>
   13986:	8522                	mv	a0,s0
   13988:	85fff0ef          	jal	ra,131e6 <eshup1>
   1398c:	00445783          	lhu	a5,4(s0)
   13990:	fbdd                	bnez	a5,13946 <emdnorm+0x226>
   13992:	00041c23          	sh	zero,24(s0)
   13996:	fc0944e3          	bltz	s2,1395e <emdnorm+0x23e>
   1399a:	bf2d                	j	138d4 <emdnorm+0x1b4>
   1399c:	0084a803          	lw	a6,8(s1)
   139a0:	0144d603          	lhu	a2,20(s1)
   139a4:	0806                	slli	a6,a6,0x1
   139a6:	9822                	add	a6,a6,s0
   139a8:	00085883          	lhu	a7,0(a6)
   139ac:	011675b3          	and	a1,a2,a7
   139b0:	b5e9                	j	1387a <emdnorm+0x15a>
   139b2:	00041c23          	sh	zero,24(s0)
   139b6:	00041123          	sh	zero,2(s0)
   139ba:	bf39                	j	138d8 <emdnorm+0x1b8>
   139bc:	4791                	li	a5,4
   139be:	00800737          	lui	a4,0x800
   139c2:	0ff7071b          	addiw	a4,a4,255
   139c6:	1782                	slli	a5,a5,0x20
   139c8:	0791                	addi	a5,a5,4
   139ca:	c8d8                	sw	a4,20(s1)
   139cc:	10000713          	li	a4,256
   139d0:	00e49c23          	sh	a4,24(s1)
   139d4:	e49c                	sd	a5,8(s1)
   139d6:	10000713          	li	a4,256
   139da:	4791                	li	a5,4
   139dc:	bd39                	j	137fa <emdnorm+0xda>
   139de:	478d                	li	a5,3
   139e0:	80010737          	lui	a4,0x80010
   139e4:	377d                	addiw	a4,a4,-1
   139e6:	1786                	slli	a5,a5,0x21
   139e8:	079d                	addi	a5,a5,7
   139ea:	c8d8                	sw	a4,20(s1)
   139ec:	4705                	li	a4,1
   139ee:	00e49c23          	sh	a4,24(s1)
   139f2:	e49c                	sd	a5,8(s1)
   139f4:	4705                	li	a4,1
   139f6:	4799                	li	a5,6
   139f8:	b509                	j	137fa <emdnorm+0xda>
   139fa:	47ad                	li	a5,11
   139fc:	80010737          	lui	a4,0x80010
   13a00:	377d                	addiw	a4,a4,-1
   13a02:	1782                	slli	a5,a5,0x20
   13a04:	07b1                	addi	a5,a5,12
   13a06:	c8d8                	sw	a4,20(s1)
   13a08:	4705                	li	a4,1
   13a0a:	00e49c23          	sh	a4,24(s1)
   13a0e:	e49c                	sd	a5,8(s1)
   13a10:	4705                	li	a4,1
   13a12:	47ad                	li	a5,11
   13a14:	b3dd                	j	137fa <emdnorm+0xda>
   13a16:	e60a0fe3          	beqz	s4,13894 <emdnorm+0x174>
   13a1a:	b555                	j	138be <emdnorm+0x19e>
   13a1c:	4799                	li	a5,6
   13a1e:	00800737          	lui	a4,0x800
   13a22:	0ff7071b          	addiw	a4,a4,255
   13a26:	1782                	slli	a5,a5,0x20
   13a28:	0799                	addi	a5,a5,6
   13a2a:	c8d8                	sw	a4,20(s1)
   13a2c:	10000713          	li	a4,256
   13a30:	00e49c23          	sh	a4,24(s1)
   13a34:	e49c                	sd	a5,8(s1)
   13a36:	10000713          	li	a4,256
   13a3a:	4799                	li	a5,6
   13a3c:	bb7d                	j	137fa <emdnorm+0xda>

0000000000013a3e <eiremain>:
   13a3e:	711d                	addi	sp,sp,-96
   13a40:	fc4e                	sd	s3,56(sp)
   13a42:	00255983          	lhu	s3,2(a0)
   13a46:	e4a6                	sd	s1,72(sp)
   13a48:	84ae                	mv	s1,a1
   13a4a:	ec86                	sd	ra,88(sp)
   13a4c:	e8a2                	sd	s0,80(sp)
   13a4e:	e0ca                	sd	s2,64(sp)
   13a50:	f852                	sd	s4,48(sp)
   13a52:	8932                	mv	s2,a2
   13a54:	f456                	sd	s5,40(sp)
   13a56:	f05a                	sd	s6,32(sp)
   13a58:	ec5e                	sd	s7,24(sp)
   13a5a:	e862                	sd	s8,16(sp)
   13a5c:	e466                	sd	s9,8(sp)
   13a5e:	e06a                	sd	s10,0(sp)
   13a60:	8a2a                	mv	s4,a0
   13a62:	b9fff0ef          	jal	ra,13600 <enormlz>
   13a66:	0024d403          	lhu	s0,2(s1)
   13a6a:	40a989b3          	sub	s3,s3,a0
   13a6e:	8526                	mv	a0,s1
   13a70:	b91ff0ef          	jal	ra,13600 <enormlz>
   13a74:	03490a93          	addi	s5,s2,52
   13a78:	8c09                	sub	s0,s0,a0
   13a7a:	04e90713          	addi	a4,s2,78
   13a7e:	87d6                	mv	a5,s5
   13a80:	0789                	addi	a5,a5,2
   13a82:	fe079f23          	sh	zero,-2(a5)
   13a86:	fee79de3          	bne	a5,a4,13a80 <eiremain+0x42>
   13a8a:	07344b63          	blt	s0,s3,13b00 <eiremain+0xc2>
   13a8e:	004a0b93          	addi	s7,s4,4
   13a92:	00448b13          	addi	s6,s1,4
   13a96:	19fd                	addi	s3,s3,-1
   13a98:	01aa0c93          	addi	s9,s4,26
   13a9c:	00248c13          	addi	s8,s1,2
   13aa0:	875a                	mv	a4,s6
   13aa2:	87de                	mv	a5,s7
   13aa4:	0789                	addi	a5,a5,2
   13aa6:	0709                	addi	a4,a4,2
   13aa8:	ffe7d603          	lhu	a2,-2(a5)
   13aac:	ffe75683          	lhu	a3,-2(a4) # 7ffffe <__BSS_END__+0x7e1de6>
   13ab0:	06d61d63          	bne	a2,a3,13b2a <eiremain+0xec>
   13ab4:	fefc98e3          	bne	s9,a5,13aa4 <eiremain+0x66>
   13ab8:	018a0693          	addi	a3,s4,24
   13abc:	01848713          	addi	a4,s1,24
   13ac0:	4601                	li	a2,0
   13ac2:	00075783          	lhu	a5,0(a4)
   13ac6:	0006d583          	lhu	a1,0(a3)
   13aca:	1779                	addi	a4,a4,-2
   13acc:	8f91                	sub	a5,a5,a2
   13ace:	8f8d                	sub	a5,a5,a1
   13ad0:	00f71123          	sh	a5,2(a4)
   13ad4:	83c1                	srli	a5,a5,0x10
   13ad6:	16f9                	addi	a3,a3,-2
   13ad8:	0017f613          	andi	a2,a5,1
   13adc:	feec13e3          	bne	s8,a4,13ac2 <eiremain+0x84>
   13ae0:	4d05                	li	s10,1
   13ae2:	8556                	mv	a0,s5
   13ae4:	f02ff0ef          	jal	ra,131e6 <eshup1>
   13ae8:	04c95783          	lhu	a5,76(s2)
   13aec:	147d                	addi	s0,s0,-1
   13aee:	8526                	mv	a0,s1
   13af0:	00fd6d33          	or	s10,s10,a5
   13af4:	05a91623          	sh	s10,76(s2)
   13af8:	eeeff0ef          	jal	ra,131e6 <eshup1>
   13afc:	fb3412e3          	bne	s0,s3,13aa0 <eiremain+0x62>
   13b00:	86a2                	mv	a3,s0
   13b02:	6446                	ld	s0,80(sp)
   13b04:	60e6                	ld	ra,88(sp)
   13b06:	79e2                	ld	s3,56(sp)
   13b08:	7a42                	ld	s4,48(sp)
   13b0a:	7aa2                	ld	s5,40(sp)
   13b0c:	7b02                	ld	s6,32(sp)
   13b0e:	6be2                	ld	s7,24(sp)
   13b10:	6c42                	ld	s8,16(sp)
   13b12:	6ca2                	ld	s9,8(sp)
   13b14:	6d02                	ld	s10,0(sp)
   13b16:	87ca                	mv	a5,s2
   13b18:	8526                	mv	a0,s1
   13b1a:	6906                	ld	s2,64(sp)
   13b1c:	64a6                	ld	s1,72(sp)
   13b1e:	4701                	li	a4,0
   13b20:	4601                	li	a2,0
   13b22:	4581                	li	a1,0
   13b24:	6125                	addi	sp,sp,96
   13b26:	bfbff06f          	j	13720 <emdnorm>
   13b2a:	4d01                	li	s10,0
   13b2c:	fac6ebe3          	bltu	a3,a2,13ae2 <eiremain+0xa4>
   13b30:	b761                	j	13ab8 <eiremain+0x7a>

0000000000013b32 <emovo.isra.6>:
   13b32:	00055703          	lhu	a4,0(a0)
   13b36:	00255783          	lhu	a5,2(a0)
   13b3a:	cb05                	beqz	a4,13b6a <emovo.isra.6+0x38>
   13b3c:	7761                	lui	a4,0xffff8
   13b3e:	8fd9                	or	a5,a5,a4
   13b40:	00f59923          	sh	a5,18(a1)
   13b44:	00255703          	lhu	a4,2(a0)
   13b48:	67a1                	lui	a5,0x8
   13b4a:	17fd                	addi	a5,a5,-1
   13b4c:	02f70763          	beq	a4,a5,13b7a <emovo.isra.6+0x48>
   13b50:	00650793          	addi	a5,a0,6
   13b54:	05c1                	addi	a1,a1,16
   13b56:	0561                	addi	a0,a0,24
   13b58:	0789                	addi	a5,a5,2
   13b5a:	ffe7d703          	lhu	a4,-2(a5) # 7ffe <register_fini-0x80b2>
   13b5e:	15f9                	addi	a1,a1,-2
   13b60:	00e59123          	sh	a4,2(a1)
   13b64:	fea79ae3          	bne	a5,a0,13b58 <emovo.isra.6+0x26>
   13b68:	8082                	ret
   13b6a:	00f59923          	sh	a5,18(a1)
   13b6e:	00255703          	lhu	a4,2(a0)
   13b72:	67a1                	lui	a5,0x8
   13b74:	17fd                	addi	a5,a5,-1
   13b76:	fcf71de3          	bne	a4,a5,13b50 <emovo.isra.6+0x1e>
   13b7a:	00650793          	addi	a5,a0,6
   13b7e:	0569                	addi	a0,a0,26
   13b80:	0007d703          	lhu	a4,0(a5) # 8000 <register_fini-0x80b0>
   13b84:	0789                	addi	a5,a5,2
   13b86:	e31d                	bnez	a4,13bac <emovo.isra.6+0x7a>
   13b88:	fea79ce3          	bne	a5,a0,13b80 <emovo.isra.6+0x4e>
   13b8c:	01258713          	addi	a4,a1,18
   13b90:	87ae                	mv	a5,a1
   13b92:	0789                	addi	a5,a5,2
   13b94:	fe079f23          	sh	zero,-2(a5)
   13b98:	fef71de3          	bne	a4,a5,13b92 <emovo.isra.6+0x60>
   13b9c:	0125d783          	lhu	a5,18(a1)
   13ba0:	6721                	lui	a4,0x8
   13ba2:	177d                	addi	a4,a4,-1
   13ba4:	8fd9                	or	a5,a5,a4
   13ba6:	00f59923          	sh	a5,18(a1)
   13baa:	8082                	ret
   13bac:	01058713          	addi	a4,a1,16
   13bb0:	87ae                	mv	a5,a1
   13bb2:	0789                	addi	a5,a5,2
   13bb4:	fe079f23          	sh	zero,-2(a5)
   13bb8:	fee79de3          	bne	a5,a4,13bb2 <emovo.isra.6+0x80>
   13bbc:	7fffc7b7          	lui	a5,0x7fffc
   13bc0:	c99c                	sw	a5,16(a1)
   13bc2:	8082                	ret

0000000000013bc4 <emul>:
   13bc4:	7131                	addi	sp,sp,-192
   13bc6:	e556                	sd	s5,136(sp)
   13bc8:	01255a83          	lhu	s5,18(a0)
   13bcc:	67a1                	lui	a5,0x8
   13bce:	17fd                	addi	a5,a5,-1
   13bd0:	f922                	sd	s0,176(sp)
   13bd2:	f526                	sd	s1,168(sp)
   13bd4:	f14a                	sd	s2,160(sp)
   13bd6:	ed4e                	sd	s3,152(sp)
   13bd8:	e15a                	sd	s6,128(sp)
   13bda:	fd06                	sd	ra,184(sp)
   13bdc:	e952                	sd	s4,144(sp)
   13bde:	fcde                	sd	s7,120(sp)
   13be0:	f8e2                	sd	s8,112(sp)
   13be2:	f4e6                	sd	s9,104(sp)
   13be4:	0157fb33          	and	s6,a5,s5
   13be8:	84aa                	mv	s1,a0
   13bea:	892e                	mv	s2,a1
   13bec:	8432                	mv	s0,a2
   13bee:	89b6                	mv	s3,a3
   13bf0:	08fb1663          	bne	s6,a5,13c7c <emul+0xb8>
   13bf4:	ec0ff0ef          	jal	ra,132b4 <eisnan.part.0>
   13bf8:	18051a63          	bnez	a0,13d8c <emul+0x1c8>
   13bfc:	01295a03          	lhu	s4,18(s2)
   13c00:	014b77b3          	and	a5,s6,s4
   13c04:	19679f63          	bne	a5,s6,13da2 <emul+0x1de>
   13c08:	854a                	mv	a0,s2
   13c0a:	eaaff0ef          	jal	ra,132b4 <eisnan.part.0>
   13c0e:	e149                	bnez	a0,13c90 <emul+0xcc>
   13c10:	8526                	mv	a0,s1
   13c12:	8a3ff0ef          	jal	ra,134b4 <eisinf.part.1>
   13c16:	18051a63          	bnez	a0,13daa <emul+0x1e6>
   13c1a:	67a1                	lui	a5,0x8
   13c1c:	17fd                	addi	a5,a5,-1
   13c1e:	0147fa33          	and	s4,a5,s4
   13c22:	1a42                	slli	s4,s4,0x30
   13c24:	030a5a13          	srli	s4,s4,0x30
   13c28:	20fa1863          	bne	s4,a5,13e38 <emul+0x274>
   13c2c:	854a                	mv	a0,s2
   13c2e:	887ff0ef          	jal	ra,134b4 <eisinf.part.1>
   13c32:	24051b63          	bnez	a0,13e88 <emul+0x2c4>
   13c36:	0124d783          	lhu	a5,18(s1)
   13c3a:	00fa77b3          	and	a5,s4,a5
   13c3e:	19478163          	beq	a5,s4,13dc0 <emul+0x1fc>
   13c42:	8526                	mv	a0,s1
   13c44:	858a                	mv	a1,sp
   13c46:	ee0ff0ef          	jal	ra,13326 <emovi>
   13c4a:	854a                	mv	a0,s2
   13c4c:	100c                	addi	a1,sp,32
   13c4e:	ed8ff0ef          	jal	ra,13326 <emovi>
   13c52:	00215483          	lhu	s1,2(sp)
   13c56:	02215903          	lhu	s2,34(sp)
   13c5a:	e0b5                	bnez	s1,13cbe <emul+0xfa>
   13c5c:	005c                	addi	a5,sp,4
   13c5e:	0834                	addi	a3,sp,24
   13c60:	20d78463          	beq	a5,a3,13e68 <emul+0x2a4>
