
mac.elf:     file format elf64-littleriscv


Disassembly of section .text:

00000000000100b0 <register_fini>:
   100b0:	000007b7          	lui	a5,0x0
   100b4:	00078793          	mv	a5,a5
   100b8:	00078863          	beqz	a5,100c8 <register_fini+0x18>
   100bc:	00010537          	lui	a0,0x10
   100c0:	6c850513          	addi	a0,a0,1736 # 106c8 <__libc_fini_array>
   100c4:	5c00006f          	j	10684 <atexit>
   100c8:	00008067          	ret

00000000000100cc <_start>:
   100cc:	00014197          	auipc	gp,0x14
   100d0:	d8418193          	addi	gp,gp,-636 # 23e50 <__global_pointer$>
   100d4:	73018513          	addi	a0,gp,1840 # 24580 <_edata>
   100d8:	00014617          	auipc	a2,0x14
   100dc:	57860613          	addi	a2,a2,1400 # 24650 <__BSS_END__>
   100e0:	40a60633          	sub	a2,a2,a0
   100e4:	00000593          	li	a1,0
   100e8:	6dc000ef          	jal	ra,107c4 <memset>
   100ec:	00000517          	auipc	a0,0x0
   100f0:	5dc50513          	addi	a0,a0,1500 # 106c8 <__libc_fini_array>
   100f4:	590000ef          	jal	ra,10684 <atexit>
   100f8:	62c000ef          	jal	ra,10724 <__libc_init_array>
   100fc:	00012503          	lw	a0,0(sp)
   10100:	00810593          	addi	a1,sp,8
   10104:	00000613          	li	a2,0
   10108:	0f0000ef          	jal	ra,101f8 <main>
   1010c:	58c0006f          	j	10698 <exit>

0000000000010110 <_fini>:
   10110:	00008067          	ret

0000000000010114 <deregister_tm_clones>:
   10114:	6d818713          	addi	a4,gp,1752 # 24528 <__SDATA_BEGIN__>
   10118:	6d818793          	addi	a5,gp,1752 # 24528 <__SDATA_BEGIN__>
   1011c:	00e78c63          	beq	a5,a4,10134 <deregister_tm_clones+0x20>
   10120:	00000337          	lui	t1,0x0
   10124:	00030313          	mv	t1,t1
   10128:	00030663          	beqz	t1,10134 <deregister_tm_clones+0x20>
   1012c:	6d818513          	addi	a0,gp,1752 # 24528 <__SDATA_BEGIN__>
   10130:	00030067          	jr	t1 # 0 <register_fini-0x100b0>
   10134:	00008067          	ret

0000000000010138 <register_tm_clones>:
   10138:	6d818593          	addi	a1,gp,1752 # 24528 <__SDATA_BEGIN__>
   1013c:	6d818793          	addi	a5,gp,1752 # 24528 <__SDATA_BEGIN__>
   10140:	40f585b3          	sub	a1,a1,a5
   10144:	4035d593          	srai	a1,a1,0x3
   10148:	03f5d793          	srli	a5,a1,0x3f
   1014c:	00b785b3          	add	a1,a5,a1
   10150:	4015d593          	srai	a1,a1,0x1
   10154:	00058c63          	beqz	a1,1016c <register_tm_clones+0x34>
   10158:	00000337          	lui	t1,0x0
   1015c:	00030313          	mv	t1,t1
   10160:	00030663          	beqz	t1,1016c <register_tm_clones+0x34>
   10164:	6d818513          	addi	a0,gp,1752 # 24528 <__SDATA_BEGIN__>
   10168:	00030067          	jr	t1 # 0 <register_fini-0x100b0>
   1016c:	00008067          	ret

0000000000010170 <__do_global_dtors_aux>:
   10170:	7581c703          	lbu	a4,1880(gp) # 245a8 <completed.5464>
   10174:	04071663          	bnez	a4,101c0 <__do_global_dtors_aux+0x50>
   10178:	ff010113          	addi	sp,sp,-16
   1017c:	00813023          	sd	s0,0(sp)
   10180:	00113423          	sd	ra,8(sp)
   10184:	00078413          	mv	s0,a5
   10188:	f8dff0ef          	jal	ra,10114 <deregister_tm_clones>
   1018c:	000007b7          	lui	a5,0x0
   10190:	00078793          	mv	a5,a5
   10194:	00078a63          	beqz	a5,101a8 <__do_global_dtors_aux+0x38>
   10198:	00023537          	lui	a0,0x23
   1019c:	34c50513          	addi	a0,a0,844 # 2334c <__FRAME_END__>
   101a0:	00000097          	auipc	ra,0x0
   101a4:	000000e7          	jalr	zero # 0 <register_fini-0x100b0>
   101a8:	00100793          	li	a5,1
   101ac:	74f18c23          	sb	a5,1880(gp) # 245a8 <completed.5464>
   101b0:	00813083          	ld	ra,8(sp)
   101b4:	00013403          	ld	s0,0(sp)
   101b8:	01010113          	addi	sp,sp,16
   101bc:	00008067          	ret
   101c0:	00008067          	ret

00000000000101c4 <frame_dummy>:
   101c4:	000007b7          	lui	a5,0x0
   101c8:	00078793          	mv	a5,a5
   101cc:	02078463          	beqz	a5,101f4 <frame_dummy+0x30>
   101d0:	00023537          	lui	a0,0x23
   101d4:	ff010113          	addi	sp,sp,-16
   101d8:	76018593          	addi	a1,gp,1888 # 245b0 <object.5469>
   101dc:	34c50513          	addi	a0,a0,844 # 2334c <__FRAME_END__>
   101e0:	00113423          	sd	ra,8(sp)
   101e4:	00000097          	auipc	ra,0x0
   101e8:	000000e7          	jalr	zero # 0 <register_fini-0x100b0>
   101ec:	00813083          	ld	ra,8(sp)
   101f0:	01010113          	addi	sp,sp,16
   101f4:	f45ff06f          	j	10138 <register_tm_clones>

00000000000101f8 <main>:
   101f8:	fc010113          	addi	sp,sp,-64
   101fc:	02113c23          	sd	ra,56(sp)
   10200:	02813823          	sd	s0,48(sp)
   10204:	04010413          	addi	s0,sp,64
   10208:	000217b7          	lui	a5,0x21
   1020c:	5887a783          	lw	a5,1416(a5) # 21588 <__moddi3+0x68>
   10210:	fef42223          	sw	a5,-28(s0)
   10214:	000217b7          	lui	a5,0x21
   10218:	58c7a783          	lw	a5,1420(a5) # 2158c <__moddi3+0x6c>
   1021c:	fef42023          	sw	a5,-32(s0)
   10220:	fe042583          	lw	a1,-32(s0)
   10224:	fe442503          	lw	a0,-28(s0)
   10228:	138000ef          	jal	ra,10360 <__mulsf3>
   1022c:	00050793          	mv	a5,a0
   10230:	fcf42e23          	sw	a5,-36(s0)
   10234:	fc042c23          	sw	zero,-40(s0)
   10238:	fc042a23          	sw	zero,-44(s0)
   1023c:	000237b7          	lui	a5,0x23
   10240:	fd442703          	lw	a4,-44(s0)
   10244:	fd842683          	lw	a3,-40(s0)
   10248:	00269693          	slli	a3,a3,0x2
   1024c:	00e68733          	add	a4,a3,a4
   10250:	00271713          	slli	a4,a4,0x2
   10254:	3e878793          	addi	a5,a5,1000 # 233e8 <ref_result>
   10258:	00f707b3          	add	a5,a4,a5
   1025c:	0007a783          	lw	a5,0(a5)
   10260:	fcf42823          	sw	a5,-48(s0)
   10264:	fe042623          	sw	zero,-20(s0)
   10268:	fe042423          	sw	zero,-24(s0)
   1026c:	0880006f          	j	102f4 <main+0xfc>
   10270:	000237b7          	lui	a5,0x23
   10274:	fe842703          	lw	a4,-24(s0)
   10278:	fd842683          	lw	a3,-40(s0)
   1027c:	00269693          	slli	a3,a3,0x2
   10280:	00e68733          	add	a4,a3,a4
   10284:	00271713          	slli	a4,a4,0x2
   10288:	36878793          	addi	a5,a5,872 # 23368 <__fini_array_end>
   1028c:	00f707b3          	add	a5,a4,a5
   10290:	0007a783          	lw	a5,0(a5)
   10294:	fcf42623          	sw	a5,-52(s0)
   10298:	000237b7          	lui	a5,0x23
   1029c:	fd442703          	lw	a4,-44(s0)
   102a0:	fe842683          	lw	a3,-24(s0)
   102a4:	00269693          	slli	a3,a3,0x2
   102a8:	00e68733          	add	a4,a3,a4
   102ac:	00271713          	slli	a4,a4,0x2
   102b0:	3a878793          	addi	a5,a5,936 # 233a8 <byte_matrix_b>
   102b4:	00f707b3          	add	a5,a4,a5
   102b8:	0007a783          	lw	a5,0(a5)
   102bc:	fcf42423          	sw	a5,-56(s0)
   102c0:	fcc42783          	lw	a5,-52(s0)
   102c4:	fc842703          	lw	a4,-56(s0)
   102c8:	00070593          	mv	a1,a4
   102cc:	00078513          	mv	a0,a5
   102d0:	354000ef          	jal	ra,10624 <__muldi3>
   102d4:	00050793          	mv	a5,a0
   102d8:	0007879b          	sext.w	a5,a5
   102dc:	fec42703          	lw	a4,-20(s0)
   102e0:	00f707bb          	addw	a5,a4,a5
   102e4:	fef42623          	sw	a5,-20(s0)
   102e8:	fe842783          	lw	a5,-24(s0)
   102ec:	0017879b          	addiw	a5,a5,1
   102f0:	fef42423          	sw	a5,-24(s0)
   102f4:	fe842783          	lw	a5,-24(s0)
   102f8:	0007871b          	sext.w	a4,a5
   102fc:	00300793          	li	a5,3
   10300:	f6e7d8e3          	bge	a5,a4,10270 <main+0x78>
   10304:	fec42703          	lw	a4,-20(s0)
   10308:	fd042783          	lw	a5,-48(s0)
   1030c:	0007071b          	sext.w	a4,a4
   10310:	0007879b          	sext.w	a5,a5
   10314:	02f70463          	beq	a4,a5,1033c <main+0x144>
   10318:	fd042703          	lw	a4,-48(s0)
   1031c:	fec42783          	lw	a5,-20(s0)
   10320:	00070613          	mv	a2,a4
   10324:	00078593          	mv	a1,a5
   10328:	000217b7          	lui	a5,0x21
   1032c:	56078513          	addi	a0,a5,1376 # 21560 <__moddi3+0x40>
   10330:	5b4000ef          	jal	ra,108e4 <printf>
   10334:	00100793          	li	a5,1
   10338:	0140006f          	j	1034c <main+0x154>
   1033c:	000217b7          	lui	a5,0x21
   10340:	58078513          	addi	a0,a5,1408 # 21580 <__moddi3+0x60>
   10344:	6c0000ef          	jal	ra,10a04 <puts>
   10348:	00000793          	li	a5,0
   1034c:	00078513          	mv	a0,a5
   10350:	03813083          	ld	ra,56(sp)
   10354:	03013403          	ld	s0,48(sp)
   10358:	04010113          	addi	sp,sp,64
   1035c:	00008067          	ret

0000000000010360 <__mulsf3>:
   10360:	fb010113          	addi	sp,sp,-80
   10364:	02913c23          	sd	s1,56(sp)
   10368:	0175549b          	srliw	s1,a0,0x17
   1036c:	03213823          	sd	s2,48(sp)
   10370:	03313423          	sd	s3,40(sp)
   10374:	01613823          	sd	s6,16(sp)
   10378:	02951913          	slli	s2,a0,0x29
   1037c:	04113423          	sd	ra,72(sp)
   10380:	04813023          	sd	s0,64(sp)
   10384:	03413023          	sd	s4,32(sp)
   10388:	01513c23          	sd	s5,24(sp)
   1038c:	01713423          	sd	s7,8(sp)
   10390:	0ff4f493          	andi	s1,s1,255
   10394:	00058b13          	mv	s6,a1
   10398:	02995913          	srli	s2,s2,0x29
   1039c:	01f5599b          	srliw	s3,a0,0x1f
   103a0:	08048663          	beqz	s1,1042c <__mulsf3+0xcc>
   103a4:	0ff00793          	li	a5,255
   103a8:	0af48463          	beq	s1,a5,10450 <__mulsf3+0xf0>
   103ac:	00391913          	slli	s2,s2,0x3
   103b0:	040007b7          	lui	a5,0x4000
   103b4:	00f96933          	or	s2,s2,a5
   103b8:	f8148493          	addi	s1,s1,-127
   103bc:	00000a93          	li	s5,0
   103c0:	017b551b          	srliw	a0,s6,0x17
   103c4:	029b1413          	slli	s0,s6,0x29
   103c8:	0ff57513          	andi	a0,a0,255
   103cc:	02945413          	srli	s0,s0,0x29
   103d0:	01fb5b1b          	srliw	s6,s6,0x1f
   103d4:	08050e63          	beqz	a0,10470 <__mulsf3+0x110>
   103d8:	0ff00793          	li	a5,255
   103dc:	0af50c63          	beq	a0,a5,10494 <__mulsf3+0x134>
   103e0:	00341413          	slli	s0,s0,0x3
   103e4:	040005b7          	lui	a1,0x4000
   103e8:	00b46433          	or	s0,s0,a1
   103ec:	f8150513          	addi	a0,a0,-127
   103f0:	00000793          	li	a5,0
   103f4:	002a9713          	slli	a4,s5,0x2
   103f8:	00f76733          	or	a4,a4,a5
   103fc:	00a484b3          	add	s1,s1,a0
   10400:	fff70713          	addi	a4,a4,-1
   10404:	00e00693          	li	a3,14
   10408:	0169ca33          	xor	s4,s3,s6
   1040c:	00148b93          	addi	s7,s1,1
   10410:	0ae6e263          	bltu	a3,a4,104b4 <__mulsf3+0x154>
   10414:	000216b7          	lui	a3,0x21
   10418:	00271713          	slli	a4,a4,0x2
   1041c:	59068693          	addi	a3,a3,1424 # 21590 <__moddi3+0x70>
   10420:	00d70733          	add	a4,a4,a3
   10424:	00072703          	lw	a4,0(a4)
   10428:	00070067          	jr	a4
   1042c:	02090c63          	beqz	s2,10464 <__mulsf3+0x104>
   10430:	00090513          	mv	a0,s2
   10434:	214000ef          	jal	ra,10648 <__clzdi2>
   10438:	0005051b          	sext.w	a0,a0
   1043c:	fdb5079b          	addiw	a5,a0,-37
   10440:	faa00493          	li	s1,-86
   10444:	00f91933          	sll	s2,s2,a5
   10448:	40a484b3          	sub	s1,s1,a0
   1044c:	f71ff06f          	j	103bc <__mulsf3+0x5c>
   10450:	0ff00493          	li	s1,255
   10454:	00200a93          	li	s5,2
   10458:	f60904e3          	beqz	s2,103c0 <__mulsf3+0x60>
   1045c:	00300a93          	li	s5,3
   10460:	f61ff06f          	j	103c0 <__mulsf3+0x60>
   10464:	00000493          	li	s1,0
   10468:	00100a93          	li	s5,1
   1046c:	f55ff06f          	j	103c0 <__mulsf3+0x60>
   10470:	02040c63          	beqz	s0,104a8 <__mulsf3+0x148>
   10474:	00040513          	mv	a0,s0
   10478:	1d0000ef          	jal	ra,10648 <__clzdi2>
   1047c:	0005051b          	sext.w	a0,a0
   10480:	fdb5079b          	addiw	a5,a0,-37
   10484:	00f41433          	sll	s0,s0,a5
   10488:	faa00793          	li	a5,-86
   1048c:	40a78533          	sub	a0,a5,a0
   10490:	f61ff06f          	j	103f0 <__mulsf3+0x90>
   10494:	0ff00513          	li	a0,255
   10498:	00200793          	li	a5,2
   1049c:	f4040ce3          	beqz	s0,103f4 <__mulsf3+0x94>
   104a0:	00300793          	li	a5,3
   104a4:	f51ff06f          	j	103f4 <__mulsf3+0x94>
   104a8:	00000513          	li	a0,0
   104ac:	00100793          	li	a5,1
   104b0:	f45ff06f          	j	103f4 <__mulsf3+0x94>
   104b4:	00040593          	mv	a1,s0
   104b8:	00090513          	mv	a0,s2
   104bc:	168000ef          	jal	ra,10624 <__muldi3>
   104c0:	01a55413          	srli	s0,a0,0x1a
   104c4:	02651513          	slli	a0,a0,0x26
   104c8:	00a03533          	snez	a0,a0
   104cc:	00a46433          	or	s0,s0,a0
   104d0:	02441793          	slli	a5,s0,0x24
   104d4:	0807dc63          	bgez	a5,1056c <__mulsf3+0x20c>
   104d8:	00145793          	srli	a5,s0,0x1
   104dc:	00147413          	andi	s0,s0,1
   104e0:	0087e433          	or	s0,a5,s0
   104e4:	07fb8793          	addi	a5,s7,127
   104e8:	08f05663          	blez	a5,10574 <__mulsf3+0x214>
   104ec:	00747713          	andi	a4,s0,7
   104f0:	00070a63          	beqz	a4,10504 <__mulsf3+0x1a4>
   104f4:	00f47713          	andi	a4,s0,15
   104f8:	00400693          	li	a3,4
   104fc:	00d70463          	beq	a4,a3,10504 <__mulsf3+0x1a4>
   10500:	00440413          	addi	s0,s0,4
   10504:	02441713          	slli	a4,s0,0x24
   10508:	00075a63          	bgez	a4,1051c <__mulsf3+0x1bc>
   1050c:	f80007b7          	lui	a5,0xf8000
   10510:	fff78793          	addi	a5,a5,-1 # fffffffff7ffffff <__BSS_END__+0xfffffffff7fdb9af>
   10514:	00f47433          	and	s0,s0,a5
   10518:	080b8793          	addi	a5,s7,128
   1051c:	0fe00713          	li	a4,254
   10520:	00345413          	srli	s0,s0,0x3
   10524:	0af75c63          	bge	a4,a5,105dc <__mulsf3+0x27c>
   10528:	00000413          	li	s0,0
   1052c:	0ff00793          	li	a5,255
   10530:	0ac0006f          	j	105dc <__mulsf3+0x27c>
   10534:	00098a13          	mv	s4,s3
   10538:	00090413          	mv	s0,s2
   1053c:	000a8793          	mv	a5,s5
   10540:	00200713          	li	a4,2
   10544:	fee782e3          	beq	a5,a4,10528 <__mulsf3+0x1c8>
   10548:	00300713          	li	a4,3
   1054c:	08e78263          	beq	a5,a4,105d0 <__mulsf3+0x270>
   10550:	00100713          	li	a4,1
   10554:	f8e798e3          	bne	a5,a4,104e4 <__mulsf3+0x184>
   10558:	00000413          	li	s0,0
   1055c:	00000793          	li	a5,0
   10560:	07c0006f          	j	105dc <__mulsf3+0x27c>
   10564:	000b0a13          	mv	s4,s6
   10568:	fd9ff06f          	j	10540 <__mulsf3+0x1e0>
   1056c:	00048b93          	mv	s7,s1
   10570:	f75ff06f          	j	104e4 <__mulsf3+0x184>
   10574:	00100713          	li	a4,1
   10578:	40f707b3          	sub	a5,a4,a5
   1057c:	01b00713          	li	a4,27
   10580:	fcf74ce3          	blt	a4,a5,10558 <__mulsf3+0x1f8>
   10584:	0007879b          	sext.w	a5,a5
   10588:	04000713          	li	a4,64
   1058c:	00f455b3          	srl	a1,s0,a5
   10590:	40f707bb          	subw	a5,a4,a5
   10594:	00f41433          	sll	s0,s0,a5
   10598:	00803433          	snez	s0,s0
   1059c:	0085e433          	or	s0,a1,s0
   105a0:	00747793          	andi	a5,s0,7
   105a4:	00078a63          	beqz	a5,105b8 <__mulsf3+0x258>
   105a8:	00f47793          	andi	a5,s0,15
   105ac:	00400713          	li	a4,4
   105b0:	00e78463          	beq	a5,a4,105b8 <__mulsf3+0x258>
   105b4:	00440413          	addi	s0,s0,4
   105b8:	02541793          	slli	a5,s0,0x25
   105bc:	00345413          	srli	s0,s0,0x3
   105c0:	f807dee3          	bgez	a5,1055c <__mulsf3+0x1fc>
   105c4:	00000413          	li	s0,0
   105c8:	00100793          	li	a5,1
   105cc:	0100006f          	j	105dc <__mulsf3+0x27c>
   105d0:	00400437          	lui	s0,0x400
   105d4:	0ff00793          	li	a5,255
   105d8:	00000a13          	li	s4,0
   105dc:	02941413          	slli	s0,s0,0x29
   105e0:	0ff7f793          	andi	a5,a5,255
   105e4:	0177979b          	slliw	a5,a5,0x17
   105e8:	02945413          	srli	s0,s0,0x29
   105ec:	01fa151b          	slliw	a0,s4,0x1f
   105f0:	00f46433          	or	s0,s0,a5
   105f4:	00a46533          	or	a0,s0,a0
   105f8:	04813083          	ld	ra,72(sp)
   105fc:	04013403          	ld	s0,64(sp)
   10600:	03813483          	ld	s1,56(sp)
   10604:	03013903          	ld	s2,48(sp)
   10608:	02813983          	ld	s3,40(sp)
   1060c:	02013a03          	ld	s4,32(sp)
   10610:	01813a83          	ld	s5,24(sp)
   10614:	01013b03          	ld	s6,16(sp)
   10618:	00813b83          	ld	s7,8(sp)
   1061c:	05010113          	addi	sp,sp,80
   10620:	00008067          	ret

0000000000010624 <__muldi3>:
   10624:	00050613          	mv	a2,a0
   10628:	00000513          	li	a0,0
   1062c:	0015f693          	andi	a3,a1,1
   10630:	00068463          	beqz	a3,10638 <__muldi3+0x14>
   10634:	00c50533          	add	a0,a0,a2
   10638:	0015d593          	srli	a1,a1,0x1
   1063c:	00161613          	slli	a2,a2,0x1
   10640:	fe0596e3          	bnez	a1,1062c <__muldi3+0x8>
   10644:	00008067          	ret

0000000000010648 <__clzdi2>:
   10648:	03800793          	li	a5,56
   1064c:	00f55733          	srl	a4,a0,a5
   10650:	0ff77713          	andi	a4,a4,255
   10654:	00071663          	bnez	a4,10660 <__clzdi2+0x18>
   10658:	ff878793          	addi	a5,a5,-8
   1065c:	fe0798e3          	bnez	a5,1064c <__clzdi2+0x4>
   10660:	04000713          	li	a4,64
   10664:	40f70733          	sub	a4,a4,a5
   10668:	00f557b3          	srl	a5,a0,a5
   1066c:	00021537          	lui	a0,0x21
   10670:	5d050513          	addi	a0,a0,1488 # 215d0 <__clz_tab>
   10674:	00a787b3          	add	a5,a5,a0
   10678:	0007c503          	lbu	a0,0(a5)
   1067c:	40a7053b          	subw	a0,a4,a0
   10680:	00008067          	ret

0000000000010684 <atexit>:
   10684:	00050593          	mv	a1,a0
   10688:	00000693          	li	a3,0
   1068c:	00000613          	li	a2,0
   10690:	00000513          	li	a0,0
   10694:	5090206f          	j	1339c <__register_exitproc>

0000000000010698 <exit>:
   10698:	ff010113          	addi	sp,sp,-16
   1069c:	00000593          	li	a1,0
   106a0:	00813023          	sd	s0,0(sp)
   106a4:	00113423          	sd	ra,8(sp)
   106a8:	00050413          	mv	s0,a0
   106ac:	599020ef          	jal	ra,13444 <__call_exitprocs>
   106b0:	7081b503          	ld	a0,1800(gp) # 24558 <_global_impure_ptr>
   106b4:	05853783          	ld	a5,88(a0)
   106b8:	00078463          	beqz	a5,106c0 <exit+0x28>
   106bc:	000780e7          	jalr	a5
   106c0:	00040513          	mv	a0,s0
   106c4:	6810e0ef          	jal	ra,1f544 <_exit>

00000000000106c8 <__libc_fini_array>:
   106c8:	fe010113          	addi	sp,sp,-32
   106cc:	00813823          	sd	s0,16(sp)
   106d0:	000237b7          	lui	a5,0x23
   106d4:	00023437          	lui	s0,0x23
   106d8:	36040413          	addi	s0,s0,864 # 23360 <__init_array_end>
   106dc:	36878793          	addi	a5,a5,872 # 23368 <__fini_array_end>
   106e0:	408787b3          	sub	a5,a5,s0
   106e4:	00913423          	sd	s1,8(sp)
   106e8:	00113c23          	sd	ra,24(sp)
   106ec:	4037d493          	srai	s1,a5,0x3
   106f0:	02048063          	beqz	s1,10710 <__libc_fini_array+0x48>
   106f4:	ff878793          	addi	a5,a5,-8
   106f8:	00878433          	add	s0,a5,s0
   106fc:	00043783          	ld	a5,0(s0)
   10700:	fff48493          	addi	s1,s1,-1
   10704:	ff840413          	addi	s0,s0,-8
   10708:	000780e7          	jalr	a5
   1070c:	fe0498e3          	bnez	s1,106fc <__libc_fini_array+0x34>
   10710:	01013403          	ld	s0,16(sp)
   10714:	01813083          	ld	ra,24(sp)
   10718:	00813483          	ld	s1,8(sp)
   1071c:	02010113          	addi	sp,sp,32
   10720:	9f1ff06f          	j	10110 <_fini>

0000000000010724 <__libc_init_array>:
   10724:	fe010113          	addi	sp,sp,-32
   10728:	00813823          	sd	s0,16(sp)
   1072c:	01213023          	sd	s2,0(sp)
   10730:	00023437          	lui	s0,0x23
   10734:	00023937          	lui	s2,0x23
   10738:	35040793          	addi	a5,s0,848 # 23350 <__init_array_start>
   1073c:	35090913          	addi	s2,s2,848 # 23350 <__init_array_start>
   10740:	40f90933          	sub	s2,s2,a5
   10744:	00113c23          	sd	ra,24(sp)
   10748:	00913423          	sd	s1,8(sp)
   1074c:	40395913          	srai	s2,s2,0x3
   10750:	02090063          	beqz	s2,10770 <__libc_init_array+0x4c>
   10754:	35040413          	addi	s0,s0,848
   10758:	00000493          	li	s1,0
   1075c:	00043783          	ld	a5,0(s0)
   10760:	00148493          	addi	s1,s1,1
   10764:	00840413          	addi	s0,s0,8
   10768:	000780e7          	jalr	a5
   1076c:	fe9918e3          	bne	s2,s1,1075c <__libc_init_array+0x38>
   10770:	9a1ff0ef          	jal	ra,10110 <_fini>
   10774:	00023437          	lui	s0,0x23
   10778:	00023937          	lui	s2,0x23
   1077c:	35040793          	addi	a5,s0,848 # 23350 <__init_array_start>
   10780:	36090913          	addi	s2,s2,864 # 23360 <__init_array_end>
   10784:	40f90933          	sub	s2,s2,a5
   10788:	40395913          	srai	s2,s2,0x3
   1078c:	02090063          	beqz	s2,107ac <__libc_init_array+0x88>
   10790:	35040413          	addi	s0,s0,848
   10794:	00000493          	li	s1,0
   10798:	00043783          	ld	a5,0(s0)
   1079c:	00148493          	addi	s1,s1,1
   107a0:	00840413          	addi	s0,s0,8
   107a4:	000780e7          	jalr	a5
   107a8:	fe9918e3          	bne	s2,s1,10798 <__libc_init_array+0x74>
   107ac:	01813083          	ld	ra,24(sp)
   107b0:	01013403          	ld	s0,16(sp)
   107b4:	00813483          	ld	s1,8(sp)
   107b8:	00013903          	ld	s2,0(sp)
   107bc:	02010113          	addi	sp,sp,32
   107c0:	00008067          	ret

00000000000107c4 <memset>:
   107c4:	00f00313          	li	t1,15
   107c8:	00050713          	mv	a4,a0
   107cc:	02c37a63          	bgeu	t1,a2,10800 <memset+0x3c>
   107d0:	00f77793          	andi	a5,a4,15
   107d4:	0a079063          	bnez	a5,10874 <memset+0xb0>
   107d8:	06059e63          	bnez	a1,10854 <memset+0x90>
   107dc:	ff067693          	andi	a3,a2,-16
   107e0:	00f67613          	andi	a2,a2,15
   107e4:	00e686b3          	add	a3,a3,a4
   107e8:	00b73023          	sd	a1,0(a4)
   107ec:	00b73423          	sd	a1,8(a4)
   107f0:	01070713          	addi	a4,a4,16
   107f4:	fed76ae3          	bltu	a4,a3,107e8 <memset+0x24>
   107f8:	00061463          	bnez	a2,10800 <memset+0x3c>
   107fc:	00008067          	ret
   10800:	40c306b3          	sub	a3,t1,a2
   10804:	00269693          	slli	a3,a3,0x2
   10808:	00000297          	auipc	t0,0x0
   1080c:	005686b3          	add	a3,a3,t0
   10810:	00c68067          	jr	12(a3)
   10814:	00b70723          	sb	a1,14(a4)
   10818:	00b706a3          	sb	a1,13(a4)
   1081c:	00b70623          	sb	a1,12(a4)
   10820:	00b705a3          	sb	a1,11(a4)
   10824:	00b70523          	sb	a1,10(a4)
   10828:	00b704a3          	sb	a1,9(a4)
   1082c:	00b70423          	sb	a1,8(a4)
   10830:	00b703a3          	sb	a1,7(a4)
   10834:	00b70323          	sb	a1,6(a4)
   10838:	00b702a3          	sb	a1,5(a4)
   1083c:	00b70223          	sb	a1,4(a4)
   10840:	00b701a3          	sb	a1,3(a4)
   10844:	00b70123          	sb	a1,2(a4)
   10848:	00b700a3          	sb	a1,1(a4)
   1084c:	00b70023          	sb	a1,0(a4)
   10850:	00008067          	ret
   10854:	0ff5f593          	andi	a1,a1,255
   10858:	00859693          	slli	a3,a1,0x8
   1085c:	00d5e5b3          	or	a1,a1,a3
   10860:	01059693          	slli	a3,a1,0x10
   10864:	00d5e5b3          	or	a1,a1,a3
   10868:	02059693          	slli	a3,a1,0x20
   1086c:	00d5e5b3          	or	a1,a1,a3
   10870:	f6dff06f          	j	107dc <memset+0x18>
   10874:	00279693          	slli	a3,a5,0x2
   10878:	00000297          	auipc	t0,0x0
   1087c:	005686b3          	add	a3,a3,t0
   10880:	00008293          	mv	t0,ra
   10884:	f98680e7          	jalr	-104(a3)
   10888:	00028093          	mv	ra,t0
   1088c:	ff078793          	addi	a5,a5,-16
   10890:	40f70733          	sub	a4,a4,a5
   10894:	00f60633          	add	a2,a2,a5
   10898:	f6c374e3          	bgeu	t1,a2,10800 <memset+0x3c>
   1089c:	f3dff06f          	j	107d8 <memset+0x14>

00000000000108a0 <_printf_r>:
   108a0:	fb010113          	addi	sp,sp,-80
   108a4:	02c13023          	sd	a2,32(sp)
   108a8:	02d13423          	sd	a3,40(sp)
   108ac:	02f13c23          	sd	a5,56(sp)
   108b0:	02e13823          	sd	a4,48(sp)
   108b4:	05013023          	sd	a6,64(sp)
   108b8:	05113423          	sd	a7,72(sp)
   108bc:	00058613          	mv	a2,a1
   108c0:	01053583          	ld	a1,16(a0)
   108c4:	02010793          	addi	a5,sp,32
   108c8:	00078693          	mv	a3,a5
   108cc:	00113c23          	sd	ra,24(sp)
   108d0:	00f13423          	sd	a5,8(sp)
   108d4:	208000ef          	jal	ra,10adc <_vfprintf_r>
   108d8:	01813083          	ld	ra,24(sp)
   108dc:	05010113          	addi	sp,sp,80
   108e0:	00008067          	ret

00000000000108e4 <printf>:
   108e4:	7181b303          	ld	t1,1816(gp) # 24568 <_impure_ptr>
   108e8:	fa010113          	addi	sp,sp,-96
   108ec:	02c13823          	sd	a2,48(sp)
   108f0:	02d13c23          	sd	a3,56(sp)
   108f4:	04f13423          	sd	a5,72(sp)
   108f8:	02b13423          	sd	a1,40(sp)
   108fc:	04e13023          	sd	a4,64(sp)
   10900:	05013823          	sd	a6,80(sp)
   10904:	05113c23          	sd	a7,88(sp)
   10908:	01033583          	ld	a1,16(t1)
   1090c:	02810793          	addi	a5,sp,40
   10910:	00050613          	mv	a2,a0
   10914:	00078693          	mv	a3,a5
   10918:	00030513          	mv	a0,t1
   1091c:	00113c23          	sd	ra,24(sp)
   10920:	00f13423          	sd	a5,8(sp)
   10924:	1b8000ef          	jal	ra,10adc <_vfprintf_r>
   10928:	01813083          	ld	ra,24(sp)
   1092c:	06010113          	addi	sp,sp,96
   10930:	00008067          	ret

0000000000010934 <_puts_r>:
   10934:	f9010113          	addi	sp,sp,-112
   10938:	06813023          	sd	s0,96(sp)
   1093c:	00050413          	mv	s0,a0
   10940:	00058513          	mv	a0,a1
   10944:	04913c23          	sd	s1,88(sp)
   10948:	06113423          	sd	ra,104(sp)
   1094c:	00058493          	mv	s1,a1
   10950:	0c0000ef          	jal	ra,10a10 <strlen>
   10954:	000217b7          	lui	a5,0x21
   10958:	6d078793          	addi	a5,a5,1744 # 216d0 <__clz_tab+0x100>
   1095c:	04f13023          	sd	a5,64(sp)
   10960:	00100793          	li	a5,1
   10964:	04f13423          	sd	a5,72(sp)
   10968:	05042703          	lw	a4,80(s0)
   1096c:	03010793          	addi	a5,sp,48
   10970:	00150693          	addi	a3,a0,1
   10974:	00f13c23          	sd	a5,24(sp)
   10978:	00200793          	li	a5,2
   1097c:	02913823          	sd	s1,48(sp)
   10980:	02a13c23          	sd	a0,56(sp)
   10984:	02d13423          	sd	a3,40(sp)
   10988:	02f12023          	sw	a5,32(sp)
   1098c:	01043583          	ld	a1,16(s0)
   10990:	04070c63          	beqz	a4,109e8 <_puts_r+0xb4>
   10994:	01059783          	lh	a5,16(a1) # 4000010 <__BSS_END__+0x3fdb9c0>
   10998:	03279713          	slli	a4,a5,0x32
   1099c:	02074263          	bltz	a4,109c0 <_puts_r+0x8c>
   109a0:	0ac5a703          	lw	a4,172(a1)
   109a4:	000026b7          	lui	a3,0x2
   109a8:	00d7e7b3          	or	a5,a5,a3
   109ac:	ffffe6b7          	lui	a3,0xffffe
   109b0:	fff68693          	addi	a3,a3,-1 # ffffffffffffdfff <__BSS_END__+0xfffffffffffd99af>
   109b4:	00d77733          	and	a4,a4,a3
   109b8:	00f59823          	sh	a5,16(a1)
   109bc:	0ae5a623          	sw	a4,172(a1)
   109c0:	01810613          	addi	a2,sp,24
   109c4:	00040513          	mv	a0,s0
   109c8:	628030ef          	jal	ra,13ff0 <__sfvwrite_r>
   109cc:	02051863          	bnez	a0,109fc <_puts_r+0xc8>
   109d0:	00a00513          	li	a0,10
   109d4:	06813083          	ld	ra,104(sp)
   109d8:	06013403          	ld	s0,96(sp)
   109dc:	05813483          	ld	s1,88(sp)
   109e0:	07010113          	addi	sp,sp,112
   109e4:	00008067          	ret
   109e8:	00040513          	mv	a0,s0
   109ec:	00b13423          	sd	a1,8(sp)
   109f0:	168030ef          	jal	ra,13b58 <__sinit>
   109f4:	00813583          	ld	a1,8(sp)
   109f8:	f9dff06f          	j	10994 <_puts_r+0x60>
   109fc:	fff00513          	li	a0,-1
   10a00:	fd5ff06f          	j	109d4 <_puts_r+0xa0>

0000000000010a04 <puts>:
   10a04:	00050593          	mv	a1,a0
   10a08:	7181b503          	ld	a0,1816(gp) # 24568 <_impure_ptr>
   10a0c:	f29ff06f          	j	10934 <_puts_r>

0000000000010a10 <strlen>:
   10a10:	00757793          	andi	a5,a0,7
   10a14:	00050713          	mv	a4,a0
   10a18:	06079c63          	bnez	a5,10a90 <strlen+0x80>
   10a1c:	000247b7          	lui	a5,0x24
   10a20:	5287b683          	ld	a3,1320(a5) # 24528 <__SDATA_BEGIN__>
   10a24:	fff00593          	li	a1,-1
   10a28:	00870713          	addi	a4,a4,8
   10a2c:	ff873603          	ld	a2,-8(a4)
   10a30:	00d677b3          	and	a5,a2,a3
   10a34:	00d787b3          	add	a5,a5,a3
   10a38:	00c7e7b3          	or	a5,a5,a2
   10a3c:	00d7e7b3          	or	a5,a5,a3
   10a40:	feb784e3          	beq	a5,a1,10a28 <strlen+0x18>
   10a44:	ff874783          	lbu	a5,-8(a4)
   10a48:	40a706b3          	sub	a3,a4,a0
   10a4c:	06078463          	beqz	a5,10ab4 <strlen+0xa4>
   10a50:	ff974783          	lbu	a5,-7(a4)
   10a54:	04078c63          	beqz	a5,10aac <strlen+0x9c>
   10a58:	ffa74783          	lbu	a5,-6(a4)
   10a5c:	06078463          	beqz	a5,10ac4 <strlen+0xb4>
   10a60:	ffb74783          	lbu	a5,-5(a4)
   10a64:	04078c63          	beqz	a5,10abc <strlen+0xac>
   10a68:	ffc74603          	lbu	a2,-4(a4)
   10a6c:	ffd74583          	lbu	a1,-3(a4)
   10a70:	ffe74783          	lbu	a5,-2(a4)
   10a74:	04060c63          	beqz	a2,10acc <strlen+0xbc>
   10a78:	04058e63          	beqz	a1,10ad4 <strlen+0xc4>
   10a7c:	00f03533          	snez	a0,a5
   10a80:	00d50533          	add	a0,a0,a3
   10a84:	ffe50513          	addi	a0,a0,-2
   10a88:	00008067          	ret
   10a8c:	f80688e3          	beqz	a3,10a1c <strlen+0xc>
   10a90:	00074783          	lbu	a5,0(a4)
   10a94:	00170713          	addi	a4,a4,1
   10a98:	00777693          	andi	a3,a4,7
   10a9c:	fe0798e3          	bnez	a5,10a8c <strlen+0x7c>
   10aa0:	40a70733          	sub	a4,a4,a0
   10aa4:	fff70513          	addi	a0,a4,-1
   10aa8:	00008067          	ret
   10aac:	ff968513          	addi	a0,a3,-7
   10ab0:	00008067          	ret
   10ab4:	ff868513          	addi	a0,a3,-8
   10ab8:	00008067          	ret
   10abc:	ffb68513          	addi	a0,a3,-5
   10ac0:	00008067          	ret
   10ac4:	ffa68513          	addi	a0,a3,-6
   10ac8:	00008067          	ret
   10acc:	ffc68513          	addi	a0,a3,-4
   10ad0:	00008067          	ret
   10ad4:	ffd68513          	addi	a0,a3,-3
   10ad8:	00008067          	ret

0000000000010adc <_vfprintf_r>:
   10adc:	d7010113          	addi	sp,sp,-656
   10ae0:	28113423          	sd	ra,648(sp)
   10ae4:	28813023          	sd	s0,640(sp)
   10ae8:	25813023          	sd	s8,576(sp)
   10aec:	23a13823          	sd	s10,560(sp)
   10af0:	00058c13          	mv	s8,a1
   10af4:	00060d13          	mv	s10,a2
   10af8:	00d13823          	sd	a3,16(sp)
   10afc:	26913c23          	sd	s1,632(sp)
   10b00:	27213823          	sd	s2,624(sp)
   10b04:	27313423          	sd	s3,616(sp)
   10b08:	27413023          	sd	s4,608(sp)
   10b0c:	25513c23          	sd	s5,600(sp)
   10b10:	25613823          	sd	s6,592(sp)
   10b14:	25713423          	sd	s7,584(sp)
   10b18:	23913c23          	sd	s9,568(sp)
   10b1c:	23b13423          	sd	s11,552(sp)
   10b20:	00050413          	mv	s0,a0
   10b24:	02a13823          	sd	a0,48(sp)
   10b28:	774060ef          	jal	ra,1729c <_localeconv_r>
   10b2c:	00053783          	ld	a5,0(a0)
   10b30:	00078513          	mv	a0,a5
   10b34:	04f13c23          	sd	a5,88(sp)
   10b38:	ed9ff0ef          	jal	ra,10a10 <strlen>
   10b3c:	04a13423          	sd	a0,72(sp)
   10b40:	10013823          	sd	zero,272(sp)
   10b44:	10013c23          	sd	zero,280(sp)
   10b48:	00040663          	beqz	s0,10b54 <_vfprintf_r+0x78>
   10b4c:	05042783          	lw	a5,80(s0)
   10b50:	4a0788e3          	beqz	a5,11800 <_vfprintf_r+0xd24>
   10b54:	010c1683          	lh	a3,16(s8)
   10b58:	03069793          	slli	a5,a3,0x30
   10b5c:	0307d793          	srli	a5,a5,0x30
   10b60:	03279713          	slli	a4,a5,0x32
   10b64:	02074663          	bltz	a4,10b90 <_vfprintf_r+0xb4>
   10b68:	0acc2603          	lw	a2,172(s8)
   10b6c:	000027b7          	lui	a5,0x2
   10b70:	00f6e7b3          	or	a5,a3,a5
   10b74:	ffffe6b7          	lui	a3,0xffffe
   10b78:	fff68693          	addi	a3,a3,-1 # ffffffffffffdfff <__BSS_END__+0xfffffffffffd99af>
   10b7c:	00d676b3          	and	a3,a2,a3
   10b80:	00fc1823          	sh	a5,16(s8)
   10b84:	03079793          	slli	a5,a5,0x30
   10b88:	0adc2623          	sw	a3,172(s8)
   10b8c:	0307d793          	srli	a5,a5,0x30
   10b90:	0087f693          	andi	a3,a5,8
   10b94:	14068c63          	beqz	a3,10cec <_vfprintf_r+0x210>
   10b98:	018c3683          	ld	a3,24(s8)
   10b9c:	14068863          	beqz	a3,10cec <_vfprintf_r+0x210>
   10ba0:	01a7f793          	andi	a5,a5,26
   10ba4:	00a00693          	li	a3,10
   10ba8:	16d78463          	beq	a5,a3,10d10 <_vfprintf_r+0x234>
   10bac:	000227b7          	lui	a5,0x22
   10bb0:	8987b783          	ld	a5,-1896(a5) # 21898 <zeroes.4548+0x40>
   10bb4:	000d0b93          	mv	s7,s10
   10bb8:	12013823          	sd	zero,304(sp)
   10bbc:	0af13023          	sd	a5,160(sp)
   10bc0:	1a010793          	addi	a5,sp,416
   10bc4:	00078313          	mv	t1,a5
   10bc8:	12f13023          	sd	a5,288(sp)
   10bcc:	000227b7          	lui	a5,0x22
   10bd0:	8787b783          	ld	a5,-1928(a5) # 21878 <zeroes.4548+0x20>
   10bd4:	12012423          	sw	zero,296(sp)
   10bd8:	02013423          	sd	zero,40(sp)
   10bdc:	08f13423          	sd	a5,136(sp)
   10be0:	000227b7          	lui	a5,0x22
   10be4:	8887b783          	ld	a5,-1912(a5) # 21888 <zeroes.4548+0x30>
   10be8:	04013823          	sd	zero,80(sp)
   10bec:	06013023          	sd	zero,96(sp)
   10bf0:	08f13c23          	sd	a5,152(sp)
   10bf4:	000bc783          	lbu	a5,0(s7)
   10bf8:	06013423          	sd	zero,104(sp)
   10bfc:	06013c23          	sd	zero,120(sp)
   10c00:	08013023          	sd	zero,128(sp)
   10c04:	00013423          	sd	zero,8(sp)
   10c08:	00030c93          	mv	s9,t1
   10c0c:	03013a83          	ld	s5,48(sp)
   10c10:	180780e3          	beqz	a5,11590 <_vfprintf_r+0xab4>
   10c14:	02500693          	li	a3,37
   10c18:	00d79463          	bne	a5,a3,10c20 <_vfprintf_r+0x144>
   10c1c:	5fc0106f          	j	12218 <_vfprintf_r+0x173c>
   10c20:	000b8413          	mv	s0,s7
   10c24:	00c0006f          	j	10c30 <_vfprintf_r+0x154>
   10c28:	10d78663          	beq	a5,a3,10d34 <_vfprintf_r+0x258>
   10c2c:	00048413          	mv	s0,s1
   10c30:	00144783          	lbu	a5,1(s0)
   10c34:	00140493          	addi	s1,s0,1
   10c38:	fe0798e3          	bnez	a5,10c28 <_vfprintf_r+0x14c>
   10c3c:	4174893b          	subw	s2,s1,s7
   10c40:	140908e3          	beqz	s2,11590 <_vfprintf_r+0xab4>
   10c44:	13013683          	ld	a3,304(sp)
   10c48:	12812783          	lw	a5,296(sp)
   10c4c:	017cb023          	sd	s7,0(s9)
   10c50:	012686b3          	add	a3,a3,s2
   10c54:	0017879b          	addiw	a5,a5,1
   10c58:	012cb423          	sd	s2,8(s9)
   10c5c:	12d13823          	sd	a3,304(sp)
   10c60:	12f12423          	sw	a5,296(sp)
   10c64:	0007869b          	sext.w	a3,a5
   10c68:	00700793          	li	a5,7
   10c6c:	010c8c93          	addi	s9,s9,16
   10c70:	0cd7c863          	blt	a5,a3,10d40 <_vfprintf_r+0x264>
   10c74:	00813703          	ld	a4,8(sp)
   10c78:	00144783          	lbu	a5,1(s0)
   10c7c:	00e9073b          	addw	a4,s2,a4
   10c80:	00e13423          	sd	a4,8(sp)
   10c84:	100786e3          	beqz	a5,11590 <_vfprintf_r+0xab4>
   10c88:	000217b7          	lui	a5,0x21
   10c8c:	00148913          	addi	s2,s1,1
   10c90:	0014c403          	lbu	s0,1(s1)
   10c94:	0e0107a3          	sb	zero,239(sp)
   10c98:	fff00d93          	li	s11,-1
   10c9c:	00000993          	li	s3,0
   10ca0:	00000493          	li	s1,0
   10ca4:	05a00a13          	li	s4,90
   10ca8:	6d878d13          	addi	s10,a5,1752 # 216d8 <__clz_tab+0x108>
   10cac:	00900b13          	li	s6,9
   10cb0:	00190913          	addi	s2,s2,1
   10cb4:	0004041b          	sext.w	s0,s0
   10cb8:	02a00693          	li	a3,42
   10cbc:	fe04079b          	addiw	a5,s0,-32
   10cc0:	0007871b          	sext.w	a4,a5
   10cc4:	1eea6a63          	bltu	s4,a4,10eb8 <_vfprintf_r+0x3dc>
   10cc8:	02079793          	slli	a5,a5,0x20
   10ccc:	01e7d793          	srli	a5,a5,0x1e
   10cd0:	01a787b3          	add	a5,a5,s10
   10cd4:	0007a783          	lw	a5,0(a5)
   10cd8:	00078067          	jr	a5
   10cdc:	0104e493          	ori	s1,s1,16
   10ce0:	0004849b          	sext.w	s1,s1
   10ce4:	00094403          	lbu	s0,0(s2)
   10ce8:	fc9ff06f          	j	10cb0 <_vfprintf_r+0x1d4>
   10cec:	03013503          	ld	a0,48(sp)
   10cf0:	000c0593          	mv	a1,s8
   10cf4:	544020ef          	jal	ra,13238 <__swsetup_r>
   10cf8:	00050463          	beqz	a0,10d00 <_vfprintf_r+0x224>
   10cfc:	1040206f          	j	12e00 <_vfprintf_r+0x2324>
   10d00:	010c5783          	lhu	a5,16(s8)
   10d04:	00a00693          	li	a3,10
   10d08:	01a7f793          	andi	a5,a5,26
   10d0c:	ead790e3          	bne	a5,a3,10bac <_vfprintf_r+0xd0>
   10d10:	012c1783          	lh	a5,18(s8)
   10d14:	e807cce3          	bltz	a5,10bac <_vfprintf_r+0xd0>
   10d18:	01013683          	ld	a3,16(sp)
   10d1c:	03013503          	ld	a0,48(sp)
   10d20:	000d0613          	mv	a2,s10
   10d24:	000c0593          	mv	a1,s8
   10d28:	450020ef          	jal	ra,13178 <__sbprintf>
   10d2c:	00a13423          	sd	a0,8(sp)
   10d30:	0600006f          	j	10d90 <_vfprintf_r+0x2b4>
   10d34:	4174893b          	subw	s2,s1,s7
   10d38:	f40908e3          	beqz	s2,10c88 <_vfprintf_r+0x1ac>
   10d3c:	f09ff06f          	j	10c44 <_vfprintf_r+0x168>
   10d40:	12010613          	addi	a2,sp,288
   10d44:	000c0593          	mv	a1,s8
   10d48:	000a8513          	mv	a0,s5
   10d4c:	0810b0ef          	jal	ra,1c5cc <__sprint_r>
   10d50:	02051863          	bnez	a0,10d80 <_vfprintf_r+0x2a4>
   10d54:	1a010c93          	addi	s9,sp,416
   10d58:	f1dff06f          	j	10c74 <_vfprintf_r+0x198>
   10d5c:	12010613          	addi	a2,sp,288
   10d60:	000c0593          	mv	a1,s8
   10d64:	000a8513          	mv	a0,s5
   10d68:	0650b0ef          	jal	ra,1c5cc <__sprint_r>
   10d6c:	7e050e63          	beqz	a0,11568 <_vfprintf_r+0xa8c>
   10d70:	01813583          	ld	a1,24(sp)
   10d74:	00058663          	beqz	a1,10d80 <_vfprintf_r+0x2a4>
   10d78:	03013503          	ld	a0,48(sp)
   10d7c:	749020ef          	jal	ra,13cc4 <_free_r>
   10d80:	010c5783          	lhu	a5,16(s8)
   10d84:	0407f793          	andi	a5,a5,64
   10d88:	00078463          	beqz	a5,10d90 <_vfprintf_r+0x2b4>
   10d8c:	0740206f          	j	12e00 <_vfprintf_r+0x2324>
   10d90:	28813083          	ld	ra,648(sp)
   10d94:	28013403          	ld	s0,640(sp)
   10d98:	00813503          	ld	a0,8(sp)
   10d9c:	27813483          	ld	s1,632(sp)
   10da0:	27013903          	ld	s2,624(sp)
   10da4:	26813983          	ld	s3,616(sp)
   10da8:	26013a03          	ld	s4,608(sp)
   10dac:	25813a83          	ld	s5,600(sp)
   10db0:	25013b03          	ld	s6,592(sp)
   10db4:	24813b83          	ld	s7,584(sp)
   10db8:	24013c03          	ld	s8,576(sp)
   10dbc:	23813c83          	ld	s9,568(sp)
   10dc0:	23013d03          	ld	s10,560(sp)
   10dc4:	22813d83          	ld	s11,552(sp)
   10dc8:	29010113          	addi	sp,sp,656
   10dcc:	00008067          	ret
   10dd0:	000227b7          	lui	a5,0x22
   10dd4:	01013683          	ld	a3,16(sp)
   10dd8:	8c078793          	addi	a5,a5,-1856 # 218c0 <zeroes.4548+0x68>
   10ddc:	04f13823          	sd	a5,80(sp)
   10de0:	0204f793          	andi	a5,s1,32
   10de4:	00868713          	addi	a4,a3,8
   10de8:	10078463          	beqz	a5,10ef0 <_vfprintf_r+0x414>
   10dec:	0006bd03          	ld	s10,0(a3)
   10df0:	0014f793          	andi	a5,s1,1
   10df4:	00078e63          	beqz	a5,10e10 <_vfprintf_r+0x334>
   10df8:	000d0c63          	beqz	s10,10e10 <_vfprintf_r+0x334>
   10dfc:	0024e493          	ori	s1,s1,2
   10e00:	03000793          	li	a5,48
   10e04:	0ef10823          	sb	a5,240(sp)
   10e08:	0e8108a3          	sb	s0,241(sp)
   10e0c:	0004849b          	sext.w	s1,s1
   10e10:	bff4f813          	andi	a6,s1,-1025
   10e14:	00080a1b          	sext.w	s4,a6
   10e18:	00e13823          	sd	a4,16(sp)
   10e1c:	00200793          	li	a5,2
   10e20:	0e0107a3          	sb	zero,239(sp)
   10e24:	fff00713          	li	a4,-1
   10e28:	5aed8263          	beq	s11,a4,113cc <_vfprintf_r+0x8f0>
   10e2c:	f7fa7493          	andi	s1,s4,-129
   10e30:	0004849b          	sext.w	s1,s1
   10e34:	5e0d10e3          	bnez	s10,11c14 <_vfprintf_r+0x1138>
   10e38:	000d8463          	beqz	s11,10e40 <_vfprintf_r+0x364>
   10e3c:	7f10006f          	j	11e2c <_vfprintf_r+0x1350>
   10e40:	4c079c63          	bnez	a5,11318 <_vfprintf_r+0x83c>
   10e44:	001a7b13          	andi	s6,s4,1
   10e48:	19c10b93          	addi	s7,sp,412
   10e4c:	000b0463          	beqz	s6,10e54 <_vfprintf_r+0x378>
   10e50:	21c0106f          	j	1206c <_vfprintf_r+0x1590>
   10e54:	000b0a1b          	sext.w	s4,s6
   10e58:	01bb5463          	bge	s6,s11,10e60 <_vfprintf_r+0x384>
   10e5c:	000d8a1b          	sext.w	s4,s11
   10e60:	0ef14783          	lbu	a5,239(sp)
   10e64:	00013c23          	sd	zero,24(sp)
   10e68:	04013023          	sd	zero,64(sp)
   10e6c:	02013c23          	sd	zero,56(sp)
   10e70:	02013023          	sd	zero,32(sp)
   10e74:	5e078863          	beqz	a5,11464 <_vfprintf_r+0x988>
   10e78:	001a0a1b          	addiw	s4,s4,1
   10e7c:	5e80006f          	j	11464 <_vfprintf_r+0x988>
   10e80:	00000993          	li	s3,0
   10e84:	00190913          	addi	s2,s2,1
   10e88:	fff94703          	lbu	a4,-1(s2)
   10e8c:	0029979b          	slliw	a5,s3,0x2
   10e90:	013787bb          	addw	a5,a5,s3
   10e94:	fd04041b          	addiw	s0,s0,-48
   10e98:	0017979b          	slliw	a5,a5,0x1
   10e9c:	fd07061b          	addiw	a2,a4,-48
   10ea0:	00f409bb          	addw	s3,s0,a5
   10ea4:	0007041b          	sext.w	s0,a4
   10ea8:	fccb7ee3          	bgeu	s6,a2,10e84 <_vfprintf_r+0x3a8>
   10eac:	fe04079b          	addiw	a5,s0,-32
   10eb0:	0007871b          	sext.w	a4,a5
   10eb4:	e0ea7ae3          	bgeu	s4,a4,10cc8 <_vfprintf_r+0x1ec>
   10eb8:	6c040c63          	beqz	s0,11590 <_vfprintf_r+0xab4>
   10ebc:	12810c23          	sb	s0,312(sp)
   10ec0:	0e0107a3          	sb	zero,239(sp)
   10ec4:	00100a13          	li	s4,1
   10ec8:	00100b13          	li	s6,1
   10ecc:	13810b93          	addi	s7,sp,312
   10ed0:	5800006f          	j	11450 <_vfprintf_r+0x974>
   10ed4:	000227b7          	lui	a5,0x22
   10ed8:	01013683          	ld	a3,16(sp)
   10edc:	8d878793          	addi	a5,a5,-1832 # 218d8 <zeroes.4548+0x80>
   10ee0:	04f13823          	sd	a5,80(sp)
   10ee4:	0204f793          	andi	a5,s1,32
   10ee8:	00868713          	addi	a4,a3,8
   10eec:	f00790e3          	bnez	a5,10dec <_vfprintf_r+0x310>
   10ef0:	0104f793          	andi	a5,s1,16
   10ef4:	00078463          	beqz	a5,10efc <_vfprintf_r+0x420>
   10ef8:	19c0106f          	j	12094 <_vfprintf_r+0x15b8>
   10efc:	01013683          	ld	a3,16(sp)
   10f00:	0404f793          	andi	a5,s1,64
   10f04:	0006ad03          	lw	s10,0(a3)
   10f08:	00079463          	bnez	a5,10f10 <_vfprintf_r+0x434>
   10f0c:	6180106f          	j	12524 <_vfprintf_r+0x1a48>
   10f10:	030d1d13          	slli	s10,s10,0x30
   10f14:	030d5d13          	srli	s10,s10,0x30
   10f18:	ed9ff06f          	j	10df0 <_vfprintf_r+0x314>
   10f1c:	00094403          	lbu	s0,0(s2)
   10f20:	0044e493          	ori	s1,s1,4
   10f24:	0004849b          	sext.w	s1,s1
   10f28:	d89ff06f          	j	10cb0 <_vfprintf_r+0x1d4>
   10f2c:	00094403          	lbu	s0,0(s2)
   10f30:	06800793          	li	a5,104
   10f34:	00f41463          	bne	s0,a5,10f3c <_vfprintf_r+0x460>
   10f38:	2340106f          	j	1216c <_vfprintf_r+0x1690>
   10f3c:	0404e493          	ori	s1,s1,64
   10f40:	0004849b          	sext.w	s1,s1
   10f44:	d6dff06f          	j	10cb0 <_vfprintf_r+0x1d4>
   10f48:	0084f793          	andi	a5,s1,8
   10f4c:	00079463          	bnez	a5,10f54 <_vfprintf_r+0x478>
   10f50:	1600106f          	j	120b0 <_vfprintf_r+0x15d4>
   10f54:	01013783          	ld	a5,16(sp)
   10f58:	00f78793          	addi	a5,a5,15
   10f5c:	ff07f793          	andi	a5,a5,-16
   10f60:	0007b683          	ld	a3,0(a5)
   10f64:	0087b703          	ld	a4,8(a5)
   10f68:	01078793          	addi	a5,a5,16
   10f6c:	00f13823          	sd	a5,16(sp)
   10f70:	10d13823          	sd	a3,272(sp)
   10f74:	10e13c23          	sd	a4,280(sp)
   10f78:	11010513          	addi	a0,sp,272
   10f7c:	2c4060ef          	jal	ra,17240 <_ldcheck>
   10f80:	0ea12c23          	sw	a0,248(sp)
   10f84:	00200793          	li	a5,2
   10f88:	00f51463          	bne	a0,a5,10f90 <_vfprintf_r+0x4b4>
   10f8c:	44c0106f          	j	123d8 <_vfprintf_r+0x18fc>
   10f90:	00100793          	li	a5,1
   10f94:	00f51463          	bne	a0,a5,10f9c <_vfprintf_r+0x4c0>
   10f98:	5b00106f          	j	12548 <_vfprintf_r+0x1a6c>
   10f9c:	06100793          	li	a5,97
   10fa0:	00f41463          	bne	s0,a5,10fa8 <_vfprintf_r+0x4cc>
   10fa4:	7190106f          	j	12ebc <_vfprintf_r+0x23e0>
   10fa8:	04100793          	li	a5,65
   10fac:	00f41463          	bne	s0,a5,10fb4 <_vfprintf_r+0x4d8>
   10fb0:	1410106f          	j	128f0 <_vfprintf_r+0x1e14>
   10fb4:	fdf47713          	andi	a4,s0,-33
   10fb8:	fff00793          	li	a5,-1
   10fbc:	02e13c23          	sd	a4,56(sp)
   10fc0:	00fd9463          	bne	s11,a5,10fc8 <_vfprintf_r+0x4ec>
   10fc4:	7650106f          	j	12f28 <_vfprintf_r+0x244c>
   10fc8:	04700793          	li	a5,71
   10fcc:	00f71463          	bne	a4,a5,10fd4 <_vfprintf_r+0x4f8>
   10fd0:	7490106f          	j	12f18 <_vfprintf_r+0x243c>
   10fd4:	11813b03          	ld	s6,280(sp)
   10fd8:	1004e793          	ori	a5,s1,256
   10fdc:	04913023          	sd	s1,64(sp)
   10fe0:	0007879b          	sext.w	a5,a5
   10fe4:	11013d03          	ld	s10,272(sp)
   10fe8:	000b5463          	bgez	s6,10ff0 <_vfprintf_r+0x514>
   10fec:	4810106f          	j	12c6c <_vfprintf_r+0x2190>
   10ff0:	06013823          	sd	zero,112(sp)
   10ff4:	00078493          	mv	s1,a5
   10ff8:	00013c23          	sd	zero,24(sp)
   10ffc:	03813703          	ld	a4,56(sp)
   11000:	04600793          	li	a5,70
   11004:	00f71463          	bne	a4,a5,1100c <_vfprintf_r+0x530>
   11008:	3c90106f          	j	12bd0 <_vfprintf_r+0x20f4>
   1100c:	04500793          	li	a5,69
   11010:	00f71463          	bne	a4,a5,11018 <_vfprintf_r+0x53c>
   11014:	6590106f          	j	12e6c <_vfprintf_r+0x2390>
   11018:	0f810793          	addi	a5,sp,248
   1101c:	000d8713          	mv	a4,s11
   11020:	10810893          	addi	a7,sp,264
   11024:	0fc10813          	addi	a6,sp,252
   11028:	00200693          	li	a3,2
   1102c:	000d0593          	mv	a1,s10
   11030:	000b0613          	mv	a2,s6
   11034:	000a8513          	mv	a0,s5
   11038:	6f5040ef          	jal	ra,15f2c <_ldtoa_r>
   1103c:	03813703          	ld	a4,56(sp)
   11040:	04700793          	li	a5,71
   11044:	00050b93          	mv	s7,a0
   11048:	00f70463          	beq	a4,a5,11050 <_vfprintf_r+0x574>
   1104c:	0f00206f          	j	1313c <_vfprintf_r+0x2660>
   11050:	04013783          	ld	a5,64(sp)
   11054:	01b50a33          	add	s4,a0,s11
   11058:	0017f793          	andi	a5,a5,1
   1105c:	00078463          	beqz	a5,11064 <_vfprintf_r+0x588>
   11060:	3b10106f          	j	12c10 <_vfprintf_r+0x2134>
   11064:	10813783          	ld	a5,264(sp)
   11068:	0f812703          	lw	a4,248(sp)
   1106c:	417787bb          	subw	a5,a5,s7
   11070:	02f13423          	sd	a5,40(sp)
   11074:	02e13023          	sd	a4,32(sp)
   11078:	03813703          	ld	a4,56(sp)
   1107c:	04700793          	li	a5,71
   11080:	00f71463          	bne	a4,a5,11088 <_vfprintf_r+0x5ac>
   11084:	2d50106f          	j	12b58 <_vfprintf_r+0x207c>
   11088:	03813703          	ld	a4,56(sp)
   1108c:	04600793          	li	a5,70
   11090:	00f71463          	bne	a4,a5,11098 <_vfprintf_r+0x5bc>
   11094:	4c10106f          	j	12d54 <_vfprintf_r+0x2278>
   11098:	02013783          	ld	a5,32(sp)
   1109c:	03813703          	ld	a4,56(sp)
   110a0:	04100613          	li	a2,65
   110a4:	fff78a1b          	addiw	s4,a5,-1
   110a8:	0f412c23          	sw	s4,248(sp)
   110ac:	0ff47793          	andi	a5,s0,255
   110b0:	00000693          	li	a3,0
   110b4:	00c71863          	bne	a4,a2,110c4 <_vfprintf_r+0x5e8>
   110b8:	00f7879b          	addiw	a5,a5,15
   110bc:	0ff7f793          	andi	a5,a5,255
   110c0:	00100693          	li	a3,1
   110c4:	10f10023          	sb	a5,256(sp)
   110c8:	000a5463          	bgez	s4,110d0 <_vfprintf_r+0x5f4>
   110cc:	7d50106f          	j	130a0 <_vfprintf_r+0x25c4>
   110d0:	02b00793          	li	a5,43
   110d4:	10f100a3          	sb	a5,257(sp)
   110d8:	00900793          	li	a5,9
   110dc:	0147c463          	blt	a5,s4,110e4 <_vfprintf_r+0x608>
   110e0:	6e90106f          	j	12fc8 <_vfprintf_r+0x24ec>
   110e4:	10f10d13          	addi	s10,sp,271
   110e8:	000d0b13          	mv	s6,s10
   110ec:	06300493          	li	s1,99
   110f0:	00c0006f          	j	110fc <_vfprintf_r+0x620>
   110f4:	00060b13          	mv	s6,a2
   110f8:	00050a13          	mv	s4,a0
   110fc:	00a00593          	li	a1,10
   11100:	000a0513          	mv	a0,s4
   11104:	41c100ef          	jal	ra,21520 <__moddi3>
   11108:	0305051b          	addiw	a0,a0,48
   1110c:	feab0fa3          	sb	a0,-1(s6)
   11110:	00a00593          	li	a1,10
   11114:	000a0513          	mv	a0,s4
   11118:	384100ef          	jal	ra,2149c <__divdi3>
   1111c:	fffb0613          	addi	a2,s6,-1
   11120:	0005051b          	sext.w	a0,a0
   11124:	fd44c8e3          	blt	s1,s4,110f4 <_vfprintf_r+0x618>
   11128:	0305079b          	addiw	a5,a0,48
   1112c:	0ff7f793          	andi	a5,a5,255
   11130:	ffeb0693          	addi	a3,s6,-2
   11134:	fef60fa3          	sb	a5,-1(a2)
   11138:	01a6e463          	bltu	a3,s10,11140 <_vfprintf_r+0x664>
   1113c:	01c0206f          	j	13158 <_vfprintf_r+0x267c>
   11140:	10210613          	addi	a2,sp,258
   11144:	0080006f          	j	1114c <_vfprintf_r+0x670>
   11148:	0006c783          	lbu	a5,0(a3)
   1114c:	00160613          	addi	a2,a2,1
   11150:	00168693          	addi	a3,a3,1
   11154:	fef60fa3          	sb	a5,-1(a2)
   11158:	ffa698e3          	bne	a3,s10,11148 <_vfprintf_r+0x66c>
   1115c:	11110793          	addi	a5,sp,273
   11160:	416787b3          	sub	a5,a5,s6
   11164:	10210713          	addi	a4,sp,258
   11168:	00f707b3          	add	a5,a4,a5
   1116c:	10010693          	addi	a3,sp,256
   11170:	40d787bb          	subw	a5,a5,a3
   11174:	06f13023          	sd	a5,96(sp)
   11178:	06013783          	ld	a5,96(sp)
   1117c:	02813703          	ld	a4,40(sp)
   11180:	00100693          	li	a3,1
   11184:	00f70b3b          	addw	s6,a4,a5
   11188:	000b0793          	mv	a5,s6
   1118c:	00e6c463          	blt	a3,a4,11194 <_vfprintf_r+0x6b8>
   11190:	7290106f          	j	130b8 <_vfprintf_r+0x25dc>
   11194:	04813703          	ld	a4,72(sp)
   11198:	00e78b3b          	addw	s6,a5,a4
   1119c:	04013783          	ld	a5,64(sp)
   111a0:	fffb4a13          	not	s4,s6
   111a4:	43fa5a13          	srai	s4,s4,0x3f
   111a8:	bff7f493          	andi	s1,a5,-1025
   111ac:	0004849b          	sext.w	s1,s1
   111b0:	014b7a33          	and	s4,s6,s4
   111b4:	1004e493          	ori	s1,s1,256
   111b8:	000a0a1b          	sext.w	s4,s4
   111bc:	04013023          	sd	zero,64(sp)
   111c0:	02013c23          	sd	zero,56(sp)
   111c4:	02013023          	sd	zero,32(sp)
   111c8:	07013783          	ld	a5,112(sp)
   111cc:	00079463          	bnez	a5,111d4 <_vfprintf_r+0x6f8>
   111d0:	2890106f          	j	12c58 <_vfprintf_r+0x217c>
   111d4:	02d00793          	li	a5,45
   111d8:	0ef107a3          	sb	a5,239(sp)
   111dc:	00000d93          	li	s11,0
   111e0:	001a0a1b          	addiw	s4,s4,1
   111e4:	2800006f          	j	11464 <_vfprintf_r+0x988>
   111e8:	01013783          	ld	a5,16(sp)
   111ec:	0104e813          	ori	a6,s1,16
   111f0:	00080a1b          	sext.w	s4,a6
   111f4:	00878713          	addi	a4,a5,8
   111f8:	01013783          	ld	a5,16(sp)
   111fc:	0007bd03          	ld	s10,0(a5)
   11200:	00100793          	li	a5,1
   11204:	00e13823          	sd	a4,16(sp)
   11208:	c19ff06f          	j	10e20 <_vfprintf_r+0x344>
   1120c:	01013783          	ld	a5,16(sp)
   11210:	0e0107a3          	sb	zero,239(sp)
   11214:	0007bb83          	ld	s7,0(a5)
   11218:	00878d13          	addi	s10,a5,8
   1121c:	760b82e3          	beqz	s7,12180 <_vfprintf_r+0x16a4>
   11220:	fff00793          	li	a5,-1
   11224:	00fd9463          	bne	s11,a5,1122c <_vfprintf_r+0x750>
   11228:	20c0106f          	j	12434 <_vfprintf_r+0x1958>
   1122c:	000d8613          	mv	a2,s11
   11230:	00000593          	li	a1,0
   11234:	000b8513          	mv	a0,s7
   11238:	415060ef          	jal	ra,17e4c <memchr>
   1123c:	00a13c23          	sd	a0,24(sp)
   11240:	00051463          	bnez	a0,11248 <_vfprintf_r+0x76c>
   11244:	2d90106f          	j	12d1c <_vfprintf_r+0x2240>
   11248:	01813783          	ld	a5,24(sp)
   1124c:	41778b3b          	subw	s6,a5,s7
   11250:	fffb4a13          	not	s4,s6
   11254:	0ef14783          	lbu	a5,239(sp)
   11258:	43fa5a13          	srai	s4,s4,0x3f
   1125c:	014b7a33          	and	s4,s6,s4
   11260:	01a13823          	sd	s10,16(sp)
   11264:	00013c23          	sd	zero,24(sp)
   11268:	04013023          	sd	zero,64(sp)
   1126c:	02013c23          	sd	zero,56(sp)
   11270:	02013023          	sd	zero,32(sp)
   11274:	000a0a1b          	sext.w	s4,s4
   11278:	00000d93          	li	s11,0
   1127c:	be079ee3          	bnez	a5,10e78 <_vfprintf_r+0x39c>
   11280:	1e40006f          	j	11464 <_vfprintf_r+0x988>
   11284:	01013703          	ld	a4,16(sp)
   11288:	0104e813          	ori	a6,s1,16
   1128c:	0008049b          	sext.w	s1,a6
   11290:	00870713          	addi	a4,a4,8
   11294:	01013783          	ld	a5,16(sp)
   11298:	0007bd03          	ld	s10,0(a5)
   1129c:	00e13823          	sd	a4,16(sp)
   112a0:	bff4f813          	andi	a6,s1,-1025
   112a4:	00080a1b          	sext.w	s4,a6
   112a8:	00000793          	li	a5,0
   112ac:	b75ff06f          	j	10e20 <_vfprintf_r+0x344>
   112b0:	0084e493          	ori	s1,s1,8
   112b4:	0004849b          	sext.w	s1,s1
   112b8:	00094403          	lbu	s0,0(s2)
   112bc:	9f5ff06f          	j	10cb0 <_vfprintf_r+0x1d4>
   112c0:	01013703          	ld	a4,16(sp)
   112c4:	0204f793          	andi	a5,s1,32
   112c8:	00870713          	addi	a4,a4,8
   112cc:	5c079ee3          	bnez	a5,120a8 <_vfprintf_r+0x15cc>
   112d0:	0104f793          	andi	a5,s1,16
   112d4:	5c079ae3          	bnez	a5,120a8 <_vfprintf_r+0x15cc>
   112d8:	0404f793          	andi	a5,s1,64
   112dc:	00079463          	bnez	a5,112e4 <_vfprintf_r+0x808>
   112e0:	2080106f          	j	124e8 <_vfprintf_r+0x1a0c>
   112e4:	01013783          	ld	a5,16(sp)
   112e8:	00048a13          	mv	s4,s1
   112ec:	00e13823          	sd	a4,16(sp)
   112f0:	00079d03          	lh	s10,0(a5)
   112f4:	000d0793          	mv	a5,s10
   112f8:	0a07ce63          	bltz	a5,113b4 <_vfprintf_r+0x8d8>
   112fc:	fff00793          	li	a5,-1
   11300:	50fd8863          	beq	s11,a5,11810 <_vfprintf_r+0xd34>
   11304:	f7fa7813          	andi	a6,s4,-129
   11308:	0008049b          	sext.w	s1,a6
   1130c:	500d1063          	bnez	s10,1180c <_vfprintf_r+0xd30>
   11310:	000d8463          	beqz	s11,11318 <_vfprintf_r+0x83c>
   11314:	00d0106f          	j	12b20 <_vfprintf_r+0x2044>
   11318:	00000d93          	li	s11,0
   1131c:	00000b13          	li	s6,0
   11320:	19c10b93          	addi	s7,sp,412
   11324:	b31ff06f          	j	10e54 <_vfprintf_r+0x378>
   11328:	02b00793          	li	a5,43
   1132c:	0ef107a3          	sb	a5,239(sp)
   11330:	00094403          	lbu	s0,0(s2)
   11334:	97dff06f          	j	10cb0 <_vfprintf_r+0x1d4>
   11338:	0804e493          	ori	s1,s1,128
   1133c:	0004849b          	sext.w	s1,s1
   11340:	00094403          	lbu	s0,0(s2)
   11344:	96dff06f          	j	10cb0 <_vfprintf_r+0x1d4>
   11348:	00094403          	lbu	s0,0(s2)
   1134c:	00190793          	addi	a5,s2,1
   11350:	00d41463          	bne	s0,a3,11358 <_vfprintf_r+0x87c>
   11354:	5c50106f          	j	13118 <_vfprintf_r+0x263c>
   11358:	fd04071b          	addiw	a4,s0,-48
   1135c:	00078913          	mv	s2,a5
   11360:	00000d93          	li	s11,0
   11364:	94eb6ce3          	bltu	s6,a4,10cbc <_vfprintf_r+0x1e0>
   11368:	00190913          	addi	s2,s2,1
   1136c:	002d979b          	slliw	a5,s11,0x2
   11370:	fff94603          	lbu	a2,-1(s2)
   11374:	01b787bb          	addw	a5,a5,s11
   11378:	0017979b          	slliw	a5,a5,0x1
   1137c:	00e78dbb          	addw	s11,a5,a4
   11380:	fd06071b          	addiw	a4,a2,-48
   11384:	feeb72e3          	bgeu	s6,a4,11368 <_vfprintf_r+0x88c>
   11388:	00060413          	mv	s0,a2
   1138c:	931ff06f          	j	10cbc <_vfprintf_r+0x1e0>
   11390:	01013783          	ld	a5,16(sp)
   11394:	0104e813          	ori	a6,s1,16
   11398:	00080a1b          	sext.w	s4,a6
   1139c:	00878713          	addi	a4,a5,8
   113a0:	01013783          	ld	a5,16(sp)
   113a4:	0007b783          	ld	a5,0(a5)
   113a8:	00e13823          	sd	a4,16(sp)
   113ac:	00078d13          	mv	s10,a5
   113b0:	f407d6e3          	bgez	a5,112fc <_vfprintf_r+0x820>
   113b4:	02d00793          	li	a5,45
   113b8:	0ef107a3          	sb	a5,239(sp)
   113bc:	fff00713          	li	a4,-1
   113c0:	41a00d33          	neg	s10,s10
   113c4:	00100793          	li	a5,1
   113c8:	a6ed92e3          	bne	s11,a4,10e2c <_vfprintf_r+0x350>
   113cc:	00100713          	li	a4,1
   113d0:	44e78063          	beq	a5,a4,11810 <_vfprintf_r+0xd34>
   113d4:	00200713          	li	a4,2
   113d8:	26e784e3          	beq	a5,a4,11e40 <_vfprintf_r+0x1364>
   113dc:	19c10b13          	addi	s6,sp,412
   113e0:	000b0693          	mv	a3,s6
   113e4:	0080006f          	j	113ec <_vfprintf_r+0x910>
   113e8:	000b8693          	mv	a3,s7
   113ec:	007d7793          	andi	a5,s10,7
   113f0:	03078793          	addi	a5,a5,48
   113f4:	fef68fa3          	sb	a5,-1(a3)
   113f8:	003d5d13          	srli	s10,s10,0x3
   113fc:	fff68b93          	addi	s7,a3,-1
   11400:	fe0d14e3          	bnez	s10,113e8 <_vfprintf_r+0x90c>
   11404:	001a7613          	andi	a2,s4,1
   11408:	44060e63          	beqz	a2,11864 <_vfprintf_r+0xd88>
   1140c:	03000613          	li	a2,48
   11410:	44c78a63          	beq	a5,a2,11864 <_vfprintf_r+0xd88>
   11414:	ffe68693          	addi	a3,a3,-2
   11418:	fecb8fa3          	sb	a2,-1(s7)
   1141c:	40db0b3b          	subw	s6,s6,a3
   11420:	000a0493          	mv	s1,s4
   11424:	00068b93          	mv	s7,a3
   11428:	a2dff06f          	j	10e54 <_vfprintf_r+0x378>
   1142c:	01013703          	ld	a4,16(sp)
   11430:	0e0107a3          	sb	zero,239(sp)
   11434:	00100a13          	li	s4,1
   11438:	00072783          	lw	a5,0(a4)
   1143c:	00870713          	addi	a4,a4,8
   11440:	00e13823          	sd	a4,16(sp)
   11444:	12f10c23          	sb	a5,312(sp)
   11448:	00100b13          	li	s6,1
   1144c:	13810b93          	addi	s7,sp,312
   11450:	00013c23          	sd	zero,24(sp)
   11454:	00000d93          	li	s11,0
   11458:	04013023          	sd	zero,64(sp)
   1145c:	02013c23          	sd	zero,56(sp)
   11460:	02013023          	sd	zero,32(sp)
   11464:	0024fe93          	andi	t4,s1,2
   11468:	000e8e9b          	sext.w	t4,t4
   1146c:	000e8463          	beqz	t4,11474 <_vfprintf_r+0x998>
   11470:	002a0a1b          	addiw	s4,s4,2
   11474:	0844ff93          	andi	t6,s1,132
   11478:	13013783          	ld	a5,304(sp)
   1147c:	000f9663          	bnez	t6,11488 <_vfprintf_r+0x9ac>
   11480:	4149883b          	subw	a6,s3,s4
   11484:	79004c63          	bgtz	a6,11c1c <_vfprintf_r+0x1140>
   11488:	0ef14683          	lbu	a3,239(sp)
   1148c:	02068c63          	beqz	a3,114c4 <_vfprintf_r+0x9e8>
   11490:	12812683          	lw	a3,296(sp)
   11494:	0ef10613          	addi	a2,sp,239
   11498:	00ccb023          	sd	a2,0(s9)
   1149c:	0016869b          	addiw	a3,a3,1
   114a0:	00100613          	li	a2,1
   114a4:	00178793          	addi	a5,a5,1
   114a8:	00ccb423          	sd	a2,8(s9)
   114ac:	12d12423          	sw	a3,296(sp)
   114b0:	0006861b          	sext.w	a2,a3
   114b4:	12f13823          	sd	a5,304(sp)
   114b8:	00700693          	li	a3,7
   114bc:	010c8c93          	addi	s9,s9,16
   114c0:	0ec6c663          	blt	a3,a2,115ac <_vfprintf_r+0xad0>
   114c4:	020e8c63          	beqz	t4,114fc <_vfprintf_r+0xa20>
   114c8:	12812683          	lw	a3,296(sp)
   114cc:	0f010613          	addi	a2,sp,240
   114d0:	00ccb023          	sd	a2,0(s9)
   114d4:	0016869b          	addiw	a3,a3,1
   114d8:	00200613          	li	a2,2
   114dc:	00278793          	addi	a5,a5,2
   114e0:	00ccb423          	sd	a2,8(s9)
   114e4:	12d12423          	sw	a3,296(sp)
   114e8:	0006861b          	sext.w	a2,a3
   114ec:	12f13823          	sd	a5,304(sp)
   114f0:	00700693          	li	a3,7
   114f4:	010c8c93          	addi	s9,s9,16
   114f8:	04c6cae3          	blt	a3,a2,11d4c <_vfprintf_r+0x1270>
   114fc:	08000693          	li	a3,128
   11500:	48df8e63          	beq	t6,a3,1199c <_vfprintf_r+0xec0>
   11504:	416d8dbb          	subw	s11,s11,s6
   11508:	57b04863          	bgtz	s11,11a78 <_vfprintf_r+0xf9c>
   1150c:	1004f693          	andi	a3,s1,256
   11510:	36069063          	bnez	a3,11870 <_vfprintf_r+0xd94>
   11514:	12812703          	lw	a4,296(sp)
   11518:	016787b3          	add	a5,a5,s6
   1151c:	017cb023          	sd	s7,0(s9)
   11520:	0017069b          	addiw	a3,a4,1
   11524:	016cb423          	sd	s6,8(s9)
   11528:	12f13823          	sd	a5,304(sp)
   1152c:	12d12423          	sw	a3,296(sp)
   11530:	00700713          	li	a4,7
   11534:	0ed74863          	blt	a4,a3,11624 <_vfprintf_r+0xb48>
   11538:	010c8c93          	addi	s9,s9,16
   1153c:	0044f493          	andi	s1,s1,4
   11540:	00048663          	beqz	s1,1154c <_vfprintf_r+0xa70>
   11544:	4149843b          	subw	s0,s3,s4
   11548:	028048e3          	bgtz	s0,11d78 <_vfprintf_r+0x129c>
   1154c:	00098713          	mv	a4,s3
   11550:	0149d463          	bge	s3,s4,11558 <_vfprintf_r+0xa7c>
   11554:	000a0713          	mv	a4,s4
   11558:	00813683          	ld	a3,8(sp)
   1155c:	00d7073b          	addw	a4,a4,a3
   11560:	00e13423          	sd	a4,8(sp)
   11564:	fe079c63          	bnez	a5,10d5c <_vfprintf_r+0x280>
   11568:	01813783          	ld	a5,24(sp)
   1156c:	12012423          	sw	zero,296(sp)
   11570:	00078863          	beqz	a5,11580 <_vfprintf_r+0xaa4>
   11574:	01813583          	ld	a1,24(sp)
   11578:	000a8513          	mv	a0,s5
   1157c:	748020ef          	jal	ra,13cc4 <_free_r>
   11580:	1a010c93          	addi	s9,sp,416
   11584:	00090b93          	mv	s7,s2
   11588:	000bc783          	lbu	a5,0(s7)
   1158c:	e8079463          	bnez	a5,10c14 <_vfprintf_r+0x138>
   11590:	13013783          	ld	a5,304(sp)
   11594:	fe078663          	beqz	a5,10d80 <_vfprintf_r+0x2a4>
   11598:	03013503          	ld	a0,48(sp)
   1159c:	12010613          	addi	a2,sp,288
   115a0:	000c0593          	mv	a1,s8
   115a4:	0280b0ef          	jal	ra,1c5cc <__sprint_r>
   115a8:	fd8ff06f          	j	10d80 <_vfprintf_r+0x2a4>
   115ac:	12010613          	addi	a2,sp,288
   115b0:	000c0593          	mv	a1,s8
   115b4:	000a8513          	mv	a0,s5
   115b8:	09f13823          	sd	t6,144(sp)
   115bc:	07d13823          	sd	t4,112(sp)
   115c0:	00c0b0ef          	jal	ra,1c5cc <__sprint_r>
   115c4:	fa051663          	bnez	a0,10d70 <_vfprintf_r+0x294>
   115c8:	13013783          	ld	a5,304(sp)
   115cc:	1a010c93          	addi	s9,sp,416
   115d0:	09013f83          	ld	t6,144(sp)
   115d4:	07013e83          	ld	t4,112(sp)
   115d8:	eedff06f          	j	114c4 <_vfprintf_r+0x9e8>
   115dc:	0014f593          	andi	a1,s1,1
   115e0:	56059c63          	bnez	a1,11b58 <_vfprintf_r+0x107c>
   115e4:	00ccb423          	sd	a2,8(s9)
   115e8:	13613823          	sd	s6,304(sp)
   115ec:	12f12423          	sw	a5,296(sp)
   115f0:	00700713          	li	a4,7
   115f4:	30f748e3          	blt	a4,a5,12104 <_vfprintf_r+0x1628>
   115f8:	002e0d9b          	addiw	s11,t3,2
   115fc:	020c8c93          	addi	s9,s9,32
   11600:	06013683          	ld	a3,96(sp)
   11604:	10010713          	addi	a4,sp,256
   11608:	00e43023          	sd	a4,0(s0)
   1160c:	00db07b3          	add	a5,s6,a3
   11610:	00d43423          	sd	a3,8(s0)
   11614:	12f13823          	sd	a5,304(sp)
   11618:	13b12423          	sw	s11,296(sp)
   1161c:	00700713          	li	a4,7
   11620:	f1b75ee3          	bge	a4,s11,1153c <_vfprintf_r+0xa60>
   11624:	12010613          	addi	a2,sp,288
   11628:	000c0593          	mv	a1,s8
   1162c:	000a8513          	mv	a0,s5
   11630:	79d0a0ef          	jal	ra,1c5cc <__sprint_r>
   11634:	f2051e63          	bnez	a0,10d70 <_vfprintf_r+0x294>
   11638:	13013783          	ld	a5,304(sp)
   1163c:	1a010c93          	addi	s9,sp,416
   11640:	efdff06f          	j	1153c <_vfprintf_r+0xa60>
   11644:	01013783          	ld	a5,16(sp)
   11648:	00094403          	lbu	s0,0(s2)
   1164c:	0007a983          	lw	s3,0(a5)
   11650:	00878793          	addi	a5,a5,8
   11654:	00f13823          	sd	a5,16(sp)
   11658:	e409dc63          	bgez	s3,10cb0 <_vfprintf_r+0x1d4>
   1165c:	413009bb          	negw	s3,s3
   11660:	8c1ff06f          	j	10f20 <_vfprintf_r+0x444>
   11664:	000a8513          	mv	a0,s5
   11668:	435050ef          	jal	ra,1729c <_localeconv_r>
   1166c:	00853783          	ld	a5,8(a0)
   11670:	00078513          	mv	a0,a5
   11674:	08f13023          	sd	a5,128(sp)
   11678:	b98ff0ef          	jal	ra,10a10 <strlen>
   1167c:	06a13c23          	sd	a0,120(sp)
   11680:	00050413          	mv	s0,a0
   11684:	000a8513          	mv	a0,s5
   11688:	415050ef          	jal	ra,1729c <_localeconv_r>
   1168c:	01053783          	ld	a5,16(a0)
   11690:	06f13423          	sd	a5,104(sp)
   11694:	1e040ce3          	beqz	s0,1208c <_vfprintf_r+0x15b0>
   11698:	00094403          	lbu	s0,0(s2)
   1169c:	e0078a63          	beqz	a5,10cb0 <_vfprintf_r+0x1d4>
   116a0:	0007c783          	lbu	a5,0(a5)
   116a4:	e0078663          	beqz	a5,10cb0 <_vfprintf_r+0x1d4>
   116a8:	4004e493          	ori	s1,s1,1024
   116ac:	0004849b          	sext.w	s1,s1
   116b0:	e00ff06f          	j	10cb0 <_vfprintf_r+0x1d4>
   116b4:	0014e493          	ori	s1,s1,1
   116b8:	0004849b          	sext.w	s1,s1
   116bc:	00094403          	lbu	s0,0(s2)
   116c0:	df0ff06f          	j	10cb0 <_vfprintf_r+0x1d4>
   116c4:	0ef14783          	lbu	a5,239(sp)
   116c8:	00094403          	lbu	s0,0(s2)
   116cc:	de079263          	bnez	a5,10cb0 <_vfprintf_r+0x1d4>
   116d0:	02000793          	li	a5,32
   116d4:	0ef107a3          	sb	a5,239(sp)
   116d8:	dd8ff06f          	j	10cb0 <_vfprintf_r+0x1d4>
   116dc:	01013703          	ld	a4,16(sp)
   116e0:	0204f793          	andi	a5,s1,32
   116e4:	00870713          	addi	a4,a4,8
   116e8:	1a079ce3          	bnez	a5,120a0 <_vfprintf_r+0x15c4>
   116ec:	0104f793          	andi	a5,s1,16
   116f0:	1a0798e3          	bnez	a5,120a0 <_vfprintf_r+0x15c4>
   116f4:	01013683          	ld	a3,16(sp)
   116f8:	0404f793          	andi	a5,s1,64
   116fc:	0006ad03          	lw	s10,0(a3)
   11700:	600784e3          	beqz	a5,12508 <_vfprintf_r+0x1a2c>
   11704:	030d1d13          	slli	s10,s10,0x30
   11708:	030d5d13          	srli	s10,s10,0x30
   1170c:	00e13823          	sd	a4,16(sp)
   11710:	00048a13          	mv	s4,s1
   11714:	00100793          	li	a5,1
   11718:	f08ff06f          	j	10e20 <_vfprintf_r+0x344>
   1171c:	0204e493          	ori	s1,s1,32
   11720:	0004849b          	sext.w	s1,s1
   11724:	00094403          	lbu	s0,0(s2)
   11728:	d88ff06f          	j	10cb0 <_vfprintf_r+0x1d4>
   1172c:	01013703          	ld	a4,16(sp)
   11730:	ffff87b7          	lui	a5,0xffff8
   11734:	8307c793          	xori	a5,a5,-2000
   11738:	0ef11823          	sh	a5,240(sp)
   1173c:	00870793          	addi	a5,a4,8
   11740:	00f13823          	sd	a5,16(sp)
   11744:	000227b7          	lui	a5,0x22
   11748:	8c078793          	addi	a5,a5,-1856 # 218c0 <zeroes.4548+0x68>
   1174c:	0024e813          	ori	a6,s1,2
   11750:	04f13823          	sd	a5,80(sp)
   11754:	00073d03          	ld	s10,0(a4)
   11758:	00080a1b          	sext.w	s4,a6
   1175c:	00200793          	li	a5,2
   11760:	07800413          	li	s0,120
   11764:	ebcff06f          	j	10e20 <_vfprintf_r+0x344>
   11768:	01013703          	ld	a4,16(sp)
   1176c:	0204f793          	andi	a5,s1,32
   11770:	00870713          	addi	a4,a4,8
   11774:	b20790e3          	bnez	a5,11294 <_vfprintf_r+0x7b8>
   11778:	0104f793          	andi	a5,s1,16
   1177c:	b0079ce3          	bnez	a5,11294 <_vfprintf_r+0x7b8>
   11780:	01013683          	ld	a3,16(sp)
   11784:	0404f793          	andi	a5,s1,64
   11788:	0006ad03          	lw	s10,0(a3)
   1178c:	5a0784e3          	beqz	a5,12534 <_vfprintf_r+0x1a58>
   11790:	030d1d13          	slli	s10,s10,0x30
   11794:	030d5d13          	srli	s10,s10,0x30
   11798:	00e13823          	sd	a4,16(sp)
   1179c:	b05ff06f          	j	112a0 <_vfprintf_r+0x7c4>
   117a0:	01013683          	ld	a3,16(sp)
   117a4:	0204f793          	andi	a5,s1,32
   117a8:	0006b703          	ld	a4,0(a3)
   117ac:	00868693          	addi	a3,a3,8
   117b0:	00d13823          	sd	a3,16(sp)
   117b4:	0c0794e3          	bnez	a5,1207c <_vfprintf_r+0x15a0>
   117b8:	0104f793          	andi	a5,s1,16
   117bc:	0c0790e3          	bnez	a5,1207c <_vfprintf_r+0x15a0>
   117c0:	0404f793          	andi	a5,s1,64
   117c4:	00078463          	beqz	a5,117cc <_vfprintf_r+0xcf0>
   117c8:	08c0106f          	j	12854 <_vfprintf_r+0x1d78>
   117cc:	2004f493          	andi	s1,s1,512
   117d0:	00813783          	ld	a5,8(sp)
   117d4:	00049463          	bnez	s1,117dc <_vfprintf_r+0xd00>
   117d8:	7580106f          	j	12f30 <_vfprintf_r+0x2454>
   117dc:	00f70023          	sb	a5,0(a4)
   117e0:	00090b93          	mv	s7,s2
   117e4:	da5ff06f          	j	11588 <_vfprintf_r+0xaac>
   117e8:	00094403          	lbu	s0,0(s2)
   117ec:	06c00793          	li	a5,108
   117f0:	16f404e3          	beq	s0,a5,12158 <_vfprintf_r+0x167c>
   117f4:	0104e493          	ori	s1,s1,16
   117f8:	0004849b          	sext.w	s1,s1
   117fc:	cb4ff06f          	j	10cb0 <_vfprintf_r+0x1d4>
   11800:	03013503          	ld	a0,48(sp)
   11804:	354020ef          	jal	ra,13b58 <__sinit>
   11808:	b4cff06f          	j	10b54 <_vfprintf_r+0x78>
   1180c:	00048a13          	mv	s4,s1
   11810:	00900793          	li	a5,9
   11814:	31a7e2e3          	bltu	a5,s10,12318 <_vfprintf_r+0x183c>
   11818:	030d0d1b          	addiw	s10,s10,48
   1181c:	19a10da3          	sb	s10,411(sp)
   11820:	000a0493          	mv	s1,s4
   11824:	00100b13          	li	s6,1
   11828:	19b10b93          	addi	s7,sp,411
   1182c:	e28ff06f          	j	10e54 <_vfprintf_r+0x378>
   11830:	0ff00793          	li	a5,255
   11834:	34f682e3          	beq	a3,a5,12378 <_vfprintf_r+0x189c>
   11838:	00900793          	li	a5,9
   1183c:	0137f463          	bgeu	a5,s3,11844 <_vfprintf_r+0xd68>
   11840:	7b90006f          	j	127f8 <_vfprintf_r+0x1d1c>
   11844:	000a8993          	mv	s3,s5
   11848:	06813423          	sd	s0,104(sp)
   1184c:	000b0a93          	mv	s5,s6
   11850:	02013403          	ld	s0,32(sp)
   11854:	000b8b13          	mv	s6,s7
   11858:	00090b93          	mv	s7,s2
   1185c:	01813903          	ld	s2,24(sp)
   11860:	02913423          	sd	s1,40(sp)
   11864:	417b0b3b          	subw	s6,s6,s7
   11868:	000a0493          	mv	s1,s4
   1186c:	de8ff06f          	j	10e54 <_vfprintf_r+0x378>
   11870:	06500693          	li	a3,101
   11874:	2c86d063          	bge	a3,s0,11b34 <_vfprintf_r+0x1058>
   11878:	11013503          	ld	a0,272(sp)
   1187c:	11813583          	ld	a1,280(sp)
   11880:	00000613          	li	a2,0
   11884:	00000693          	li	a3,0
   11888:	06f13823          	sd	a5,112(sp)
   1188c:	6f40e0ef          	jal	ra,1ff80 <__eqtf2>
   11890:	07013783          	ld	a5,112(sp)
   11894:	5e051063          	bnez	a0,11e74 <_vfprintf_r+0x1398>
   11898:	12812703          	lw	a4,296(sp)
   1189c:	000226b7          	lui	a3,0x22
   118a0:	8f868693          	addi	a3,a3,-1800 # 218f8 <zeroes.4548+0xa0>
   118a4:	0017071b          	addiw	a4,a4,1
   118a8:	00178793          	addi	a5,a5,1
   118ac:	00dcb023          	sd	a3,0(s9)
   118b0:	00100693          	li	a3,1
   118b4:	00dcb423          	sd	a3,8(s9)
   118b8:	12f13823          	sd	a5,304(sp)
   118bc:	0007069b          	sext.w	a3,a4
   118c0:	12e12423          	sw	a4,296(sp)
   118c4:	00700793          	li	a5,7
   118c8:	010c8c93          	addi	s9,s9,16
   118cc:	2cd7c4e3          	blt	a5,a3,12394 <_vfprintf_r+0x18b8>
   118d0:	0f812783          	lw	a5,248(sp)
   118d4:	02813703          	ld	a4,40(sp)
   118d8:	00e7ca63          	blt	a5,a4,118ec <_vfprintf_r+0xe10>
   118dc:	0014f793          	andi	a5,s1,1
   118e0:	00079663          	bnez	a5,118ec <_vfprintf_r+0xe10>
   118e4:	13013783          	ld	a5,304(sp)
   118e8:	c55ff06f          	j	1153c <_vfprintf_r+0xa60>
   118ec:	05813783          	ld	a5,88(sp)
   118f0:	04813683          	ld	a3,72(sp)
   118f4:	12812703          	lw	a4,296(sp)
   118f8:	00fcb023          	sd	a5,0(s9)
   118fc:	13013783          	ld	a5,304(sp)
   11900:	0017071b          	addiw	a4,a4,1
   11904:	00dcb423          	sd	a3,8(s9)
   11908:	00f687b3          	add	a5,a3,a5
   1190c:	12e12423          	sw	a4,296(sp)
   11910:	0007069b          	sext.w	a3,a4
   11914:	12f13823          	sd	a5,304(sp)
   11918:	00700713          	li	a4,7
   1191c:	010c8c93          	addi	s9,s9,16
   11920:	00d74ae3          	blt	a4,a3,12134 <_vfprintf_r+0x1658>
   11924:	02813703          	ld	a4,40(sp)
   11928:	fff7041b          	addiw	s0,a4,-1
   1192c:	c08058e3          	blez	s0,1153c <_vfprintf_r+0xa60>
   11930:	00022837          	lui	a6,0x22
   11934:	01000693          	li	a3,16
   11938:	12812703          	lw	a4,296(sp)
   1193c:	85880d13          	addi	s10,a6,-1960 # 21858 <zeroes.4548>
   11940:	01000b13          	li	s6,16
   11944:	00700b93          	li	s7,7
   11948:	0086c863          	blt	a3,s0,11958 <_vfprintf_r+0xe7c>
   1194c:	2690006f          	j	123b4 <_vfprintf_r+0x18d8>
   11950:	ff04041b          	addiw	s0,s0,-16
   11954:	268b50e3          	bge	s6,s0,123b4 <_vfprintf_r+0x18d8>
   11958:	0017071b          	addiw	a4,a4,1
   1195c:	01078793          	addi	a5,a5,16
   11960:	01acb023          	sd	s10,0(s9)
   11964:	016cb423          	sd	s6,8(s9)
   11968:	12f13823          	sd	a5,304(sp)
   1196c:	12e12423          	sw	a4,296(sp)
   11970:	010c8c93          	addi	s9,s9,16
   11974:	fcebdee3          	bge	s7,a4,11950 <_vfprintf_r+0xe74>
   11978:	12010613          	addi	a2,sp,288
   1197c:	000c0593          	mv	a1,s8
   11980:	000a8513          	mv	a0,s5
   11984:	4490a0ef          	jal	ra,1c5cc <__sprint_r>
   11988:	be051463          	bnez	a0,10d70 <_vfprintf_r+0x294>
   1198c:	13013783          	ld	a5,304(sp)
   11990:	12812703          	lw	a4,296(sp)
   11994:	1a010c93          	addi	s9,sp,416
   11998:	fb9ff06f          	j	11950 <_vfprintf_r+0xe74>
   1199c:	414988bb          	subw	a7,s3,s4
   119a0:	b71052e3          	blez	a7,11504 <_vfprintf_r+0xa28>
   119a4:	00022837          	lui	a6,0x22
   119a8:	01000613          	li	a2,16
   119ac:	12812683          	lw	a3,296(sp)
   119b0:	85880d13          	addi	s10,a6,-1960 # 21858 <zeroes.4548>
   119b4:	09165063          	bge	a2,a7,11a34 <_vfprintf_r+0xf58>
   119b8:	06813823          	sd	s0,112(sp)
   119bc:	01000e93          	li	t4,16
   119c0:	000d0413          	mv	s0,s10
   119c4:	00700f13          	li	t5,7
   119c8:	00088d13          	mv	s10,a7
   119cc:	00c0006f          	j	119d8 <_vfprintf_r+0xefc>
   119d0:	ff0d0d1b          	addiw	s10,s10,-16
   119d4:	05aeda63          	bge	t4,s10,11a28 <_vfprintf_r+0xf4c>
   119d8:	0016869b          	addiw	a3,a3,1
   119dc:	01078793          	addi	a5,a5,16
   119e0:	008cb023          	sd	s0,0(s9)
   119e4:	01dcb423          	sd	t4,8(s9)
   119e8:	12f13823          	sd	a5,304(sp)
   119ec:	12d12423          	sw	a3,296(sp)
   119f0:	010c8c93          	addi	s9,s9,16
   119f4:	fcdf5ee3          	bge	t5,a3,119d0 <_vfprintf_r+0xef4>
   119f8:	12010613          	addi	a2,sp,288
   119fc:	000c0593          	mv	a1,s8
   11a00:	000a8513          	mv	a0,s5
   11a04:	3c90a0ef          	jal	ra,1c5cc <__sprint_r>
   11a08:	b6051463          	bnez	a0,10d70 <_vfprintf_r+0x294>
   11a0c:	01000e93          	li	t4,16
   11a10:	ff0d0d1b          	addiw	s10,s10,-16
   11a14:	13013783          	ld	a5,304(sp)
   11a18:	12812683          	lw	a3,296(sp)
   11a1c:	1a010c93          	addi	s9,sp,416
   11a20:	00700f13          	li	t5,7
   11a24:	fbaecae3          	blt	t4,s10,119d8 <_vfprintf_r+0xefc>
   11a28:	000d0893          	mv	a7,s10
   11a2c:	00040d13          	mv	s10,s0
   11a30:	07013403          	ld	s0,112(sp)
   11a34:	0016861b          	addiw	a2,a3,1
   11a38:	011787b3          	add	a5,a5,a7
   11a3c:	01acb023          	sd	s10,0(s9)
   11a40:	011cb423          	sd	a7,8(s9)
   11a44:	12f13823          	sd	a5,304(sp)
   11a48:	12c12423          	sw	a2,296(sp)
   11a4c:	00700693          	li	a3,7
   11a50:	010c8c93          	addi	s9,s9,16
   11a54:	aac6d8e3          	bge	a3,a2,11504 <_vfprintf_r+0xa28>
   11a58:	12010613          	addi	a2,sp,288
   11a5c:	000c0593          	mv	a1,s8
   11a60:	000a8513          	mv	a0,s5
   11a64:	3690a0ef          	jal	ra,1c5cc <__sprint_r>
   11a68:	b0051463          	bnez	a0,10d70 <_vfprintf_r+0x294>
   11a6c:	13013783          	ld	a5,304(sp)
   11a70:	1a010c93          	addi	s9,sp,416
   11a74:	a91ff06f          	j	11504 <_vfprintf_r+0xa28>
   11a78:	00022837          	lui	a6,0x22
   11a7c:	01000613          	li	a2,16
   11a80:	12812683          	lw	a3,296(sp)
   11a84:	85880d13          	addi	s10,a6,-1960 # 21858 <zeroes.4548>
   11a88:	01000893          	li	a7,16
   11a8c:	00700e93          	li	t4,7
   11a90:	01b64863          	blt	a2,s11,11aa0 <_vfprintf_r+0xfc4>
   11a94:	05c0006f          	j	11af0 <_vfprintf_r+0x1014>
   11a98:	ff0d8d9b          	addiw	s11,s11,-16
   11a9c:	05b8da63          	bge	a7,s11,11af0 <_vfprintf_r+0x1014>
   11aa0:	0016869b          	addiw	a3,a3,1
   11aa4:	01078793          	addi	a5,a5,16
   11aa8:	01acb023          	sd	s10,0(s9)
   11aac:	011cb423          	sd	a7,8(s9)
   11ab0:	12f13823          	sd	a5,304(sp)
   11ab4:	12d12423          	sw	a3,296(sp)
   11ab8:	010c8c93          	addi	s9,s9,16
   11abc:	fcdedee3          	bge	t4,a3,11a98 <_vfprintf_r+0xfbc>
   11ac0:	12010613          	addi	a2,sp,288
   11ac4:	000c0593          	mv	a1,s8
   11ac8:	000a8513          	mv	a0,s5
   11acc:	3010a0ef          	jal	ra,1c5cc <__sprint_r>
   11ad0:	aa051063          	bnez	a0,10d70 <_vfprintf_r+0x294>
   11ad4:	01000893          	li	a7,16
   11ad8:	ff0d8d9b          	addiw	s11,s11,-16
   11adc:	13013783          	ld	a5,304(sp)
   11ae0:	12812683          	lw	a3,296(sp)
   11ae4:	1a010c93          	addi	s9,sp,416
   11ae8:	00700e93          	li	t4,7
   11aec:	fbb8cae3          	blt	a7,s11,11aa0 <_vfprintf_r+0xfc4>
   11af0:	0016861b          	addiw	a2,a3,1
   11af4:	01b787b3          	add	a5,a5,s11
   11af8:	01acb023          	sd	s10,0(s9)
   11afc:	01bcb423          	sd	s11,8(s9)
   11b00:	12f13823          	sd	a5,304(sp)
   11b04:	12c12423          	sw	a2,296(sp)
   11b08:	00700693          	li	a3,7
   11b0c:	010c8c93          	addi	s9,s9,16
   11b10:	9ec6dee3          	bge	a3,a2,1150c <_vfprintf_r+0xa30>
   11b14:	12010613          	addi	a2,sp,288
   11b18:	000c0593          	mv	a1,s8
   11b1c:	000a8513          	mv	a0,s5
   11b20:	2ad0a0ef          	jal	ra,1c5cc <__sprint_r>
   11b24:	a4051663          	bnez	a0,10d70 <_vfprintf_r+0x294>
   11b28:	13013783          	ld	a5,304(sp)
   11b2c:	1a010c93          	addi	s9,sp,416
   11b30:	9ddff06f          	j	1150c <_vfprintf_r+0xa30>
   11b34:	12812e03          	lw	t3,296(sp)
   11b38:	02813703          	ld	a4,40(sp)
   11b3c:	00178b13          	addi	s6,a5,1
   11b40:	00100613          	li	a2,1
   11b44:	001e079b          	addiw	a5,t3,1
   11b48:	017cb023          	sd	s7,0(s9)
   11b4c:	00078693          	mv	a3,a5
   11b50:	010c8413          	addi	s0,s9,16
   11b54:	a8e654e3          	bge	a2,a4,115dc <_vfprintf_r+0xb00>
   11b58:	00100613          	li	a2,1
   11b5c:	12d12423          	sw	a3,296(sp)
   11b60:	00ccb423          	sd	a2,8(s9)
   11b64:	13613823          	sd	s6,304(sp)
   11b68:	00700693          	li	a3,7
   11b6c:	6af6ca63          	blt	a3,a5,12220 <_vfprintf_r+0x1744>
   11b70:	04813703          	ld	a4,72(sp)
   11b74:	05813683          	ld	a3,88(sp)
   11b78:	0017881b          	addiw	a6,a5,1
   11b7c:	00eb0b33          	add	s6,s6,a4
   11b80:	00d43023          	sd	a3,0(s0)
   11b84:	00e43423          	sd	a4,8(s0)
   11b88:	13613823          	sd	s6,304(sp)
   11b8c:	13012423          	sw	a6,296(sp)
   11b90:	00700793          	li	a5,7
   11b94:	01040413          	addi	s0,s0,16
   11b98:	6b07c863          	blt	a5,a6,12248 <_vfprintf_r+0x176c>
   11b9c:	02813783          	ld	a5,40(sp)
   11ba0:	11013503          	ld	a0,272(sp)
   11ba4:	11813583          	ld	a1,280(sp)
   11ba8:	0018089b          	addiw	a7,a6,1
   11bac:	fff7879b          	addiw	a5,a5,-1
   11bb0:	00000613          	li	a2,0
   11bb4:	00000693          	li	a3,0
   11bb8:	00088d9b          	sext.w	s11,a7
   11bbc:	03113c23          	sd	a7,56(sp)
   11bc0:	02f13023          	sd	a5,32(sp)
   11bc4:	05013023          	sd	a6,64(sp)
   11bc8:	3b80e0ef          	jal	ra,1ff80 <__eqtf2>
   11bcc:	01040c93          	addi	s9,s0,16
   11bd0:	02013783          	ld	a5,32(sp)
   11bd4:	03813883          	ld	a7,56(sp)
   11bd8:	40050c63          	beqz	a0,11ff0 <_vfprintf_r+0x1514>
   11bdc:	00fb0b33          	add	s6,s6,a5
   11be0:	001b8713          	addi	a4,s7,1
   11be4:	00f43423          	sd	a5,8(s0)
   11be8:	00e43023          	sd	a4,0(s0)
   11bec:	13613823          	sd	s6,304(sp)
   11bf0:	13112423          	sw	a7,296(sp)
   11bf4:	00700793          	li	a5,7
   11bf8:	51b7c663          	blt	a5,s11,12104 <_vfprintf_r+0x1628>
   11bfc:	04013803          	ld	a6,64(sp)
   11c00:	02040793          	addi	a5,s0,32
   11c04:	000c8413          	mv	s0,s9
   11c08:	00280d9b          	addiw	s11,a6,2
   11c0c:	00078c93          	mv	s9,a5
   11c10:	9f1ff06f          	j	11600 <_vfprintf_r+0xb24>
   11c14:	00048a13          	mv	s4,s1
   11c18:	fb4ff06f          	j	113cc <_vfprintf_r+0x8f0>
   11c1c:	000228b7          	lui	a7,0x22
   11c20:	01000613          	li	a2,16
   11c24:	12812683          	lw	a3,296(sp)
   11c28:	84888d13          	addi	s10,a7,-1976 # 21848 <blanks.4547>
   11c2c:	0d065463          	bge	a2,a6,11cf4 <_vfprintf_r+0x1218>
   11c30:	000d0613          	mv	a2,s10
   11c34:	000c8713          	mv	a4,s9
   11c38:	000b8d13          	mv	s10,s7
   11c3c:	000b0c93          	mv	s9,s6
   11c40:	000a0b93          	mv	s7,s4
   11c44:	00098b13          	mv	s6,s3
   11c48:	00048a13          	mv	s4,s1
   11c4c:	00040993          	mv	s3,s0
   11c50:	01000f13          	li	t5,16
   11c54:	00700293          	li	t0,7
   11c58:	07d13823          	sd	t4,112(sp)
   11c5c:	09f13823          	sd	t6,144(sp)
   11c60:	00080413          	mv	s0,a6
   11c64:	00060493          	mv	s1,a2
   11c68:	00c0006f          	j	11c74 <_vfprintf_r+0x1198>
   11c6c:	ff04041b          	addiw	s0,s0,-16
   11c70:	048f5a63          	bge	t5,s0,11cc4 <_vfprintf_r+0x11e8>
   11c74:	0016869b          	addiw	a3,a3,1
   11c78:	01078793          	addi	a5,a5,16
   11c7c:	00973023          	sd	s1,0(a4)
   11c80:	01e73423          	sd	t5,8(a4)
   11c84:	12f13823          	sd	a5,304(sp)
   11c88:	12d12423          	sw	a3,296(sp)
   11c8c:	01070713          	addi	a4,a4,16
   11c90:	fcd2dee3          	bge	t0,a3,11c6c <_vfprintf_r+0x1190>
   11c94:	12010613          	addi	a2,sp,288
   11c98:	000c0593          	mv	a1,s8
   11c9c:	000a8513          	mv	a0,s5
   11ca0:	12d0a0ef          	jal	ra,1c5cc <__sprint_r>
   11ca4:	8c051663          	bnez	a0,10d70 <_vfprintf_r+0x294>
   11ca8:	01000f13          	li	t5,16
   11cac:	ff04041b          	addiw	s0,s0,-16
   11cb0:	13013783          	ld	a5,304(sp)
   11cb4:	12812683          	lw	a3,296(sp)
   11cb8:	1a010713          	addi	a4,sp,416
   11cbc:	00700293          	li	t0,7
   11cc0:	fa8f4ae3          	blt	t5,s0,11c74 <_vfprintf_r+0x1198>
   11cc4:	07013e83          	ld	t4,112(sp)
   11cc8:	09013f83          	ld	t6,144(sp)
   11ccc:	00040813          	mv	a6,s0
   11cd0:	00098413          	mv	s0,s3
   11cd4:	000b0993          	mv	s3,s6
   11cd8:	000c8b13          	mv	s6,s9
   11cdc:	00070c93          	mv	s9,a4
   11ce0:	00048713          	mv	a4,s1
   11ce4:	000a0493          	mv	s1,s4
   11ce8:	000b8a13          	mv	s4,s7
   11cec:	000d0b93          	mv	s7,s10
   11cf0:	00070d13          	mv	s10,a4
   11cf4:	0016861b          	addiw	a2,a3,1
   11cf8:	010787b3          	add	a5,a5,a6
   11cfc:	01acb023          	sd	s10,0(s9)
   11d00:	010cb423          	sd	a6,8(s9)
   11d04:	12f13823          	sd	a5,304(sp)
   11d08:	12c12423          	sw	a2,296(sp)
   11d0c:	00700693          	li	a3,7
   11d10:	010c8c93          	addi	s9,s9,16
   11d14:	f6c6da63          	bge	a3,a2,11488 <_vfprintf_r+0x9ac>
   11d18:	12010613          	addi	a2,sp,288
   11d1c:	000c0593          	mv	a1,s8
   11d20:	000a8513          	mv	a0,s5
   11d24:	09f13823          	sd	t6,144(sp)
   11d28:	07d13823          	sd	t4,112(sp)
   11d2c:	0a10a0ef          	jal	ra,1c5cc <__sprint_r>
   11d30:	00050463          	beqz	a0,11d38 <_vfprintf_r+0x125c>
   11d34:	83cff06f          	j	10d70 <_vfprintf_r+0x294>
   11d38:	13013783          	ld	a5,304(sp)
   11d3c:	1a010c93          	addi	s9,sp,416
   11d40:	09013f83          	ld	t6,144(sp)
   11d44:	07013e83          	ld	t4,112(sp)
   11d48:	f40ff06f          	j	11488 <_vfprintf_r+0x9ac>
   11d4c:	12010613          	addi	a2,sp,288
   11d50:	000c0593          	mv	a1,s8
   11d54:	000a8513          	mv	a0,s5
   11d58:	07f13823          	sd	t6,112(sp)
   11d5c:	0710a0ef          	jal	ra,1c5cc <__sprint_r>
   11d60:	00050463          	beqz	a0,11d68 <_vfprintf_r+0x128c>
   11d64:	80cff06f          	j	10d70 <_vfprintf_r+0x294>
   11d68:	13013783          	ld	a5,304(sp)
   11d6c:	1a010c93          	addi	s9,sp,416
   11d70:	07013f83          	ld	t6,112(sp)
   11d74:	f88ff06f          	j	114fc <_vfprintf_r+0xa20>
   11d78:	000228b7          	lui	a7,0x22
   11d7c:	01000693          	li	a3,16
   11d80:	12812703          	lw	a4,296(sp)
   11d84:	84888d13          	addi	s10,a7,-1976 # 21848 <blanks.4547>
   11d88:	01000493          	li	s1,16
   11d8c:	00700b13          	li	s6,7
   11d90:	0086c863          	blt	a3,s0,11da0 <_vfprintf_r+0x12c4>
   11d94:	0580006f          	j	11dec <_vfprintf_r+0x1310>
   11d98:	ff04041b          	addiw	s0,s0,-16
   11d9c:	0484d863          	bge	s1,s0,11dec <_vfprintf_r+0x1310>
   11da0:	0017071b          	addiw	a4,a4,1
   11da4:	01078793          	addi	a5,a5,16
   11da8:	01acb023          	sd	s10,0(s9)
   11dac:	009cb423          	sd	s1,8(s9)
   11db0:	12f13823          	sd	a5,304(sp)
   11db4:	12e12423          	sw	a4,296(sp)
   11db8:	010c8c93          	addi	s9,s9,16
   11dbc:	fceb5ee3          	bge	s6,a4,11d98 <_vfprintf_r+0x12bc>
   11dc0:	12010613          	addi	a2,sp,288
   11dc4:	000c0593          	mv	a1,s8
   11dc8:	000a8513          	mv	a0,s5
   11dcc:	0010a0ef          	jal	ra,1c5cc <__sprint_r>
   11dd0:	00050463          	beqz	a0,11dd8 <_vfprintf_r+0x12fc>
   11dd4:	f9dfe06f          	j	10d70 <_vfprintf_r+0x294>
   11dd8:	ff04041b          	addiw	s0,s0,-16
   11ddc:	13013783          	ld	a5,304(sp)
   11de0:	12812703          	lw	a4,296(sp)
   11de4:	1a010c93          	addi	s9,sp,416
   11de8:	fa84cce3          	blt	s1,s0,11da0 <_vfprintf_r+0x12c4>
   11dec:	0017069b          	addiw	a3,a4,1
   11df0:	008787b3          	add	a5,a5,s0
   11df4:	01acb023          	sd	s10,0(s9)
   11df8:	008cb423          	sd	s0,8(s9)
   11dfc:	12f13823          	sd	a5,304(sp)
   11e00:	12d12423          	sw	a3,296(sp)
   11e04:	00700713          	li	a4,7
   11e08:	f4d75263          	bge	a4,a3,1154c <_vfprintf_r+0xa70>
   11e0c:	12010613          	addi	a2,sp,288
   11e10:	000c0593          	mv	a1,s8
   11e14:	000a8513          	mv	a0,s5
   11e18:	7b40a0ef          	jal	ra,1c5cc <__sprint_r>
   11e1c:	00050463          	beqz	a0,11e24 <_vfprintf_r+0x1348>
   11e20:	f51fe06f          	j	10d70 <_vfprintf_r+0x294>
   11e24:	13013783          	ld	a5,304(sp)
   11e28:	f24ff06f          	j	1154c <_vfprintf_r+0xa70>
   11e2c:	00100713          	li	a4,1
   11e30:	4ee788e3          	beq	a5,a4,12b20 <_vfprintf_r+0x2044>
   11e34:	00200713          	li	a4,2
   11e38:	00048a13          	mv	s4,s1
   11e3c:	dae79063          	bne	a5,a4,113dc <_vfprintf_r+0x900>
   11e40:	05013703          	ld	a4,80(sp)
   11e44:	19c10b13          	addi	s6,sp,412
   11e48:	000b0b93          	mv	s7,s6
   11e4c:	00fd7793          	andi	a5,s10,15
   11e50:	00f707b3          	add	a5,a4,a5
   11e54:	0007c783          	lbu	a5,0(a5)
   11e58:	fffb8b93          	addi	s7,s7,-1
   11e5c:	004d5d13          	srli	s10,s10,0x4
   11e60:	00fb8023          	sb	a5,0(s7)
   11e64:	fe0d14e3          	bnez	s10,11e4c <_vfprintf_r+0x1370>
   11e68:	417b0b3b          	subw	s6,s6,s7
   11e6c:	000a0493          	mv	s1,s4
   11e70:	fe5fe06f          	j	10e54 <_vfprintf_r+0x378>
   11e74:	0f812583          	lw	a1,248(sp)
   11e78:	3eb05c63          	blez	a1,12270 <_vfprintf_r+0x1794>
   11e7c:	02813703          	ld	a4,40(sp)
   11e80:	02013683          	ld	a3,32(sp)
   11e84:	0007041b          	sext.w	s0,a4
   11e88:	24e6c463          	blt	a3,a4,120d0 <_vfprintf_r+0x15f4>
   11e8c:	02805663          	blez	s0,11eb8 <_vfprintf_r+0x13dc>
   11e90:	12812683          	lw	a3,296(sp)
   11e94:	008787b3          	add	a5,a5,s0
   11e98:	017cb023          	sd	s7,0(s9)
   11e9c:	0016861b          	addiw	a2,a3,1
   11ea0:	008cb423          	sd	s0,8(s9)
   11ea4:	12f13823          	sd	a5,304(sp)
   11ea8:	12c12423          	sw	a2,296(sp)
   11eac:	00700693          	li	a3,7
   11eb0:	010c8c93          	addi	s9,s9,16
   11eb4:	10c6cce3          	blt	a3,a2,127cc <_vfprintf_r+0x1cf0>
   11eb8:	fff44693          	not	a3,s0
   11ebc:	02013703          	ld	a4,32(sp)
   11ec0:	43f6d693          	srai	a3,a3,0x3f
   11ec4:	00d47433          	and	s0,s0,a3
   11ec8:	4087043b          	subw	s0,a4,s0
   11ecc:	2c804e63          	bgtz	s0,121a8 <_vfprintf_r+0x16cc>
   11ed0:	02013703          	ld	a4,32(sp)
   11ed4:	4004f693          	andi	a3,s1,1024
   11ed8:	00eb8db3          	add	s11,s7,a4
   11edc:	6c069a63          	bnez	a3,125b0 <_vfprintf_r+0x1ad4>
   11ee0:	0f812403          	lw	s0,248(sp)
   11ee4:	02813703          	ld	a4,40(sp)
   11ee8:	00e44663          	blt	s0,a4,11ef4 <_vfprintf_r+0x1418>
   11eec:	0014f693          	andi	a3,s1,1
   11ef0:	140682e3          	beqz	a3,12834 <_vfprintf_r+0x1d58>
   11ef4:	05813683          	ld	a3,88(sp)
   11ef8:	04813703          	ld	a4,72(sp)
   11efc:	010c8c93          	addi	s9,s9,16
   11f00:	fedcb823          	sd	a3,-16(s9)
   11f04:	12812683          	lw	a3,296(sp)
   11f08:	00e787b3          	add	a5,a5,a4
   11f0c:	feecbc23          	sd	a4,-8(s9)
   11f10:	0016861b          	addiw	a2,a3,1
   11f14:	12f13823          	sd	a5,304(sp)
   11f18:	12c12423          	sw	a2,296(sp)
   11f1c:	00700693          	li	a3,7
   11f20:	5cc6cae3          	blt	a3,a2,12cf4 <_vfprintf_r+0x2218>
   11f24:	02813703          	ld	a4,40(sp)
   11f28:	4087063b          	subw	a2,a4,s0
   11f2c:	00eb8733          	add	a4,s7,a4
   11f30:	41b7073b          	subw	a4,a4,s11
   11f34:	00060413          	mv	s0,a2
   11f38:	00c75463          	bge	a4,a2,11f40 <_vfprintf_r+0x1464>
   11f3c:	0007041b          	sext.w	s0,a4
   11f40:	02805663          	blez	s0,11f6c <_vfprintf_r+0x1490>
   11f44:	12812703          	lw	a4,296(sp)
   11f48:	008787b3          	add	a5,a5,s0
   11f4c:	01bcb023          	sd	s11,0(s9)
   11f50:	0017069b          	addiw	a3,a4,1
   11f54:	008cb423          	sd	s0,8(s9)
   11f58:	12f13823          	sd	a5,304(sp)
   11f5c:	12d12423          	sw	a3,296(sp)
   11f60:	00700713          	li	a4,7
   11f64:	010c8c93          	addi	s9,s9,16
   11f68:	62d748e3          	blt	a4,a3,12d98 <_vfprintf_r+0x22bc>
   11f6c:	fff44713          	not	a4,s0
   11f70:	43f75713          	srai	a4,a4,0x3f
   11f74:	00e47433          	and	s0,s0,a4
   11f78:	4086043b          	subw	s0,a2,s0
   11f7c:	dc805063          	blez	s0,1153c <_vfprintf_r+0xa60>
   11f80:	00022837          	lui	a6,0x22
   11f84:	01000693          	li	a3,16
   11f88:	12812703          	lw	a4,296(sp)
   11f8c:	85880d13          	addi	s10,a6,-1960 # 21858 <zeroes.4548>
   11f90:	01000b13          	li	s6,16
   11f94:	00700b93          	li	s7,7
   11f98:	0086c863          	blt	a3,s0,11fa8 <_vfprintf_r+0x14cc>
   11f9c:	4180006f          	j	123b4 <_vfprintf_r+0x18d8>
   11fa0:	ff04041b          	addiw	s0,s0,-16
   11fa4:	408b5863          	bge	s6,s0,123b4 <_vfprintf_r+0x18d8>
   11fa8:	0017071b          	addiw	a4,a4,1
   11fac:	01078793          	addi	a5,a5,16
   11fb0:	01acb023          	sd	s10,0(s9)
   11fb4:	016cb423          	sd	s6,8(s9)
   11fb8:	12f13823          	sd	a5,304(sp)
   11fbc:	12e12423          	sw	a4,296(sp)
   11fc0:	010c8c93          	addi	s9,s9,16
   11fc4:	fcebdee3          	bge	s7,a4,11fa0 <_vfprintf_r+0x14c4>
   11fc8:	12010613          	addi	a2,sp,288
   11fcc:	000c0593          	mv	a1,s8
   11fd0:	000a8513          	mv	a0,s5
   11fd4:	5f80a0ef          	jal	ra,1c5cc <__sprint_r>
   11fd8:	00050463          	beqz	a0,11fe0 <_vfprintf_r+0x1504>
   11fdc:	d95fe06f          	j	10d70 <_vfprintf_r+0x294>
   11fe0:	13013783          	ld	a5,304(sp)
   11fe4:	12812703          	lw	a4,296(sp)
   11fe8:	1a010c93          	addi	s9,sp,416
   11fec:	fb5ff06f          	j	11fa0 <_vfprintf_r+0x14c4>
   11ff0:	e0f05863          	blez	a5,11600 <_vfprintf_r+0xb24>
   11ff4:	01000713          	li	a4,16
   11ff8:	00f74463          	blt	a4,a5,12000 <_vfprintf_r+0x1524>
   11ffc:	10c0106f          	j	13108 <_vfprintf_r+0x262c>
   12000:	00022837          	lui	a6,0x22
   12004:	85880d13          	addi	s10,a6,-1960 # 21858 <zeroes.4548>
   12008:	01000c93          	li	s9,16
   1200c:	00700b93          	li	s7,7
   12010:	00078d93          	mv	s11,a5
   12014:	0100006f          	j	12024 <_vfprintf_r+0x1548>
   12018:	ff0d8d9b          	addiw	s11,s11,-16
   1201c:	0dbcd063          	bge	s9,s11,120dc <_vfprintf_r+0x1600>
   12020:	0018089b          	addiw	a7,a6,1
   12024:	010b0b13          	addi	s6,s6,16
   12028:	01a43023          	sd	s10,0(s0)
   1202c:	01943423          	sd	s9,8(s0)
   12030:	13613823          	sd	s6,304(sp)
   12034:	0008881b          	sext.w	a6,a7
   12038:	13112423          	sw	a7,296(sp)
   1203c:	01040413          	addi	s0,s0,16
   12040:	fd0bdce3          	bge	s7,a6,12018 <_vfprintf_r+0x153c>
   12044:	12010613          	addi	a2,sp,288
   12048:	000c0593          	mv	a1,s8
   1204c:	000a8513          	mv	a0,s5
   12050:	57c0a0ef          	jal	ra,1c5cc <__sprint_r>
   12054:	00050463          	beqz	a0,1205c <_vfprintf_r+0x1580>
   12058:	d19fe06f          	j	10d70 <_vfprintf_r+0x294>
   1205c:	13013b03          	ld	s6,304(sp)
   12060:	12812803          	lw	a6,296(sp)
   12064:	1a010413          	addi	s0,sp,416
   12068:	fb1ff06f          	j	12018 <_vfprintf_r+0x153c>
   1206c:	03000793          	li	a5,48
   12070:	18f10da3          	sb	a5,411(sp)
   12074:	19b10b93          	addi	s7,sp,411
   12078:	dddfe06f          	j	10e54 <_vfprintf_r+0x378>
   1207c:	00813783          	ld	a5,8(sp)
   12080:	00090b93          	mv	s7,s2
   12084:	00f73023          	sd	a5,0(a4)
   12088:	d00ff06f          	j	11588 <_vfprintf_r+0xaac>
   1208c:	00094403          	lbu	s0,0(s2)
   12090:	c21fe06f          	j	10cb0 <_vfprintf_r+0x1d4>
   12094:	01013783          	ld	a5,16(sp)
   12098:	0007bd03          	ld	s10,0(a5)
   1209c:	d55fe06f          	j	10df0 <_vfprintf_r+0x314>
   120a0:	00048a13          	mv	s4,s1
   120a4:	954ff06f          	j	111f8 <_vfprintf_r+0x71c>
   120a8:	00048a13          	mv	s4,s1
   120ac:	af4ff06f          	j	113a0 <_vfprintf_r+0x8c4>
   120b0:	01013783          	ld	a5,16(sp)
   120b4:	0007b503          	ld	a0,0(a5)
   120b8:	00878793          	addi	a5,a5,8
   120bc:	00f13823          	sd	a5,16(sp)
   120c0:	0f00f0ef          	jal	ra,211b0 <__extenddftf2>
   120c4:	10a13823          	sd	a0,272(sp)
   120c8:	10b13c23          	sd	a1,280(sp)
   120cc:	eadfe06f          	j	10f78 <_vfprintf_r+0x49c>
   120d0:	0006841b          	sext.w	s0,a3
   120d4:	da804ee3          	bgtz	s0,11e90 <_vfprintf_r+0x13b4>
   120d8:	de1ff06f          	j	11eb8 <_vfprintf_r+0x13dc>
   120dc:	000d8793          	mv	a5,s11
   120e0:	01040713          	addi	a4,s0,16
   120e4:	00180d9b          	addiw	s11,a6,1
   120e8:	00fb0b33          	add	s6,s6,a5
   120ec:	00f43423          	sd	a5,8(s0)
   120f0:	01a43023          	sd	s10,0(s0)
   120f4:	13613823          	sd	s6,304(sp)
   120f8:	13b12423          	sw	s11,296(sp)
   120fc:	00700793          	li	a5,7
   12100:	69b7d463          	bge	a5,s11,12788 <_vfprintf_r+0x1cac>
   12104:	12010613          	addi	a2,sp,288
   12108:	000c0593          	mv	a1,s8
   1210c:	000a8513          	mv	a0,s5
   12110:	4bc0a0ef          	jal	ra,1c5cc <__sprint_r>
   12114:	00050463          	beqz	a0,1211c <_vfprintf_r+0x1640>
   12118:	c59fe06f          	j	10d70 <_vfprintf_r+0x294>
   1211c:	12812e03          	lw	t3,296(sp)
   12120:	13013b03          	ld	s6,304(sp)
   12124:	1b010c93          	addi	s9,sp,432
   12128:	001e0d9b          	addiw	s11,t3,1
   1212c:	1a010413          	addi	s0,sp,416
   12130:	cd0ff06f          	j	11600 <_vfprintf_r+0xb24>
   12134:	12010613          	addi	a2,sp,288
   12138:	000c0593          	mv	a1,s8
   1213c:	000a8513          	mv	a0,s5
   12140:	48c0a0ef          	jal	ra,1c5cc <__sprint_r>
   12144:	00050463          	beqz	a0,1214c <_vfprintf_r+0x1670>
   12148:	c29fe06f          	j	10d70 <_vfprintf_r+0x294>
   1214c:	13013783          	ld	a5,304(sp)
   12150:	1a010c93          	addi	s9,sp,416
   12154:	fd0ff06f          	j	11924 <_vfprintf_r+0xe48>
   12158:	0204e493          	ori	s1,s1,32
   1215c:	00194403          	lbu	s0,1(s2)
   12160:	0004849b          	sext.w	s1,s1
   12164:	00190913          	addi	s2,s2,1
   12168:	b49fe06f          	j	10cb0 <_vfprintf_r+0x1d4>
   1216c:	2004e493          	ori	s1,s1,512
   12170:	00194403          	lbu	s0,1(s2)
   12174:	0004849b          	sext.w	s1,s1
   12178:	00190913          	addi	s2,s2,1
   1217c:	b35fe06f          	j	10cb0 <_vfprintf_r+0x1d4>
   12180:	000d871b          	sext.w	a4,s11
   12184:	00600793          	li	a5,6
   12188:	000d8e13          	mv	t3,s11
   1218c:	66e7e263          	bltu	a5,a4,127f0 <_vfprintf_r+0x1d14>
   12190:	000e0b1b          	sext.w	s6,t3
   12194:	00022737          	lui	a4,0x22
   12198:	000b0a13          	mv	s4,s6
   1219c:	01a13823          	sd	s10,16(sp)
   121a0:	8f070b93          	addi	s7,a4,-1808 # 218f0 <zeroes.4548+0x98>
   121a4:	aacff06f          	j	11450 <_vfprintf_r+0x974>
   121a8:	00022837          	lui	a6,0x22
   121ac:	01000613          	li	a2,16
   121b0:	12812683          	lw	a3,296(sp)
   121b4:	85880d13          	addi	s10,a6,-1960 # 21858 <zeroes.4548>
   121b8:	01000b13          	li	s6,16
   121bc:	00700d93          	li	s11,7
   121c0:	00864863          	blt	a2,s0,121d0 <_vfprintf_r+0x16f4>
   121c4:	3a40006f          	j	12568 <_vfprintf_r+0x1a8c>
   121c8:	ff04041b          	addiw	s0,s0,-16
   121cc:	388b5e63          	bge	s6,s0,12568 <_vfprintf_r+0x1a8c>
   121d0:	0016869b          	addiw	a3,a3,1
   121d4:	01078793          	addi	a5,a5,16
   121d8:	01acb023          	sd	s10,0(s9)
   121dc:	016cb423          	sd	s6,8(s9)
   121e0:	12f13823          	sd	a5,304(sp)
   121e4:	12d12423          	sw	a3,296(sp)
   121e8:	010c8c93          	addi	s9,s9,16
   121ec:	fcdddee3          	bge	s11,a3,121c8 <_vfprintf_r+0x16ec>
   121f0:	12010613          	addi	a2,sp,288
   121f4:	000c0593          	mv	a1,s8
   121f8:	000a8513          	mv	a0,s5
   121fc:	3d00a0ef          	jal	ra,1c5cc <__sprint_r>
   12200:	00050463          	beqz	a0,12208 <_vfprintf_r+0x172c>
   12204:	b6dfe06f          	j	10d70 <_vfprintf_r+0x294>
   12208:	13013783          	ld	a5,304(sp)
   1220c:	12812683          	lw	a3,296(sp)
   12210:	1a010c93          	addi	s9,sp,416
   12214:	fb5ff06f          	j	121c8 <_vfprintf_r+0x16ec>
   12218:	000b8493          	mv	s1,s7
   1221c:	a6dfe06f          	j	10c88 <_vfprintf_r+0x1ac>
   12220:	12010613          	addi	a2,sp,288
   12224:	000c0593          	mv	a1,s8
   12228:	000a8513          	mv	a0,s5
   1222c:	3a00a0ef          	jal	ra,1c5cc <__sprint_r>
   12230:	00050463          	beqz	a0,12238 <_vfprintf_r+0x175c>
   12234:	b3dfe06f          	j	10d70 <_vfprintf_r+0x294>
   12238:	13013b03          	ld	s6,304(sp)
   1223c:	12812783          	lw	a5,296(sp)
   12240:	1a010413          	addi	s0,sp,416
   12244:	92dff06f          	j	11b70 <_vfprintf_r+0x1094>
   12248:	12010613          	addi	a2,sp,288
   1224c:	000c0593          	mv	a1,s8
   12250:	000a8513          	mv	a0,s5
   12254:	3780a0ef          	jal	ra,1c5cc <__sprint_r>
   12258:	00050463          	beqz	a0,12260 <_vfprintf_r+0x1784>
   1225c:	b15fe06f          	j	10d70 <_vfprintf_r+0x294>
   12260:	13013b03          	ld	s6,304(sp)
   12264:	12812803          	lw	a6,296(sp)
   12268:	1a010413          	addi	s0,sp,416
   1226c:	931ff06f          	j	11b9c <_vfprintf_r+0x10c0>
   12270:	12812683          	lw	a3,296(sp)
   12274:	00022637          	lui	a2,0x22
   12278:	8f860613          	addi	a2,a2,-1800 # 218f8 <zeroes.4548+0xa0>
   1227c:	0016869b          	addiw	a3,a3,1
   12280:	00ccb023          	sd	a2,0(s9)
   12284:	00178793          	addi	a5,a5,1
   12288:	00100613          	li	a2,1
   1228c:	00ccb423          	sd	a2,8(s9)
   12290:	12d12423          	sw	a3,296(sp)
   12294:	0006861b          	sext.w	a2,a3
   12298:	12f13823          	sd	a5,304(sp)
   1229c:	00700693          	li	a3,7
   122a0:	010c8c93          	addi	s9,s9,16
   122a4:	4ec6ca63          	blt	a3,a2,12798 <_vfprintf_r+0x1cbc>
   122a8:	18059e63          	bnez	a1,12444 <_vfprintf_r+0x1968>
   122ac:	02813703          	ld	a4,40(sp)
   122b0:	0014f693          	andi	a3,s1,1
   122b4:	00d766b3          	or	a3,a4,a3
   122b8:	a8068263          	beqz	a3,1153c <_vfprintf_r+0xa60>
   122bc:	12812603          	lw	a2,296(sp)
   122c0:	04813703          	ld	a4,72(sp)
   122c4:	05813683          	ld	a3,88(sp)
   122c8:	010c8313          	addi	t1,s9,16
   122cc:	00f707b3          	add	a5,a4,a5
   122d0:	00dcb023          	sd	a3,0(s9)
   122d4:	0016069b          	addiw	a3,a2,1
   122d8:	00ecb423          	sd	a4,8(s9)
   122dc:	12f13823          	sd	a5,304(sp)
   122e0:	12d12423          	sw	a3,296(sp)
   122e4:	00700613          	li	a2,7
   122e8:	5cd64c63          	blt	a2,a3,128c0 <_vfprintf_r+0x1de4>
   122ec:	02813703          	ld	a4,40(sp)
   122f0:	0016861b          	addiw	a2,a3,1
   122f4:	01733023          	sd	s7,0(t1)
   122f8:	00f707b3          	add	a5,a4,a5
   122fc:	00e33423          	sd	a4,8(t1)
   12300:	12f13823          	sd	a5,304(sp)
   12304:	12c12423          	sw	a2,296(sp)
   12308:	00700713          	li	a4,7
   1230c:	01030c93          	addi	s9,t1,16
   12310:	a2c75663          	bge	a4,a2,1153c <_vfprintf_r+0xa60>
   12314:	b10ff06f          	j	11624 <_vfprintf_r+0xb48>
   12318:	400a7493          	andi	s1,s4,1024
   1231c:	02813023          	sd	s0,32(sp)
   12320:	06813403          	ld	s0,104(sp)
   12324:	19c10b13          	addi	s6,sp,412
   12328:	0004849b          	sext.w	s1,s1
   1232c:	00000793          	li	a5,0
   12330:	000b0b93          	mv	s7,s6
   12334:	01213c23          	sd	s2,24(sp)
   12338:	000b0913          	mv	s2,s6
   1233c:	000a8b13          	mv	s6,s5
   12340:	00098a93          	mv	s5,s3
   12344:	000d0993          	mv	s3,s10
   12348:	00048d13          	mv	s10,s1
   1234c:	00078493          	mv	s1,a5
   12350:	00a00593          	li	a1,10
   12354:	00098513          	mv	a0,s3
   12358:	1940f0ef          	jal	ra,214ec <__umoddi3>
   1235c:	0305051b          	addiw	a0,a0,48
   12360:	fea90fa3          	sb	a0,-1(s2)
   12364:	0014849b          	addiw	s1,s1,1
   12368:	fff90913          	addi	s2,s2,-1
   1236c:	000d0663          	beqz	s10,12378 <_vfprintf_r+0x189c>
   12370:	00044683          	lbu	a3,0(s0)
   12374:	cad48e63          	beq	s1,a3,11830 <_vfprintf_r+0xd54>
   12378:	00a00593          	li	a1,10
   1237c:	00098513          	mv	a0,s3
   12380:	1240f0ef          	jal	ra,214a4 <__udivdi3>
   12384:	00900793          	li	a5,9
   12388:	cb37fe63          	bgeu	a5,s3,11844 <_vfprintf_r+0xd68>
   1238c:	00050993          	mv	s3,a0
   12390:	fc1ff06f          	j	12350 <_vfprintf_r+0x1874>
   12394:	12010613          	addi	a2,sp,288
   12398:	000c0593          	mv	a1,s8
   1239c:	000a8513          	mv	a0,s5
   123a0:	22c0a0ef          	jal	ra,1c5cc <__sprint_r>
   123a4:	00050463          	beqz	a0,123ac <_vfprintf_r+0x18d0>
   123a8:	9c9fe06f          	j	10d70 <_vfprintf_r+0x294>
   123ac:	1a010c93          	addi	s9,sp,416
   123b0:	d20ff06f          	j	118d0 <_vfprintf_r+0xdf4>
   123b4:	0017069b          	addiw	a3,a4,1
   123b8:	01acb023          	sd	s10,0(s9)
   123bc:	008cb423          	sd	s0,8(s9)
   123c0:	008787b3          	add	a5,a5,s0
   123c4:	12f13823          	sd	a5,304(sp)
   123c8:	12d12423          	sw	a3,296(sp)
   123cc:	00700713          	li	a4,7
   123d0:	96d75463          	bge	a4,a3,11538 <_vfprintf_r+0xa5c>
   123d4:	a50ff06f          	j	11624 <_vfprintf_r+0xb48>
   123d8:	11013503          	ld	a0,272(sp)
   123dc:	11813583          	ld	a1,280(sp)
   123e0:	00000613          	li	a2,0
   123e4:	00000693          	li	a3,0
   123e8:	5050d0ef          	jal	ra,200ec <__letf2>
   123ec:	0c0548e3          	bltz	a0,12cbc <_vfprintf_r+0x21e0>
   123f0:	0ef14783          	lbu	a5,239(sp)
   123f4:	04700713          	li	a4,71
   123f8:	3c875463          	bge	a4,s0,127c0 <_vfprintf_r+0x1ce4>
   123fc:	00022737          	lui	a4,0x22
   12400:	8a870b93          	addi	s7,a4,-1880 # 218a8 <zeroes.4548+0x50>
   12404:	f7f4f493          	andi	s1,s1,-129
   12408:	00013c23          	sd	zero,24(sp)
   1240c:	04013023          	sd	zero,64(sp)
   12410:	02013c23          	sd	zero,56(sp)
   12414:	02013023          	sd	zero,32(sp)
   12418:	0004849b          	sext.w	s1,s1
   1241c:	00300a13          	li	s4,3
   12420:	00300b13          	li	s6,3
   12424:	00000d93          	li	s11,0
   12428:	00078463          	beqz	a5,12430 <_vfprintf_r+0x1954>
   1242c:	a4dfe06f          	j	10e78 <_vfprintf_r+0x39c>
   12430:	834ff06f          	j	11464 <_vfprintf_r+0x988>
   12434:	000b8513          	mv	a0,s7
   12438:	dd8fe0ef          	jal	ra,10a10 <strlen>
   1243c:	00050b1b          	sext.w	s6,a0
   12440:	e11fe06f          	j	11250 <_vfprintf_r+0x774>
   12444:	12812603          	lw	a2,296(sp)
   12448:	04813703          	ld	a4,72(sp)
   1244c:	05813683          	ld	a3,88(sp)
   12450:	010c8313          	addi	t1,s9,16
   12454:	00f707b3          	add	a5,a4,a5
   12458:	00dcb023          	sd	a3,0(s9)
   1245c:	0016069b          	addiw	a3,a2,1
   12460:	00ecb423          	sd	a4,8(s9)
   12464:	12f13823          	sd	a5,304(sp)
   12468:	12d12423          	sw	a3,296(sp)
   1246c:	00700613          	li	a2,7
   12470:	44d64863          	blt	a2,a3,128c0 <_vfprintf_r+0x1de4>
   12474:	e605dce3          	bgez	a1,122ec <_vfprintf_r+0x1810>
   12478:	00022837          	lui	a6,0x22
   1247c:	ff000613          	li	a2,-16
   12480:	40b0043b          	negw	s0,a1
   12484:	85880d13          	addi	s10,a6,-1960 # 21858 <zeroes.4548>
   12488:	01000b13          	li	s6,16
   1248c:	00700c93          	li	s9,7
   12490:	00c5c863          	blt	a1,a2,124a0 <_vfprintf_r+0x19c4>
   12494:	2390006f          	j	12ecc <_vfprintf_r+0x23f0>
   12498:	ff04041b          	addiw	s0,s0,-16
   1249c:	228b58e3          	bge	s6,s0,12ecc <_vfprintf_r+0x23f0>
   124a0:	0016869b          	addiw	a3,a3,1
   124a4:	01078793          	addi	a5,a5,16
   124a8:	01a33023          	sd	s10,0(t1)
   124ac:	01633423          	sd	s6,8(t1)
   124b0:	12f13823          	sd	a5,304(sp)
   124b4:	12d12423          	sw	a3,296(sp)
   124b8:	01030313          	addi	t1,t1,16
   124bc:	fcdcdee3          	bge	s9,a3,12498 <_vfprintf_r+0x19bc>
   124c0:	12010613          	addi	a2,sp,288
   124c4:	000c0593          	mv	a1,s8
   124c8:	000a8513          	mv	a0,s5
   124cc:	1000a0ef          	jal	ra,1c5cc <__sprint_r>
   124d0:	00050463          	beqz	a0,124d8 <_vfprintf_r+0x19fc>
   124d4:	89dfe06f          	j	10d70 <_vfprintf_r+0x294>
   124d8:	13013783          	ld	a5,304(sp)
   124dc:	12812683          	lw	a3,296(sp)
   124e0:	1a010313          	addi	t1,sp,416
   124e4:	fb5ff06f          	j	12498 <_vfprintf_r+0x19bc>
   124e8:	2004f793          	andi	a5,s1,512
   124ec:	3a078663          	beqz	a5,12898 <_vfprintf_r+0x1dbc>
   124f0:	01013783          	ld	a5,16(sp)
   124f4:	00048a13          	mv	s4,s1
   124f8:	00e13823          	sd	a4,16(sp)
   124fc:	00078d03          	lb	s10,0(a5)
   12500:	000d0793          	mv	a5,s10
   12504:	df5fe06f          	j	112f8 <_vfprintf_r+0x81c>
   12508:	2004f793          	andi	a5,s1,512
   1250c:	36078a63          	beqz	a5,12880 <_vfprintf_r+0x1da4>
   12510:	0ffd7d13          	andi	s10,s10,255
   12514:	00e13823          	sd	a4,16(sp)
   12518:	00048a13          	mv	s4,s1
   1251c:	00100793          	li	a5,1
   12520:	901fe06f          	j	10e20 <_vfprintf_r+0x344>
   12524:	2004f793          	andi	a5,s1,512
   12528:	34078663          	beqz	a5,12874 <_vfprintf_r+0x1d98>
   1252c:	0ffd7d13          	andi	s10,s10,255
   12530:	8c1fe06f          	j	10df0 <_vfprintf_r+0x314>
   12534:	2004f793          	andi	a5,s1,512
   12538:	32078663          	beqz	a5,12864 <_vfprintf_r+0x1d88>
   1253c:	0ffd7d13          	andi	s10,s10,255
   12540:	00e13823          	sd	a4,16(sp)
   12544:	d5dfe06f          	j	112a0 <_vfprintf_r+0x7c4>
   12548:	11813783          	ld	a5,280(sp)
   1254c:	3607c263          	bltz	a5,128b0 <_vfprintf_r+0x1dd4>
   12550:	0ef14783          	lbu	a5,239(sp)
   12554:	04700713          	li	a4,71
   12558:	7e875863          	bge	a4,s0,12d48 <_vfprintf_r+0x226c>
   1255c:	00022737          	lui	a4,0x22
   12560:	8b870b93          	addi	s7,a4,-1864 # 218b8 <zeroes.4548+0x60>
   12564:	ea1ff06f          	j	12404 <_vfprintf_r+0x1928>
   12568:	0016861b          	addiw	a2,a3,1
   1256c:	008787b3          	add	a5,a5,s0
   12570:	01acb023          	sd	s10,0(s9)
   12574:	008cb423          	sd	s0,8(s9)
   12578:	12f13823          	sd	a5,304(sp)
   1257c:	12c12423          	sw	a2,296(sp)
   12580:	00700693          	li	a3,7
   12584:	010c8c93          	addi	s9,s9,16
   12588:	94c6d4e3          	bge	a3,a2,11ed0 <_vfprintf_r+0x13f4>
   1258c:	12010613          	addi	a2,sp,288
   12590:	000c0593          	mv	a1,s8
   12594:	000a8513          	mv	a0,s5
   12598:	0340a0ef          	jal	ra,1c5cc <__sprint_r>
   1259c:	00050463          	beqz	a0,125a4 <_vfprintf_r+0x1ac8>
   125a0:	fd0fe06f          	j	10d70 <_vfprintf_r+0x294>
   125a4:	13013783          	ld	a5,304(sp)
   125a8:	1a010c93          	addi	s9,sp,416
   125ac:	925ff06f          	j	11ed0 <_vfprintf_r+0x13f4>
   125b0:	02813703          	ld	a4,40(sp)
   125b4:	03213023          	sd	s2,32(sp)
   125b8:	04013903          	ld	s2,64(sp)
   125bc:	05413023          	sd	s4,64(sp)
   125c0:	03813a03          	ld	s4,56(sp)
   125c4:	00eb86b3          	add	a3,s7,a4
   125c8:	00022e37          	lui	t3,0x22
   125cc:	06913823          	sd	s1,112(sp)
   125d0:	09313823          	sd	s3,144(sp)
   125d4:	03713c23          	sd	s7,56(sp)
   125d8:	00700893          	li	a7,7
   125dc:	01000d13          	li	s10,16
   125e0:	858e0413          	addi	s0,t3,-1960 # 21858 <zeroes.4548>
   125e4:	07813983          	ld	s3,120(sp)
   125e8:	08013b03          	ld	s6,128(sp)
   125ec:	06813483          	ld	s1,104(sp)
   125f0:	000c8713          	mv	a4,s9
   125f4:	00068b93          	mv	s7,a3
   125f8:	080a0e63          	beqz	s4,12694 <_vfprintf_r+0x1bb8>
   125fc:	08091e63          	bnez	s2,12698 <_vfprintf_r+0x1bbc>
   12600:	fff48493          	addi	s1,s1,-1
   12604:	fffa0a1b          	addiw	s4,s4,-1
   12608:	12812683          	lw	a3,296(sp)
   1260c:	013787b3          	add	a5,a5,s3
   12610:	01673023          	sd	s6,0(a4)
   12614:	0016861b          	addiw	a2,a3,1
   12618:	01373423          	sd	s3,8(a4)
   1261c:	12f13823          	sd	a5,304(sp)
   12620:	12c12423          	sw	a2,296(sp)
   12624:	01070713          	addi	a4,a4,16
   12628:	10c8c463          	blt	a7,a2,12730 <_vfprintf_r+0x1c54>
   1262c:	0004c603          	lbu	a2,0(s1)
   12630:	41bb85bb          	subw	a1,s7,s11
   12634:	0006069b          	sext.w	a3,a2
   12638:	00068813          	mv	a6,a3
   1263c:	00d5d463          	bge	a1,a3,12644 <_vfprintf_r+0x1b68>
   12640:	00058813          	mv	a6,a1
   12644:	00080c9b          	sext.w	s9,a6
   12648:	03905863          	blez	s9,12678 <_vfprintf_r+0x1b9c>
   1264c:	12812683          	lw	a3,296(sp)
   12650:	019787b3          	add	a5,a5,s9
   12654:	01b73023          	sd	s11,0(a4)
   12658:	0016861b          	addiw	a2,a3,1
   1265c:	01973423          	sd	s9,8(a4)
   12660:	12f13823          	sd	a5,304(sp)
   12664:	12c12423          	sw	a2,296(sp)
   12668:	0ec8c863          	blt	a7,a2,12758 <_vfprintf_r+0x1c7c>
   1266c:	0004c603          	lbu	a2,0(s1)
   12670:	01070713          	addi	a4,a4,16
   12674:	0006069b          	sext.w	a3,a2
   12678:	fffcc593          	not	a1,s9
   1267c:	43f5d593          	srai	a1,a1,0x3f
   12680:	00bcf833          	and	a6,s9,a1
   12684:	41068cbb          	subw	s9,a3,a6
   12688:	01904c63          	bgtz	s9,126a0 <_vfprintf_r+0x1bc4>
   1268c:	00cd8db3          	add	s11,s11,a2
   12690:	f60a16e3          	bnez	s4,125fc <_vfprintf_r+0x1b20>
   12694:	48090a63          	beqz	s2,12b28 <_vfprintf_r+0x204c>
   12698:	fff9091b          	addiw	s2,s2,-1
   1269c:	f6dff06f          	j	12608 <_vfprintf_r+0x1b2c>
   126a0:	12812603          	lw	a2,296(sp)
   126a4:	019d4863          	blt	s10,s9,126b4 <_vfprintf_r+0x1bd8>
   126a8:	05c0006f          	j	12704 <_vfprintf_r+0x1c28>
   126ac:	ff0c8c9b          	addiw	s9,s9,-16
   126b0:	059d5a63          	bge	s10,s9,12704 <_vfprintf_r+0x1c28>
   126b4:	0016061b          	addiw	a2,a2,1
   126b8:	01078793          	addi	a5,a5,16
   126bc:	00873023          	sd	s0,0(a4)
   126c0:	01a73423          	sd	s10,8(a4)
   126c4:	12f13823          	sd	a5,304(sp)
   126c8:	12c12423          	sw	a2,296(sp)
   126cc:	01070713          	addi	a4,a4,16
   126d0:	fcc8dee3          	bge	a7,a2,126ac <_vfprintf_r+0x1bd0>
   126d4:	12010613          	addi	a2,sp,288
   126d8:	000c0593          	mv	a1,s8
   126dc:	000a8513          	mv	a0,s5
   126e0:	6ed090ef          	jal	ra,1c5cc <__sprint_r>
   126e4:	00050463          	beqz	a0,126ec <_vfprintf_r+0x1c10>
   126e8:	e88fe06f          	j	10d70 <_vfprintf_r+0x294>
   126ec:	ff0c8c9b          	addiw	s9,s9,-16
   126f0:	13013783          	ld	a5,304(sp)
   126f4:	12812603          	lw	a2,296(sp)
   126f8:	1a010713          	addi	a4,sp,416
   126fc:	00700893          	li	a7,7
   12700:	fb9d4ae3          	blt	s10,s9,126b4 <_vfprintf_r+0x1bd8>
   12704:	0016069b          	addiw	a3,a2,1
   12708:	019787b3          	add	a5,a5,s9
   1270c:	00873023          	sd	s0,0(a4)
   12710:	01973423          	sd	s9,8(a4)
   12714:	12f13823          	sd	a5,304(sp)
   12718:	12d12423          	sw	a3,296(sp)
   1271c:	56d8c863          	blt	a7,a3,12c8c <_vfprintf_r+0x21b0>
   12720:	0004c603          	lbu	a2,0(s1)
   12724:	01070713          	addi	a4,a4,16
   12728:	00cd8db3          	add	s11,s11,a2
   1272c:	f65ff06f          	j	12690 <_vfprintf_r+0x1bb4>
   12730:	12010613          	addi	a2,sp,288
   12734:	000c0593          	mv	a1,s8
   12738:	000a8513          	mv	a0,s5
   1273c:	691090ef          	jal	ra,1c5cc <__sprint_r>
   12740:	00050463          	beqz	a0,12748 <_vfprintf_r+0x1c6c>
   12744:	e2cfe06f          	j	10d70 <_vfprintf_r+0x294>
   12748:	13013783          	ld	a5,304(sp)
   1274c:	1a010713          	addi	a4,sp,416
   12750:	00700893          	li	a7,7
   12754:	ed9ff06f          	j	1262c <_vfprintf_r+0x1b50>
   12758:	12010613          	addi	a2,sp,288
   1275c:	000c0593          	mv	a1,s8
   12760:	000a8513          	mv	a0,s5
   12764:	669090ef          	jal	ra,1c5cc <__sprint_r>
   12768:	00050463          	beqz	a0,12770 <_vfprintf_r+0x1c94>
   1276c:	e04fe06f          	j	10d70 <_vfprintf_r+0x294>
   12770:	0004c603          	lbu	a2,0(s1)
   12774:	13013783          	ld	a5,304(sp)
   12778:	1a010713          	addi	a4,sp,416
   1277c:	0006069b          	sext.w	a3,a2
   12780:	00700893          	li	a7,7
   12784:	ef5ff06f          	j	12678 <_vfprintf_r+0x1b9c>
   12788:	001d8d9b          	addiw	s11,s11,1
   1278c:	01070c93          	addi	s9,a4,16
   12790:	00070413          	mv	s0,a4
   12794:	e6dfe06f          	j	11600 <_vfprintf_r+0xb24>
   12798:	12010613          	addi	a2,sp,288
   1279c:	000c0593          	mv	a1,s8
   127a0:	000a8513          	mv	a0,s5
   127a4:	629090ef          	jal	ra,1c5cc <__sprint_r>
   127a8:	00050463          	beqz	a0,127b0 <_vfprintf_r+0x1cd4>
   127ac:	dc4fe06f          	j	10d70 <_vfprintf_r+0x294>
   127b0:	0f812583          	lw	a1,248(sp)
   127b4:	13013783          	ld	a5,304(sp)
   127b8:	1a010c93          	addi	s9,sp,416
   127bc:	aedff06f          	j	122a8 <_vfprintf_r+0x17cc>
   127c0:	00022737          	lui	a4,0x22
   127c4:	8a070b93          	addi	s7,a4,-1888 # 218a0 <zeroes.4548+0x48>
   127c8:	c3dff06f          	j	12404 <_vfprintf_r+0x1928>
   127cc:	12010613          	addi	a2,sp,288
   127d0:	000c0593          	mv	a1,s8
   127d4:	000a8513          	mv	a0,s5
   127d8:	5f5090ef          	jal	ra,1c5cc <__sprint_r>
   127dc:	00050463          	beqz	a0,127e4 <_vfprintf_r+0x1d08>
   127e0:	d90fe06f          	j	10d70 <_vfprintf_r+0x294>
   127e4:	13013783          	ld	a5,304(sp)
   127e8:	1a010c93          	addi	s9,sp,416
   127ec:	eccff06f          	j	11eb8 <_vfprintf_r+0x13dc>
   127f0:	00600e13          	li	t3,6
   127f4:	99dff06f          	j	12190 <_vfprintf_r+0x16b4>
   127f8:	07813783          	ld	a5,120(sp)
   127fc:	08013583          	ld	a1,128(sp)
   12800:	00000493          	li	s1,0
   12804:	40f90933          	sub	s2,s2,a5
   12808:	00078613          	mv	a2,a5
   1280c:	00090513          	mv	a0,s2
   12810:	5b0070ef          	jal	ra,19dc0 <strncpy>
   12814:	00144683          	lbu	a3,1(s0)
   12818:	00098513          	mv	a0,s3
   1281c:	00a00593          	li	a1,10
   12820:	00d03733          	snez	a4,a3
   12824:	00e40433          	add	s0,s0,a4
   12828:	47d0e0ef          	jal	ra,214a4 <__udivdi3>
   1282c:	00050993          	mv	s3,a0
   12830:	b21ff06f          	j	12350 <_vfprintf_r+0x1874>
   12834:	02813683          	ld	a3,40(sp)
   12838:	00db8733          	add	a4,s7,a3
   1283c:	4086863b          	subw	a2,a3,s0
   12840:	41b7083b          	subw	a6,a4,s11
   12844:	0008041b          	sext.w	s0,a6
   12848:	f3065263          	bge	a2,a6,11f6c <_vfprintf_r+0x1490>
   1284c:	0006041b          	sext.w	s0,a2
   12850:	f1cff06f          	j	11f6c <_vfprintf_r+0x1490>
   12854:	00813783          	ld	a5,8(sp)
   12858:	00090b93          	mv	s7,s2
   1285c:	00f71023          	sh	a5,0(a4)
   12860:	d29fe06f          	j	11588 <_vfprintf_r+0xaac>
   12864:	020d1d13          	slli	s10,s10,0x20
   12868:	020d5d13          	srli	s10,s10,0x20
   1286c:	00e13823          	sd	a4,16(sp)
   12870:	a31fe06f          	j	112a0 <_vfprintf_r+0x7c4>
   12874:	020d1d13          	slli	s10,s10,0x20
   12878:	020d5d13          	srli	s10,s10,0x20
   1287c:	d74fe06f          	j	10df0 <_vfprintf_r+0x314>
   12880:	020d1d13          	slli	s10,s10,0x20
   12884:	020d5d13          	srli	s10,s10,0x20
   12888:	00e13823          	sd	a4,16(sp)
   1288c:	00048a13          	mv	s4,s1
   12890:	00100793          	li	a5,1
   12894:	d8cfe06f          	j	10e20 <_vfprintf_r+0x344>
   12898:	01013783          	ld	a5,16(sp)
   1289c:	00048a13          	mv	s4,s1
   128a0:	00e13823          	sd	a4,16(sp)
   128a4:	0007ad03          	lw	s10,0(a5)
   128a8:	000d0793          	mv	a5,s10
   128ac:	a4dfe06f          	j	112f8 <_vfprintf_r+0x81c>
   128b0:	02d00793          	li	a5,45
   128b4:	0ef107a3          	sb	a5,239(sp)
   128b8:	02d00793          	li	a5,45
   128bc:	c99ff06f          	j	12554 <_vfprintf_r+0x1a78>
   128c0:	12010613          	addi	a2,sp,288
   128c4:	000c0593          	mv	a1,s8
   128c8:	000a8513          	mv	a0,s5
   128cc:	501090ef          	jal	ra,1c5cc <__sprint_r>
   128d0:	00050463          	beqz	a0,128d8 <_vfprintf_r+0x1dfc>
   128d4:	c9cfe06f          	j	10d70 <_vfprintf_r+0x294>
   128d8:	0f812583          	lw	a1,248(sp)
   128dc:	13013783          	ld	a5,304(sp)
   128e0:	12812683          	lw	a3,296(sp)
   128e4:	1a010313          	addi	t1,sp,416
   128e8:	a005d2e3          	bgez	a1,122ec <_vfprintf_r+0x1810>
   128ec:	b8dff06f          	j	12478 <_vfprintf_r+0x199c>
   128f0:	03000793          	li	a5,48
   128f4:	0ef10823          	sb	a5,240(sp)
   128f8:	05800713          	li	a4,88
   128fc:	0024e793          	ori	a5,s1,2
   12900:	0007879b          	sext.w	a5,a5
   12904:	0ee108a3          	sb	a4,241(sp)
   12908:	06300693          	li	a3,99
   1290c:	04f13023          	sd	a5,64(sp)
   12910:	00013c23          	sd	zero,24(sp)
   12914:	13810b93          	addi	s7,sp,312
   12918:	59b6c463          	blt	a3,s11,12ea0 <_vfprintf_r+0x23c4>
   1291c:	11813b03          	ld	s6,280(sp)
   12920:	fdf47793          	andi	a5,s0,-33
   12924:	1024e493          	ori	s1,s1,258
   12928:	02f13c23          	sd	a5,56(sp)
   1292c:	06013823          	sd	zero,112(sp)
   12930:	0004849b          	sext.w	s1,s1
   12934:	11013d03          	ld	s10,272(sp)
   12938:	320b4e63          	bltz	s6,12c74 <_vfprintf_r+0x2198>
   1293c:	06100793          	li	a5,97
   12940:	62f40a63          	beq	s0,a5,12f74 <_vfprintf_r+0x2498>
   12944:	04100793          	li	a5,65
   12948:	00f40463          	beq	s0,a5,12950 <_vfprintf_r+0x1e74>
   1294c:	eb0fe06f          	j	10ffc <_vfprintf_r+0x520>
   12950:	000b0593          	mv	a1,s6
   12954:	000d0513          	mv	a0,s10
   12958:	14d0e0ef          	jal	ra,212a4 <__trunctfdf2>
   1295c:	0f810593          	addi	a1,sp,248
   12960:	755060ef          	jal	ra,198b4 <frexp>
   12964:	04d0e0ef          	jal	ra,211b0 <__extenddftf2>
   12968:	00fff7b7          	lui	a5,0xfff
   1296c:	00000613          	li	a2,0
   12970:	02679693          	slli	a3,a5,0x26
   12974:	0590d0ef          	jal	ra,201cc <__multf3>
   12978:	00000613          	li	a2,0
   1297c:	00000693          	li	a3,0
   12980:	00050b13          	mv	s6,a0
   12984:	00058d13          	mv	s10,a1
   12988:	5f80d0ef          	jal	ra,1ff80 <__eqtf2>
   1298c:	00051663          	bnez	a0,12998 <_vfprintf_r+0x1ebc>
   12990:	00100793          	li	a5,1
   12994:	0ef12c23          	sw	a5,248(sp)
   12998:	000227b7          	lui	a5,0x22
   1299c:	8d878793          	addi	a5,a5,-1832 # 218d8 <zeroes.4548+0x80>
   129a0:	02f13023          	sd	a5,32(sp)
   129a4:	000d869b          	sext.w	a3,s11
   129a8:	02069793          	slli	a5,a3,0x20
   129ac:	0207d793          	srli	a5,a5,0x20
   129b0:	00178793          	addi	a5,a5,1
   129b4:	00fb8733          	add	a4,s7,a5
   129b8:	00db86bb          	addw	a3,s7,a3
   129bc:	03213423          	sd	s2,40(sp)
   129c0:	08813823          	sd	s0,144(sp)
   129c4:	0a913423          	sd	s1,168(sp)
   129c8:	0b313823          	sd	s3,176(sp)
   129cc:	000b8413          	mv	s0,s7
   129d0:	0d713823          	sd	s7,208(sp)
   129d4:	0ce13c23          	sd	a4,216(sp)
   129d8:	0b913c23          	sd	s9,184(sp)
   129dc:	02013483          	ld	s1,32(sp)
   129e0:	00070913          	mv	s2,a4
   129e4:	0d513023          	sd	s5,192(sp)
   129e8:	0d813423          	sd	s8,200(sp)
   129ec:	000d0b93          	mv	s7,s10
   129f0:	00068993          	mv	s3,a3
   129f4:	0180006f          	j	12a0c <_vfprintf_r+0x1f30>
   129f8:	00000613          	li	a2,0
   129fc:	00000693          	li	a3,0
   12a00:	5800d0ef          	jal	ra,1ff80 <__eqtf2>
   12a04:	52050c63          	beqz	a0,12f3c <_vfprintf_r+0x2460>
   12a08:	000c0413          	mv	s0,s8
   12a0c:	08813683          	ld	a3,136(sp)
   12a10:	00000613          	li	a2,0
   12a14:	000b0513          	mv	a0,s6
   12a18:	000b8593          	mv	a1,s7
   12a1c:	7b00d0ef          	jal	ra,201cc <__multf3>
   12a20:	00058a93          	mv	s5,a1
   12a24:	00050b13          	mv	s6,a0
   12a28:	6900e0ef          	jal	ra,210b8 <__fixtfsi>
   12a2c:	00050a1b          	sext.w	s4,a0
   12a30:	6f00e0ef          	jal	ra,21120 <__floatsitf>
   12a34:	00058693          	mv	a3,a1
   12a38:	00050613          	mv	a2,a0
   12a3c:	000a8593          	mv	a1,s5
   12a40:	000b0513          	mv	a0,s6
   12a44:	6a50d0ef          	jal	ra,208e8 <__subtf3>
   12a48:	014487b3          	add	a5,s1,s4
   12a4c:	0007c683          	lbu	a3,0(a5)
   12a50:	00140c13          	addi	s8,s0,1
   12a54:	00050c93          	mv	s9,a0
   12a58:	fedc0fa3          	sb	a3,-1(s8)
   12a5c:	00058d13          	mv	s10,a1
   12a60:	00050b13          	mv	s6,a0
   12a64:	00058b93          	mv	s7,a1
   12a68:	41898abb          	subw	s5,s3,s8
   12a6c:	f92c16e3          	bne	s8,s2,129f8 <_vfprintf_r+0x1f1c>
   12a70:	02813903          	ld	s2,40(sp)
   12a74:	0a813483          	ld	s1,168(sp)
   12a78:	02813423          	sd	s0,40(sp)
   12a7c:	0b013983          	ld	s3,176(sp)
   12a80:	09013403          	ld	s0,144(sp)
   12a84:	0c013a83          	ld	s5,192(sp)
   12a88:	0c813c03          	ld	s8,200(sp)
   12a8c:	0d013b83          	ld	s7,208(sp)
   12a90:	0b813c83          	ld	s9,184(sp)
   12a94:	0d813783          	ld	a5,216(sp)
   12a98:	fff00713          	li	a4,-1
   12a9c:	00050893          	mv	a7,a0
   12aa0:	00058813          	mv	a6,a1
   12aa4:	00070b13          	mv	s6,a4
   12aa8:	09813683          	ld	a3,152(sp)
   12aac:	00000613          	li	a2,0
   12ab0:	00088513          	mv	a0,a7
   12ab4:	00080593          	mv	a1,a6
   12ab8:	08f13823          	sd	a5,144(sp)
   12abc:	0b113823          	sd	a7,176(sp)
   12ac0:	0b013423          	sd	a6,168(sp)
   12ac4:	5480d0ef          	jal	ra,2000c <__getf2>
   12ac8:	09013783          	ld	a5,144(sp)
   12acc:	34a04063          	bgtz	a0,12e0c <_vfprintf_r+0x2330>
   12ad0:	0b013883          	ld	a7,176(sp)
   12ad4:	0a813803          	ld	a6,168(sp)
   12ad8:	09813683          	ld	a3,152(sp)
   12adc:	00000613          	li	a2,0
   12ae0:	00088513          	mv	a0,a7
   12ae4:	00080593          	mv	a1,a6
   12ae8:	4980d0ef          	jal	ra,1ff80 <__eqtf2>
   12aec:	09013783          	ld	a5,144(sp)
   12af0:	00051663          	bnez	a0,12afc <_vfprintf_r+0x2020>
   12af4:	001a7a13          	andi	s4,s4,1
   12af8:	300a1a63          	bnez	s4,12e0c <_vfprintf_r+0x2330>
   12afc:	001b0693          	addi	a3,s6,1
   12b00:	00d786b3          	add	a3,a5,a3
   12b04:	03000613          	li	a2,48
   12b08:	000b5463          	bgez	s6,12b10 <_vfprintf_r+0x2034>
   12b0c:	d5cfe06f          	j	11068 <_vfprintf_r+0x58c>
   12b10:	00178793          	addi	a5,a5,1
   12b14:	fec78fa3          	sb	a2,-1(a5)
   12b18:	fef69ce3          	bne	a3,a5,12b10 <_vfprintf_r+0x2034>
   12b1c:	d4cfe06f          	j	11068 <_vfprintf_r+0x58c>
   12b20:	00048a13          	mv	s4,s1
   12b24:	cf5fe06f          	j	11818 <_vfprintf_r+0xd3c>
   12b28:	00070c93          	mv	s9,a4
   12b2c:	03813b83          	ld	s7,56(sp)
   12b30:	02813703          	ld	a4,40(sp)
   12b34:	06913423          	sd	s1,104(sp)
   12b38:	02013903          	ld	s2,32(sp)
   12b3c:	00eb86b3          	add	a3,s7,a4
   12b40:	09013983          	ld	s3,144(sp)
   12b44:	07013483          	ld	s1,112(sp)
   12b48:	04013a03          	ld	s4,64(sp)
   12b4c:	b9b6fa63          	bgeu	a3,s11,11ee0 <_vfprintf_r+0x1404>
   12b50:	00068d93          	mv	s11,a3
   12b54:	b8cff06f          	j	11ee0 <_vfprintf_r+0x1404>
   12b58:	02013703          	ld	a4,32(sp)
   12b5c:	ffd00793          	li	a5,-3
   12b60:	00f74463          	blt	a4,a5,12b68 <_vfprintf_r+0x208c>
   12b64:	00edda63          	bge	s11,a4,12b78 <_vfprintf_r+0x209c>
   12b68:	ffe4041b          	addiw	s0,s0,-2
   12b6c:	fdf47793          	andi	a5,s0,-33
   12b70:	02f13c23          	sd	a5,56(sp)
   12b74:	d24fe06f          	j	11098 <_vfprintf_r+0x5bc>
   12b78:	02813783          	ld	a5,40(sp)
   12b7c:	02013703          	ld	a4,32(sp)
   12b80:	24f74463          	blt	a4,a5,12dc8 <_vfprintf_r+0x22ec>
   12b84:	04013783          	ld	a5,64(sp)
   12b88:	00070b13          	mv	s6,a4
   12b8c:	0017f793          	andi	a5,a5,1
   12b90:	00078663          	beqz	a5,12b9c <_vfprintf_r+0x20c0>
   12b94:	04813783          	ld	a5,72(sp)
   12b98:	00e78b3b          	addw	s6,a5,a4
   12b9c:	04013783          	ld	a5,64(sp)
   12ba0:	4007f793          	andi	a5,a5,1024
   12ba4:	00078663          	beqz	a5,12bb0 <_vfprintf_r+0x20d4>
   12ba8:	02013783          	ld	a5,32(sp)
   12bac:	44f04663          	bgtz	a5,12ff8 <_vfprintf_r+0x251c>
   12bb0:	fffb4a13          	not	s4,s6
   12bb4:	43fa5a13          	srai	s4,s4,0x3f
   12bb8:	014b7a33          	and	s4,s6,s4
   12bbc:	000a0a1b          	sext.w	s4,s4
   12bc0:	06700413          	li	s0,103
   12bc4:	04013023          	sd	zero,64(sp)
   12bc8:	02013c23          	sd	zero,56(sp)
   12bcc:	dfcfe06f          	j	111c8 <_vfprintf_r+0x6ec>
   12bd0:	0f810793          	addi	a5,sp,248
   12bd4:	00300693          	li	a3,3
   12bd8:	10810893          	addi	a7,sp,264
   12bdc:	0fc10813          	addi	a6,sp,252
   12be0:	000d8713          	mv	a4,s11
   12be4:	000d0593          	mv	a1,s10
   12be8:	000b0613          	mv	a2,s6
   12bec:	000a8513          	mv	a0,s5
   12bf0:	33c030ef          	jal	ra,15f2c <_ldtoa_r>
   12bf4:	00054683          	lbu	a3,0(a0)
   12bf8:	03000793          	li	a5,48
   12bfc:	00050b93          	mv	s7,a0
   12c00:	0cf68663          	beq	a3,a5,12ccc <_vfprintf_r+0x21f0>
   12c04:	0f812783          	lw	a5,248(sp)
   12c08:	01b787b3          	add	a5,a5,s11
   12c0c:	00fb8a33          	add	s4,s7,a5
   12c10:	00000613          	li	a2,0
   12c14:	00000693          	li	a3,0
   12c18:	000d0513          	mv	a0,s10
   12c1c:	000b0593          	mv	a1,s6
   12c20:	3600d0ef          	jal	ra,1ff80 <__eqtf2>
   12c24:	000a0793          	mv	a5,s4
   12c28:	00051463          	bnez	a0,12c30 <_vfprintf_r+0x2154>
   12c2c:	c3cfe06f          	j	11068 <_vfprintf_r+0x58c>
   12c30:	10813783          	ld	a5,264(sp)
   12c34:	03000613          	li	a2,48
   12c38:	0147e463          	bltu	a5,s4,12c40 <_vfprintf_r+0x2164>
   12c3c:	c2cfe06f          	j	11068 <_vfprintf_r+0x58c>
   12c40:	00178713          	addi	a4,a5,1
   12c44:	10e13423          	sd	a4,264(sp)
   12c48:	00c78023          	sb	a2,0(a5)
   12c4c:	10813783          	ld	a5,264(sp)
   12c50:	ff47e8e3          	bltu	a5,s4,12c40 <_vfprintf_r+0x2164>
   12c54:	c14fe06f          	j	11068 <_vfprintf_r+0x58c>
   12c58:	0ef14783          	lbu	a5,239(sp)
   12c5c:	00000d93          	li	s11,0
   12c60:	00078463          	beqz	a5,12c68 <_vfprintf_r+0x218c>
   12c64:	a14fe06f          	j	10e78 <_vfprintf_r+0x39c>
   12c68:	ffcfe06f          	j	11464 <_vfprintf_r+0x988>
   12c6c:	00013c23          	sd	zero,24(sp)
   12c70:	00078493          	mv	s1,a5
   12c74:	fff00793          	li	a5,-1
   12c78:	03f79793          	slli	a5,a5,0x3f
   12c7c:	00fb4b33          	xor	s6,s6,a5
   12c80:	02d00793          	li	a5,45
   12c84:	06f13823          	sd	a5,112(sp)
   12c88:	cb5ff06f          	j	1293c <_vfprintf_r+0x1e60>
   12c8c:	12010613          	addi	a2,sp,288
   12c90:	000c0593          	mv	a1,s8
   12c94:	000a8513          	mv	a0,s5
   12c98:	135090ef          	jal	ra,1c5cc <__sprint_r>
   12c9c:	00050463          	beqz	a0,12ca4 <_vfprintf_r+0x21c8>
   12ca0:	8d0fe06f          	j	10d70 <_vfprintf_r+0x294>
   12ca4:	0004c603          	lbu	a2,0(s1)
   12ca8:	13013783          	ld	a5,304(sp)
   12cac:	1a010713          	addi	a4,sp,416
   12cb0:	00700893          	li	a7,7
   12cb4:	00cd8db3          	add	s11,s11,a2
   12cb8:	9d9ff06f          	j	12690 <_vfprintf_r+0x1bb4>
   12cbc:	02d00793          	li	a5,45
   12cc0:	0ef107a3          	sb	a5,239(sp)
   12cc4:	02d00793          	li	a5,45
   12cc8:	f2cff06f          	j	123f4 <_vfprintf_r+0x1918>
   12ccc:	00000613          	li	a2,0
   12cd0:	00000693          	li	a3,0
   12cd4:	000d0513          	mv	a0,s10
   12cd8:	000b0593          	mv	a1,s6
   12cdc:	2a40d0ef          	jal	ra,1ff80 <__eqtf2>
   12ce0:	f20502e3          	beqz	a0,12c04 <_vfprintf_r+0x2128>
   12ce4:	00100693          	li	a3,1
   12ce8:	41b687bb          	subw	a5,a3,s11
   12cec:	0ef12c23          	sw	a5,248(sp)
   12cf0:	f19ff06f          	j	12c08 <_vfprintf_r+0x212c>
   12cf4:	12010613          	addi	a2,sp,288
   12cf8:	000c0593          	mv	a1,s8
   12cfc:	000a8513          	mv	a0,s5
   12d00:	0cd090ef          	jal	ra,1c5cc <__sprint_r>
   12d04:	00050463          	beqz	a0,12d0c <_vfprintf_r+0x2230>
   12d08:	868fe06f          	j	10d70 <_vfprintf_r+0x294>
   12d0c:	0f812403          	lw	s0,248(sp)
   12d10:	13013783          	ld	a5,304(sp)
   12d14:	1a010c93          	addi	s9,sp,416
   12d18:	a0cff06f          	j	11f24 <_vfprintf_r+0x1448>
   12d1c:	0ef14783          	lbu	a5,239(sp)
   12d20:	01a13823          	sd	s10,16(sp)
   12d24:	04013023          	sd	zero,64(sp)
   12d28:	02013c23          	sd	zero,56(sp)
   12d2c:	02013023          	sd	zero,32(sp)
   12d30:	000d8a13          	mv	s4,s11
   12d34:	000d8b13          	mv	s6,s11
   12d38:	00000d93          	li	s11,0
   12d3c:	00078463          	beqz	a5,12d44 <_vfprintf_r+0x2268>
   12d40:	938fe06f          	j	10e78 <_vfprintf_r+0x39c>
   12d44:	f20fe06f          	j	11464 <_vfprintf_r+0x988>
   12d48:	00022737          	lui	a4,0x22
   12d4c:	8b070b93          	addi	s7,a4,-1872 # 218b0 <zeroes.4548+0x58>
   12d50:	eb4ff06f          	j	12404 <_vfprintf_r+0x1928>
   12d54:	04013783          	ld	a5,64(sp)
   12d58:	02013703          	ld	a4,32(sp)
   12d5c:	0017f793          	andi	a5,a5,1
   12d60:	00fde7b3          	or	a5,s11,a5
   12d64:	0007879b          	sext.w	a5,a5
   12d68:	36e05263          	blez	a4,130cc <_vfprintf_r+0x25f0>
   12d6c:	32079063          	bnez	a5,1308c <_vfprintf_r+0x25b0>
   12d70:	02013b03          	ld	s6,32(sp)
   12d74:	06600413          	li	s0,102
   12d78:	04013783          	ld	a5,64(sp)
   12d7c:	4007f793          	andi	a5,a5,1024
   12d80:	26079e63          	bnez	a5,12ffc <_vfprintf_r+0x2520>
   12d84:	fffb4a13          	not	s4,s6
   12d88:	43fa5a13          	srai	s4,s4,0x3f
   12d8c:	014b7a33          	and	s4,s6,s4
   12d90:	000a0a1b          	sext.w	s4,s4
   12d94:	e31ff06f          	j	12bc4 <_vfprintf_r+0x20e8>
   12d98:	12010613          	addi	a2,sp,288
   12d9c:	000c0593          	mv	a1,s8
   12da0:	000a8513          	mv	a0,s5
   12da4:	029090ef          	jal	ra,1c5cc <__sprint_r>
   12da8:	00050463          	beqz	a0,12db0 <_vfprintf_r+0x22d4>
   12dac:	fc5fd06f          	j	10d70 <_vfprintf_r+0x294>
   12db0:	0f812603          	lw	a2,248(sp)
   12db4:	02813703          	ld	a4,40(sp)
   12db8:	13013783          	ld	a5,304(sp)
   12dbc:	1a010c93          	addi	s9,sp,416
   12dc0:	40c7063b          	subw	a2,a4,a2
   12dc4:	9a8ff06f          	j	11f6c <_vfprintf_r+0x1490>
   12dc8:	02813703          	ld	a4,40(sp)
   12dcc:	04813783          	ld	a5,72(sp)
   12dd0:	06700413          	li	s0,103
   12dd4:	00e78b3b          	addw	s6,a5,a4
   12dd8:	02013703          	ld	a4,32(sp)
   12ddc:	f8e04ee3          	bgtz	a4,12d78 <_vfprintf_r+0x229c>
   12de0:	40eb07bb          	subw	a5,s6,a4
   12de4:	0017879b          	addiw	a5,a5,1
   12de8:	00078b1b          	sext.w	s6,a5
   12dec:	fffb4a13          	not	s4,s6
   12df0:	43fa5a13          	srai	s4,s4,0x3f
   12df4:	0147f7b3          	and	a5,a5,s4
   12df8:	00078a1b          	sext.w	s4,a5
   12dfc:	dc9ff06f          	j	12bc4 <_vfprintf_r+0x20e8>
   12e00:	fff00793          	li	a5,-1
   12e04:	00f13423          	sd	a5,8(sp)
   12e08:	f89fd06f          	j	10d90 <_vfprintf_r+0x2b4>
   12e0c:	02813703          	ld	a4,40(sp)
   12e10:	00078693          	mv	a3,a5
   12e14:	10e13423          	sd	a4,264(sp)
   12e18:	02013703          	ld	a4,32(sp)
   12e1c:	fff7c603          	lbu	a2,-1(a5)
   12e20:	00f74583          	lbu	a1,15(a4)
   12e24:	02b61063          	bne	a2,a1,12e44 <_vfprintf_r+0x2368>
   12e28:	03000513          	li	a0,48
   12e2c:	fea68fa3          	sb	a0,-1(a3)
   12e30:	10813683          	ld	a3,264(sp)
   12e34:	fff68713          	addi	a4,a3,-1
   12e38:	10e13423          	sd	a4,264(sp)
   12e3c:	fff6c603          	lbu	a2,-1(a3)
   12e40:	feb606e3          	beq	a2,a1,12e2c <_vfprintf_r+0x2350>
   12e44:	0016059b          	addiw	a1,a2,1
   12e48:	03900513          	li	a0,57
   12e4c:	0ff5f593          	andi	a1,a1,255
   12e50:	00a60663          	beq	a2,a0,12e5c <_vfprintf_r+0x2380>
   12e54:	feb68fa3          	sb	a1,-1(a3)
   12e58:	a10fe06f          	j	11068 <_vfprintf_r+0x58c>
   12e5c:	02013703          	ld	a4,32(sp)
   12e60:	00a74583          	lbu	a1,10(a4)
   12e64:	feb68fa3          	sb	a1,-1(a3)
   12e68:	a00fe06f          	j	11068 <_vfprintf_r+0x58c>
   12e6c:	001d8a1b          	addiw	s4,s11,1
   12e70:	000a0713          	mv	a4,s4
   12e74:	10810893          	addi	a7,sp,264
   12e78:	0fc10813          	addi	a6,sp,252
   12e7c:	0f810793          	addi	a5,sp,248
   12e80:	00200693          	li	a3,2
   12e84:	000d0593          	mv	a1,s10
   12e88:	000b0613          	mv	a2,s6
   12e8c:	000a8513          	mv	a0,s5
   12e90:	09c030ef          	jal	ra,15f2c <_ldtoa_r>
   12e94:	00050b93          	mv	s7,a0
   12e98:	014b8a33          	add	s4,s7,s4
   12e9c:	d75ff06f          	j	12c10 <_vfprintf_r+0x2134>
   12ea0:	001d859b          	addiw	a1,s11,1
   12ea4:	000a8513          	mv	a0,s5
   12ea8:	6f8040ef          	jal	ra,175a0 <_malloc_r>
   12eac:	00050b93          	mv	s7,a0
   12eb0:	28050c63          	beqz	a0,13148 <_vfprintf_r+0x266c>
   12eb4:	00a13c23          	sd	a0,24(sp)
   12eb8:	a65ff06f          	j	1291c <_vfprintf_r+0x1e40>
   12ebc:	03000793          	li	a5,48
   12ec0:	0ef10823          	sb	a5,240(sp)
   12ec4:	07800713          	li	a4,120
   12ec8:	a35ff06f          	j	128fc <_vfprintf_r+0x1e20>
   12ecc:	0016869b          	addiw	a3,a3,1
   12ed0:	008787b3          	add	a5,a5,s0
   12ed4:	01a33023          	sd	s10,0(t1)
   12ed8:	00833423          	sd	s0,8(t1)
   12edc:	12f13823          	sd	a5,304(sp)
   12ee0:	12d12423          	sw	a3,296(sp)
   12ee4:	00700613          	li	a2,7
   12ee8:	01030313          	addi	t1,t1,16
   12eec:	c0d65063          	bge	a2,a3,122ec <_vfprintf_r+0x1810>
   12ef0:	12010613          	addi	a2,sp,288
   12ef4:	000c0593          	mv	a1,s8
   12ef8:	000a8513          	mv	a0,s5
   12efc:	6d0090ef          	jal	ra,1c5cc <__sprint_r>
   12f00:	00050463          	beqz	a0,12f08 <_vfprintf_r+0x242c>
   12f04:	e6dfd06f          	j	10d70 <_vfprintf_r+0x294>
   12f08:	13013783          	ld	a5,304(sp)
   12f0c:	12812683          	lw	a3,296(sp)
   12f10:	1a010313          	addi	t1,sp,416
   12f14:	bd8ff06f          	j	122ec <_vfprintf_r+0x1810>
   12f18:	000d8463          	beqz	s11,12f20 <_vfprintf_r+0x2444>
   12f1c:	8b8fe06f          	j	10fd4 <_vfprintf_r+0x4f8>
   12f20:	00100d93          	li	s11,1
   12f24:	8b0fe06f          	j	10fd4 <_vfprintf_r+0x4f8>
   12f28:	00600d93          	li	s11,6
   12f2c:	8a8fe06f          	j	10fd4 <_vfprintf_r+0x4f8>
   12f30:	00f72023          	sw	a5,0(a4)
   12f34:	00090b93          	mv	s7,s2
   12f38:	e50fe06f          	j	11588 <_vfprintf_r+0xaac>
   12f3c:	000a8b13          	mv	s6,s5
   12f40:	02813903          	ld	s2,40(sp)
   12f44:	000c0793          	mv	a5,s8
   12f48:	02813423          	sd	s0,40(sp)
   12f4c:	000c8893          	mv	a7,s9
   12f50:	0a813483          	ld	s1,168(sp)
   12f54:	0b013983          	ld	s3,176(sp)
   12f58:	09013403          	ld	s0,144(sp)
   12f5c:	0c013a83          	ld	s5,192(sp)
   12f60:	0c813c03          	ld	s8,200(sp)
   12f64:	0d013b83          	ld	s7,208(sp)
   12f68:	0b813c83          	ld	s9,184(sp)
   12f6c:	000d0813          	mv	a6,s10
   12f70:	b39ff06f          	j	12aa8 <_vfprintf_r+0x1fcc>
   12f74:	000b0593          	mv	a1,s6
   12f78:	000d0513          	mv	a0,s10
   12f7c:	3280e0ef          	jal	ra,212a4 <__trunctfdf2>
   12f80:	0f810593          	addi	a1,sp,248
   12f84:	131060ef          	jal	ra,198b4 <frexp>
   12f88:	2280e0ef          	jal	ra,211b0 <__extenddftf2>
   12f8c:	0a013683          	ld	a3,160(sp)
   12f90:	00000613          	li	a2,0
   12f94:	2380d0ef          	jal	ra,201cc <__multf3>
   12f98:	00000613          	li	a2,0
   12f9c:	00000693          	li	a3,0
   12fa0:	00050b13          	mv	s6,a0
   12fa4:	00058d13          	mv	s10,a1
   12fa8:	7d90c0ef          	jal	ra,1ff80 <__eqtf2>
   12fac:	00051663          	bnez	a0,12fb8 <_vfprintf_r+0x24dc>
   12fb0:	00100793          	li	a5,1
   12fb4:	0ef12c23          	sw	a5,248(sp)
   12fb8:	000227b7          	lui	a5,0x22
   12fbc:	8c078793          	addi	a5,a5,-1856 # 218c0 <zeroes.4548+0x68>
   12fc0:	02f13023          	sd	a5,32(sp)
   12fc4:	9e1ff06f          	j	129a4 <_vfprintf_r+0x1ec8>
   12fc8:	10210793          	addi	a5,sp,258
   12fcc:	00069863          	bnez	a3,12fdc <_vfprintf_r+0x2500>
   12fd0:	03000793          	li	a5,48
   12fd4:	10f10123          	sb	a5,258(sp)
   12fd8:	10310793          	addi	a5,sp,259
   12fdc:	22010713          	addi	a4,sp,544
   12fe0:	030a0a1b          	addiw	s4,s4,48
   12fe4:	40e786b3          	sub	a3,a5,a4
   12fe8:	01478023          	sb	s4,0(a5)
   12fec:	1216879b          	addiw	a5,a3,289
   12ff0:	06f13023          	sd	a5,96(sp)
   12ff4:	984fe06f          	j	11178 <_vfprintf_r+0x69c>
   12ff8:	06700413          	li	s0,103
   12ffc:	06813503          	ld	a0,104(sp)
   13000:	02013703          	ld	a4,32(sp)
   13004:	04013023          	sd	zero,64(sp)
   13008:	00054783          	lbu	a5,0(a0)
   1300c:	02013c23          	sd	zero,56(sp)
   13010:	0ff00593          	li	a1,255
   13014:	04b78063          	beq	a5,a1,13054 <_vfprintf_r+0x2578>
   13018:	0007869b          	sext.w	a3,a5
   1301c:	02e6dc63          	bge	a3,a4,13054 <_vfprintf_r+0x2578>
   13020:	00154603          	lbu	a2,1(a0)
   13024:	40d7073b          	subw	a4,a4,a3
   13028:	00060e63          	beqz	a2,13044 <_vfprintf_r+0x2568>
   1302c:	03813783          	ld	a5,56(sp)
   13030:	00150513          	addi	a0,a0,1
   13034:	0017879b          	addiw	a5,a5,1
   13038:	02f13c23          	sd	a5,56(sp)
   1303c:	00060793          	mv	a5,a2
   13040:	fd5ff06f          	j	13014 <_vfprintf_r+0x2538>
   13044:	04013683          	ld	a3,64(sp)
   13048:	0016869b          	addiw	a3,a3,1
   1304c:	04d13023          	sd	a3,64(sp)
   13050:	fc5ff06f          	j	13014 <_vfprintf_r+0x2538>
   13054:	02e13023          	sd	a4,32(sp)
   13058:	03813783          	ld	a5,56(sp)
   1305c:	04013703          	ld	a4,64(sp)
   13060:	07813583          	ld	a1,120(sp)
   13064:	06a13423          	sd	a0,104(sp)
   13068:	00e7853b          	addw	a0,a5,a4
   1306c:	db8fd0ef          	jal	ra,10624 <__muldi3>
   13070:	0165053b          	addw	a0,a0,s6
   13074:	00050b1b          	sext.w	s6,a0
   13078:	fffb4a13          	not	s4,s6
   1307c:	43fa5a13          	srai	s4,s4,0x3f
   13080:	01457533          	and	a0,a0,s4
   13084:	00050a1b          	sext.w	s4,a0
   13088:	940fe06f          	j	111c8 <_vfprintf_r+0x6ec>
   1308c:	04813783          	ld	a5,72(sp)
   13090:	06600413          	li	s0,102
   13094:	00e78b3b          	addw	s6,a5,a4
   13098:	01bb0b3b          	addw	s6,s6,s11
   1309c:	cddff06f          	j	12d78 <_vfprintf_r+0x229c>
   130a0:	02013783          	ld	a5,32(sp)
   130a4:	00100a13          	li	s4,1
   130a8:	40fa0a3b          	subw	s4,s4,a5
   130ac:	02d00793          	li	a5,45
   130b0:	10f100a3          	sb	a5,257(sp)
   130b4:	824fe06f          	j	110d8 <_vfprintf_r+0x5fc>
   130b8:	04013703          	ld	a4,64(sp)
   130bc:	00177693          	andi	a3,a4,1
   130c0:	00069463          	bnez	a3,130c8 <_vfprintf_r+0x25ec>
   130c4:	8d8fe06f          	j	1119c <_vfprintf_r+0x6c0>
   130c8:	8ccfe06f          	j	11194 <_vfprintf_r+0x6b8>
   130cc:	00079a63          	bnez	a5,130e0 <_vfprintf_r+0x2604>
   130d0:	00100a13          	li	s4,1
   130d4:	06600413          	li	s0,102
   130d8:	00100b13          	li	s6,1
   130dc:	ae9ff06f          	j	12bc4 <_vfprintf_r+0x20e8>
   130e0:	04813783          	ld	a5,72(sp)
   130e4:	06600413          	li	s0,102
   130e8:	0017879b          	addiw	a5,a5,1
   130ec:	01b78e3b          	addw	t3,a5,s11
   130f0:	000e0b1b          	sext.w	s6,t3
   130f4:	fffb4a13          	not	s4,s6
   130f8:	43fa5a13          	srai	s4,s4,0x3f
   130fc:	014e7e33          	and	t3,t3,s4
   13100:	000e0a1b          	sext.w	s4,t3
   13104:	ac1ff06f          	j	12bc4 <_vfprintf_r+0x20e8>
   13108:	00022837          	lui	a6,0x22
   1310c:	000c8713          	mv	a4,s9
   13110:	85880d13          	addi	s10,a6,-1960 # 21858 <zeroes.4548>
   13114:	fd5fe06f          	j	120e8 <_vfprintf_r+0x160c>
   13118:	01013703          	ld	a4,16(sp)
   1311c:	00072d83          	lw	s11,0(a4)
   13120:	00870713          	addi	a4,a4,8
   13124:	000dd463          	bgez	s11,1312c <_vfprintf_r+0x2650>
   13128:	fff00d93          	li	s11,-1
   1312c:	00194403          	lbu	s0,1(s2)
   13130:	00e13823          	sd	a4,16(sp)
   13134:	00078913          	mv	s2,a5
   13138:	b79fd06f          	j	10cb0 <_vfprintf_r+0x1d4>
   1313c:	000d8a13          	mv	s4,s11
   13140:	014b8a33          	add	s4,s7,s4
   13144:	acdff06f          	j	12c10 <_vfprintf_r+0x2134>
   13148:	010c5783          	lhu	a5,16(s8)
   1314c:	0407e793          	ori	a5,a5,64
   13150:	00fc1823          	sh	a5,16(s8)
   13154:	c2dfd06f          	j	10d80 <_vfprintf_r+0x2a4>
   13158:	00200793          	li	a5,2
   1315c:	06f13023          	sd	a5,96(sp)
   13160:	818fe06f          	j	11178 <_vfprintf_r+0x69c>

0000000000013164 <vfprintf>:
   13164:	00060693          	mv	a3,a2
   13168:	00058613          	mv	a2,a1
   1316c:	00050593          	mv	a1,a0
   13170:	7181b503          	ld	a0,1816(gp) # 24568 <_impure_ptr>
   13174:	969fd06f          	j	10adc <_vfprintf_r>

0000000000013178 <__sbprintf>:
   13178:	0105d783          	lhu	a5,16(a1)
   1317c:	0ac5ae03          	lw	t3,172(a1)
   13180:	0125d303          	lhu	t1,18(a1)
   13184:	0305b883          	ld	a7,48(a1)
   13188:	0405b803          	ld	a6,64(a1)
   1318c:	b3010113          	addi	sp,sp,-1232
   13190:	ffd7f793          	andi	a5,a5,-3
   13194:	40000713          	li	a4,1024
   13198:	4c813023          	sd	s0,1216(sp)
   1319c:	00f11823          	sh	a5,16(sp)
   131a0:	00058413          	mv	s0,a1
   131a4:	0b010793          	addi	a5,sp,176
   131a8:	00010593          	mv	a1,sp
   131ac:	4a913c23          	sd	s1,1208(sp)
   131b0:	4b213823          	sd	s2,1200(sp)
   131b4:	4c113423          	sd	ra,1224(sp)
   131b8:	00050913          	mv	s2,a0
   131bc:	0bc12623          	sw	t3,172(sp)
   131c0:	00611923          	sh	t1,18(sp)
   131c4:	03113823          	sd	a7,48(sp)
   131c8:	05013023          	sd	a6,64(sp)
   131cc:	00f13023          	sd	a5,0(sp)
   131d0:	00f13c23          	sd	a5,24(sp)
   131d4:	00e12623          	sw	a4,12(sp)
   131d8:	02e12023          	sw	a4,32(sp)
   131dc:	02012423          	sw	zero,40(sp)
   131e0:	8fdfd0ef          	jal	ra,10adc <_vfprintf_r>
   131e4:	00050493          	mv	s1,a0
   131e8:	02055c63          	bgez	a0,13220 <__sbprintf+0xa8>
   131ec:	01015783          	lhu	a5,16(sp)
   131f0:	0407f793          	andi	a5,a5,64
   131f4:	00078863          	beqz	a5,13204 <__sbprintf+0x8c>
   131f8:	01045783          	lhu	a5,16(s0)
   131fc:	0407e793          	ori	a5,a5,64
   13200:	00f41823          	sh	a5,16(s0)
   13204:	4c813083          	ld	ra,1224(sp)
   13208:	4c013403          	ld	s0,1216(sp)
   1320c:	00048513          	mv	a0,s1
   13210:	4b013903          	ld	s2,1200(sp)
   13214:	4b813483          	ld	s1,1208(sp)
   13218:	4d010113          	addi	sp,sp,1232
   1321c:	00008067          	ret
   13220:	00010593          	mv	a1,sp
   13224:	00090513          	mv	a0,s2
   13228:	598000ef          	jal	ra,137c0 <_fflush_r>
   1322c:	fc0500e3          	beqz	a0,131ec <__sbprintf+0x74>
   13230:	fff00493          	li	s1,-1
   13234:	fb9ff06f          	j	131ec <__sbprintf+0x74>

0000000000013238 <__swsetup_r>:
   13238:	7181b783          	ld	a5,1816(gp) # 24568 <_impure_ptr>
   1323c:	fe010113          	addi	sp,sp,-32
   13240:	00813823          	sd	s0,16(sp)
   13244:	00913423          	sd	s1,8(sp)
   13248:	00113c23          	sd	ra,24(sp)
   1324c:	00050493          	mv	s1,a0
   13250:	00058413          	mv	s0,a1
   13254:	00078663          	beqz	a5,13260 <__swsetup_r+0x28>
   13258:	0507a703          	lw	a4,80(a5)
   1325c:	08070663          	beqz	a4,132e8 <__swsetup_r+0xb0>
   13260:	01041703          	lh	a4,16(s0)
   13264:	03071793          	slli	a5,a4,0x30
   13268:	0307d793          	srli	a5,a5,0x30
   1326c:	0087f693          	andi	a3,a5,8
   13270:	08068a63          	beqz	a3,13304 <__swsetup_r+0xcc>
   13274:	01843683          	ld	a3,24(s0)
   13278:	0a068a63          	beqz	a3,1332c <__swsetup_r+0xf4>
   1327c:	0017f713          	andi	a4,a5,1
   13280:	02070863          	beqz	a4,132b0 <__swsetup_r+0x78>
   13284:	02042783          	lw	a5,32(s0)
   13288:	00042623          	sw	zero,12(s0)
   1328c:	00000513          	li	a0,0
   13290:	40f007bb          	negw	a5,a5
   13294:	02f42423          	sw	a5,40(s0)
   13298:	02068a63          	beqz	a3,132cc <__swsetup_r+0x94>
   1329c:	01813083          	ld	ra,24(sp)
   132a0:	01013403          	ld	s0,16(sp)
   132a4:	00813483          	ld	s1,8(sp)
   132a8:	02010113          	addi	sp,sp,32
   132ac:	00008067          	ret
   132b0:	0027f793          	andi	a5,a5,2
   132b4:	00000713          	li	a4,0
   132b8:	00079463          	bnez	a5,132c0 <__swsetup_r+0x88>
   132bc:	02042703          	lw	a4,32(s0)
   132c0:	00e42623          	sw	a4,12(s0)
   132c4:	00000513          	li	a0,0
   132c8:	fc069ae3          	bnez	a3,1329c <__swsetup_r+0x64>
   132cc:	01041783          	lh	a5,16(s0)
   132d0:	0807f713          	andi	a4,a5,128
   132d4:	fc0704e3          	beqz	a4,1329c <__swsetup_r+0x64>
   132d8:	0407e793          	ori	a5,a5,64
   132dc:	00f41823          	sh	a5,16(s0)
   132e0:	fff00513          	li	a0,-1
   132e4:	fb9ff06f          	j	1329c <__swsetup_r+0x64>
   132e8:	00078513          	mv	a0,a5
   132ec:	06d000ef          	jal	ra,13b58 <__sinit>
   132f0:	01041703          	lh	a4,16(s0)
   132f4:	03071793          	slli	a5,a4,0x30
   132f8:	0307d793          	srli	a5,a5,0x30
   132fc:	0087f693          	andi	a3,a5,8
   13300:	f6069ae3          	bnez	a3,13274 <__swsetup_r+0x3c>
   13304:	0107f693          	andi	a3,a5,16
   13308:	06068e63          	beqz	a3,13384 <__swsetup_r+0x14c>
   1330c:	0047f793          	andi	a5,a5,4
   13310:	04079063          	bnez	a5,13350 <__swsetup_r+0x118>
   13314:	01843683          	ld	a3,24(s0)
   13318:	00876793          	ori	a5,a4,8
   1331c:	00f41823          	sh	a5,16(s0)
   13320:	03079793          	slli	a5,a5,0x30
   13324:	0307d793          	srli	a5,a5,0x30
   13328:	f4069ae3          	bnez	a3,1327c <__swsetup_r+0x44>
   1332c:	2807f713          	andi	a4,a5,640
   13330:	20000613          	li	a2,512
   13334:	f4c704e3          	beq	a4,a2,1327c <__swsetup_r+0x44>
   13338:	00040593          	mv	a1,s0
   1333c:	00048513          	mv	a0,s1
   13340:	140040ef          	jal	ra,17480 <__smakebuf_r>
   13344:	01045783          	lhu	a5,16(s0)
   13348:	01843683          	ld	a3,24(s0)
   1334c:	f31ff06f          	j	1327c <__swsetup_r+0x44>
   13350:	05843583          	ld	a1,88(s0)
   13354:	00058e63          	beqz	a1,13370 <__swsetup_r+0x138>
   13358:	07440793          	addi	a5,s0,116
   1335c:	00f58863          	beq	a1,a5,1336c <__swsetup_r+0x134>
   13360:	00048513          	mv	a0,s1
   13364:	161000ef          	jal	ra,13cc4 <_free_r>
   13368:	01041703          	lh	a4,16(s0)
   1336c:	04043c23          	sd	zero,88(s0)
   13370:	01843683          	ld	a3,24(s0)
   13374:	fdb77713          	andi	a4,a4,-37
   13378:	00042423          	sw	zero,8(s0)
   1337c:	00d43023          	sd	a3,0(s0)
   13380:	f99ff06f          	j	13318 <__swsetup_r+0xe0>
   13384:	00900793          	li	a5,9
   13388:	00f4a023          	sw	a5,0(s1)
   1338c:	04076713          	ori	a4,a4,64
   13390:	00e41823          	sh	a4,16(s0)
   13394:	fff00513          	li	a0,-1
   13398:	f05ff06f          	j	1329c <__swsetup_r+0x64>

000000000001339c <__register_exitproc>:
   1339c:	7081b703          	ld	a4,1800(gp) # 24558 <_global_impure_ptr>
   133a0:	1f873783          	ld	a5,504(a4)
   133a4:	06078063          	beqz	a5,13404 <__register_exitproc+0x68>
   133a8:	0087a703          	lw	a4,8(a5)
   133ac:	01f00813          	li	a6,31
   133b0:	08e84663          	blt	a6,a4,1343c <__register_exitproc+0xa0>
   133b4:	02050863          	beqz	a0,133e4 <__register_exitproc+0x48>
   133b8:	00371813          	slli	a6,a4,0x3
   133bc:	01078833          	add	a6,a5,a6
   133c0:	10c83823          	sd	a2,272(a6)
   133c4:	3107a883          	lw	a7,784(a5)
   133c8:	00100613          	li	a2,1
   133cc:	00e6163b          	sllw	a2,a2,a4
   133d0:	00c8e8b3          	or	a7,a7,a2
   133d4:	3117a823          	sw	a7,784(a5)
   133d8:	20d83823          	sd	a3,528(a6)
   133dc:	00200693          	li	a3,2
   133e0:	02d50863          	beq	a0,a3,13410 <__register_exitproc+0x74>
   133e4:	00270693          	addi	a3,a4,2
   133e8:	00369693          	slli	a3,a3,0x3
   133ec:	0017071b          	addiw	a4,a4,1
   133f0:	00e7a423          	sw	a4,8(a5)
   133f4:	00d787b3          	add	a5,a5,a3
   133f8:	00b7b023          	sd	a1,0(a5)
   133fc:	00000513          	li	a0,0
   13400:	00008067          	ret
   13404:	20070793          	addi	a5,a4,512
   13408:	1ef73c23          	sd	a5,504(a4)
   1340c:	f9dff06f          	j	133a8 <__register_exitproc+0xc>
   13410:	3147a683          	lw	a3,788(a5)
   13414:	00000513          	li	a0,0
   13418:	00c6e633          	or	a2,a3,a2
   1341c:	00270693          	addi	a3,a4,2
   13420:	00369693          	slli	a3,a3,0x3
   13424:	0017071b          	addiw	a4,a4,1
   13428:	30c7aa23          	sw	a2,788(a5)
   1342c:	00e7a423          	sw	a4,8(a5)
   13430:	00d787b3          	add	a5,a5,a3
   13434:	00b7b023          	sd	a1,0(a5)
   13438:	00008067          	ret
   1343c:	fff00513          	li	a0,-1
   13440:	00008067          	ret

0000000000013444 <__call_exitprocs>:
   13444:	fb010113          	addi	sp,sp,-80
   13448:	01813023          	sd	s8,0(sp)
   1344c:	7081bc03          	ld	s8,1800(gp) # 24558 <_global_impure_ptr>
   13450:	03313423          	sd	s3,40(sp)
   13454:	03413023          	sd	s4,32(sp)
   13458:	01513c23          	sd	s5,24(sp)
   1345c:	01613823          	sd	s6,16(sp)
   13460:	04113423          	sd	ra,72(sp)
   13464:	04813023          	sd	s0,64(sp)
   13468:	02913c23          	sd	s1,56(sp)
   1346c:	03213823          	sd	s2,48(sp)
   13470:	01713423          	sd	s7,8(sp)
   13474:	00050a93          	mv	s5,a0
   13478:	00058b13          	mv	s6,a1
   1347c:	00100a13          	li	s4,1
   13480:	fff00993          	li	s3,-1
   13484:	1f8c3903          	ld	s2,504(s8)
   13488:	02090863          	beqz	s2,134b8 <__call_exitprocs+0x74>
   1348c:	00892483          	lw	s1,8(s2)
   13490:	fff4841b          	addiw	s0,s1,-1
   13494:	02044263          	bltz	s0,134b8 <__call_exitprocs+0x74>
   13498:	00349493          	slli	s1,s1,0x3
   1349c:	009904b3          	add	s1,s2,s1
   134a0:	040b0463          	beqz	s6,134e8 <__call_exitprocs+0xa4>
   134a4:	2084b783          	ld	a5,520(s1)
   134a8:	05678063          	beq	a5,s6,134e8 <__call_exitprocs+0xa4>
   134ac:	fff4041b          	addiw	s0,s0,-1
   134b0:	ff848493          	addi	s1,s1,-8
   134b4:	ff3416e3          	bne	s0,s3,134a0 <__call_exitprocs+0x5c>
   134b8:	04813083          	ld	ra,72(sp)
   134bc:	04013403          	ld	s0,64(sp)
   134c0:	03813483          	ld	s1,56(sp)
   134c4:	03013903          	ld	s2,48(sp)
   134c8:	02813983          	ld	s3,40(sp)
   134cc:	02013a03          	ld	s4,32(sp)
   134d0:	01813a83          	ld	s5,24(sp)
   134d4:	01013b03          	ld	s6,16(sp)
   134d8:	00813b83          	ld	s7,8(sp)
   134dc:	00013c03          	ld	s8,0(sp)
   134e0:	05010113          	addi	sp,sp,80
   134e4:	00008067          	ret
   134e8:	00892783          	lw	a5,8(s2)
   134ec:	0084b703          	ld	a4,8(s1)
   134f0:	fff7879b          	addiw	a5,a5,-1
   134f4:	04878e63          	beq	a5,s0,13550 <__call_exitprocs+0x10c>
   134f8:	0004b423          	sd	zero,8(s1)
   134fc:	fa0708e3          	beqz	a4,134ac <__call_exitprocs+0x68>
   13500:	31092783          	lw	a5,784(s2)
   13504:	008a16bb          	sllw	a3,s4,s0
   13508:	00892b83          	lw	s7,8(s2)
   1350c:	00d7f7b3          	and	a5,a5,a3
   13510:	0007879b          	sext.w	a5,a5
   13514:	00079e63          	bnez	a5,13530 <__call_exitprocs+0xec>
   13518:	000700e7          	jalr	a4
   1351c:	00892783          	lw	a5,8(s2)
   13520:	f77792e3          	bne	a5,s7,13484 <__call_exitprocs+0x40>
   13524:	1f8c3783          	ld	a5,504(s8)
   13528:	f92782e3          	beq	a5,s2,134ac <__call_exitprocs+0x68>
   1352c:	f59ff06f          	j	13484 <__call_exitprocs+0x40>
   13530:	31492783          	lw	a5,788(s2)
   13534:	1084b583          	ld	a1,264(s1)
   13538:	00d7f7b3          	and	a5,a5,a3
   1353c:	0007879b          	sext.w	a5,a5
   13540:	00079c63          	bnez	a5,13558 <__call_exitprocs+0x114>
   13544:	000a8513          	mv	a0,s5
   13548:	000700e7          	jalr	a4
   1354c:	fd1ff06f          	j	1351c <__call_exitprocs+0xd8>
   13550:	00892423          	sw	s0,8(s2)
   13554:	fa9ff06f          	j	134fc <__call_exitprocs+0xb8>
   13558:	00058513          	mv	a0,a1
   1355c:	000700e7          	jalr	a4
   13560:	fbdff06f          	j	1351c <__call_exitprocs+0xd8>

0000000000013564 <__sflush_r>:
   13564:	01059783          	lh	a5,16(a1)
   13568:	fd010113          	addi	sp,sp,-48
   1356c:	02813023          	sd	s0,32(sp)
   13570:	03079713          	slli	a4,a5,0x30
   13574:	03075713          	srli	a4,a4,0x30
   13578:	01313423          	sd	s3,8(sp)
   1357c:	02113423          	sd	ra,40(sp)
   13580:	00913c23          	sd	s1,24(sp)
   13584:	01213823          	sd	s2,16(sp)
   13588:	00877693          	andi	a3,a4,8
   1358c:	00058413          	mv	s0,a1
   13590:	00050993          	mv	s3,a0
   13594:	10069a63          	bnez	a3,136a8 <__sflush_r+0x144>
   13598:	00001737          	lui	a4,0x1
   1359c:	80070713          	addi	a4,a4,-2048 # 800 <register_fini-0xf8b0>
   135a0:	0085a683          	lw	a3,8(a1)
   135a4:	00e7e7b3          	or	a5,a5,a4
   135a8:	00f59823          	sh	a5,16(a1)
   135ac:	18d05063          	blez	a3,1372c <__sflush_r+0x1c8>
   135b0:	04843703          	ld	a4,72(s0)
   135b4:	0c070a63          	beqz	a4,13688 <__sflush_r+0x124>
   135b8:	03079793          	slli	a5,a5,0x30
   135bc:	0307d793          	srli	a5,a5,0x30
   135c0:	0009a483          	lw	s1,0(s3)
   135c4:	03379693          	slli	a3,a5,0x33
   135c8:	0009a023          	sw	zero,0(s3)
   135cc:	03043583          	ld	a1,48(s0)
   135d0:	1606c463          	bltz	a3,13738 <__sflush_r+0x1d4>
   135d4:	00000613          	li	a2,0
   135d8:	00100693          	li	a3,1
   135dc:	00098513          	mv	a0,s3
   135e0:	000700e7          	jalr	a4
   135e4:	fff00793          	li	a5,-1
   135e8:	00050613          	mv	a2,a0
   135ec:	18f50663          	beq	a0,a5,13778 <__sflush_r+0x214>
   135f0:	01045783          	lhu	a5,16(s0)
   135f4:	04843703          	ld	a4,72(s0)
   135f8:	03043583          	ld	a1,48(s0)
   135fc:	0047f793          	andi	a5,a5,4
   13600:	00078e63          	beqz	a5,1361c <__sflush_r+0xb8>
   13604:	00842683          	lw	a3,8(s0)
   13608:	05843783          	ld	a5,88(s0)
   1360c:	40d60633          	sub	a2,a2,a3
   13610:	00078663          	beqz	a5,1361c <__sflush_r+0xb8>
   13614:	07042783          	lw	a5,112(s0)
   13618:	40f60633          	sub	a2,a2,a5
   1361c:	00000693          	li	a3,0
   13620:	00098513          	mv	a0,s3
   13624:	000700e7          	jalr	a4
   13628:	fff00793          	li	a5,-1
   1362c:	10f51a63          	bne	a0,a5,13740 <__sflush_r+0x1dc>
   13630:	0009a703          	lw	a4,0(s3)
   13634:	01041783          	lh	a5,16(s0)
   13638:	16070263          	beqz	a4,1379c <__sflush_r+0x238>
   1363c:	01d00693          	li	a3,29
   13640:	00d70663          	beq	a4,a3,1364c <__sflush_r+0xe8>
   13644:	01600693          	li	a3,22
   13648:	16d71463          	bne	a4,a3,137b0 <__sflush_r+0x24c>
   1364c:	01843683          	ld	a3,24(s0)
   13650:	fffff737          	lui	a4,0xfffff
   13654:	7ff70713          	addi	a4,a4,2047 # fffffffffffff7ff <__BSS_END__+0xfffffffffffdb1af>
   13658:	00e7f7b3          	and	a5,a5,a4
   1365c:	00f41823          	sh	a5,16(s0)
   13660:	00042423          	sw	zero,8(s0)
   13664:	00d43023          	sd	a3,0(s0)
   13668:	05843583          	ld	a1,88(s0)
   1366c:	0099a023          	sw	s1,0(s3)
   13670:	00058c63          	beqz	a1,13688 <__sflush_r+0x124>
   13674:	07440793          	addi	a5,s0,116
   13678:	00f58663          	beq	a1,a5,13684 <__sflush_r+0x120>
   1367c:	00098513          	mv	a0,s3
   13680:	644000ef          	jal	ra,13cc4 <_free_r>
   13684:	04043c23          	sd	zero,88(s0)
   13688:	00000513          	li	a0,0
   1368c:	02813083          	ld	ra,40(sp)
   13690:	02013403          	ld	s0,32(sp)
   13694:	01813483          	ld	s1,24(sp)
   13698:	01013903          	ld	s2,16(sp)
   1369c:	00813983          	ld	s3,8(sp)
   136a0:	03010113          	addi	sp,sp,48
   136a4:	00008067          	ret
   136a8:	0185b903          	ld	s2,24(a1)
   136ac:	fc090ee3          	beqz	s2,13688 <__sflush_r+0x124>
   136b0:	0005b483          	ld	s1,0(a1)
   136b4:	00377713          	andi	a4,a4,3
   136b8:	0125b023          	sd	s2,0(a1)
   136bc:	412484bb          	subw	s1,s1,s2
   136c0:	00000793          	li	a5,0
   136c4:	00071463          	bnez	a4,136cc <__sflush_r+0x168>
   136c8:	0205a783          	lw	a5,32(a1)
   136cc:	00f42623          	sw	a5,12(s0)
   136d0:	00904863          	bgtz	s1,136e0 <__sflush_r+0x17c>
   136d4:	fb5ff06f          	j	13688 <__sflush_r+0x124>
   136d8:	00a90933          	add	s2,s2,a0
   136dc:	fa9056e3          	blez	s1,13688 <__sflush_r+0x124>
   136e0:	04043783          	ld	a5,64(s0)
   136e4:	03043583          	ld	a1,48(s0)
   136e8:	00048693          	mv	a3,s1
   136ec:	00090613          	mv	a2,s2
   136f0:	00098513          	mv	a0,s3
   136f4:	000780e7          	jalr	a5
   136f8:	40a484bb          	subw	s1,s1,a0
   136fc:	fca04ee3          	bgtz	a0,136d8 <__sflush_r+0x174>
   13700:	01045783          	lhu	a5,16(s0)
   13704:	02813083          	ld	ra,40(sp)
   13708:	01813483          	ld	s1,24(sp)
   1370c:	0407e793          	ori	a5,a5,64
   13710:	00f41823          	sh	a5,16(s0)
   13714:	02013403          	ld	s0,32(sp)
   13718:	01013903          	ld	s2,16(sp)
   1371c:	00813983          	ld	s3,8(sp)
   13720:	fff00513          	li	a0,-1
   13724:	03010113          	addi	sp,sp,48
   13728:	00008067          	ret
   1372c:	0705a703          	lw	a4,112(a1)
   13730:	e8e040e3          	bgtz	a4,135b0 <__sflush_r+0x4c>
   13734:	f55ff06f          	j	13688 <__sflush_r+0x124>
   13738:	09043603          	ld	a2,144(s0)
   1373c:	ec1ff06f          	j	135fc <__sflush_r+0x98>
   13740:	01045783          	lhu	a5,16(s0)
   13744:	fffff737          	lui	a4,0xfffff
   13748:	7ff70713          	addi	a4,a4,2047 # fffffffffffff7ff <__BSS_END__+0xfffffffffffdb1af>
   1374c:	00e7f7b3          	and	a5,a5,a4
   13750:	01843683          	ld	a3,24(s0)
   13754:	0107979b          	slliw	a5,a5,0x10
   13758:	4107d79b          	sraiw	a5,a5,0x10
   1375c:	00f41823          	sh	a5,16(s0)
   13760:	00042423          	sw	zero,8(s0)
   13764:	00d43023          	sd	a3,0(s0)
   13768:	03379713          	slli	a4,a5,0x33
   1376c:	ee075ee3          	bgez	a4,13668 <__sflush_r+0x104>
   13770:	08a43823          	sd	a0,144(s0)
   13774:	ef5ff06f          	j	13668 <__sflush_r+0x104>
   13778:	0009a783          	lw	a5,0(s3)
   1377c:	e6078ae3          	beqz	a5,135f0 <__sflush_r+0x8c>
   13780:	01d00713          	li	a4,29
   13784:	00e78663          	beq	a5,a4,13790 <__sflush_r+0x22c>
   13788:	01600713          	li	a4,22
   1378c:	f6e79ae3          	bne	a5,a4,13700 <__sflush_r+0x19c>
   13790:	0099a023          	sw	s1,0(s3)
   13794:	00000513          	li	a0,0
   13798:	ef5ff06f          	j	1368c <__sflush_r+0x128>
   1379c:	fffff737          	lui	a4,0xfffff
   137a0:	7ff70713          	addi	a4,a4,2047 # fffffffffffff7ff <__BSS_END__+0xfffffffffffdb1af>
   137a4:	01843683          	ld	a3,24(s0)
   137a8:	00e7f7b3          	and	a5,a5,a4
   137ac:	fb1ff06f          	j	1375c <__sflush_r+0x1f8>
   137b0:	0407e793          	ori	a5,a5,64
   137b4:	00f41823          	sh	a5,16(s0)
   137b8:	fff00513          	li	a0,-1
   137bc:	ed1ff06f          	j	1368c <__sflush_r+0x128>

00000000000137c0 <_fflush_r>:
   137c0:	fe010113          	addi	sp,sp,-32
   137c4:	00813823          	sd	s0,16(sp)
   137c8:	00113c23          	sd	ra,24(sp)
   137cc:	00050413          	mv	s0,a0
   137d0:	00050663          	beqz	a0,137dc <_fflush_r+0x1c>
   137d4:	05052783          	lw	a5,80(a0)
   137d8:	02078063          	beqz	a5,137f8 <_fflush_r+0x38>
   137dc:	01059783          	lh	a5,16(a1)
   137e0:	02079663          	bnez	a5,1380c <_fflush_r+0x4c>
   137e4:	01813083          	ld	ra,24(sp)
   137e8:	01013403          	ld	s0,16(sp)
   137ec:	00000513          	li	a0,0
   137f0:	02010113          	addi	sp,sp,32
   137f4:	00008067          	ret
   137f8:	00b13423          	sd	a1,8(sp)
   137fc:	35c000ef          	jal	ra,13b58 <__sinit>
   13800:	00813583          	ld	a1,8(sp)
   13804:	01059783          	lh	a5,16(a1)
   13808:	fc078ee3          	beqz	a5,137e4 <_fflush_r+0x24>
   1380c:	00040513          	mv	a0,s0
   13810:	01013403          	ld	s0,16(sp)
   13814:	01813083          	ld	ra,24(sp)
   13818:	02010113          	addi	sp,sp,32
   1381c:	d49ff06f          	j	13564 <__sflush_r>

0000000000013820 <fflush>:
   13820:	00050593          	mv	a1,a0
   13824:	00050663          	beqz	a0,13830 <fflush+0x10>
   13828:	7181b503          	ld	a0,1816(gp) # 24568 <_impure_ptr>
   1382c:	f95ff06f          	j	137c0 <_fflush_r>
   13830:	7081b503          	ld	a0,1800(gp) # 24558 <_global_impure_ptr>
   13834:	000135b7          	lui	a1,0x13
   13838:	7c058593          	addi	a1,a1,1984 # 137c0 <_fflush_r>
   1383c:	5510006f          	j	1458c <_fwalk_reent>

0000000000013840 <__fp_lock>:
   13840:	00000513          	li	a0,0
   13844:	00008067          	ret

0000000000013848 <_cleanup_r>:
   13848:	0001e5b7          	lui	a1,0x1e
   1384c:	a5858593          	addi	a1,a1,-1448 # 1da58 <_fclose_r>
   13850:	53d0006f          	j	1458c <_fwalk_reent>

0000000000013854 <__sinit.part.0>:
   13854:	fc010113          	addi	sp,sp,-64
   13858:	000147b7          	lui	a5,0x14
   1385c:	02113c23          	sd	ra,56(sp)
   13860:	02813823          	sd	s0,48(sp)
   13864:	02913423          	sd	s1,40(sp)
   13868:	03213023          	sd	s2,32(sp)
   1386c:	01313c23          	sd	s3,24(sp)
   13870:	01413823          	sd	s4,16(sp)
   13874:	01513423          	sd	s5,8(sp)
   13878:	01613023          	sd	s6,0(sp)
   1387c:	00853403          	ld	s0,8(a0)
   13880:	84878793          	addi	a5,a5,-1976 # 13848 <_cleanup_r>
   13884:	04f53c23          	sd	a5,88(a0)
   13888:	53850713          	addi	a4,a0,1336
   1388c:	00300793          	li	a5,3
   13890:	52e53823          	sd	a4,1328(a0)
   13894:	52f52423          	sw	a5,1320(a0)
   13898:	52053023          	sd	zero,1312(a0)
   1389c:	00400793          	li	a5,4
   138a0:	00050913          	mv	s2,a0
   138a4:	00f42823          	sw	a5,16(s0)
   138a8:	00800613          	li	a2,8
   138ac:	00000593          	li	a1,0
   138b0:	0a042623          	sw	zero,172(s0)
   138b4:	00043023          	sd	zero,0(s0)
   138b8:	00043423          	sd	zero,8(s0)
   138bc:	00043c23          	sd	zero,24(s0)
   138c0:	02042023          	sw	zero,32(s0)
   138c4:	02042423          	sw	zero,40(s0)
   138c8:	0a440513          	addi	a0,s0,164
   138cc:	ef9fc0ef          	jal	ra,107c4 <memset>
   138d0:	0001ab37          	lui	s6,0x1a
   138d4:	01093483          	ld	s1,16(s2)
   138d8:	0001aab7          	lui	s5,0x1a
   138dc:	0001aa37          	lui	s4,0x1a
   138e0:	0001a9b7          	lui	s3,0x1a
   138e4:	a58b0b13          	addi	s6,s6,-1448 # 19a58 <__sread>
   138e8:	abca8a93          	addi	s5,s5,-1348 # 19abc <__swrite>
   138ec:	b44a0a13          	addi	s4,s4,-1212 # 19b44 <__sseek>
   138f0:	bac98993          	addi	s3,s3,-1108 # 19bac <__sclose>
   138f4:	000107b7          	lui	a5,0x10
   138f8:	03643c23          	sd	s6,56(s0)
   138fc:	05543023          	sd	s5,64(s0)
   13900:	05443423          	sd	s4,72(s0)
   13904:	05343823          	sd	s3,80(s0)
   13908:	02843823          	sd	s0,48(s0)
   1390c:	0097879b          	addiw	a5,a5,9
   13910:	00f4a823          	sw	a5,16(s1)
   13914:	00800613          	li	a2,8
   13918:	00000593          	li	a1,0
   1391c:	0a04a623          	sw	zero,172(s1)
   13920:	0004b023          	sd	zero,0(s1)
   13924:	0004b423          	sd	zero,8(s1)
   13928:	0004bc23          	sd	zero,24(s1)
   1392c:	0204a023          	sw	zero,32(s1)
   13930:	0204a423          	sw	zero,40(s1)
   13934:	0a448513          	addi	a0,s1,164
   13938:	e8dfc0ef          	jal	ra,107c4 <memset>
   1393c:	01893403          	ld	s0,24(s2)
   13940:	000207b7          	lui	a5,0x20
   13944:	0364bc23          	sd	s6,56(s1)
   13948:	0554b023          	sd	s5,64(s1)
   1394c:	0544b423          	sd	s4,72(s1)
   13950:	0534b823          	sd	s3,80(s1)
   13954:	0294b823          	sd	s1,48(s1)
   13958:	0127879b          	addiw	a5,a5,18
   1395c:	00f42823          	sw	a5,16(s0)
   13960:	0a042623          	sw	zero,172(s0)
   13964:	00043023          	sd	zero,0(s0)
   13968:	00043423          	sd	zero,8(s0)
   1396c:	00043c23          	sd	zero,24(s0)
   13970:	02042023          	sw	zero,32(s0)
   13974:	02042423          	sw	zero,40(s0)
   13978:	0a440513          	addi	a0,s0,164
   1397c:	00800613          	li	a2,8
   13980:	00000593          	li	a1,0
   13984:	e41fc0ef          	jal	ra,107c4 <memset>
   13988:	03813083          	ld	ra,56(sp)
   1398c:	03643c23          	sd	s6,56(s0)
   13990:	05543023          	sd	s5,64(s0)
   13994:	05443423          	sd	s4,72(s0)
   13998:	05343823          	sd	s3,80(s0)
   1399c:	02843823          	sd	s0,48(s0)
   139a0:	03013403          	ld	s0,48(sp)
   139a4:	00100793          	li	a5,1
   139a8:	04f92823          	sw	a5,80(s2)
   139ac:	02813483          	ld	s1,40(sp)
   139b0:	02013903          	ld	s2,32(sp)
   139b4:	01813983          	ld	s3,24(sp)
   139b8:	01013a03          	ld	s4,16(sp)
   139bc:	00813a83          	ld	s5,8(sp)
   139c0:	00013b03          	ld	s6,0(sp)
   139c4:	04010113          	addi	sp,sp,64
   139c8:	00008067          	ret

00000000000139cc <__fp_unlock>:
   139cc:	00000513          	li	a0,0
   139d0:	00008067          	ret

00000000000139d4 <__sfmoreglue>:
   139d4:	fe010113          	addi	sp,sp,-32
   139d8:	fff5861b          	addiw	a2,a1,-1
   139dc:	00813823          	sd	s0,16(sp)
   139e0:	00161413          	slli	s0,a2,0x1
   139e4:	00c40433          	add	s0,s0,a2
   139e8:	00241413          	slli	s0,s0,0x2
   139ec:	40c40433          	sub	s0,s0,a2
   139f0:	00441413          	slli	s0,s0,0x4
   139f4:	01213023          	sd	s2,0(sp)
   139f8:	00058913          	mv	s2,a1
   139fc:	0c840593          	addi	a1,s0,200
   13a00:	00913423          	sd	s1,8(sp)
   13a04:	00113c23          	sd	ra,24(sp)
   13a08:	399030ef          	jal	ra,175a0 <_malloc_r>
   13a0c:	00050493          	mv	s1,a0
   13a10:	02050063          	beqz	a0,13a30 <__sfmoreglue+0x5c>
   13a14:	01850513          	addi	a0,a0,24
   13a18:	0004b023          	sd	zero,0(s1)
   13a1c:	0124a423          	sw	s2,8(s1)
   13a20:	00a4b823          	sd	a0,16(s1)
   13a24:	0b040613          	addi	a2,s0,176
   13a28:	00000593          	li	a1,0
   13a2c:	d99fc0ef          	jal	ra,107c4 <memset>
   13a30:	01813083          	ld	ra,24(sp)
   13a34:	01013403          	ld	s0,16(sp)
   13a38:	00048513          	mv	a0,s1
   13a3c:	00013903          	ld	s2,0(sp)
   13a40:	00813483          	ld	s1,8(sp)
   13a44:	02010113          	addi	sp,sp,32
   13a48:	00008067          	ret

0000000000013a4c <__sfp>:
   13a4c:	fd010113          	addi	sp,sp,-48
   13a50:	01213823          	sd	s2,16(sp)
   13a54:	7081b903          	ld	s2,1800(gp) # 24558 <_global_impure_ptr>
   13a58:	01313423          	sd	s3,8(sp)
   13a5c:	02113423          	sd	ra,40(sp)
   13a60:	05092783          	lw	a5,80(s2)
   13a64:	02813023          	sd	s0,32(sp)
   13a68:	00913c23          	sd	s1,24(sp)
   13a6c:	00050993          	mv	s3,a0
   13a70:	0a078463          	beqz	a5,13b18 <__sfp+0xcc>
   13a74:	52090913          	addi	s2,s2,1312
   13a78:	fff00493          	li	s1,-1
   13a7c:	00892783          	lw	a5,8(s2)
   13a80:	01093403          	ld	s0,16(s2)
   13a84:	fff7879b          	addiw	a5,a5,-1
   13a88:	0007da63          	bgez	a5,13a9c <__sfp+0x50>
   13a8c:	07c0006f          	j	13b08 <__sfp+0xbc>
   13a90:	fff7879b          	addiw	a5,a5,-1
   13a94:	0b040413          	addi	s0,s0,176
   13a98:	06978863          	beq	a5,s1,13b08 <__sfp+0xbc>
   13a9c:	01041703          	lh	a4,16(s0)
   13aa0:	fe0718e3          	bnez	a4,13a90 <__sfp+0x44>
   13aa4:	ffff07b7          	lui	a5,0xffff0
   13aa8:	0017879b          	addiw	a5,a5,1
   13aac:	0a042623          	sw	zero,172(s0)
   13ab0:	00043023          	sd	zero,0(s0)
   13ab4:	00043423          	sd	zero,8(s0)
   13ab8:	00f42823          	sw	a5,16(s0)
   13abc:	00043c23          	sd	zero,24(s0)
   13ac0:	02042023          	sw	zero,32(s0)
   13ac4:	02042423          	sw	zero,40(s0)
   13ac8:	00800613          	li	a2,8
   13acc:	00000593          	li	a1,0
   13ad0:	0a440513          	addi	a0,s0,164
   13ad4:	cf1fc0ef          	jal	ra,107c4 <memset>
   13ad8:	04043c23          	sd	zero,88(s0)
   13adc:	06042023          	sw	zero,96(s0)
   13ae0:	06043c23          	sd	zero,120(s0)
   13ae4:	08042023          	sw	zero,128(s0)
   13ae8:	00040513          	mv	a0,s0
   13aec:	02813083          	ld	ra,40(sp)
   13af0:	02013403          	ld	s0,32(sp)
   13af4:	01813483          	ld	s1,24(sp)
   13af8:	01013903          	ld	s2,16(sp)
   13afc:	00813983          	ld	s3,8(sp)
   13b00:	03010113          	addi	sp,sp,48
   13b04:	00008067          	ret
   13b08:	00093403          	ld	s0,0(s2)
   13b0c:	00040c63          	beqz	s0,13b24 <__sfp+0xd8>
   13b10:	00040913          	mv	s2,s0
   13b14:	f69ff06f          	j	13a7c <__sfp+0x30>
   13b18:	00090513          	mv	a0,s2
   13b1c:	d39ff0ef          	jal	ra,13854 <__sinit.part.0>
   13b20:	f55ff06f          	j	13a74 <__sfp+0x28>
   13b24:	00400593          	li	a1,4
   13b28:	00098513          	mv	a0,s3
   13b2c:	ea9ff0ef          	jal	ra,139d4 <__sfmoreglue>
   13b30:	00a93023          	sd	a0,0(s2)
   13b34:	00050413          	mv	s0,a0
   13b38:	fc051ce3          	bnez	a0,13b10 <__sfp+0xc4>
   13b3c:	00c00793          	li	a5,12
   13b40:	00f9a023          	sw	a5,0(s3)
   13b44:	fa5ff06f          	j	13ae8 <__sfp+0x9c>

0000000000013b48 <_cleanup>:
   13b48:	7081b503          	ld	a0,1800(gp) # 24558 <_global_impure_ptr>
   13b4c:	0001e5b7          	lui	a1,0x1e
   13b50:	a5858593          	addi	a1,a1,-1448 # 1da58 <_fclose_r>
   13b54:	2390006f          	j	1458c <_fwalk_reent>

0000000000013b58 <__sinit>:
   13b58:	05052783          	lw	a5,80(a0)
   13b5c:	00078463          	beqz	a5,13b64 <__sinit+0xc>
   13b60:	00008067          	ret
   13b64:	cf1ff06f          	j	13854 <__sinit.part.0>

0000000000013b68 <__sfp_lock_acquire>:
   13b68:	00008067          	ret

0000000000013b6c <__sfp_lock_release>:
   13b6c:	00008067          	ret

0000000000013b70 <__sinit_lock_acquire>:
   13b70:	00008067          	ret

0000000000013b74 <__sinit_lock_release>:
   13b74:	00008067          	ret

0000000000013b78 <__fp_lock_all>:
   13b78:	7181b503          	ld	a0,1816(gp) # 24568 <_impure_ptr>
   13b7c:	000145b7          	lui	a1,0x14
   13b80:	84058593          	addi	a1,a1,-1984 # 13840 <__fp_lock>
   13b84:	1350006f          	j	144b8 <_fwalk>

0000000000013b88 <__fp_unlock_all>:
   13b88:	7181b503          	ld	a0,1816(gp) # 24568 <_impure_ptr>
   13b8c:	000145b7          	lui	a1,0x14
   13b90:	9cc58593          	addi	a1,a1,-1588 # 139cc <__fp_unlock>
   13b94:	1250006f          	j	144b8 <_fwalk>

0000000000013b98 <_malloc_trim_r>:
   13b98:	fd010113          	addi	sp,sp,-48
   13b9c:	01213823          	sd	s2,16(sp)
   13ba0:	00024937          	lui	s2,0x24
   13ba4:	02813023          	sd	s0,32(sp)
   13ba8:	00913c23          	sd	s1,24(sp)
   13bac:	01313423          	sd	s3,8(sp)
   13bb0:	00058413          	mv	s0,a1
   13bb4:	02113423          	sd	ra,40(sp)
   13bb8:	00050993          	mv	s3,a0
   13bbc:	d1890913          	addi	s2,s2,-744 # 23d18 <__malloc_av_>
   13bc0:	5b0040ef          	jal	ra,18170 <__malloc_lock>
   13bc4:	01093683          	ld	a3,16(s2)
   13bc8:	00001737          	lui	a4,0x1
   13bcc:	fdf70793          	addi	a5,a4,-33 # fdf <register_fini-0xf0d1>
   13bd0:	0086b483          	ld	s1,8(a3)
   13bd4:	40878433          	sub	s0,a5,s0
   13bd8:	ffc4f493          	andi	s1,s1,-4
   13bdc:	00940433          	add	s0,s0,s1
   13be0:	00c45413          	srli	s0,s0,0xc
   13be4:	fff40413          	addi	s0,s0,-1
   13be8:	00c41413          	slli	s0,s0,0xc
   13bec:	00e44e63          	blt	s0,a4,13c08 <_malloc_trim_r+0x70>
   13bf0:	00000593          	li	a1,0
   13bf4:	00098513          	mv	a0,s3
   13bf8:	45d050ef          	jal	ra,19854 <_sbrk_r>
   13bfc:	01093783          	ld	a5,16(s2)
   13c00:	009787b3          	add	a5,a5,s1
   13c04:	02f50663          	beq	a0,a5,13c30 <_malloc_trim_r+0x98>
   13c08:	00098513          	mv	a0,s3
   13c0c:	568040ef          	jal	ra,18174 <__malloc_unlock>
   13c10:	02813083          	ld	ra,40(sp)
   13c14:	02013403          	ld	s0,32(sp)
   13c18:	01813483          	ld	s1,24(sp)
   13c1c:	01013903          	ld	s2,16(sp)
   13c20:	00813983          	ld	s3,8(sp)
   13c24:	00000513          	li	a0,0
   13c28:	03010113          	addi	sp,sp,48
   13c2c:	00008067          	ret
   13c30:	408005b3          	neg	a1,s0
   13c34:	00098513          	mv	a0,s3
   13c38:	41d050ef          	jal	ra,19854 <_sbrk_r>
   13c3c:	fff00793          	li	a5,-1
   13c40:	04f50663          	beq	a0,a5,13c8c <_malloc_trim_r+0xf4>
   13c44:	00024737          	lui	a4,0x24
   13c48:	62072783          	lw	a5,1568(a4) # 24620 <__malloc_current_mallinfo>
   13c4c:	01093683          	ld	a3,16(s2)
   13c50:	408484b3          	sub	s1,s1,s0
   13c54:	0014e493          	ori	s1,s1,1
   13c58:	4087843b          	subw	s0,a5,s0
   13c5c:	00098513          	mv	a0,s3
   13c60:	0096b423          	sd	s1,8(a3)
   13c64:	62872023          	sw	s0,1568(a4)
   13c68:	50c040ef          	jal	ra,18174 <__malloc_unlock>
   13c6c:	02813083          	ld	ra,40(sp)
   13c70:	02013403          	ld	s0,32(sp)
   13c74:	01813483          	ld	s1,24(sp)
   13c78:	01013903          	ld	s2,16(sp)
   13c7c:	00813983          	ld	s3,8(sp)
   13c80:	00100513          	li	a0,1
   13c84:	03010113          	addi	sp,sp,48
   13c88:	00008067          	ret
   13c8c:	00000593          	li	a1,0
   13c90:	00098513          	mv	a0,s3
   13c94:	3c1050ef          	jal	ra,19854 <_sbrk_r>
   13c98:	01093703          	ld	a4,16(s2)
   13c9c:	01f00693          	li	a3,31
   13ca0:	40e507b3          	sub	a5,a0,a4
   13ca4:	f6f6d2e3          	bge	a3,a5,13c08 <_malloc_trim_r+0x70>
   13ca8:	7201b683          	ld	a3,1824(gp) # 24570 <__malloc_sbrk_base>
   13cac:	0017e793          	ori	a5,a5,1
   13cb0:	00f73423          	sd	a5,8(a4)
   13cb4:	40d50533          	sub	a0,a0,a3
   13cb8:	000246b7          	lui	a3,0x24
   13cbc:	62a6a023          	sw	a0,1568(a3) # 24620 <__malloc_current_mallinfo>
   13cc0:	f49ff06f          	j	13c08 <_malloc_trim_r+0x70>

0000000000013cc4 <_free_r>:
   13cc4:	14058063          	beqz	a1,13e04 <_free_r+0x140>
   13cc8:	fe010113          	addi	sp,sp,-32
   13ccc:	00813823          	sd	s0,16(sp)
   13cd0:	00913423          	sd	s1,8(sp)
   13cd4:	00058413          	mv	s0,a1
   13cd8:	00050493          	mv	s1,a0
   13cdc:	00113c23          	sd	ra,24(sp)
   13ce0:	490040ef          	jal	ra,18170 <__malloc_lock>
   13ce4:	ff843503          	ld	a0,-8(s0)
   13ce8:	ff040713          	addi	a4,s0,-16
   13cec:	000245b7          	lui	a1,0x24
   13cf0:	ffe57793          	andi	a5,a0,-2
   13cf4:	00f70633          	add	a2,a4,a5
   13cf8:	d1858593          	addi	a1,a1,-744 # 23d18 <__malloc_av_>
   13cfc:	00863683          	ld	a3,8(a2)
   13d00:	0105b803          	ld	a6,16(a1)
   13d04:	ffc6f693          	andi	a3,a3,-4
   13d08:	1ac80a63          	beq	a6,a2,13ebc <_free_r+0x1f8>
   13d0c:	00d63423          	sd	a3,8(a2)
   13d10:	00157513          	andi	a0,a0,1
   13d14:	00d60833          	add	a6,a2,a3
   13d18:	0a051663          	bnez	a0,13dc4 <_free_r+0x100>
   13d1c:	ff043303          	ld	t1,-16(s0)
   13d20:	00883803          	ld	a6,8(a6)
   13d24:	00024537          	lui	a0,0x24
   13d28:	40670733          	sub	a4,a4,t1
   13d2c:	01073883          	ld	a7,16(a4)
   13d30:	d2850513          	addi	a0,a0,-728 # 23d28 <__malloc_av_+0x10>
   13d34:	006787b3          	add	a5,a5,t1
   13d38:	00187813          	andi	a6,a6,1
   13d3c:	14a88a63          	beq	a7,a0,13e90 <_free_r+0x1cc>
   13d40:	01873303          	ld	t1,24(a4)
   13d44:	0068bc23          	sd	t1,24(a7)
   13d48:	01133823          	sd	a7,16(t1)
   13d4c:	1e080463          	beqz	a6,13f34 <_free_r+0x270>
   13d50:	0017e693          	ori	a3,a5,1
   13d54:	00d73423          	sd	a3,8(a4)
   13d58:	00f63023          	sd	a5,0(a2)
   13d5c:	1ff00693          	li	a3,511
   13d60:	0af6ee63          	bltu	a3,a5,13e1c <_free_r+0x158>
   13d64:	0037d793          	srli	a5,a5,0x3
   13d68:	0007879b          	sext.w	a5,a5
   13d6c:	0017869b          	addiw	a3,a5,1
   13d70:	0016969b          	slliw	a3,a3,0x1
   13d74:	00369693          	slli	a3,a3,0x3
   13d78:	0085b803          	ld	a6,8(a1)
   13d7c:	00d586b3          	add	a3,a1,a3
   13d80:	0006b503          	ld	a0,0(a3)
   13d84:	00100613          	li	a2,1
   13d88:	4027d79b          	sraiw	a5,a5,0x2
   13d8c:	00f617b3          	sll	a5,a2,a5
   13d90:	0107e7b3          	or	a5,a5,a6
   13d94:	ff068613          	addi	a2,a3,-16
   13d98:	00c73c23          	sd	a2,24(a4)
   13d9c:	00a73823          	sd	a0,16(a4)
   13da0:	00f5b423          	sd	a5,8(a1)
   13da4:	00e6b023          	sd	a4,0(a3)
   13da8:	00e53c23          	sd	a4,24(a0)
   13dac:	01013403          	ld	s0,16(sp)
   13db0:	01813083          	ld	ra,24(sp)
   13db4:	00048513          	mv	a0,s1
   13db8:	00813483          	ld	s1,8(sp)
   13dbc:	02010113          	addi	sp,sp,32
   13dc0:	3b40406f          	j	18174 <__malloc_unlock>
   13dc4:	00883503          	ld	a0,8(a6)
   13dc8:	00157513          	andi	a0,a0,1
   13dcc:	02051e63          	bnez	a0,13e08 <_free_r+0x144>
   13dd0:	00024537          	lui	a0,0x24
   13dd4:	00d787b3          	add	a5,a5,a3
   13dd8:	d2850513          	addi	a0,a0,-728 # 23d28 <__malloc_av_+0x10>
   13ddc:	01063683          	ld	a3,16(a2)
   13de0:	0017e893          	ori	a7,a5,1
   13de4:	00f70833          	add	a6,a4,a5
   13de8:	16a68663          	beq	a3,a0,13f54 <_free_r+0x290>
   13dec:	01863603          	ld	a2,24(a2)
   13df0:	00c6bc23          	sd	a2,24(a3)
   13df4:	00d63823          	sd	a3,16(a2)
   13df8:	01173423          	sd	a7,8(a4)
   13dfc:	00f83023          	sd	a5,0(a6)
   13e00:	f5dff06f          	j	13d5c <_free_r+0x98>
   13e04:	00008067          	ret
   13e08:	0017e693          	ori	a3,a5,1
   13e0c:	fed43c23          	sd	a3,-8(s0)
   13e10:	00f63023          	sd	a5,0(a2)
   13e14:	1ff00693          	li	a3,511
   13e18:	f4f6f6e3          	bgeu	a3,a5,13d64 <_free_r+0xa0>
   13e1c:	0097d693          	srli	a3,a5,0x9
   13e20:	00400613          	li	a2,4
   13e24:	0ed66263          	bltu	a2,a3,13f08 <_free_r+0x244>
   13e28:	0067d693          	srli	a3,a5,0x6
   13e2c:	0006869b          	sext.w	a3,a3
   13e30:	0396851b          	addiw	a0,a3,57
   13e34:	0015151b          	slliw	a0,a0,0x1
   13e38:	0386861b          	addiw	a2,a3,56
   13e3c:	00351513          	slli	a0,a0,0x3
   13e40:	00a58533          	add	a0,a1,a0
   13e44:	00053683          	ld	a3,0(a0)
   13e48:	ff050513          	addi	a0,a0,-16
   13e4c:	12d50263          	beq	a0,a3,13f70 <_free_r+0x2ac>
   13e50:	0086b603          	ld	a2,8(a3)
   13e54:	ffc67613          	andi	a2,a2,-4
   13e58:	00c7f663          	bgeu	a5,a2,13e64 <_free_r+0x1a0>
   13e5c:	0106b683          	ld	a3,16(a3)
   13e60:	fed518e3          	bne	a0,a3,13e50 <_free_r+0x18c>
   13e64:	0186b503          	ld	a0,24(a3)
   13e68:	00a73c23          	sd	a0,24(a4)
   13e6c:	00d73823          	sd	a3,16(a4)
   13e70:	01013403          	ld	s0,16(sp)
   13e74:	00e53823          	sd	a4,16(a0)
   13e78:	01813083          	ld	ra,24(sp)
   13e7c:	00048513          	mv	a0,s1
   13e80:	00813483          	ld	s1,8(sp)
   13e84:	00e6bc23          	sd	a4,24(a3)
   13e88:	02010113          	addi	sp,sp,32
   13e8c:	2e80406f          	j	18174 <__malloc_unlock>
   13e90:	14081863          	bnez	a6,13fe0 <_free_r+0x31c>
   13e94:	01063583          	ld	a1,16(a2)
   13e98:	01863603          	ld	a2,24(a2)
   13e9c:	00f687b3          	add	a5,a3,a5
   13ea0:	0017e693          	ori	a3,a5,1
   13ea4:	00c5bc23          	sd	a2,24(a1)
   13ea8:	00b63823          	sd	a1,16(a2)
   13eac:	00d73423          	sd	a3,8(a4)
   13eb0:	00f70733          	add	a4,a4,a5
   13eb4:	00f73023          	sd	a5,0(a4)
   13eb8:	ef5ff06f          	j	13dac <_free_r+0xe8>
   13ebc:	00157513          	andi	a0,a0,1
   13ec0:	00d787b3          	add	a5,a5,a3
   13ec4:	02051063          	bnez	a0,13ee4 <_free_r+0x220>
   13ec8:	ff043503          	ld	a0,-16(s0)
   13ecc:	40a70733          	sub	a4,a4,a0
   13ed0:	01873683          	ld	a3,24(a4)
   13ed4:	01073603          	ld	a2,16(a4)
   13ed8:	00a787b3          	add	a5,a5,a0
   13edc:	00d63c23          	sd	a3,24(a2)
   13ee0:	00c6b823          	sd	a2,16(a3)
   13ee4:	0017e613          	ori	a2,a5,1
   13ee8:	7281b683          	ld	a3,1832(gp) # 24578 <__malloc_trim_threshold>
   13eec:	00c73423          	sd	a2,8(a4)
   13ef0:	00e5b823          	sd	a4,16(a1)
   13ef4:	ead7ece3          	bltu	a5,a3,13dac <_free_r+0xe8>
   13ef8:	7481b583          	ld	a1,1864(gp) # 24598 <__malloc_top_pad>
   13efc:	00048513          	mv	a0,s1
   13f00:	c99ff0ef          	jal	ra,13b98 <_malloc_trim_r>
   13f04:	ea9ff06f          	j	13dac <_free_r+0xe8>
   13f08:	01400613          	li	a2,20
   13f0c:	02d67863          	bgeu	a2,a3,13f3c <_free_r+0x278>
   13f10:	05400613          	li	a2,84
   13f14:	06d66c63          	bltu	a2,a3,13f8c <_free_r+0x2c8>
   13f18:	00c7d693          	srli	a3,a5,0xc
   13f1c:	0006869b          	sext.w	a3,a3
   13f20:	06f6851b          	addiw	a0,a3,111
   13f24:	0015151b          	slliw	a0,a0,0x1
   13f28:	06e6861b          	addiw	a2,a3,110
   13f2c:	00351513          	slli	a0,a0,0x3
   13f30:	f11ff06f          	j	13e40 <_free_r+0x17c>
   13f34:	00d787b3          	add	a5,a5,a3
   13f38:	ea5ff06f          	j	13ddc <_free_r+0x118>
   13f3c:	0006869b          	sext.w	a3,a3
   13f40:	05c6851b          	addiw	a0,a3,92
   13f44:	0015151b          	slliw	a0,a0,0x1
   13f48:	05b6861b          	addiw	a2,a3,91
   13f4c:	00351513          	slli	a0,a0,0x3
   13f50:	ef1ff06f          	j	13e40 <_free_r+0x17c>
   13f54:	02e5b423          	sd	a4,40(a1)
   13f58:	02e5b023          	sd	a4,32(a1)
   13f5c:	00a73c23          	sd	a0,24(a4)
   13f60:	00a73823          	sd	a0,16(a4)
   13f64:	01173423          	sd	a7,8(a4)
   13f68:	00f83023          	sd	a5,0(a6)
   13f6c:	e41ff06f          	j	13dac <_free_r+0xe8>
   13f70:	0085b803          	ld	a6,8(a1)
   13f74:	4026561b          	sraiw	a2,a2,0x2
   13f78:	00100793          	li	a5,1
   13f7c:	00c79633          	sll	a2,a5,a2
   13f80:	01066633          	or	a2,a2,a6
   13f84:	00c5b423          	sd	a2,8(a1)
   13f88:	ee1ff06f          	j	13e68 <_free_r+0x1a4>
   13f8c:	15400613          	li	a2,340
   13f90:	02d66063          	bltu	a2,a3,13fb0 <_free_r+0x2ec>
   13f94:	00f7d693          	srli	a3,a5,0xf
   13f98:	0006869b          	sext.w	a3,a3
   13f9c:	0786851b          	addiw	a0,a3,120
   13fa0:	0015151b          	slliw	a0,a0,0x1
   13fa4:	0776861b          	addiw	a2,a3,119
   13fa8:	00351513          	slli	a0,a0,0x3
   13fac:	e95ff06f          	j	13e40 <_free_r+0x17c>
   13fb0:	55400613          	li	a2,1364
   13fb4:	02d66063          	bltu	a2,a3,13fd4 <_free_r+0x310>
   13fb8:	0127d693          	srli	a3,a5,0x12
   13fbc:	0006869b          	sext.w	a3,a3
   13fc0:	07d6851b          	addiw	a0,a3,125
   13fc4:	0015151b          	slliw	a0,a0,0x1
   13fc8:	07c6861b          	addiw	a2,a3,124
   13fcc:	00351513          	slli	a0,a0,0x3
   13fd0:	e71ff06f          	j	13e40 <_free_r+0x17c>
   13fd4:	7f000513          	li	a0,2032
   13fd8:	07e00613          	li	a2,126
   13fdc:	e65ff06f          	j	13e40 <_free_r+0x17c>
   13fe0:	0017e693          	ori	a3,a5,1
   13fe4:	00d73423          	sd	a3,8(a4)
   13fe8:	00f63023          	sd	a5,0(a2)
   13fec:	dc1ff06f          	j	13dac <_free_r+0xe8>

0000000000013ff0 <__sfvwrite_r>:
   13ff0:	01063783          	ld	a5,16(a2)
   13ff4:	28078c63          	beqz	a5,1428c <__sfvwrite_r+0x29c>
   13ff8:	0105d783          	lhu	a5,16(a1)
   13ffc:	fa010113          	addi	sp,sp,-96
   14000:	04813823          	sd	s0,80(sp)
   14004:	03413823          	sd	s4,48(sp)
   14008:	03513423          	sd	s5,40(sp)
   1400c:	04113c23          	sd	ra,88(sp)
   14010:	04913423          	sd	s1,72(sp)
   14014:	05213023          	sd	s2,64(sp)
   14018:	03313c23          	sd	s3,56(sp)
   1401c:	03613023          	sd	s6,32(sp)
   14020:	01713c23          	sd	s7,24(sp)
   14024:	01813823          	sd	s8,16(sp)
   14028:	01913423          	sd	s9,8(sp)
   1402c:	01a13023          	sd	s10,0(sp)
   14030:	0087f713          	andi	a4,a5,8
   14034:	00058413          	mv	s0,a1
   14038:	00050a93          	mv	s5,a0
   1403c:	00060a13          	mv	s4,a2
   14040:	08070c63          	beqz	a4,140d8 <__sfvwrite_r+0xe8>
   14044:	0185b703          	ld	a4,24(a1)
   14048:	08070863          	beqz	a4,140d8 <__sfvwrite_r+0xe8>
   1404c:	0027f713          	andi	a4,a5,2
   14050:	000a3903          	ld	s2,0(s4)
   14054:	0a070263          	beqz	a4,140f8 <__sfvwrite_r+0x108>
   14058:	04043703          	ld	a4,64(s0)
   1405c:	03043783          	ld	a5,48(s0)
   14060:	80000b37          	lui	s6,0x80000
   14064:	00000993          	li	s3,0
   14068:	00000493          	li	s1,0
   1406c:	c00b4b13          	xori	s6,s6,-1024
   14070:	00098613          	mv	a2,s3
   14074:	00078593          	mv	a1,a5
   14078:	000a8513          	mv	a0,s5
   1407c:	04048663          	beqz	s1,140c8 <__sfvwrite_r+0xd8>
   14080:	00048693          	mv	a3,s1
   14084:	009b7463          	bgeu	s6,s1,1408c <__sfvwrite_r+0x9c>
   14088:	000b0693          	mv	a3,s6
   1408c:	0006869b          	sext.w	a3,a3
   14090:	000700e7          	jalr	a4
   14094:	1ea05263          	blez	a0,14278 <__sfvwrite_r+0x288>
   14098:	010a3783          	ld	a5,16(s4)
   1409c:	00a989b3          	add	s3,s3,a0
   140a0:	40a484b3          	sub	s1,s1,a0
   140a4:	40a78533          	sub	a0,a5,a0
   140a8:	00aa3823          	sd	a0,16(s4)
   140ac:	18050063          	beqz	a0,1422c <__sfvwrite_r+0x23c>
   140b0:	03043783          	ld	a5,48(s0)
   140b4:	04043703          	ld	a4,64(s0)
   140b8:	00098613          	mv	a2,s3
   140bc:	00078593          	mv	a1,a5
   140c0:	000a8513          	mv	a0,s5
   140c4:	fa049ee3          	bnez	s1,14080 <__sfvwrite_r+0x90>
   140c8:	00093983          	ld	s3,0(s2)
   140cc:	00893483          	ld	s1,8(s2)
   140d0:	01090913          	addi	s2,s2,16
   140d4:	f9dff06f          	j	14070 <__sfvwrite_r+0x80>
   140d8:	00040593          	mv	a1,s0
   140dc:	000a8513          	mv	a0,s5
   140e0:	958ff0ef          	jal	ra,13238 <__swsetup_r>
   140e4:	3c051663          	bnez	a0,144b0 <__sfvwrite_r+0x4c0>
   140e8:	01045783          	lhu	a5,16(s0)
   140ec:	000a3903          	ld	s2,0(s4)
   140f0:	0027f713          	andi	a4,a5,2
   140f4:	f60712e3          	bnez	a4,14058 <__sfvwrite_r+0x68>
   140f8:	0017f713          	andi	a4,a5,1
   140fc:	0a071263          	bnez	a4,141a0 <__sfvwrite_r+0x1b0>
   14100:	00c42483          	lw	s1,12(s0)
   14104:	00043503          	ld	a0,0(s0)
   14108:	80000b37          	lui	s6,0x80000
   1410c:	ffeb4b93          	xori	s7,s6,-2
   14110:	00000c13          	li	s8,0
   14114:	00000993          	li	s3,0
   14118:	fffb4b13          	not	s6,s6
   1411c:	00048c93          	mv	s9,s1
   14120:	06098863          	beqz	s3,14190 <__sfvwrite_r+0x1a0>
   14124:	2007f713          	andi	a4,a5,512
   14128:	1c070863          	beqz	a4,142f8 <__sfvwrite_r+0x308>
   1412c:	00048d13          	mv	s10,s1
   14130:	2699f663          	bgeu	s3,s1,1439c <__sfvwrite_r+0x3ac>
   14134:	00098c93          	mv	s9,s3
   14138:	00098d13          	mv	s10,s3
   1413c:	000d0613          	mv	a2,s10
   14140:	000c0593          	mv	a1,s8
   14144:	70d030ef          	jal	ra,18050 <memmove>
   14148:	00c42783          	lw	a5,12(s0)
   1414c:	00043603          	ld	a2,0(s0)
   14150:	00098493          	mv	s1,s3
   14154:	41978cbb          	subw	s9,a5,s9
   14158:	01a60633          	add	a2,a2,s10
   1415c:	01942623          	sw	s9,12(s0)
   14160:	00c43023          	sd	a2,0(s0)
   14164:	00000993          	li	s3,0
   14168:	010a3783          	ld	a5,16(s4)
   1416c:	009c0c33          	add	s8,s8,s1
   14170:	409784b3          	sub	s1,a5,s1
   14174:	009a3823          	sd	s1,16(s4)
   14178:	0a048a63          	beqz	s1,1422c <__sfvwrite_r+0x23c>
   1417c:	00c42483          	lw	s1,12(s0)
   14180:	00043503          	ld	a0,0(s0)
   14184:	01045783          	lhu	a5,16(s0)
   14188:	00048c93          	mv	s9,s1
   1418c:	f8099ce3          	bnez	s3,14124 <__sfvwrite_r+0x134>
   14190:	00093c03          	ld	s8,0(s2)
   14194:	00893983          	ld	s3,8(s2)
   14198:	01090913          	addi	s2,s2,16
   1419c:	f81ff06f          	j	1411c <__sfvwrite_r+0x12c>
   141a0:	00000993          	li	s3,0
   141a4:	00000513          	li	a0,0
   141a8:	00000c93          	li	s9,0
   141ac:	00000493          	li	s1,0
   141b0:	0e048263          	beqz	s1,14294 <__sfvwrite_r+0x2a4>
   141b4:	0e050863          	beqz	a0,142a4 <__sfvwrite_r+0x2b4>
   141b8:	00098c13          	mv	s8,s3
   141bc:	0134f463          	bgeu	s1,s3,141c4 <__sfvwrite_r+0x1d4>
   141c0:	00048c13          	mv	s8,s1
   141c4:	00043503          	ld	a0,0(s0)
   141c8:	01843783          	ld	a5,24(s0)
   141cc:	000c0b13          	mv	s6,s8
   141d0:	02042683          	lw	a3,32(s0)
   141d4:	00a7f863          	bgeu	a5,a0,141e4 <__sfvwrite_r+0x1f4>
   141d8:	00c42603          	lw	a2,12(s0)
   141dc:	00d60bbb          	addw	s7,a2,a3
   141e0:	0f8bc263          	blt	s7,s8,142c4 <__sfvwrite_r+0x2d4>
   141e4:	24dc4a63          	blt	s8,a3,14438 <__sfvwrite_r+0x448>
   141e8:	04043783          	ld	a5,64(s0)
   141ec:	03043583          	ld	a1,48(s0)
   141f0:	000c8613          	mv	a2,s9
   141f4:	000a8513          	mv	a0,s5
   141f8:	000780e7          	jalr	a5 # ffffffffffff0000 <__BSS_END__+0xfffffffffffcb9b0>
   141fc:	00050b13          	mv	s6,a0
   14200:	06a05c63          	blez	a0,14278 <__sfvwrite_r+0x288>
   14204:	0005061b          	sext.w	a2,a0
   14208:	40c989bb          	subw	s3,s3,a2
   1420c:	00100513          	li	a0,1
   14210:	04098c63          	beqz	s3,14268 <__sfvwrite_r+0x278>
   14214:	010a3783          	ld	a5,16(s4)
   14218:	016c8cb3          	add	s9,s9,s6
   1421c:	416484b3          	sub	s1,s1,s6
   14220:	41678b33          	sub	s6,a5,s6
   14224:	016a3823          	sd	s6,16(s4)
   14228:	f80b14e3          	bnez	s6,141b0 <__sfvwrite_r+0x1c0>
   1422c:	00000513          	li	a0,0
   14230:	05813083          	ld	ra,88(sp)
   14234:	05013403          	ld	s0,80(sp)
   14238:	04813483          	ld	s1,72(sp)
   1423c:	04013903          	ld	s2,64(sp)
   14240:	03813983          	ld	s3,56(sp)
   14244:	03013a03          	ld	s4,48(sp)
   14248:	02813a83          	ld	s5,40(sp)
   1424c:	02013b03          	ld	s6,32(sp)
   14250:	01813b83          	ld	s7,24(sp)
   14254:	01013c03          	ld	s8,16(sp)
   14258:	00813c83          	ld	s9,8(sp)
   1425c:	00013d03          	ld	s10,0(sp)
   14260:	06010113          	addi	sp,sp,96
   14264:	00008067          	ret
   14268:	00040593          	mv	a1,s0
   1426c:	000a8513          	mv	a0,s5
   14270:	d50ff0ef          	jal	ra,137c0 <_fflush_r>
   14274:	fa0500e3          	beqz	a0,14214 <__sfvwrite_r+0x224>
   14278:	01041783          	lh	a5,16(s0)
   1427c:	0407e793          	ori	a5,a5,64
   14280:	00f41823          	sh	a5,16(s0)
   14284:	fff00513          	li	a0,-1
   14288:	fa9ff06f          	j	14230 <__sfvwrite_r+0x240>
   1428c:	00000513          	li	a0,0
   14290:	00008067          	ret
   14294:	00893483          	ld	s1,8(s2)
   14298:	00093c83          	ld	s9,0(s2)
   1429c:	01090913          	addi	s2,s2,16
   142a0:	fe048ae3          	beqz	s1,14294 <__sfvwrite_r+0x2a4>
   142a4:	00048613          	mv	a2,s1
   142a8:	00a00593          	li	a1,10
   142ac:	000c8513          	mv	a0,s9
   142b0:	39d030ef          	jal	ra,17e4c <memchr>
   142b4:	1e050263          	beqz	a0,14498 <__sfvwrite_r+0x4a8>
   142b8:	00150513          	addi	a0,a0,1
   142bc:	419509bb          	subw	s3,a0,s9
   142c0:	ef9ff06f          	j	141b8 <__sfvwrite_r+0x1c8>
   142c4:	000c8593          	mv	a1,s9
   142c8:	000b8613          	mv	a2,s7
   142cc:	585030ef          	jal	ra,18050 <memmove>
   142d0:	00043783          	ld	a5,0(s0)
   142d4:	00040593          	mv	a1,s0
   142d8:	000a8513          	mv	a0,s5
   142dc:	017787b3          	add	a5,a5,s7
   142e0:	00f43023          	sd	a5,0(s0)
   142e4:	cdcff0ef          	jal	ra,137c0 <_fflush_r>
   142e8:	f80518e3          	bnez	a0,14278 <__sfvwrite_r+0x288>
   142ec:	000b8613          	mv	a2,s7
   142f0:	000b8b13          	mv	s6,s7
   142f4:	f15ff06f          	j	14208 <__sfvwrite_r+0x218>
   142f8:	01843783          	ld	a5,24(s0)
   142fc:	04a7ec63          	bltu	a5,a0,14354 <__sfvwrite_r+0x364>
   14300:	02042c83          	lw	s9,32(s0)
   14304:	0599e863          	bltu	s3,s9,14354 <__sfvwrite_r+0x364>
   14308:	00098513          	mv	a0,s3
   1430c:	013bf463          	bgeu	s7,s3,14314 <__sfvwrite_r+0x324>
   14310:	000b0513          	mv	a0,s6
   14314:	000c8593          	mv	a1,s9
   14318:	0005051b          	sext.w	a0,a0
   1431c:	1800d0ef          	jal	ra,2149c <__divdi3>
   14320:	00050593          	mv	a1,a0
   14324:	000c8513          	mv	a0,s9
   14328:	afcfc0ef          	jal	ra,10624 <__muldi3>
   1432c:	03043583          	ld	a1,48(s0)
   14330:	04043783          	ld	a5,64(s0)
   14334:	0005069b          	sext.w	a3,a0
   14338:	000c0613          	mv	a2,s8
   1433c:	000a8513          	mv	a0,s5
   14340:	000780e7          	jalr	a5
   14344:	f2a05ae3          	blez	a0,14278 <__sfvwrite_r+0x288>
   14348:	00050493          	mv	s1,a0
   1434c:	409989b3          	sub	s3,s3,s1
   14350:	e19ff06f          	j	14168 <__sfvwrite_r+0x178>
   14354:	0099f463          	bgeu	s3,s1,1435c <__sfvwrite_r+0x36c>
   14358:	00098493          	mv	s1,s3
   1435c:	00048613          	mv	a2,s1
   14360:	000c0593          	mv	a1,s8
   14364:	4ed030ef          	jal	ra,18050 <memmove>
   14368:	00c42783          	lw	a5,12(s0)
   1436c:	00043703          	ld	a4,0(s0)
   14370:	409786bb          	subw	a3,a5,s1
   14374:	00970733          	add	a4,a4,s1
   14378:	00d42623          	sw	a3,12(s0)
   1437c:	00e43023          	sd	a4,0(s0)
   14380:	fc0696e3          	bnez	a3,1434c <__sfvwrite_r+0x35c>
   14384:	00040593          	mv	a1,s0
   14388:	000a8513          	mv	a0,s5
   1438c:	c34ff0ef          	jal	ra,137c0 <_fflush_r>
   14390:	ee0514e3          	bnez	a0,14278 <__sfvwrite_r+0x288>
   14394:	409989b3          	sub	s3,s3,s1
   14398:	dd1ff06f          	j	14168 <__sfvwrite_r+0x178>
   1439c:	4807f713          	andi	a4,a5,1152
   143a0:	d8070ee3          	beqz	a4,1413c <__sfvwrite_r+0x14c>
   143a4:	02042683          	lw	a3,32(s0)
   143a8:	01843583          	ld	a1,24(s0)
   143ac:	00198713          	addi	a4,s3,1
   143b0:	0016949b          	slliw	s1,a3,0x1
   143b4:	00d486bb          	addw	a3,s1,a3
   143b8:	40b50533          	sub	a0,a0,a1
   143bc:	01f6d49b          	srliw	s1,a3,0x1f
   143c0:	00050c9b          	sext.w	s9,a0
   143c4:	00d484bb          	addw	s1,s1,a3
   143c8:	4014d49b          	sraiw	s1,s1,0x1
   143cc:	01970733          	add	a4,a4,s9
   143d0:	00e4f663          	bgeu	s1,a4,143dc <__sfvwrite_r+0x3ec>
   143d4:	0019849b          	addiw	s1,s3,1
   143d8:	00a484bb          	addw	s1,s1,a0
   143dc:	4007f793          	andi	a5,a5,1024
   143e0:	08078263          	beqz	a5,14464 <__sfvwrite_r+0x474>
   143e4:	00048593          	mv	a1,s1
   143e8:	000a8513          	mv	a0,s5
   143ec:	1b4030ef          	jal	ra,175a0 <_malloc_r>
   143f0:	00050d13          	mv	s10,a0
   143f4:	0a050663          	beqz	a0,144a0 <__sfvwrite_r+0x4b0>
   143f8:	01843583          	ld	a1,24(s0)
   143fc:	000c8613          	mv	a2,s9
   14400:	335030ef          	jal	ra,17f34 <memcpy>
   14404:	01045783          	lhu	a5,16(s0)
   14408:	b7f7f793          	andi	a5,a5,-1153
   1440c:	0807e793          	ori	a5,a5,128
   14410:	00f41823          	sh	a5,16(s0)
   14414:	019d0533          	add	a0,s10,s9
   14418:	419487bb          	subw	a5,s1,s9
   1441c:	01a43c23          	sd	s10,24(s0)
   14420:	00a43023          	sd	a0,0(s0)
   14424:	02942023          	sw	s1,32(s0)
   14428:	00098c93          	mv	s9,s3
   1442c:	00f42623          	sw	a5,12(s0)
   14430:	00098d13          	mv	s10,s3
   14434:	d09ff06f          	j	1413c <__sfvwrite_r+0x14c>
   14438:	000c0613          	mv	a2,s8
   1443c:	000c8593          	mv	a1,s9
   14440:	411030ef          	jal	ra,18050 <memmove>
   14444:	00c42703          	lw	a4,12(s0)
   14448:	00043783          	ld	a5,0(s0)
   1444c:	000c061b          	sext.w	a2,s8
   14450:	40c7073b          	subw	a4,a4,a2
   14454:	01878c33          	add	s8,a5,s8
   14458:	00e42623          	sw	a4,12(s0)
   1445c:	01843023          	sd	s8,0(s0)
   14460:	da9ff06f          	j	14208 <__sfvwrite_r+0x218>
   14464:	00048613          	mv	a2,s1
   14468:	000a8513          	mv	a0,s5
   1446c:	66d040ef          	jal	ra,192d8 <_realloc_r>
   14470:	00050d13          	mv	s10,a0
   14474:	fa0510e3          	bnez	a0,14414 <__sfvwrite_r+0x424>
   14478:	01843583          	ld	a1,24(s0)
   1447c:	000a8513          	mv	a0,s5
   14480:	845ff0ef          	jal	ra,13cc4 <_free_r>
   14484:	01041783          	lh	a5,16(s0)
   14488:	00c00713          	li	a4,12
   1448c:	00eaa023          	sw	a4,0(s5)
   14490:	f7f7f793          	andi	a5,a5,-129
   14494:	de9ff06f          	j	1427c <__sfvwrite_r+0x28c>
   14498:	0014899b          	addiw	s3,s1,1
   1449c:	d1dff06f          	j	141b8 <__sfvwrite_r+0x1c8>
   144a0:	00c00793          	li	a5,12
   144a4:	00faa023          	sw	a5,0(s5)
   144a8:	01041783          	lh	a5,16(s0)
   144ac:	dd1ff06f          	j	1427c <__sfvwrite_r+0x28c>
   144b0:	fff00513          	li	a0,-1
   144b4:	d7dff06f          	j	14230 <__sfvwrite_r+0x240>

00000000000144b8 <_fwalk>:
   144b8:	fc010113          	addi	sp,sp,-64
   144bc:	01313c23          	sd	s3,24(sp)
   144c0:	02113c23          	sd	ra,56(sp)
   144c4:	02813823          	sd	s0,48(sp)
   144c8:	02913423          	sd	s1,40(sp)
   144cc:	03213023          	sd	s2,32(sp)
   144d0:	01413823          	sd	s4,16(sp)
   144d4:	01513423          	sd	s5,8(sp)
   144d8:	01613023          	sd	s6,0(sp)
   144dc:	52050993          	addi	s3,a0,1312
   144e0:	0a098263          	beqz	s3,14584 <_fwalk+0xcc>
   144e4:	00058a93          	mv	s5,a1
   144e8:	00000913          	li	s2,0
   144ec:	00100b13          	li	s6,1
   144f0:	fff00a13          	li	s4,-1
   144f4:	0089a783          	lw	a5,8(s3)
   144f8:	0109b403          	ld	s0,16(s3)
   144fc:	04f05a63          	blez	a5,14550 <_fwalk+0x98>
   14500:	fff7879b          	addiw	a5,a5,-1
   14504:	02079493          	slli	s1,a5,0x20
   14508:	0204d493          	srli	s1,s1,0x20
   1450c:	00148793          	addi	a5,s1,1
   14510:	00179493          	slli	s1,a5,0x1
   14514:	00f484b3          	add	s1,s1,a5
   14518:	00249493          	slli	s1,s1,0x2
   1451c:	40f484b3          	sub	s1,s1,a5
   14520:	00449493          	slli	s1,s1,0x4
   14524:	009404b3          	add	s1,s0,s1
   14528:	01045783          	lhu	a5,16(s0)
   1452c:	00fb7e63          	bgeu	s6,a5,14548 <_fwalk+0x90>
   14530:	01241783          	lh	a5,18(s0)
   14534:	00040513          	mv	a0,s0
   14538:	01478863          	beq	a5,s4,14548 <_fwalk+0x90>
   1453c:	000a80e7          	jalr	s5
   14540:	01256933          	or	s2,a0,s2
   14544:	0009091b          	sext.w	s2,s2
   14548:	0b040413          	addi	s0,s0,176
   1454c:	fc941ee3          	bne	s0,s1,14528 <_fwalk+0x70>
   14550:	0009b983          	ld	s3,0(s3)
   14554:	fa0990e3          	bnez	s3,144f4 <_fwalk+0x3c>
   14558:	03813083          	ld	ra,56(sp)
   1455c:	03013403          	ld	s0,48(sp)
   14560:	00090513          	mv	a0,s2
   14564:	02813483          	ld	s1,40(sp)
   14568:	02013903          	ld	s2,32(sp)
   1456c:	01813983          	ld	s3,24(sp)
   14570:	01013a03          	ld	s4,16(sp)
   14574:	00813a83          	ld	s5,8(sp)
   14578:	00013b03          	ld	s6,0(sp)
   1457c:	04010113          	addi	sp,sp,64
   14580:	00008067          	ret
   14584:	00000913          	li	s2,0
   14588:	fd1ff06f          	j	14558 <_fwalk+0xa0>

000000000001458c <_fwalk_reent>:
   1458c:	fb010113          	addi	sp,sp,-80
   14590:	03213823          	sd	s2,48(sp)
   14594:	04113423          	sd	ra,72(sp)
   14598:	04813023          	sd	s0,64(sp)
   1459c:	02913c23          	sd	s1,56(sp)
   145a0:	03313423          	sd	s3,40(sp)
   145a4:	03413023          	sd	s4,32(sp)
   145a8:	01513c23          	sd	s5,24(sp)
   145ac:	01613823          	sd	s6,16(sp)
   145b0:	01713423          	sd	s7,8(sp)
   145b4:	52050913          	addi	s2,a0,1312
   145b8:	0a090863          	beqz	s2,14668 <_fwalk_reent+0xdc>
   145bc:	00058a93          	mv	s5,a1
   145c0:	00050993          	mv	s3,a0
   145c4:	00000b13          	li	s6,0
   145c8:	00100b93          	li	s7,1
   145cc:	fff00a13          	li	s4,-1
   145d0:	00892783          	lw	a5,8(s2)
   145d4:	01093403          	ld	s0,16(s2)
   145d8:	04f05c63          	blez	a5,14630 <_fwalk_reent+0xa4>
   145dc:	fff7879b          	addiw	a5,a5,-1
   145e0:	02079493          	slli	s1,a5,0x20
   145e4:	0204d493          	srli	s1,s1,0x20
   145e8:	00148793          	addi	a5,s1,1
   145ec:	00179493          	slli	s1,a5,0x1
   145f0:	00f484b3          	add	s1,s1,a5
   145f4:	00249493          	slli	s1,s1,0x2
   145f8:	40f484b3          	sub	s1,s1,a5
   145fc:	00449493          	slli	s1,s1,0x4
   14600:	009404b3          	add	s1,s0,s1
   14604:	01045783          	lhu	a5,16(s0)
   14608:	02fbf063          	bgeu	s7,a5,14628 <_fwalk_reent+0x9c>
   1460c:	01241783          	lh	a5,18(s0)
   14610:	00040593          	mv	a1,s0
   14614:	00098513          	mv	a0,s3
   14618:	01478863          	beq	a5,s4,14628 <_fwalk_reent+0x9c>
   1461c:	000a80e7          	jalr	s5
   14620:	01656b33          	or	s6,a0,s6
   14624:	000b0b1b          	sext.w	s6,s6
   14628:	0b040413          	addi	s0,s0,176
   1462c:	fc941ce3          	bne	s0,s1,14604 <_fwalk_reent+0x78>
   14630:	00093903          	ld	s2,0(s2)
   14634:	f8091ee3          	bnez	s2,145d0 <_fwalk_reent+0x44>
   14638:	04813083          	ld	ra,72(sp)
   1463c:	04013403          	ld	s0,64(sp)
   14640:	000b0513          	mv	a0,s6
   14644:	03813483          	ld	s1,56(sp)
   14648:	03013903          	ld	s2,48(sp)
   1464c:	02813983          	ld	s3,40(sp)
   14650:	02013a03          	ld	s4,32(sp)
   14654:	01813a83          	ld	s5,24(sp)
   14658:	01013b03          	ld	s6,16(sp)
   1465c:	00813b83          	ld	s7,8(sp)
   14660:	05010113          	addi	sp,sp,80
   14664:	00008067          	ret
   14668:	00000b13          	li	s6,0
   1466c:	fcdff06f          	j	14638 <_fwalk_reent+0xac>

0000000000014670 <eshdn1>:
   14670:	00450693          	addi	a3,a0,4
   14674:	00000793          	li	a5,0
   14678:	01a50513          	addi	a0,a0,26
   1467c:	ffff8837          	lui	a6,0xffff8
   14680:	01c0006f          	j	1469c <eshdn1+0x2c>
   14684:	0017979b          	slliw	a5,a5,0x1
   14688:	00e69023          	sh	a4,0(a3)
   1468c:	03079793          	slli	a5,a5,0x30
   14690:	00268693          	addi	a3,a3,2
   14694:	0307d793          	srli	a5,a5,0x30
   14698:	02d50e63          	beq	a0,a3,146d4 <eshdn1+0x64>
   1469c:	0006d703          	lhu	a4,0(a3)
   146a0:	00177613          	andi	a2,a4,1
   146a4:	00060463          	beqz	a2,146ac <eshdn1+0x3c>
   146a8:	0017e793          	ori	a5,a5,1
   146ac:	00175713          	srli	a4,a4,0x1
   146b0:	0027f613          	andi	a2,a5,2
   146b4:	010765b3          	or	a1,a4,a6
   146b8:	fc0606e3          	beqz	a2,14684 <eshdn1+0x14>
   146bc:	0017979b          	slliw	a5,a5,0x1
   146c0:	00b69023          	sh	a1,0(a3)
   146c4:	03079793          	slli	a5,a5,0x30
   146c8:	00268693          	addi	a3,a3,2
   146cc:	0307d793          	srli	a5,a5,0x30
   146d0:	fcd516e3          	bne	a0,a3,1469c <eshdn1+0x2c>
   146d4:	00008067          	ret

00000000000146d8 <eshup1>:
   146d8:	01850693          	addi	a3,a0,24
   146dc:	00000713          	li	a4,0
   146e0:	00250513          	addi	a0,a0,2
   146e4:	01c0006f          	j	14700 <eshup1+0x28>
   146e8:	0017171b          	slliw	a4,a4,0x1
   146ec:	00f69023          	sh	a5,0(a3)
   146f0:	03071713          	slli	a4,a4,0x30
   146f4:	ffe68693          	addi	a3,a3,-2
   146f8:	03075713          	srli	a4,a4,0x30
   146fc:	04d50663          	beq	a0,a3,14748 <eshup1+0x70>
   14700:	0006d783          	lhu	a5,0(a3)
   14704:	0107961b          	slliw	a2,a5,0x10
   14708:	4106561b          	sraiw	a2,a2,0x10
   1470c:	02061593          	slli	a1,a2,0x20
   14710:	0017979b          	slliw	a5,a5,0x1
   14714:	0005d463          	bgez	a1,1471c <eshup1+0x44>
   14718:	00176713          	ori	a4,a4,1
   1471c:	03079793          	slli	a5,a5,0x30
   14720:	0307d793          	srli	a5,a5,0x30
   14724:	00277613          	andi	a2,a4,2
   14728:	0017e593          	ori	a1,a5,1
   1472c:	fa060ee3          	beqz	a2,146e8 <eshup1+0x10>
   14730:	0017171b          	slliw	a4,a4,0x1
   14734:	00b69023          	sh	a1,0(a3)
   14738:	03071713          	slli	a4,a4,0x30
   1473c:	ffe68693          	addi	a3,a3,-2
   14740:	03075713          	srli	a4,a4,0x30
   14744:	fad51ee3          	bne	a0,a3,14700 <eshup1+0x28>
   14748:	00008067          	ret

000000000001474c <m16m>:
   1474c:	fa010113          	addi	sp,sp,-96
   14750:	03413823          	sd	s4,48(sp)
   14754:	00010a37          	lui	s4,0x10
   14758:	04813823          	sd	s0,80(sp)
   1475c:	04913423          	sd	s1,72(sp)
   14760:	05213023          	sd	s2,64(sp)
   14764:	03313c23          	sd	s3,56(sp)
   14768:	03513423          	sd	s5,40(sp)
   1476c:	04113c23          	sd	ra,88(sp)
   14770:	00050a93          	mv	s5,a0
   14774:	00060493          	mv	s1,a2
   14778:	00011b23          	sh	zero,22(sp)
   1477c:	00011c23          	sh	zero,24(sp)
   14780:	01858913          	addi	s2,a1,24
   14784:	01810413          	addi	s0,sp,24
   14788:	00410993          	addi	s3,sp,4
   1478c:	fffa0a13          	addi	s4,s4,-1 # ffff <register_fini-0xb1>
   14790:	00095783          	lhu	a5,0(s2)
   14794:	000a8593          	mv	a1,s5
   14798:	ffe40413          	addi	s0,s0,-2
   1479c:	ffe90913          	addi	s2,s2,-2
   147a0:	00078513          	mv	a0,a5
   147a4:	04079663          	bnez	a5,147f0 <m16m+0xa4>
   147a8:	fe041f23          	sh	zero,-2(s0)
   147ac:	ff3412e3          	bne	s0,s3,14790 <m16m+0x44>
   147b0:	00448613          	addi	a2,s1,4
   147b4:	01a10713          	addi	a4,sp,26
   147b8:	00045783          	lhu	a5,0(s0)
   147bc:	00260613          	addi	a2,a2,2
   147c0:	00240413          	addi	s0,s0,2
   147c4:	fef61f23          	sh	a5,-2(a2)
   147c8:	fee418e3          	bne	s0,a4,147b8 <m16m+0x6c>
   147cc:	05813083          	ld	ra,88(sp)
   147d0:	05013403          	ld	s0,80(sp)
   147d4:	04813483          	ld	s1,72(sp)
   147d8:	04013903          	ld	s2,64(sp)
   147dc:	03813983          	ld	s3,56(sp)
   147e0:	03013a03          	ld	s4,48(sp)
   147e4:	02813a83          	ld	s5,40(sp)
   147e8:	06010113          	addi	sp,sp,96
   147ec:	00008067          	ret
   147f0:	e35fb0ef          	jal	ra,10624 <__muldi3>
   147f4:	00245703          	lhu	a4,2(s0)
   147f8:	00045683          	lhu	a3,0(s0)
   147fc:	014577b3          	and	a5,a0,s4
   14800:	00e787b3          	add	a5,a5,a4
   14804:	01055513          	srli	a0,a0,0x10
   14808:	0107d713          	srli	a4,a5,0x10
   1480c:	00d50533          	add	a0,a0,a3
   14810:	00e50533          	add	a0,a0,a4
   14814:	01055713          	srli	a4,a0,0x10
   14818:	00f41123          	sh	a5,2(s0)
   1481c:	00a41023          	sh	a0,0(s0)
   14820:	fee41f23          	sh	a4,-2(s0)
   14824:	f73416e3          	bne	s0,s3,14790 <m16m+0x44>
   14828:	f89ff06f          	j	147b0 <m16m+0x64>

000000000001482c <eisnan.part.0>:
   1482c:	01250713          	addi	a4,a0,18
   14830:	00250513          	addi	a0,a0,2
   14834:	ffe55783          	lhu	a5,-2(a0)
   14838:	00079863          	bnez	a5,14848 <eisnan.part.0+0x1c>
   1483c:	fea71ae3          	bne	a4,a0,14830 <eisnan.part.0+0x4>
   14840:	00000513          	li	a0,0
   14844:	00008067          	ret
   14848:	00100513          	li	a0,1
   1484c:	00008067          	ret

0000000000014850 <eneg>:
   14850:	fe010113          	addi	sp,sp,-32
   14854:	00813823          	sd	s0,16(sp)
   14858:	01255403          	lhu	s0,18(a0)
   1485c:	00913423          	sd	s1,8(sp)
   14860:	00113c23          	sd	ra,24(sp)
   14864:	fff44793          	not	a5,s0
   14868:	03179713          	slli	a4,a5,0x31
   1486c:	00050493          	mv	s1,a0
   14870:	00071663          	bnez	a4,1487c <eneg+0x2c>
   14874:	fb9ff0ef          	jal	ra,1482c <eisnan.part.0>
   14878:	00051863          	bnez	a0,14888 <eneg+0x38>
   1487c:	ffff87b7          	lui	a5,0xffff8
   14880:	00f44433          	xor	s0,s0,a5
   14884:	00849923          	sh	s0,18(s1)
   14888:	01813083          	ld	ra,24(sp)
   1488c:	01013403          	ld	s0,16(sp)
   14890:	00813483          	ld	s1,8(sp)
   14894:	02010113          	addi	sp,sp,32
   14898:	00008067          	ret

000000000001489c <eisneg>:
   1489c:	ff010113          	addi	sp,sp,-16
   148a0:	00813023          	sd	s0,0(sp)
   148a4:	01255403          	lhu	s0,18(a0)
   148a8:	00113423          	sd	ra,8(sp)
   148ac:	fff44793          	not	a5,s0
   148b0:	03179713          	slli	a4,a5,0x31
   148b4:	00071863          	bnez	a4,148c4 <eisneg+0x28>
   148b8:	f75ff0ef          	jal	ra,1482c <eisnan.part.0>
   148bc:	00000793          	li	a5,0
   148c0:	00051463          	bnez	a0,148c8 <eisneg+0x2c>
   148c4:	00f45793          	srli	a5,s0,0xf
   148c8:	00813083          	ld	ra,8(sp)
   148cc:	00013403          	ld	s0,0(sp)
   148d0:	00078513          	mv	a0,a5
   148d4:	01010113          	addi	sp,sp,16
   148d8:	00008067          	ret

00000000000148dc <emovi>:
   148dc:	01251783          	lh	a5,18(a0)
   148e0:	fe010113          	addi	sp,sp,-32
   148e4:	00113c23          	sd	ra,24(sp)
   148e8:	00813823          	sd	s0,16(sp)
   148ec:	00913423          	sd	s1,8(sp)
   148f0:	01213023          	sd	s2,0(sp)
   148f4:	0607c263          	bltz	a5,14958 <emovi+0x7c>
   148f8:	00059023          	sh	zero,0(a1)
   148fc:	01255783          	lhu	a5,18(a0)
   14900:	00008737          	lui	a4,0x8
   14904:	fff70713          	addi	a4,a4,-1 # 7fff <register_fini-0x80b1>
   14908:	00f777b3          	and	a5,a4,a5
   1490c:	00f59123          	sh	a5,2(a1)
   14910:	0007879b          	sext.w	a5,a5
   14914:	01050413          	addi	s0,a0,16
   14918:	06e78463          	beq	a5,a4,14980 <emovi+0xa4>
   1491c:	00658793          	addi	a5,a1,6
   14920:	00059223          	sh	zero,4(a1)
   14924:	ffe50513          	addi	a0,a0,-2
   14928:	ffe40413          	addi	s0,s0,-2
   1492c:	00245703          	lhu	a4,2(s0)
   14930:	00278793          	addi	a5,a5,2 # ffffffffffff8002 <__BSS_END__+0xfffffffffffd39b2>
   14934:	fee79f23          	sh	a4,-2(a5)
   14938:	fe8518e3          	bne	a0,s0,14928 <emovi+0x4c>
   1493c:	00059c23          	sh	zero,24(a1)
   14940:	01813083          	ld	ra,24(sp)
   14944:	01013403          	ld	s0,16(sp)
   14948:	00813483          	ld	s1,8(sp)
   1494c:	00013903          	ld	s2,0(sp)
   14950:	02010113          	addi	sp,sp,32
   14954:	00008067          	ret
   14958:	fff00793          	li	a5,-1
   1495c:	00f59023          	sh	a5,0(a1)
   14960:	01255783          	lhu	a5,18(a0)
   14964:	00008737          	lui	a4,0x8
   14968:	fff70713          	addi	a4,a4,-1 # 7fff <register_fini-0x80b1>
   1496c:	00f777b3          	and	a5,a4,a5
   14970:	00f59123          	sh	a5,2(a1)
   14974:	0007879b          	sext.w	a5,a5
   14978:	01050413          	addi	s0,a0,16
   1497c:	fae790e3          	bne	a5,a4,1491c <emovi+0x40>
   14980:	01255703          	lhu	a4,18(a0)
   14984:	00058913          	mv	s2,a1
   14988:	00050493          	mv	s1,a0
   1498c:	00e7f733          	and	a4,a5,a4
   14990:	02f71863          	bne	a4,a5,149c0 <emovi+0xe4>
   14994:	e99ff0ef          	jal	ra,1482c <eisnan.part.0>
   14998:	02050463          	beqz	a0,149c0 <emovi+0xe4>
   1499c:	00690713          	addi	a4,s2,6
   149a0:	00091223          	sh	zero,4(s2)
   149a4:	ffc48793          	addi	a5,s1,-4
   149a8:	ffe40413          	addi	s0,s0,-2
   149ac:	00245683          	lhu	a3,2(s0)
   149b0:	00270713          	addi	a4,a4,2
   149b4:	fed71f23          	sh	a3,-2(a4)
   149b8:	fe8798e3          	bne	a5,s0,149a8 <emovi+0xcc>
   149bc:	f85ff06f          	j	14940 <emovi+0x64>
   149c0:	00490793          	addi	a5,s2,4
   149c4:	01a90593          	addi	a1,s2,26
   149c8:	00278793          	addi	a5,a5,2
   149cc:	fe079f23          	sh	zero,-2(a5)
   149d0:	fef59ce3          	bne	a1,a5,149c8 <emovi+0xec>
   149d4:	01813083          	ld	ra,24(sp)
   149d8:	01013403          	ld	s0,16(sp)
   149dc:	00813483          	ld	s1,8(sp)
   149e0:	00013903          	ld	s2,0(sp)
   149e4:	02010113          	addi	sp,sp,32
   149e8:	00008067          	ret

00000000000149ec <ecmp>:
   149ec:	01255783          	lhu	a5,18(a0)
   149f0:	fa010113          	addi	sp,sp,-96
   149f4:	04813823          	sd	s0,80(sp)
   149f8:	fff7c793          	not	a5,a5
   149fc:	04913423          	sd	s1,72(sp)
   14a00:	04113c23          	sd	ra,88(sp)
   14a04:	03179713          	slli	a4,a5,0x31
   14a08:	00050493          	mv	s1,a0
   14a0c:	00058413          	mv	s0,a1
   14a10:	00071663          	bnez	a4,14a1c <ecmp+0x30>
   14a14:	e19ff0ef          	jal	ra,1482c <eisnan.part.0>
   14a18:	08051263          	bnez	a0,14a9c <ecmp+0xb0>
   14a1c:	01245783          	lhu	a5,18(s0)
   14a20:	fff7c793          	not	a5,a5
   14a24:	03179713          	slli	a4,a5,0x31
   14a28:	06070463          	beqz	a4,14a90 <ecmp+0xa4>
   14a2c:	00010593          	mv	a1,sp
   14a30:	00048513          	mv	a0,s1
   14a34:	ea9ff0ef          	jal	ra,148dc <emovi>
   14a38:	02010593          	addi	a1,sp,32
   14a3c:	00040513          	mv	a0,s0
   14a40:	e9dff0ef          	jal	ra,148dc <emovi>
   14a44:	00015583          	lhu	a1,0(sp)
   14a48:	02015783          	lhu	a5,32(sp)
   14a4c:	04b78c63          	beq	a5,a1,14aa4 <ecmp+0xb8>
   14a50:	00210793          	addi	a5,sp,2
   14a54:	02210713          	addi	a4,sp,34
   14a58:	01810613          	addi	a2,sp,24
   14a5c:	0007d683          	lhu	a3,0(a5)
   14a60:	00278793          	addi	a5,a5,2
   14a64:	08069663          	bnez	a3,14af0 <ecmp+0x104>
   14a68:	00075683          	lhu	a3,0(a4)
   14a6c:	00270713          	addi	a4,a4,2
   14a70:	08069063          	bnez	a3,14af0 <ecmp+0x104>
   14a74:	fec794e3          	bne	a5,a2,14a5c <ecmp+0x70>
   14a78:	00000513          	li	a0,0
   14a7c:	05813083          	ld	ra,88(sp)
   14a80:	05013403          	ld	s0,80(sp)
   14a84:	04813483          	ld	s1,72(sp)
   14a88:	06010113          	addi	sp,sp,96
   14a8c:	00008067          	ret
   14a90:	00040513          	mv	a0,s0
   14a94:	d99ff0ef          	jal	ra,1482c <eisnan.part.0>
   14a98:	f8050ae3          	beqz	a0,14a2c <ecmp+0x40>
   14a9c:	ffe00513          	li	a0,-2
   14aa0:	fddff06f          	j	14a7c <ecmp+0x90>
   14aa4:	00100513          	li	a0,1
   14aa8:	04059c63          	bnez	a1,14b00 <ecmp+0x114>
   14aac:	00210713          	addi	a4,sp,2
   14ab0:	02210793          	addi	a5,sp,34
   14ab4:	00278793          	addi	a5,a5,2
   14ab8:	00270713          	addi	a4,a4,2
   14abc:	ffe75603          	lhu	a2,-2(a4)
   14ac0:	ffe7d683          	lhu	a3,-2(a5)
   14ac4:	03810593          	addi	a1,sp,56
   14ac8:	00d61e63          	bne	a2,a3,14ae4 <ecmp+0xf8>
   14acc:	fab786e3          	beq	a5,a1,14a78 <ecmp+0x8c>
   14ad0:	00278793          	addi	a5,a5,2
   14ad4:	00270713          	addi	a4,a4,2
   14ad8:	ffe75603          	lhu	a2,-2(a4)
   14adc:	ffe7d683          	lhu	a3,-2(a5)
   14ae0:	fed606e3          	beq	a2,a3,14acc <ecmp+0xe0>
   14ae4:	f8c6ece3          	bltu	a3,a2,14a7c <ecmp+0x90>
   14ae8:	40a0053b          	negw	a0,a0
   14aec:	f91ff06f          	j	14a7c <ecmp+0x90>
   14af0:	00100513          	li	a0,1
   14af4:	f80584e3          	beqz	a1,14a7c <ecmp+0x90>
   14af8:	fff00513          	li	a0,-1
   14afc:	f81ff06f          	j	14a7c <ecmp+0x90>
   14b00:	fff00513          	li	a0,-1
   14b04:	fa9ff06f          	j	14aac <ecmp+0xc0>

0000000000014b08 <eisinf.part.1>:
   14b08:	ff010113          	addi	sp,sp,-16
   14b0c:	00113423          	sd	ra,8(sp)
   14b10:	d1dff0ef          	jal	ra,1482c <eisnan.part.0>
   14b14:	00813083          	ld	ra,8(sp)
   14b18:	00153513          	seqz	a0,a0
   14b1c:	01010113          	addi	sp,sp,16
   14b20:	00008067          	ret

0000000000014b24 <eshift.part.3>:
   14b24:	fe010113          	addi	sp,sp,-32
   14b28:	00813823          	sd	s0,16(sp)
   14b2c:	01213023          	sd	s2,0(sp)
   14b30:	00113c23          	sd	ra,24(sp)
   14b34:	00913423          	sd	s1,8(sp)
   14b38:	00058913          	mv	s2,a1
   14b3c:	00050413          	mv	s0,a0
   14b40:	0a05c263          	bltz	a1,14be4 <eshift.part.3+0xc0>
   14b44:	00f00793          	li	a5,15
   14b48:	00058613          	mv	a2,a1
   14b4c:	00450513          	addi	a0,a0,4
   14b50:	01840693          	addi	a3,s0,24
   14b54:	00f00593          	li	a1,15
   14b58:	0327d463          	bge	a5,s2,14b80 <eshift.part.3+0x5c>
   14b5c:	00050793          	mv	a5,a0
   14b60:	00278793          	addi	a5,a5,2
   14b64:	0007d703          	lhu	a4,0(a5)
   14b68:	fee79f23          	sh	a4,-2(a5)
   14b6c:	fed79ae3          	bne	a5,a3,14b60 <eshift.part.3+0x3c>
   14b70:	00041c23          	sh	zero,24(s0)
   14b74:	ff06061b          	addiw	a2,a2,-16
   14b78:	fec5c2e3          	blt	a1,a2,14b5c <eshift.part.3+0x38>
   14b7c:	00f97913          	andi	s2,s2,15
   14b80:	00700793          	li	a5,7
   14b84:	0327d863          	bge	a5,s2,14bb4 <eshift.part.3+0x90>
   14b88:	01840793          	addi	a5,s0,24
   14b8c:	00240593          	addi	a1,s0,2
   14b90:	00000713          	li	a4,0
   14b94:	0007d683          	lhu	a3,0(a5)
   14b98:	ffe78793          	addi	a5,a5,-2
   14b9c:	00869613          	slli	a2,a3,0x8
   14ba0:	00c76733          	or	a4,a4,a2
   14ba4:	00e79123          	sh	a4,2(a5)
   14ba8:	0086d713          	srli	a4,a3,0x8
   14bac:	feb794e3          	bne	a5,a1,14b94 <eshift.part.3+0x70>
   14bb0:	ff89091b          	addiw	s2,s2,-8
   14bb4:	00090a63          	beqz	s2,14bc8 <eshift.part.3+0xa4>
   14bb8:	fff9091b          	addiw	s2,s2,-1
   14bbc:	00040513          	mv	a0,s0
   14bc0:	b19ff0ef          	jal	ra,146d8 <eshup1>
   14bc4:	fe091ae3          	bnez	s2,14bb8 <eshift.part.3+0x94>
   14bc8:	01813083          	ld	ra,24(sp)
   14bcc:	01013403          	ld	s0,16(sp)
   14bd0:	00813483          	ld	s1,8(sp)
   14bd4:	00013903          	ld	s2,0(sp)
   14bd8:	00000513          	li	a0,0
   14bdc:	02010113          	addi	sp,sp,32
   14be0:	00008067          	ret
   14be4:	ff100793          	li	a5,-15
   14be8:	40b004bb          	negw	s1,a1
   14bec:	0cf5d463          	bge	a1,a5,14cb4 <eshift.part.3+0x190>
   14bf0:	01850593          	addi	a1,a0,24
   14bf4:	00000913          	li	s2,0
   14bf8:	00450693          	addi	a3,a0,4
   14bfc:	00f00613          	li	a2,15
   14c00:	01845703          	lhu	a4,24(s0)
   14c04:	00058793          	mv	a5,a1
   14c08:	00e96933          	or	s2,s2,a4
   14c0c:	ffe78793          	addi	a5,a5,-2
   14c10:	0007d703          	lhu	a4,0(a5)
   14c14:	00e79123          	sh	a4,2(a5)
   14c18:	fed79ae3          	bne	a5,a3,14c0c <eshift.part.3+0xe8>
   14c1c:	00041223          	sh	zero,4(s0)
   14c20:	ff04849b          	addiw	s1,s1,-16
   14c24:	fc964ee3          	blt	a2,s1,14c00 <eshift.part.3+0xdc>
   14c28:	00700793          	li	a5,7
   14c2c:	0497d663          	bge	a5,s1,14c78 <eshift.part.3+0x154>
   14c30:	0109191b          	slliw	s2,s2,0x10
   14c34:	4109591b          	sraiw	s2,s2,0x10
   14c38:	01844783          	lbu	a5,24(s0)
   14c3c:	01a40593          	addi	a1,s0,26
   14c40:	00000713          	li	a4,0
   14c44:	00f96933          	or	s2,s2,a5
   14c48:	03091913          	slli	s2,s2,0x30
   14c4c:	03095913          	srli	s2,s2,0x30
   14c50:	0006d783          	lhu	a5,0(a3)
   14c54:	00268693          	addi	a3,a3,2
   14c58:	0087d61b          	srliw	a2,a5,0x8
   14c5c:	00c76733          	or	a4,a4,a2
   14c60:	0087979b          	slliw	a5,a5,0x8
   14c64:	fee69f23          	sh	a4,-2(a3)
   14c68:	03079713          	slli	a4,a5,0x30
   14c6c:	03075713          	srli	a4,a4,0x30
   14c70:	feb690e3          	bne	a3,a1,14c50 <eshift.part.3+0x12c>
   14c74:	ff84849b          	addiw	s1,s1,-8
   14c78:	02048063          	beqz	s1,14c98 <eshift.part.3+0x174>
   14c7c:	01845783          	lhu	a5,24(s0)
   14c80:	fff4849b          	addiw	s1,s1,-1
   14c84:	00040513          	mv	a0,s0
   14c88:	0017f793          	andi	a5,a5,1
   14c8c:	0127e933          	or	s2,a5,s2
   14c90:	9e1ff0ef          	jal	ra,14670 <eshdn1>
   14c94:	fe0494e3          	bnez	s1,14c7c <eshift.part.3+0x158>
   14c98:	01813083          	ld	ra,24(sp)
   14c9c:	01013403          	ld	s0,16(sp)
   14ca0:	01203533          	snez	a0,s2
   14ca4:	00813483          	ld	s1,8(sp)
   14ca8:	00013903          	ld	s2,0(sp)
   14cac:	02010113          	addi	sp,sp,32
   14cb0:	00008067          	ret
   14cb4:	ff900793          	li	a5,-7
   14cb8:	00f5c663          	blt	a1,a5,14cc4 <eshift.part.3+0x1a0>
   14cbc:	00000913          	li	s2,0
   14cc0:	fbdff06f          	j	14c7c <eshift.part.3+0x158>
   14cc4:	00000913          	li	s2,0
   14cc8:	00440693          	addi	a3,s0,4
   14ccc:	f6dff06f          	j	14c38 <eshift.part.3+0x114>

0000000000014cd0 <enormlz>:
   14cd0:	00455783          	lhu	a5,4(a0)
   14cd4:	fe010113          	addi	sp,sp,-32
   14cd8:	00913423          	sd	s1,8(sp)
   14cdc:	00113c23          	sd	ra,24(sp)
   14ce0:	00813823          	sd	s0,16(sp)
   14ce4:	01213023          	sd	s2,0(sp)
   14ce8:	00050493          	mv	s1,a0
   14cec:	0e079063          	bnez	a5,14dcc <enormlz+0xfc>
   14cf0:	00655703          	lhu	a4,6(a0)
   14cf4:	00000413          	li	s0,0
   14cf8:	0107179b          	slliw	a5,a4,0x10
   14cfc:	4107d79b          	sraiw	a5,a5,0x10
   14d00:	02079693          	slli	a3,a5,0x20
   14d04:	0a06c663          	bltz	a3,14db0 <enormlz+0xe0>
   14d08:	01a50693          	addi	a3,a0,26
   14d0c:	0a000613          	li	a2,160
   14d10:	02071863          	bnez	a4,14d40 <enormlz+0x70>
   14d14:	00648793          	addi	a5,s1,6
   14d18:	0080006f          	j	14d20 <enormlz+0x50>
   14d1c:	0007d703          	lhu	a4,0(a5)
   14d20:	00278793          	addi	a5,a5,2
   14d24:	fee79e23          	sh	a4,-4(a5)
   14d28:	fef69ae3          	bne	a3,a5,14d1c <enormlz+0x4c>
   14d2c:	00049c23          	sh	zero,24(s1)
   14d30:	0104041b          	addiw	s0,s0,16
   14d34:	06c40e63          	beq	s0,a2,14db0 <enormlz+0xe0>
   14d38:	0064d703          	lhu	a4,6(s1)
   14d3c:	fc070ce3          	beqz	a4,14d14 <enormlz+0x44>
   14d40:	f0077793          	andi	a5,a4,-256
   14d44:	04079063          	bnez	a5,14d84 <enormlz+0xb4>
   14d48:	01848513          	addi	a0,s1,24
   14d4c:	00248593          	addi	a1,s1,2
   14d50:	00000713          	li	a4,0
   14d54:	00050793          	mv	a5,a0
   14d58:	0007d683          	lhu	a3,0(a5)
   14d5c:	ffe78793          	addi	a5,a5,-2
   14d60:	00869613          	slli	a2,a3,0x8
   14d64:	00c76733          	or	a4,a4,a2
   14d68:	00e79123          	sh	a4,2(a5)
   14d6c:	0086d713          	srli	a4,a3,0x8
   14d70:	fef594e3          	bne	a1,a5,14d58 <enormlz+0x88>
   14d74:	0064d703          	lhu	a4,6(s1)
   14d78:	0084041b          	addiw	s0,s0,8
   14d7c:	f0077793          	andi	a5,a4,-256
   14d80:	fc0788e3          	beqz	a5,14d50 <enormlz+0x80>
   14d84:	0a000913          	li	s2,160
   14d88:	0140006f          	j	14d9c <enormlz+0xcc>
   14d8c:	0014041b          	addiw	s0,s0,1
   14d90:	949ff0ef          	jal	ra,146d8 <eshup1>
   14d94:	00894e63          	blt	s2,s0,14db0 <enormlz+0xe0>
   14d98:	0064d703          	lhu	a4,6(s1)
   14d9c:	0107171b          	slliw	a4,a4,0x10
   14da0:	4107571b          	sraiw	a4,a4,0x10
   14da4:	02071793          	slli	a5,a4,0x20
   14da8:	00048513          	mv	a0,s1
   14dac:	fe07d0e3          	bgez	a5,14d8c <enormlz+0xbc>
   14db0:	00040513          	mv	a0,s0
   14db4:	01813083          	ld	ra,24(sp)
   14db8:	01013403          	ld	s0,16(sp)
   14dbc:	00813483          	ld	s1,8(sp)
   14dc0:	00013903          	ld	s2,0(sp)
   14dc4:	02010113          	addi	sp,sp,32
   14dc8:	00008067          	ret
   14dcc:	f007f713          	andi	a4,a5,-256
   14dd0:	00000413          	li	s0,0
   14dd4:	04071063          	bnez	a4,14e14 <enormlz+0x144>
   14dd8:	f6f00913          	li	s2,-145
   14ddc:	0140006f          	j	14df0 <enormlz+0x120>
   14de0:	fff4041b          	addiw	s0,s0,-1
   14de4:	88dff0ef          	jal	ra,14670 <eshdn1>
   14de8:	fd2404e3          	beq	s0,s2,14db0 <enormlz+0xe0>
   14dec:	0044d783          	lhu	a5,4(s1)
   14df0:	00048513          	mv	a0,s1
   14df4:	fe0796e3          	bnez	a5,14de0 <enormlz+0x110>
   14df8:	00040513          	mv	a0,s0
   14dfc:	01813083          	ld	ra,24(sp)
   14e00:	01013403          	ld	s0,16(sp)
   14e04:	00813483          	ld	s1,8(sp)
   14e08:	00013903          	ld	s2,0(sp)
   14e0c:	02010113          	addi	sp,sp,32
   14e10:	00008067          	ret
   14e14:	00450693          	addi	a3,a0,4
   14e18:	01a50593          	addi	a1,a0,26
   14e1c:	00000713          	li	a4,0
   14e20:	0080006f          	j	14e28 <enormlz+0x158>
   14e24:	0006d783          	lhu	a5,0(a3)
   14e28:	0087d61b          	srliw	a2,a5,0x8
   14e2c:	00c76733          	or	a4,a4,a2
   14e30:	0087979b          	slliw	a5,a5,0x8
   14e34:	00e69023          	sh	a4,0(a3)
   14e38:	03079713          	slli	a4,a5,0x30
   14e3c:	00268693          	addi	a3,a3,2
   14e40:	03075713          	srli	a4,a4,0x30
   14e44:	feb690e3          	bne	a3,a1,14e24 <enormlz+0x154>
   14e48:	0044d783          	lhu	a5,4(s1)
   14e4c:	ff800413          	li	s0,-8
   14e50:	f89ff06f          	j	14dd8 <enormlz+0x108>

0000000000014e54 <emdnorm>:
   14e54:	fc010113          	addi	sp,sp,-64
   14e58:	02813823          	sd	s0,48(sp)
   14e5c:	02913423          	sd	s1,40(sp)
   14e60:	03213023          	sd	s2,32(sp)
   14e64:	01313c23          	sd	s3,24(sp)
   14e68:	01413823          	sd	s4,16(sp)
   14e6c:	01513423          	sd	s5,8(sp)
   14e70:	00068913          	mv	s2,a3
   14e74:	00078493          	mv	s1,a5
   14e78:	02113c23          	sd	ra,56(sp)
   14e7c:	00050413          	mv	s0,a0
   14e80:	00058993          	mv	s3,a1
   14e84:	00060a13          	mv	s4,a2
   14e88:	00070a93          	mv	s5,a4
   14e8c:	e45ff0ef          	jal	ra,14cd0 <enormlz>
   14e90:	09000793          	li	a5,144
   14e94:	40a90933          	sub	s2,s2,a0
   14e98:	08a7d063          	bge	a5,a0,14f18 <emdnorm+0xc4>
   14e9c:	000087b7          	lui	a5,0x8
   14ea0:	ffe78793          	addi	a5,a5,-2 # 7ffe <register_fini-0x80b2>
   14ea4:	2527d063          	bge	a5,s2,150e4 <emdnorm+0x290>
   14ea8:	200a8a63          	beqz	s5,150bc <emdnorm+0x268>
   14eac:	0044a503          	lw	a0,4(s1)
   14eb0:	0004a783          	lw	a5,0(s1)
   14eb4:	10a78263          	beq	a5,a0,14fb8 <emdnorm+0x164>
   14eb8:	01a48713          	addi	a4,s1,26
   14ebc:	03448793          	addi	a5,s1,52
   14ec0:	00270713          	addi	a4,a4,2
   14ec4:	fe071f23          	sh	zero,-2(a4)
   14ec8:	fef71ce3          	bne	a4,a5,14ec0 <emdnorm+0x6c>
   14ecc:	03800793          	li	a5,56
   14ed0:	38f50c63          	beq	a0,a5,15268 <emdnorm+0x414>
   14ed4:	06a7d463          	bge	a5,a0,14f3c <emdnorm+0xe8>
   14ed8:	04000793          	li	a5,64
   14edc:	32f50263          	beq	a0,a5,15200 <emdnorm+0x3ac>
   14ee0:	07100793          	li	a5,113
   14ee4:	34f51663          	bne	a0,a5,15230 <emdnorm+0x3dc>
   14ee8:	00a00793          	li	a5,10
   14eec:	40008737          	lui	a4,0x40008
   14ef0:	fff7071b          	addiw	a4,a4,-1
   14ef4:	02079793          	slli	a5,a5,0x20
   14ef8:	00a78793          	addi	a5,a5,10
   14efc:	00e4aa23          	sw	a4,20(s1)
   14f00:	ffff8737          	lui	a4,0xffff8
   14f04:	00e49c23          	sh	a4,24(s1)
   14f08:	00f4b423          	sd	a5,8(s1)
   14f0c:	00008737          	lui	a4,0x8
   14f10:	00a00793          	li	a5,10
   14f14:	06c0006f          	j	14f80 <emdnorm+0x12c>
   14f18:	20095663          	bgez	s2,15124 <emdnorm+0x2d0>
   14f1c:	f7000793          	li	a5,-144
   14f20:	1cf95e63          	bge	s2,a5,150fc <emdnorm+0x2a8>
   14f24:	00240793          	addi	a5,s0,2
   14f28:	01a40413          	addi	s0,s0,26
   14f2c:	00278793          	addi	a5,a5,2
   14f30:	fe079f23          	sh	zero,-2(a5)
   14f34:	fe879ce3          	bne	a5,s0,14f2c <emdnorm+0xd8>
   14f38:	1600006f          	j	15098 <emdnorm+0x244>
   14f3c:	01800793          	li	a5,24
   14f40:	28f50863          	beq	a0,a5,151d0 <emdnorm+0x37c>
   14f44:	03500793          	li	a5,53
   14f48:	2ef51463          	bne	a0,a5,15230 <emdnorm+0x3dc>
   14f4c:	04000737          	lui	a4,0x4000
   14f50:	7ff7071b          	addiw	a4,a4,2047
   14f54:	00600793          	li	a5,6
   14f58:	00e4aa23          	sw	a4,20(s1)
   14f5c:	00001737          	lui	a4,0x1
   14f60:	8007071b          	addiw	a4,a4,-2048
   14f64:	02079793          	slli	a5,a5,0x20
   14f68:	00678793          	addi	a5,a5,6
   14f6c:	00e49c23          	sh	a4,24(s1)
   14f70:	00001737          	lui	a4,0x1
   14f74:	00f4b423          	sd	a5,8(s1)
   14f78:	80070713          	addi	a4,a4,-2048 # 800 <register_fini-0xf8b0>
   14f7c:	00600793          	li	a5,6
   14f80:	00878793          	addi	a5,a5,8
   14f84:	00179793          	slli	a5,a5,0x1
   14f88:	00f487b3          	add	a5,s1,a5
   14f8c:	00e79523          	sh	a4,10(a5)
   14f90:	00a4a023          	sw	a0,0(s1)
   14f94:	03204263          	bgtz	s2,14fb8 <emdnorm+0x164>
   14f98:	09000793          	li	a5,144
   14f9c:	20f50663          	beq	a0,a5,151a8 <emdnorm+0x354>
   14fa0:	01845783          	lhu	a5,24(s0)
   14fa4:	00040513          	mv	a0,s0
   14fa8:	0017f793          	andi	a5,a5,1
   14fac:	00f9e9b3          	or	s3,s3,a5
   14fb0:	ec0ff0ef          	jal	ra,14670 <eshdn1>
   14fb4:	0044a503          	lw	a0,4(s1)
   14fb8:	0084a683          	lw	a3,8(s1)
   14fbc:	0144d603          	lhu	a2,20(s1)
   14fc0:	08f00793          	li	a5,143
   14fc4:	00169713          	slli	a4,a3,0x1
   14fc8:	00e40833          	add	a6,s0,a4
   14fcc:	00085883          	lhu	a7,0(a6) # ffffffffffff8000 <__BSS_END__+0xfffffffffffd39b0>
   14fd0:	00c8f5b3          	and	a1,a7,a2
   14fd4:	04a7c863          	blt	a5,a0,15024 <emdnorm+0x1d0>
   14fd8:	00b00793          	li	a5,11
   14fdc:	04d7c463          	blt	a5,a3,15024 <emdnorm+0x1d0>
   14fe0:	40d787bb          	subw	a5,a5,a3
   14fe4:	02079793          	slli	a5,a5,0x20
   14fe8:	0207d793          	srli	a5,a5,0x20
   14fec:	00d787b3          	add	a5,a5,a3
   14ff0:	00179693          	slli	a3,a5,0x1
   14ff4:	00270713          	addi	a4,a4,2
   14ff8:	00440793          	addi	a5,s0,4
   14ffc:	00e40733          	add	a4,s0,a4
   15000:	00f687b3          	add	a5,a3,a5
   15004:	00075683          	lhu	a3,0(a4)
   15008:	00068463          	beqz	a3,15010 <emdnorm+0x1bc>
   1500c:	0015e593          	ori	a1,a1,1
   15010:	00071023          	sh	zero,0(a4)
   15014:	00270713          	addi	a4,a4,2
   15018:	fee796e3          	bne	a5,a4,15004 <emdnorm+0x1b0>
   1501c:	00085883          	lhu	a7,0(a6)
   15020:	0144d603          	lhu	a2,20(s1)
   15024:	fff64613          	not	a2,a2
   15028:	01167633          	and	a2,a2,a7
   1502c:	00c81023          	sh	a2,0(a6)
   15030:	0164d783          	lhu	a5,22(s1)
   15034:	00b7f733          	and	a4,a5,a1
   15038:	04070063          	beqz	a4,15078 <emdnorm+0x224>
   1503c:	12b78263          	beq	a5,a1,15160 <emdnorm+0x30c>
   15040:	03248613          	addi	a2,s1,50
   15044:	01840713          	addi	a4,s0,24
   15048:	01c48493          	addi	s1,s1,28
   1504c:	00000693          	li	a3,0
   15050:	00065783          	lhu	a5,0(a2)
   15054:	00075583          	lhu	a1,0(a4)
   15058:	ffe70713          	addi	a4,a4,-2
   1505c:	ffe60613          	addi	a2,a2,-2
   15060:	00b787b3          	add	a5,a5,a1
   15064:	00d787b3          	add	a5,a5,a3
   15068:	00f71123          	sh	a5,2(a4)
   1506c:	0107d793          	srli	a5,a5,0x10
   15070:	0017f693          	andi	a3,a5,1
   15074:	fc961ee3          	bne	a2,s1,15050 <emdnorm+0x1fc>
   15078:	11205663          	blez	s2,15184 <emdnorm+0x330>
   1507c:	00445783          	lhu	a5,4(s0)
   15080:	0a079c63          	bnez	a5,15138 <emdnorm+0x2e4>
   15084:	000087b7          	lui	a5,0x8
   15088:	00041c23          	sh	zero,24(s0)
   1508c:	ffe78793          	addi	a5,a5,-2 # 7ffe <register_fini-0x80b2>
   15090:	0327c863          	blt	a5,s2,150c0 <emdnorm+0x26c>
   15094:	01241123          	sh	s2,2(s0)
   15098:	03813083          	ld	ra,56(sp)
   1509c:	03013403          	ld	s0,48(sp)
   150a0:	02813483          	ld	s1,40(sp)
   150a4:	02013903          	ld	s2,32(sp)
   150a8:	01813983          	ld	s3,24(sp)
   150ac:	01013a03          	ld	s4,16(sp)
   150b0:	00813a83          	ld	s5,8(sp)
   150b4:	04010113          	addi	sp,sp,64
   150b8:	00008067          	ret
   150bc:	00041c23          	sh	zero,24(s0)
   150c0:	ffff87b7          	lui	a5,0xffff8
   150c4:	fff7c793          	not	a5,a5
   150c8:	00f41123          	sh	a5,2(s0)
   150cc:	00440793          	addi	a5,s0,4
   150d0:	01840413          	addi	s0,s0,24
   150d4:	00079023          	sh	zero,0(a5) # ffffffffffff8000 <__BSS_END__+0xfffffffffffd39b0>
   150d8:	00278793          	addi	a5,a5,2
   150dc:	fef41ce3          	bne	s0,a5,150d4 <emdnorm+0x280>
   150e0:	fb9ff06f          	j	15098 <emdnorm+0x244>
   150e4:	00240793          	addi	a5,s0,2
   150e8:	01a40413          	addi	s0,s0,26
   150ec:	00278793          	addi	a5,a5,2
   150f0:	fe079f23          	sh	zero,-2(a5)
   150f4:	fe879ce3          	bne	a5,s0,150ec <emdnorm+0x298>
   150f8:	fa1ff06f          	j	15098 <emdnorm+0x244>
   150fc:	0009059b          	sext.w	a1,s2
   15100:	00040513          	mv	a0,s0
   15104:	a21ff0ef          	jal	ra,14b24 <eshift.part.3>
   15108:	00050463          	beqz	a0,15110 <emdnorm+0x2bc>
   1510c:	00100993          	li	s3,1
   15110:	0a0a8a63          	beqz	s5,151c4 <emdnorm+0x370>
   15114:	0044a503          	lw	a0,4(s1)
   15118:	0004a783          	lw	a5,0(s1)
   1511c:	d8a79ee3          	bne	a5,a0,14eb8 <emdnorm+0x64>
   15120:	e79ff06f          	j	14f98 <emdnorm+0x144>
   15124:	f60a80e3          	beqz	s5,15084 <emdnorm+0x230>
   15128:	0044a503          	lw	a0,4(s1)
   1512c:	0004a783          	lw	a5,0(s1)
   15130:	d8a794e3          	bne	a5,a0,14eb8 <emdnorm+0x64>
   15134:	e61ff06f          	j	14f94 <emdnorm+0x140>
   15138:	00040513          	mv	a0,s0
   1513c:	d34ff0ef          	jal	ra,14670 <eshdn1>
   15140:	000087b7          	lui	a5,0x8
   15144:	00190913          	addi	s2,s2,1
   15148:	00041c23          	sh	zero,24(s0)
   1514c:	ffe78793          	addi	a5,a5,-2 # 7ffe <register_fini-0x80b2>
   15150:	f727c8e3          	blt	a5,s2,150c0 <emdnorm+0x26c>
   15154:	f40950e3          	bgez	s2,15094 <emdnorm+0x240>
   15158:	00041123          	sh	zero,2(s0)
   1515c:	f3dff06f          	j	15098 <emdnorm+0x244>
   15160:	10099063          	bnez	s3,15260 <emdnorm+0x40c>
   15164:	00c4a783          	lw	a5,12(s1)
   15168:	0184d703          	lhu	a4,24(s1)
   1516c:	00179793          	slli	a5,a5,0x1
   15170:	00f407b3          	add	a5,s0,a5
   15174:	0007d783          	lhu	a5,0(a5)
   15178:	00e7f7b3          	and	a5,a5,a4
   1517c:	ec0792e3          	bnez	a5,15040 <emdnorm+0x1ec>
   15180:	ef204ee3          	bgtz	s2,1507c <emdnorm+0x228>
   15184:	09000793          	li	a5,144
   15188:	00f50663          	beq	a0,a5,15194 <emdnorm+0x340>
   1518c:	00040513          	mv	a0,s0
   15190:	d48ff0ef          	jal	ra,146d8 <eshup1>
   15194:	00445783          	lhu	a5,4(s0)
   15198:	fa0790e3          	bnez	a5,15138 <emdnorm+0x2e4>
   1519c:	00041c23          	sh	zero,24(s0)
   151a0:	fa094ce3          	bltz	s2,15158 <emdnorm+0x304>
   151a4:	ef1ff06f          	j	15094 <emdnorm+0x240>
   151a8:	0084a803          	lw	a6,8(s1)
   151ac:	0144d603          	lhu	a2,20(s1)
   151b0:	00181813          	slli	a6,a6,0x1
   151b4:	01040833          	add	a6,s0,a6
   151b8:	00085883          	lhu	a7,0(a6)
   151bc:	011675b3          	and	a1,a2,a7
   151c0:	e65ff06f          	j	15024 <emdnorm+0x1d0>
   151c4:	00041c23          	sh	zero,24(s0)
   151c8:	00041123          	sh	zero,2(s0)
   151cc:	ecdff06f          	j	15098 <emdnorm+0x244>
   151d0:	00400793          	li	a5,4
   151d4:	00800737          	lui	a4,0x800
   151d8:	0ff7071b          	addiw	a4,a4,255
   151dc:	02079793          	slli	a5,a5,0x20
   151e0:	00478793          	addi	a5,a5,4
   151e4:	00e4aa23          	sw	a4,20(s1)
   151e8:	10000713          	li	a4,256
   151ec:	00e49c23          	sh	a4,24(s1)
   151f0:	00f4b423          	sd	a5,8(s1)
   151f4:	10000713          	li	a4,256
   151f8:	00400793          	li	a5,4
   151fc:	d85ff06f          	j	14f80 <emdnorm+0x12c>
   15200:	00300793          	li	a5,3
   15204:	80010737          	lui	a4,0x80010
   15208:	fff7071b          	addiw	a4,a4,-1
   1520c:	02179793          	slli	a5,a5,0x21
   15210:	00778793          	addi	a5,a5,7
   15214:	00e4aa23          	sw	a4,20(s1)
   15218:	00100713          	li	a4,1
   1521c:	00e49c23          	sh	a4,24(s1)
   15220:	00f4b423          	sd	a5,8(s1)
   15224:	00100713          	li	a4,1
   15228:	00600793          	li	a5,6
   1522c:	d55ff06f          	j	14f80 <emdnorm+0x12c>
   15230:	00b00793          	li	a5,11
   15234:	80010737          	lui	a4,0x80010
   15238:	fff7071b          	addiw	a4,a4,-1
   1523c:	02079793          	slli	a5,a5,0x20
   15240:	00c78793          	addi	a5,a5,12
   15244:	00e4aa23          	sw	a4,20(s1)
   15248:	00100713          	li	a4,1
   1524c:	00e49c23          	sh	a4,24(s1)
   15250:	00f4b423          	sd	a5,8(s1)
   15254:	00100713          	li	a4,1
   15258:	00b00793          	li	a5,11
   1525c:	d25ff06f          	j	14f80 <emdnorm+0x12c>
   15260:	de0a00e3          	beqz	s4,15040 <emdnorm+0x1ec>
   15264:	e15ff06f          	j	15078 <emdnorm+0x224>
   15268:	00600793          	li	a5,6
   1526c:	00800737          	lui	a4,0x800
   15270:	0ff7071b          	addiw	a4,a4,255
   15274:	02079793          	slli	a5,a5,0x20
   15278:	00678793          	addi	a5,a5,6
   1527c:	00e4aa23          	sw	a4,20(s1)
   15280:	10000713          	li	a4,256
   15284:	00e49c23          	sh	a4,24(s1)
   15288:	00f4b423          	sd	a5,8(s1)
   1528c:	10000713          	li	a4,256
   15290:	00600793          	li	a5,6
   15294:	cedff06f          	j	14f80 <emdnorm+0x12c>

0000000000015298 <eiremain>:
   15298:	fa010113          	addi	sp,sp,-96
   1529c:	03313c23          	sd	s3,56(sp)
   152a0:	00255983          	lhu	s3,2(a0)
   152a4:	04913423          	sd	s1,72(sp)
   152a8:	00058493          	mv	s1,a1
   152ac:	04113c23          	sd	ra,88(sp)
   152b0:	04813823          	sd	s0,80(sp)
   152b4:	05213023          	sd	s2,64(sp)
   152b8:	03413823          	sd	s4,48(sp)
   152bc:	00060913          	mv	s2,a2
   152c0:	03513423          	sd	s5,40(sp)
   152c4:	03613023          	sd	s6,32(sp)
   152c8:	01713c23          	sd	s7,24(sp)
   152cc:	01813823          	sd	s8,16(sp)
   152d0:	01913423          	sd	s9,8(sp)
   152d4:	01a13023          	sd	s10,0(sp)
   152d8:	00050a13          	mv	s4,a0
   152dc:	9f5ff0ef          	jal	ra,14cd0 <enormlz>
   152e0:	0024d403          	lhu	s0,2(s1)
   152e4:	40a989b3          	sub	s3,s3,a0
   152e8:	00048513          	mv	a0,s1
   152ec:	9e5ff0ef          	jal	ra,14cd0 <enormlz>
   152f0:	03490a93          	addi	s5,s2,52
   152f4:	40a40433          	sub	s0,s0,a0
   152f8:	04e90713          	addi	a4,s2,78
   152fc:	000a8793          	mv	a5,s5
   15300:	00278793          	addi	a5,a5,2
   15304:	fe079f23          	sh	zero,-2(a5)
   15308:	fee79ce3          	bne	a5,a4,15300 <eiremain+0x68>
   1530c:	09344a63          	blt	s0,s3,153a0 <eiremain+0x108>
   15310:	004a0b93          	addi	s7,s4,4
   15314:	00448b13          	addi	s6,s1,4
   15318:	fff98993          	addi	s3,s3,-1
   1531c:	01aa0c93          	addi	s9,s4,26
   15320:	00248c13          	addi	s8,s1,2
   15324:	000b0713          	mv	a4,s6
   15328:	000b8793          	mv	a5,s7
   1532c:	00278793          	addi	a5,a5,2
   15330:	00270713          	addi	a4,a4,2 # 800002 <__BSS_END__+0x7db9b2>
   15334:	ffe7d603          	lhu	a2,-2(a5)
   15338:	ffe75683          	lhu	a3,-2(a4)
   1533c:	0ad61a63          	bne	a2,a3,153f0 <eiremain+0x158>
   15340:	fefc96e3          	bne	s9,a5,1532c <eiremain+0x94>
   15344:	018a0693          	addi	a3,s4,24
   15348:	01848713          	addi	a4,s1,24
   1534c:	00000613          	li	a2,0
   15350:	00075783          	lhu	a5,0(a4)
   15354:	0006d583          	lhu	a1,0(a3)
   15358:	ffe70713          	addi	a4,a4,-2
   1535c:	40c787b3          	sub	a5,a5,a2
   15360:	40b787b3          	sub	a5,a5,a1
   15364:	00f71123          	sh	a5,2(a4)
   15368:	0107d793          	srli	a5,a5,0x10
   1536c:	ffe68693          	addi	a3,a3,-2
   15370:	0017f613          	andi	a2,a5,1
   15374:	fcec1ee3          	bne	s8,a4,15350 <eiremain+0xb8>
   15378:	00100d13          	li	s10,1
   1537c:	000a8513          	mv	a0,s5
   15380:	b58ff0ef          	jal	ra,146d8 <eshup1>
   15384:	04c95783          	lhu	a5,76(s2)
   15388:	fff40413          	addi	s0,s0,-1
   1538c:	00048513          	mv	a0,s1
   15390:	00fd6d33          	or	s10,s10,a5
   15394:	05a91623          	sh	s10,76(s2)
   15398:	b40ff0ef          	jal	ra,146d8 <eshup1>
   1539c:	f93414e3          	bne	s0,s3,15324 <eiremain+0x8c>
   153a0:	00040693          	mv	a3,s0
   153a4:	05013403          	ld	s0,80(sp)
   153a8:	05813083          	ld	ra,88(sp)
   153ac:	03813983          	ld	s3,56(sp)
   153b0:	03013a03          	ld	s4,48(sp)
   153b4:	02813a83          	ld	s5,40(sp)
   153b8:	02013b03          	ld	s6,32(sp)
   153bc:	01813b83          	ld	s7,24(sp)
   153c0:	01013c03          	ld	s8,16(sp)
   153c4:	00813c83          	ld	s9,8(sp)
   153c8:	00013d03          	ld	s10,0(sp)
   153cc:	00090793          	mv	a5,s2
   153d0:	00048513          	mv	a0,s1
   153d4:	04013903          	ld	s2,64(sp)
   153d8:	04813483          	ld	s1,72(sp)
   153dc:	00000713          	li	a4,0
   153e0:	00000613          	li	a2,0
   153e4:	00000593          	li	a1,0
   153e8:	06010113          	addi	sp,sp,96
   153ec:	a69ff06f          	j	14e54 <emdnorm>
   153f0:	00000d13          	li	s10,0
   153f4:	f8c6e4e3          	bltu	a3,a2,1537c <eiremain+0xe4>
   153f8:	f4dff06f          	j	15344 <eiremain+0xac>

00000000000153fc <emovo.isra.6>:
   153fc:	00055703          	lhu	a4,0(a0)
   15400:	00255783          	lhu	a5,2(a0)
   15404:	04070263          	beqz	a4,15448 <emovo.isra.6+0x4c>
   15408:	ffff8737          	lui	a4,0xffff8
   1540c:	00e7e7b3          	or	a5,a5,a4
   15410:	00f59923          	sh	a5,18(a1)
   15414:	00255703          	lhu	a4,2(a0)
   15418:	000087b7          	lui	a5,0x8
   1541c:	fff78793          	addi	a5,a5,-1 # 7fff <register_fini-0x80b1>
   15420:	02f70e63          	beq	a4,a5,1545c <emovo.isra.6+0x60>
   15424:	00650793          	addi	a5,a0,6
   15428:	01058593          	addi	a1,a1,16
   1542c:	01850513          	addi	a0,a0,24
   15430:	00278793          	addi	a5,a5,2
   15434:	ffe7d703          	lhu	a4,-2(a5)
   15438:	ffe58593          	addi	a1,a1,-2
   1543c:	00e59123          	sh	a4,2(a1)
   15440:	fea798e3          	bne	a5,a0,15430 <emovo.isra.6+0x34>
   15444:	00008067          	ret
   15448:	00f59923          	sh	a5,18(a1)
   1544c:	00255703          	lhu	a4,2(a0)
   15450:	000087b7          	lui	a5,0x8
   15454:	fff78793          	addi	a5,a5,-1 # 7fff <register_fini-0x80b1>
   15458:	fcf716e3          	bne	a4,a5,15424 <emovo.isra.6+0x28>
   1545c:	00650793          	addi	a5,a0,6
   15460:	01a50513          	addi	a0,a0,26
   15464:	0007d703          	lhu	a4,0(a5)
   15468:	00278793          	addi	a5,a5,2
   1546c:	02071a63          	bnez	a4,154a0 <emovo.isra.6+0xa4>
   15470:	fea79ae3          	bne	a5,a0,15464 <emovo.isra.6+0x68>
   15474:	01258713          	addi	a4,a1,18
   15478:	00058793          	mv	a5,a1
   1547c:	00278793          	addi	a5,a5,2
   15480:	fe079f23          	sh	zero,-2(a5)
   15484:	fef71ce3          	bne	a4,a5,1547c <emovo.isra.6+0x80>
   15488:	0125d783          	lhu	a5,18(a1)
   1548c:	00008737          	lui	a4,0x8
   15490:	fff70713          	addi	a4,a4,-1 # 7fff <register_fini-0x80b1>
   15494:	00e7e7b3          	or	a5,a5,a4
   15498:	00f59923          	sh	a5,18(a1)
   1549c:	00008067          	ret
   154a0:	01058713          	addi	a4,a1,16
   154a4:	00058793          	mv	a5,a1
   154a8:	00278793          	addi	a5,a5,2
   154ac:	fe079f23          	sh	zero,-2(a5)
   154b0:	fee79ce3          	bne	a5,a4,154a8 <emovo.isra.6+0xac>
   154b4:	7fffc7b7          	lui	a5,0x7fffc
   154b8:	00f5a823          	sw	a5,16(a1)
   154bc:	00008067          	ret

00000000000154c0 <emul>:
   154c0:	f4010113          	addi	sp,sp,-192
   154c4:	09513423          	sd	s5,136(sp)
   154c8:	01255a83          	lhu	s5,18(a0)
   154cc:	000087b7          	lui	a5,0x8
   154d0:	fff78793          	addi	a5,a5,-1 # 7fff <register_fini-0x80b1>
   154d4:	0a813823          	sd	s0,176(sp)
   154d8:	0a913423          	sd	s1,168(sp)
   154dc:	0b213023          	sd	s2,160(sp)
   154e0:	09313c23          	sd	s3,152(sp)
   154e4:	09613023          	sd	s6,128(sp)
   154e8:	0a113c23          	sd	ra,184(sp)
   154ec:	09413823          	sd	s4,144(sp)
   154f0:	07713c23          	sd	s7,120(sp)
   154f4:	07813823          	sd	s8,112(sp)
   154f8:	07913423          	sd	s9,104(sp)
   154fc:	0157fb33          	and	s6,a5,s5
   15500:	00050493          	mv	s1,a0
