
example-asm.elf:     file format elf64-littleriscv


Disassembly of section .text:

0000000080000000 <_start>:
    80000000:	ffef51b7          	lui	gp,0xffef5
    80000004:	6df1819b          	addiw	gp,gp,1759
    80000008:	00c19193          	slli	gp,gp,0xc
    8000000c:	77f18193          	addi	gp,gp,1919 # ffffffffffef577f <stack+0xffffffff7fef54df>
    80000010:	00f19193          	slli	gp,gp,0xf
    80000014:	ab718193          	addi	gp,gp,-1353
    80000018:	00e19193          	slli	gp,gp,0xe
    8000001c:	eef18193          	addi	gp,gp,-273
    80000020:	07c0006f          	j	8000009c <_main>

0000000080000024 <_mac>:
    80000024:	02c582b3          	mul	t0,a1,a2
    80000028:	00550533          	add	a0,a0,t0
    8000002c:	00008067          	ret

0000000080000030 <_vmul>:
    80000030:	fd810113          	addi	sp,sp,-40
    80000034:	00113023          	sd	ra,0(sp)
    80000038:	00813423          	sd	s0,8(sp)
    8000003c:	00913823          	sd	s1,16(sp)
    80000040:	01213c23          	sd	s2,24(sp)
    80000044:	03313023          	sd	s3,32(sp)
    80000048:	03413423          	sd	s4,40(sp)
    8000004c:	00050413          	mv	s0,a0
    80000050:	00058493          	mv	s1,a1
    80000054:	00060913          	mv	s2,a2
    80000058:	00050993          	mv	s3,a0
    8000005c:	00000513          	li	a0,0

0000000080000060 <__vmul_mac>:
    80000060:	0004c583          	lbu	a1,0(s1)
    80000064:	00094603          	lbu	a2,0(s2)
    80000068:	fbdff0ef          	jal	ra,80000024 <_mac>
    8000006c:	00148493          	addi	s1,s1,1
    80000070:	01390933          	add	s2,s2,s3
    80000074:	fff40413          	addi	s0,s0,-1
    80000078:	fe0414e3          	bnez	s0,80000060 <__vmul_mac>
    8000007c:	02813a03          	ld	s4,40(sp)
    80000080:	02013983          	ld	s3,32(sp)
    80000084:	01813903          	ld	s2,24(sp)
    80000088:	01013483          	ld	s1,16(sp)
    8000008c:	00813403          	ld	s0,8(sp)
    80000090:	00013083          	ld	ra,0(sp)
    80000094:	02810113          	addi	sp,sp,40
    80000098:	00008067          	ret

000000008000009c <_main>:
    8000009c:	00000117          	auipc	sp,0x0
    800000a0:	20410113          	addi	sp,sp,516 # 800002a0 <stack>
    800000a4:	00000997          	auipc	s3,0x0
    800000a8:	07c9b983          	ld	s3,124(s3) # 80000120 <byte_matrix_row>
    800000ac:	00000a17          	auipc	s4,0x0
    800000b0:	07ca3a03          	ld	s4,124(s4) # 80000128 <byte_matrix_col>
    800000b4:	00000413          	li	s0,0
    800000b8:	00000493          	li	s1,0
    800000bc:	00000913          	li	s2,0

00000000800000c0 <__mmul_col>:
    800000c0:	000a0513          	mv	a0,s4
    800000c4:	00000597          	auipc	a1,0x0
    800000c8:	06c58593          	addi	a1,a1,108 # 80000130 <byte_matrix_a>
    800000cc:	00000617          	auipc	a2,0x0
    800000d0:	07460613          	addi	a2,a2,116 # 80000140 <byte_matrix_b>
    800000d4:	034482b3          	mul	t0,s1,s4
    800000d8:	005585b3          	add	a1,a1,t0
    800000dc:	01260633          	add	a2,a2,s2
    800000e0:	f51ff0ef          	jal	ra,80000030 <_vmul>

00000000800000e4 <_compare>:
    800000e4:	00000297          	auipc	t0,0x0
    800000e8:	06c28293          	addi	t0,t0,108 # 80000150 <ref_result>
    800000ec:	008282b3          	add	t0,t0,s0
    800000f0:	0002e303          	lwu	t1,0(t0)
    800000f4:	00a341b3          	xor	gp,t1,a0
    800000f8:	00019e63          	bnez	gp,80000114 <_exit>
    800000fc:	00440413          	addi	s0,s0,4
    80000100:	00190913          	addi	s2,s2,1
    80000104:	fb494ee3          	blt	s2,s4,800000c0 <__mmul_col>
    80000108:	00148493          	addi	s1,s1,1
    8000010c:	00000913          	li	s2,0
    80000110:	fb34c8e3          	blt	s1,s3,800000c0 <__mmul_col>

0000000080000114 <_exit>:
    80000114:	0000006f          	j	80000114 <_exit>

Disassembly of section .data:

0000000080000120 <byte_matrix_row>:
    80000120:	0004                	0x4
    80000122:	0000                	unimp
    80000124:	0000                	unimp
	...

0000000080000128 <byte_matrix_col>:
    80000128:	0004                	0x4
    8000012a:	0000                	unimp
    8000012c:	0000                	unimp
	...

0000000080000130 <byte_matrix_a>:
    80000130:	d42a                	sw	a0,40(sp)
    80000132:	ac149157          	0xac149157
    80000136:	8739                	srai	a4,a4,0xe
    80000138:	d325                	beqz	a4,80000098 <__vmul_mac+0x38>
    8000013a:	b46cce87          	flq	ft9,-1210(s9)
    8000013e:	          	0x11c82ebb

0000000080000140 <byte_matrix_b>:
    80000140:	11c8                	addi	a0,sp,228
    80000142:	7fa5                	lui	t6,0xfffe9
    80000144:	80ff                	0x80ff
    80000146:	88b2bd87          	fld	fs11,-1909(t0)
    8000014a:	35b1                	addiw	a1,a1,-20
    8000014c:	a3d1                	j	80000710 <stack+0x470>
    8000014e:	af15                	j	80000882 <stack+0x5e2>

0000000080000150 <ref_result>:
    80000150:	0001a6db          	0x1a6db
    80000154:	f755                	bnez	a4,80000100 <_compare+0x1c>
    80000156:	0000                	unimp
    80000158:	d2ea                	sw	s10,100(sp)
    8000015a:	0000                	unimp
    8000015c:	267c                	fld	fa5,200(a2)
    8000015e:	0001                	nop
    80000160:	50cd                	li	ra,-13
    80000162:	0001                	nop
    80000164:	cb91                	beqz	a5,80000178 <ref_result+0x28>
    80000166:	0000                	unimp
    80000168:	9a14                	0x9a14
    8000016a:	0000                	unimp
    8000016c:	f0fe                	sd	t6,96(sp)
    8000016e:	0000                	unimp
    80000170:	f521                	bnez	a0,800000b8 <_main+0x1c>
    80000172:	0001                	nop
    80000174:	000136d7          	0x136d7
    80000178:	0000f55b          	0xf55b
    8000017c:	000156e7          	0x156e7
    80000180:	af40                	fsd	fs0,152(a4)
    80000182:	0001                	nop
    80000184:	e1ce                	sd	s3,192(sp)
    80000186:	0000                	unimp
    80000188:	2999                	addiw	s3,s3,6
    8000018a:	0001                	nop
    8000018c:	00a1                	addi	ra,ra,8
    8000018e:	0001                	nop
	...

00000000800002a0 <stack>:
	...

Disassembly of section .riscv.attributes:

0000000000000000 <.riscv.attributes>:
   0:	2d41                	addiw	s10,s10,16
   2:	0000                	unimp
   4:	7200                	ld	s0,32(a2)
   6:	7369                	lui	t1,0xffffa
   8:	01007663          	bgeu	zero,a6,14 <_start-0x7fffffec>
   c:	00000023          	sb	zero,0(zero) # 0 <_start-0x80000000>
  10:	7205                	lui	tp,0xfffe1
  12:	3676                	fld	fa2,376(sp)
  14:	6934                	ld	a3,80(a0)
  16:	7032                	0x7032
  18:	5f30                	lw	a2,120(a4)
  1a:	326d                	addiw	tp,tp,-5
  1c:	3070                	fld	fa2,224(s0)
  1e:	615f 7032 5f30      	0x5f307032615f
  24:	3266                	fld	ft4,120(sp)
  26:	3070                	fld	fa2,224(s0)
  28:	645f 7032 0030      	0x307032645f
