
example-c.elf:     file format elf64-littleriscv


Disassembly of section .text:

0000000080000000 <main>:
    80000000:	1101                	addi	sp,sp,-32
    80000002:	ec22                	sd	s0,24(sp)
    80000004:	1000                	addi	s0,sp,32
    80000006:	4785                	li	a5,1
    80000008:	fef42023          	sw	a5,-32(s0)
    8000000c:	fe042623          	sw	zero,-20(s0)
    80000010:	a219                	j	80000116 <main+0x116>
    80000012:	fe042423          	sw	zero,-24(s0)
    80000016:	a0e5                	j	800000fe <main+0xfe>
    80000018:	fe842703          	lw	a4,-24(s0)
    8000001c:	fec42683          	lw	a3,-20(s0)
    80000020:	068a                	slli	a3,a3,0x2
    80000022:	9736                	add	a4,a4,a3
    80000024:	070a                	slli	a4,a4,0x2
    80000026:	86018793          	addi	a5,gp,-1952 # 11240 <__global_pointer$-0x7a0>
    8000002a:	97ba                	add	a5,a5,a4
    8000002c:	0007a023          	sw	zero,0(a5)
    80000030:	fe042223          	sw	zero,-28(s0)
    80000034:	a8ad                	j	800000ae <main+0xae>
    80000036:	fe842703          	lw	a4,-24(s0)
    8000003a:	fec42683          	lw	a3,-20(s0)
    8000003e:	068a                	slli	a3,a3,0x2
    80000040:	9736                	add	a4,a4,a3
    80000042:	070a                	slli	a4,a4,0x2
    80000044:	86018793          	addi	a5,gp,-1952 # 11240 <__global_pointer$-0x7a0>
    80000048:	97ba                	add	a5,a5,a4
    8000004a:	4398                	lw	a4,0(a5)
    8000004c:	66c5                	lui	a3,0x11
    8000004e:	fe442783          	lw	a5,-28(s0)
    80000052:	fec42603          	lw	a2,-20(s0)
    80000056:	060a                	slli	a2,a2,0x2
    80000058:	1e068693          	addi	a3,a3,480 # 111e0 <__global_pointer$-0x800>
    8000005c:	96b2                	add	a3,a3,a2
    8000005e:	97b6                	add	a5,a5,a3
    80000060:	0007c783          	lbu	a5,0(a5)
    80000064:	0007869b          	sext.w	a3,a5
    80000068:	6645                	lui	a2,0x11
    8000006a:	fe442783          	lw	a5,-28(s0)
    8000006e:	fe842583          	lw	a1,-24(s0)
    80000072:	058a                	slli	a1,a1,0x2
    80000074:	1f060613          	addi	a2,a2,496 # 111f0 <__global_pointer$-0x7f0>
    80000078:	962e                	add	a2,a2,a1
    8000007a:	97b2                	add	a5,a5,a2
    8000007c:	0007c783          	lbu	a5,0(a5)
    80000080:	2781                	sext.w	a5,a5
    80000082:	02f687bb          	mulw	a5,a3,a5
    80000086:	2781                	sext.w	a5,a5
    80000088:	9fb9                	addw	a5,a5,a4
    8000008a:	0007871b          	sext.w	a4,a5
    8000008e:	fe842683          	lw	a3,-24(s0)
    80000092:	fec42603          	lw	a2,-20(s0)
    80000096:	060a                	slli	a2,a2,0x2
    80000098:	96b2                	add	a3,a3,a2
    8000009a:	068a                	slli	a3,a3,0x2
    8000009c:	86018793          	addi	a5,gp,-1952 # 11240 <__global_pointer$-0x7a0>
    800000a0:	97b6                	add	a5,a5,a3
    800000a2:	c398                	sw	a4,0(a5)
    800000a4:	fe442783          	lw	a5,-28(s0)
    800000a8:	2785                	addiw	a5,a5,1
    800000aa:	fef42223          	sw	a5,-28(s0)
    800000ae:	fe442783          	lw	a5,-28(s0)
    800000b2:	0007871b          	sext.w	a4,a5
    800000b6:	478d                	li	a5,3
    800000b8:	f6e7dfe3          	bge	a5,a4,80000036 <main+0x36>
    800000bc:	fe842703          	lw	a4,-24(s0)
    800000c0:	fec42683          	lw	a3,-20(s0)
    800000c4:	068a                	slli	a3,a3,0x2
    800000c6:	9736                	add	a4,a4,a3
    800000c8:	070a                	slli	a4,a4,0x2
    800000ca:	86018793          	addi	a5,gp,-1952 # 11240 <__global_pointer$-0x7a0>
    800000ce:	97ba                	add	a5,a5,a4
    800000d0:	4390                	lw	a2,0(a5)
    800000d2:	67c5                	lui	a5,0x11
    800000d4:	fe842703          	lw	a4,-24(s0)
    800000d8:	fec42683          	lw	a3,-20(s0)
    800000dc:	068a                	slli	a3,a3,0x2
    800000de:	9736                	add	a4,a4,a3
    800000e0:	070a                	slli	a4,a4,0x2
    800000e2:	20078793          	addi	a5,a5,512 # 11200 <__global_pointer$-0x7e0>
    800000e6:	97ba                	add	a5,a5,a4
    800000e8:	439c                	lw	a5,0(a5)
    800000ea:	8732                	mv	a4,a2
    800000ec:	00f70463          	beq	a4,a5,800000f4 <main+0xf4>
    800000f0:	fe042023          	sw	zero,-32(s0)
    800000f4:	fe842783          	lw	a5,-24(s0)
    800000f8:	2785                	addiw	a5,a5,1
    800000fa:	fef42423          	sw	a5,-24(s0)
    800000fe:	fe842783          	lw	a5,-24(s0)
    80000102:	0007871b          	sext.w	a4,a5
    80000106:	478d                	li	a5,3
    80000108:	f0e7d8e3          	bge	a5,a4,80000018 <main+0x18>
    8000010c:	fec42783          	lw	a5,-20(s0)
    80000110:	2785                	addiw	a5,a5,1
    80000112:	fef42623          	sw	a5,-20(s0)
    80000116:	fec42783          	lw	a5,-20(s0)
    8000011a:	0007871b          	sext.w	a4,a5
    8000011e:	478d                	li	a5,3
    80000120:	eee7d9e3          	bge	a5,a4,80000012 <main+0x12>
    80000124:	4781                	li	a5,0
    80000126:	853e                	mv	a0,a5
    80000128:	6462                	ld	s0,24(sp)
    8000012a:	6105                	addi	sp,sp,32
    8000012c:	8082                	ret
